###############################################################################
#                                                                             #
# IAR ANSI C/C++ Compiler V6.10.1.52143/W32 for ARM     19/Jan/2012  11:08:57 #
# Copyright 1999-2010 IAR Systems AB.                                         #
#                                                                             #
#    Cpu mode     =  thumb                                                    #
#    Endian       =  little                                                   #
#    Source file  =  F:\Work\S&G2000\Firmware\DTG_EMS_SYSTEM\Project\Eeprom.c #
#    Command line =  F:\Work\S&G2000\Firmware\DTG_EMS_SYSTEM\Project\Eeprom.c #
#                     -D USE_STDPERIPH_DRIVER -D STM32F2XX -D                 #
#                    USE_STM3220F_EVAL -D USE_USB_OTG_FS -D                   #
#                    RTC_CLOCK_SOURCE_LSE -lC F:\Work\S&G2000\Firmware\DTG_EM #
#                    S_SYSTEM\Project\EWARM\STM3220F_EVAL\List\ -lA           #
#                    F:\Work\S&G2000\Firmware\DTG_EMS_SYSTEM\Project\EWARM\ST #
#                    M3220F_EVAL\List\ -o F:\Work\S&G2000\Firmware\DTG_EMS_SY #
#                    STEM\Project\EWARM\STM3220F_EVAL\Obj\ --no_cse           #
#                    --no_unroll --no_inline --no_code_motion --no_tbaa       #
#                    --no_clustering --no_scheduling --debug --endian=little  #
#                    --cpu=Cortex-M3 -e --fpu=None --dlib_config "C:\Program  #
#                    Files\IAR Systems\Embedded Workbench                     #
#                    6.0\arm\INC\c\DLib_Config_Full.h" -I                     #
#                    F:\Work\S&G2000\Firmware\DTG_EMS_SYSTEM\Project\EWARM\.. #
#                    \ -I F:\Work\S&G2000\Firmware\DTG_EMS_SYSTEM\Project\EWA #
#                    RM\..\..\Libraries\CMSIS\CM3\CoreSupport\ -I             #
#                    F:\Work\S&G2000\Firmware\DTG_EMS_SYSTEM\Project\EWARM\.. #
#                    \..\Libraries\CMSIS\CM3\DeviceSupport\ST\STM32F2xx\ -I   #
#                    F:\Work\S&G2000\Firmware\DTG_EMS_SYSTEM\Project\EWARM\.. #
#                    \..\Libraries\STM32F2xx_StdPeriph_Driver\inc\ -I         #
#                    F:\Work\S&G2000\Firmware\DTG_EMS_SYSTEM\Project\EWARM\.. #
#                    \..\Utilities\STM32_EVAL\ -I                             #
#                    F:\Work\S&G2000\Firmware\DTG_EMS_SYSTEM\Project\EWARM\.. #
#                    \..\Utilities\STM32_EVAL\Common\ -I                      #
#                    F:\Work\S&G2000\Firmware\DTG_EMS_SYSTEM\Project\EWARM\.. #
#                    \..\Utilities\STM32_EVAL\STM3220F_EVAL\ -I               #
#                    F:\Work\S&G2000\Firmware\DTG_EMS_SYSTEM\Project\EWARM\.. #
#                    \..\Libraries\STM32_USB_OTG_Driver\inc\ -I               #
#                    F:\Work\S&G2000\Firmware\DTG_EMS_SYSTEM\Project\EWARM\.. #
#                    \..\Libraries\STM32_USB_Device_Library\Core\inc\ -I      #
#                    F:\Work\S&G2000\Firmware\DTG_EMS_SYSTEM\Project\EWARM\.. #
#                    \..\Libraries\STM32_USB_Device_Library\Class\msc\inc\    #
#                    -I F:\Work\S&G2000\Firmware\DTG_EMS_SYSTEM\Project\EWARM #
#                    \..\Usb\ -I F:\Work\S&G2000\Firmware\DTG_EMS_SYSTEM\Proj #
#                    ect\EWARM\..\Usb\Inc\ -I F:\Work\S&G2000\Firmware\DTG_EM #
#                    S_SYSTEM\Project\EWARM\..\Usb\src\ -I                    #
#                    F:\Work\S&G2000\Firmware\DTG_EMS_SYSTEM\Project\EWARM\.. #
#                    \..\Libraries\STM32_USB_HOST_Library\Core\inc\ -I        #
#                    F:\Work\S&G2000\Firmware\DTG_EMS_SYSTEM\Project\EWARM\.. #
#                    \..\Libraries\STM32_USB_HOST_Library\Class\MSC\inc\ -I   #
#                    F:\Work\S&G2000\Firmware\DTG_EMS_SYSTEM\Project\EWARM\.. #
#                    \..\Libraries\STM32_USB_Device_Library\Class\cdc\inc\    #
#                    -Ol --use_c++_inline                                     #
#    List file    =  F:\Work\S&G2000\Firmware\DTG_EMS_SYSTEM\Project\EWARM\ST #
#                    M3220F_EVAL\List\Eeprom.lst                              #
#    Object file  =  F:\Work\S&G2000\Firmware\DTG_EMS_SYSTEM\Project\EWARM\ST #
#                    M3220F_EVAL\Obj\Eeprom.o                                 #
#                                                                             #
#                                                                             #
###############################################################################

F:\Work\S&G2000\Firmware\DTG_EMS_SYSTEM\Project\Eeprom.c
      1          #include "Eeprom.h"
      2          #include "main.h"

   \                                 In section .text, align 2
   \   __intrinsic __interwork __softfp void *memcpy(void *, void const *, size_t)
   \                     memcpy:
   \   00000000   10B5               PUSH     {R4,LR}
   \   00000002   0400               MOVS     R4,R0
   \   00000004   2000               MOVS     R0,R4
   \   00000006   ........           BL       __aeabi_memcpy
   \   0000000A   2000               MOVS     R0,R4
   \   0000000C   10BD               POP      {R4,PC}          ;; return

   \                                 In section .text, align 2
   \   __intrinsic __interwork __softfp void *memset(void *, int, size_t)
   \                     memset:
   \   00000000   10B5               PUSH     {R4,LR}
   \   00000002   0400               MOVS     R4,R0
   \   00000004   1000               MOVS     R0,R2
   \   00000006   0A00               MOVS     R2,R1
   \   00000008   0100               MOVS     R1,R0
   \   0000000A   2000               MOVS     R0,R4
   \   0000000C   ........           BL       __aeabi_memset
   \   00000010   2000               MOVS     R0,R4
   \   00000012   10BD               POP      {R4,PC}          ;; return
      3          #ifdef DEBUG_LOG
      4          #include "Log.h"
      5          #endif
      6          #include "spi_flash.h"
      7          #include "Ems_System.h"
      8          #include "nand_if.h"
      9          #include "DAC_Control.h"
     10          
     11          

   \                                 In section .text, align 2, keep-with-next
     12          u8 Verify_SFLASH(void)
     13          {
   \                     Verify_SFLASH:
   \   00000000   00B5               PUSH     {LR}
   \   00000002   ADB0               SUB      SP,SP,#+180
     14          	struct _SERIALFLASH_Data Verify_Memroy;
     15          	
     16               memset(&Verify_Memroy,0,sizeof(struct _SERIALFLASH_Data));
   \   00000004   B222               MOVS     R2,#+178
   \   00000006   0021               MOVS     R1,#+0
   \   00000008   00A8               ADD      R0,SP,#+0
   \   0000000A   ........           BL       memset
     17               memset(Buffer,0,sizeof(Buffer));
   \   0000000E   4FF40072           MOV      R2,#+512
   \   00000012   0021               MOVS     R1,#+0
   \   00000014   ........           LDR.W    R0,??DataTable18
   \   00000018   ........           BL       memset
     18               
     19          	sFLASH_ReadBuffer(Buffer, SFLASH_ReadAddress1, sizeof(struct _SERIALFLASH_Data) );   
   \   0000001C   B222               MOVS     R2,#+178
   \   0000001E   5FF48031           MOVS     R1,#+65536
   \   00000022   ........           LDR.W    R0,??DataTable18
   \   00000026   ........           BL       sFLASH_ReadBuffer
     20          	memcpy(&Verify_Memroy,&Buffer, sizeof(struct _SERIALFLASH_Data));    
   \   0000002A   B222               MOVS     R2,#+178
   \   0000002C   ........           LDR.W    R1,??DataTable18
   \   00000030   00A8               ADD      R0,SP,#+0
   \   00000032   ........           BL       memcpy
     21          	
     22          	if(! memcmp( &Verify_Memroy, &SFLASH_Memory, sizeof(struct _SERIALFLASH_Data) ) )
   \   00000036   B222               MOVS     R2,#+178
   \   00000038   ........           LDR.W    R1,??DataTable18_1
   \   0000003C   00A8               ADD      R0,SP,#+0
   \   0000003E   ........           BL       memcmp
   \   00000042   0028               CMP      R0,#+0
   \   00000044   01D1               BNE.N    ??Verify_SFLASH_0
     23          	{
     24          		return 1;   // 두개가 같으면  트루
   \   00000046   0120               MOVS     R0,#+1
   \   00000048   00E0               B.N      ??Verify_SFLASH_1
     25          	}
     26          	
     27          	return 0;
   \                     ??Verify_SFLASH_0:
   \   0000004A   0020               MOVS     R0,#+0
   \                     ??Verify_SFLASH_1:
   \   0000004C   2DB0               ADD      SP,SP,#+180
   \   0000004E   00BD               POP      {PC}             ;; return
     28          }
     29          

   \                                 In section .text, align 2, keep-with-next
     30          void Save_LookupTable(void)
     31          {	
   \                     Save_LookupTable:
   \   00000000   80B5               PUSH     {R7,LR}
     32          	memcpy(Buffer,&LookUpTable, sizeof(LookUpTable));
   \   00000002   41F23A02           MOVW     R2,#+4154
   \   00000006   ........           LDR.W    R1,??DataTable18_2
   \   0000000A   ........           LDR.W    R0,??DataTable18
   \   0000000E   ........           BL       memcpy
     33          	sFLASH_EraseSector( SFLASH_WriteAddress4 );
   \   00000012   5FF48020           MOVS     R0,#+262144
   \   00000016   ........           BL       sFLASH_EraseSector
     34          	sFLASH_WriteBuffer( Buffer, SFLASH_WriteAddress4, sizeof(LookUpTable) ) ;
   \   0000001A   41F23A02           MOVW     R2,#+4154
   \   0000001E   5FF48021           MOVS     R1,#+262144
   \   00000022   ........           LDR.W    R0,??DataTable18
   \   00000026   ........           BL       sFLASH_WriteBuffer
     35          }
   \   0000002A   01BD               POP      {R0,PC}          ;; return

   \                                 In section .text, align 2, keep-with-next
     36          void Save_SFLASH_Wifi(void)
     37          {
   \                     Save_SFLASH_Wifi:
   \   00000000   80B5               PUSH     {R7,LR}
     38          //	u8 Buffer2[512];
     39               
     40          	memcpy(&Buffer,&SFLASH_Wifi, sizeof(SFLASH_Wifi));       
   \   00000002   4922               MOVS     R2,#+73
   \   00000004   ........           LDR.W    R1,??DataTable18_3
   \   00000008   ........           LDR.W    R0,??DataTable18
   \   0000000C   ........           BL       memcpy
     41          	sFLASH_EraseSector( SFLASH_WriteAddress3 );
   \   00000010   5FF44030           MOVS     R0,#+196608
   \   00000014   ........           BL       sFLASH_EraseSector
     42          	sFLASH_WriteBuffer( Buffer, SFLASH_WriteAddress3, sizeof(SFLASH_Wifi) ) ;
   \   00000018   4922               MOVS     R2,#+73
   \   0000001A   5FF44031           MOVS     R1,#+196608
   \   0000001E   ........           LDR.W    R0,??DataTable18
   \   00000022   ........           BL       sFLASH_WriteBuffer
     43          
     44          }
   \   00000026   01BD               POP      {R0,PC}          ;; return
     45          

   \                                 In section .text, align 2, keep-with-next
     46          void Save_GPS(void)
     47          {
   \                     Save_GPS:
   \   00000000   80B5               PUSH     {R7,LR}
     48          	memcpy(Buffer,&GPS_RouteCheck, sizeof(GPS_RouteCheck));       
   \   00000002   4422               MOVS     R2,#+68
   \   00000004   ........           LDR.W    R1,??DataTable18_4
   \   00000008   ........           LDR.W    R0,??DataTable18
   \   0000000C   ........           BL       memcpy
     49          	sFLASH_EraseSector( SFLASH_WriteAddress2 );
   \   00000010   5FF40030           MOVS     R0,#+131072
   \   00000014   ........           BL       sFLASH_EraseSector
     50          	sFLASH_WriteBuffer( Buffer, SFLASH_WriteAddress2, sizeof(GPS_RouteCheck) ) ;    
   \   00000018   4422               MOVS     R2,#+68
   \   0000001A   5FF40031           MOVS     R1,#+131072
   \   0000001E   ........           LDR.W    R0,??DataTable18
   \   00000022   ........           BL       sFLASH_WriteBuffer
     51          //	sFLASH_ReadBuffer( Buffer, SFLASH_WriteAddress2, sizeof(GPS_RouteCheck) ) ;         
     52          }
   \   00000026   01BD               POP      {R0,PC}          ;; return
     53          

   \                                 In section .text, align 2, keep-with-next
     54          void Save_SFLASH_CarInfo(void)
     55          {	
   \                     Save_SFLASH_CarInfo:
   \   00000000   80B5               PUSH     {R7,LR}
     56          	memcpy(Buffer,&SFLASH_CarInfo, sizeof(SFLASH_CarInfo));       
   \   00000002   5F22               MOVS     R2,#+95
   \   00000004   ........           LDR.W    R1,??DataTable18_5
   \   00000008   ........           LDR.W    R0,??DataTable18
   \   0000000C   ........           BL       memcpy
     57          	sFLASH_EraseSector( SFLASH_WriteAddress0 );
   \   00000010   0020               MOVS     R0,#+0
   \   00000012   ........           BL       sFLASH_EraseSector
     58          	sFLASH_WriteBuffer( Buffer, SFLASH_WriteAddress0, sizeof(SFLASH_CarInfo) ) ;
   \   00000016   5F22               MOVS     R2,#+95
   \   00000018   0021               MOVS     R1,#+0
   \   0000001A   ........           LDR.W    R0,??DataTable18
   \   0000001E   ........           BL       sFLASH_WriteBuffer
     59          }
   \   00000022   01BD               POP      {R0,PC}          ;; return
     60          

   \                                 In section .text, align 2, keep-with-next
     61          void Save_SFLASH(void)
     62          {
   \                     Save_SFLASH:
   \   00000000   80B5               PUSH     {R7,LR}
     63          	// 데이터를 SFLASH으로 불러 온다.
     64          	DataLoad();
   \   00000002   ........           BL       DataLoad
     65          	
     66          	memcpy(Buffer,&SFLASH_Memory, sizeof(SFLASH_Memory));       
   \   00000006   B222               MOVS     R2,#+178
   \   00000008   ........           LDR.W    R1,??DataTable18_1
   \   0000000C   ........           LDR.W    R0,??DataTable18
   \   00000010   ........           BL       memcpy
     67          	sFLASH_EraseSector( SFLASH_WriteAddress1 );
   \   00000014   5FF48030           MOVS     R0,#+65536
   \   00000018   ........           BL       sFLASH_EraseSector
     68          	sFLASH_WriteBuffer( Buffer, SFLASH_WriteAddress1, sizeof(SFLASH_Memory) ) ;
   \   0000001C   B222               MOVS     R2,#+178
   \   0000001E   5FF48031           MOVS     R1,#+65536
   \   00000022   ........           LDR.W    R0,??DataTable18
   \   00000026   ........           BL       sFLASH_WriteBuffer
     69          }
   \   0000002A   01BD               POP      {R0,PC}          ;; return
     70          

   \                                 In section .text, align 2, keep-with-next
     71          void DataLoad(void)
     72          {    
     73          	SFLASH_Memory.EcoStatus = Info.EcoStatus;                   // 에코상태  
   \                     DataLoad:
   \   00000000   ........           LDR.W    R0,??DataTable18_1
   \   00000004   ........           LDR.W    R1,??DataTable18_6
   \   00000008   097E               LDRB     R1,[R1, #+24]
   \   0000000A   80F8A210           STRB     R1,[R0, #+162]
     74          }
   \   0000000E   7047               BX       LR               ;; return
     75          
     76          

   \                                 In section .text, align 2, keep-with-next
     77          void DataSetting(void)
     78          {
   \                     DataSetting:
   \   00000000   10B5               PUSH     {R4,LR}
     79          	// 기준값으로 사용될 값들을 읽어옴     
     80                                                     
     81               Reference_Channel1 = SFLASH_Memory.SPEED_Reference * DAC_ADJUST;	// 스피드     
   \   00000002   ........           LDR.W    R0,??DataTable18_1
   \   00000006   B0F86C00           LDRH     R0,[R0, #+108]
   \   0000000A   0F21               MOVS     R1,#+15
   \   0000000C   4843               MULS     R0,R1,R0
   \   0000000E   ........           LDR.W    R1,??DataTable18_7
   \   00000012   0860               STR      R0,[R1, #+0]
     82               Reference_Channel2 = SFLASH_Memory.RPM_Reference * DAC_ADJUST;     	// RPM                    
   \   00000014   ........           LDR.W    R0,??DataTable18_1
   \   00000018   B0F86E00           LDRH     R0,[R0, #+110]
   \   0000001C   0F21               MOVS     R1,#+15
   \   0000001E   4843               MULS     R0,R1,R0
   \   00000020   ........           LDR.W    R1,??DataTable18_8
   \   00000024   0860               STR      R0,[R1, #+0]
     83               Set_Info.RPM_Adjust = SFLASH_Memory.RPM_Adjust;
   \   00000026   ........           LDR.W    R0,??DataTable18_9
   \   0000002A   ....               LDR.N    R1,??DataTable18_1
   \   0000002C   096E               LDR      R1,[R1, #+96]
   \   0000002E   C0F80110           STR      R1,[R0, #+1]
     84               Set_Info.SPEED_Adjust = SFLASH_Memory.SPEED_Adjust;
   \   00000032   ........           LDR.W    R0,??DataTable18_9
   \   00000036   ....               LDR.N    R1,??DataTable18_1
   \   00000038   496E               LDR      R1,[R1, #+100]
   \   0000003A   C0F80510           STR      R1,[R0, #+5]
     85               Set_Info.IO_Reverser = SFLASH_Memory.IO_Reverser;
   \   0000003E   ....               LDR.N    R0,??DataTable18_9
   \   00000040   ....               LDR.N    R1,??DataTable18_1
   \   00000042   B1F8A010           LDRH     R1,[R1, #+160]
   \   00000046   C181               STRH     R1,[R0, #+14]
     86               
     87               Set_Info.Distance_Adjust = (float) SFLASH_Memory.Distance_Adjust / 1000000; // 196247/10000000  = 0.0196247
   \   00000048   ....               LDR.N    R4,??DataTable18_9
   \   0000004A   ....               LDR.N    R0,??DataTable18_1
   \   0000004C   806E               LDR      R0,[R0, #+104]
   \   0000004E   ........           BL       __aeabi_ui2f
   \   00000052   ....               LDR.N    R1,??DataTable18_10  ;; 0x49742400
   \   00000054   ........           BL       __aeabi_fdiv
   \   00000058   C4F80900           STR      R0,[R4, #+9]
     88          
     89               Info.Voice_Volume = SFLASH_Memory.Voice_Volume;
   \   0000005C   ....               LDR.N    R0,??DataTable18_6
   \   0000005E   ....               LDR.N    R1,??DataTable18_1
   \   00000060   91F8A310           LDRB     R1,[R1, #+163]
   \   00000064   4176               STRB     R1,[R0, #+25]
     90               
     91          
     92          }
   \   00000066   10BD               POP      {R4,PC}          ;; return

   \                                 In section .text, align 2, keep-with-next
     93          void Read_SFLASH(void)
     94          {
   \                     Read_SFLASH:
   \   00000000   10B5               PUSH     {R4,LR}
     95          	u8 i;
     96               
     97          	sFLASH_ReadBuffer(Buffer, SFLASH_ReadAddress0, sizeof(SFLASH_CarInfo) );     
   \   00000002   5F22               MOVS     R2,#+95
   \   00000004   0021               MOVS     R1,#+0
   \   00000006   ....               LDR.N    R0,??DataTable18
   \   00000008   ........           BL       sFLASH_ReadBuffer
     98          	memcpy(&SFLASH_CarInfo,Buffer, sizeof(SFLASH_CarInfo));
   \   0000000C   5F22               MOVS     R2,#+95
   \   0000000E   ....               LDR.N    R1,??DataTable18
   \   00000010   ....               LDR.N    R0,??DataTable18_5
   \   00000012   ........           BL       memcpy
     99          	
    100          	if( SFLASH_CarInfo.Verify != SFLASH_VERIFY0_CARINFO )        // Verify를 읽었을때 오류인가
   \   00000016   ....               LDR.N    R0,??DataTable18_5
   \   00000018   B0F85D00           LDRH     R0,[R0, #+93]
   \   0000001C   4AF24431           MOVW     R1,#+41796
   \   00000020   8842               CMP      R0,R1
   \   00000022   24D0               BEQ.N    ??Read_SFLASH_0
    101               {
    102                    memset(&SFLASH_CarInfo,0,sizeof(SFLASH_CarInfo));
   \   00000024   5F22               MOVS     R2,#+95
   \   00000026   0021               MOVS     R1,#+0
   \   00000028   ....               LDR.N    R0,??DataTable18_5
   \   0000002A   ........           BL       memset
    103                    sprintf( (char *) SFLASH_CarInfo.FirmWareVer, "EMS110818" );
   \   0000002E   ........           ADR.W    R1,`?<Constant "EMS110818">`
   \   00000032   ....               LDR.N    R0,??DataTable18_5
   \   00000034   ........           BL       sprintf
    104                    sprintf( (char *) SFLASH_CarInfo.SerialNumber, "1T21WK11000000" );
   \   00000038   ........           ADR.W    R1,`?<Constant "1T21WK11000000">`
   \   0000003C   ....               LDR.N    R0,??DataTable18_11
   \   0000003E   ........           BL       sprintf
    105                    sprintf( (char *) SFLASH_CarInfo.MachineVer, "S&G2000" );
   \   00000042   ........           ADR.W    R1,`?<Constant "S&G2000">`
   \   00000046   ....               LDR.N    R0,??DataTable18_12
   \   00000048   ........           BL       sprintf
    106                    sprintf( (char *) SFLASH_CarInfo.Recognition, "11-0033-01" );
   \   0000004C   ........           ADR.W    R1,`?<Constant "11-0033-01">`
   \   00000050   ....               LDR.N    R0,??DataTable18_13
   \   00000052   ........           BL       sprintf
    107                    sprintf( (char *) SFLASH_CarInfo.CarNum, "서울00공0000" );
   \   00000056   ........           ADR.W    R1,`?<Constant "\\274\\255\\277\\35700\\260\\3700000">`
   \   0000005A   ....               LDR.N    R0,??DataTable18_14
   \   0000005C   ........           BL       sprintf
    108                    SFLASH_CarInfo.Verify = SFLASH_VERIFY0_CARINFO;
   \   00000060   ....               LDR.N    R0,??DataTable18_5
   \   00000062   4AF24431           MOVW     R1,#+41796
   \   00000066   A0F85D10           STRH     R1,[R0, #+93]
    109                    Save_SFLASH_CarInfo();
   \   0000006A   ........           BL       Save_SFLASH_CarInfo
    110               }
    111          
    112          	sFLASH_ReadBuffer(Buffer, SFLASH_ReadAddress1, sizeof(SFLASH_Memory) );     
   \                     ??Read_SFLASH_0:
   \   0000006E   B222               MOVS     R2,#+178
   \   00000070   5FF48031           MOVS     R1,#+65536
   \   00000074   ....               LDR.N    R0,??DataTable18
   \   00000076   ........           BL       sFLASH_ReadBuffer
    113          	memcpy(&SFLASH_Memory,Buffer, sizeof(SFLASH_Memory));
   \   0000007A   B222               MOVS     R2,#+178
   \   0000007C   ....               LDR.N    R1,??DataTable18
   \   0000007E   ....               LDR.N    R0,??DataTable18_1
   \   00000080   ........           BL       memcpy
    114          //	printf("%x %x ",SFLASH_Memory.Verify,SFLASH_VERIFY1);
    115          	if( SFLASH_Memory.Verify != SFLASH_VERIFY1_MEMORY )        // Verify를 읽었을때 오류인가?
   \   00000084   ....               LDR.N    R0,??DataTable18_1
   \   00000086   B0F8B000           LDRH     R0,[R0, #+176]
   \   0000008A   4AF25531           MOVW     R1,#+41813
   \   0000008E   8842               CMP      R0,R1
   \   00000090   00F0BF80           BEQ.W    ??Read_SFLASH_1
    116          	{
    117                    memset(&SFLASH_Memory,0,sizeof(SFLASH_Memory));
   \   00000094   B222               MOVS     R2,#+178
   \   00000096   0021               MOVS     R1,#+0
   \   00000098   ....               LDR.N    R0,??DataTable18_1
   \   0000009A   ........           BL       memset
    118                   
    119                    for( i = 0 ; i < 5 ; i ++)
   \   0000009E   0024               MOVS     R4,#+0
   \   000000A0   24E0               B.N      ??Read_SFLASH_2
    120                    {
    121                         strcpy((char*)SFLASH_Memory.Driver[i], (char*)"000000000000000000");
   \                     ??Read_SFLASH_3:
   \   000000A2   ........           ADR.W    R1,`?<Constant "000000000000000000">`
   \   000000A6   E4B2               UXTB     R4,R4            ;; ZeroExt  R4,R4,#+24,#+24
   \   000000A8   1320               MOVS     R0,#+19
   \   000000AA   ....               LDR.N    R2,??DataTable18_1
   \   000000AC   00FB0420           MLA      R0,R0,R4,R2
   \   000000B0   401C               ADDS     R0,R0,#+1
   \   000000B2   ........           BL       strcpy
    122                         SFLASH_Memory.Driver[i][10] += i; 
   \   000000B6   E4B2               UXTB     R4,R4            ;; ZeroExt  R4,R4,#+24,#+24
   \   000000B8   1320               MOVS     R0,#+19
   \   000000BA   ....               LDR.N    R1,??DataTable18_1
   \   000000BC   00FB0410           MLA      R0,R0,R4,R1
   \   000000C0   C07A               LDRB     R0,[R0, #+11]
   \   000000C2   2018               ADDS     R0,R4,R0
   \   000000C4   E4B2               UXTB     R4,R4            ;; ZeroExt  R4,R4,#+24,#+24
   \   000000C6   1321               MOVS     R1,#+19
   \   000000C8   ....               LDR.N    R2,??DataTable18_1
   \   000000CA   01FB0421           MLA      R1,R1,R4,R2
   \   000000CE   C872               STRB     R0,[R1, #+11]
    123                         SFLASH_Memory.Driver[i][17] += i;               
   \   000000D0   E4B2               UXTB     R4,R4            ;; ZeroExt  R4,R4,#+24,#+24
   \   000000D2   1320               MOVS     R0,#+19
   \   000000D4   ....               LDR.N    R1,??DataTable18_1
   \   000000D6   00FB0410           MLA      R0,R0,R4,R1
   \   000000DA   807C               LDRB     R0,[R0, #+18]
   \   000000DC   2018               ADDS     R0,R4,R0
   \   000000DE   E4B2               UXTB     R4,R4            ;; ZeroExt  R4,R4,#+24,#+24
   \   000000E0   1321               MOVS     R1,#+19
   \   000000E2   ....               LDR.N    R2,??DataTable18_1
   \   000000E4   01FB0421           MLA      R1,R1,R4,R2
   \   000000E8   8874               STRB     R0,[R1, #+18]
    124                    }
   \   000000EA   641C               ADDS     R4,R4,#+1
   \                     ??Read_SFLASH_2:
   \   000000EC   E4B2               UXTB     R4,R4            ;; ZeroExt  R4,R4,#+24,#+24
   \   000000EE   052C               CMP      R4,#+5
   \   000000F0   D7D3               BCC.N    ??Read_SFLASH_3
    125                    
    126                    SFLASH_Memory.Car_Maker = 1;
   \   000000F2   ....               LDR.N    R0,??DataTable18_1
   \   000000F4   0121               MOVS     R1,#+1
   \   000000F6   0170               STRB     R1,[R0, #+0]
    127                    
    128                    SFLASH_Memory.RPM_Adjust = 1000;
   \   000000F8   ....               LDR.N    R0,??DataTable18_1
   \   000000FA   4FF47A71           MOV      R1,#+1000
   \   000000FE   0166               STR      R1,[R0, #+96]
    129                    SFLASH_Memory.SPEED_Adjust = 108;
   \   00000100   ....               LDR.N    R0,??DataTable18_1
   \   00000102   6C21               MOVS     R1,#+108
   \   00000104   4166               STR      R1,[R0, #+100]
    130                    
    131                    SFLASH_Memory.Distance_Adjust = 148809;    //0.0196247
   \   00000106   ....               LDR.N    R0,??DataTable18_1
   \   00000108   ....               LDR.N    R1,??DataTable18_15  ;; 0x24549
   \   0000010A   8166               STR      R1,[R0, #+104]
    132                    
    133                    SFLASH_Memory.SPEED_Reference = 50;     // 5.0v
   \   0000010C   ....               LDR.N    R0,??DataTable18_1
   \   0000010E   3221               MOVS     R1,#+50
   \   00000110   A0F86C10           STRH     R1,[R0, #+108]
    134                    SFLASH_Memory.RPM_Reference = 50;       // 5.0v
   \   00000114   ....               LDR.N    R0,??DataTable18_1
   \   00000116   3221               MOVS     R1,#+50
   \   00000118   A0F86E10           STRH     R1,[R0, #+110]
    135                    
    136                    SFLASH_Memory.IO_Reverser = 0;
   \   0000011C   ....               LDR.N    R0,??DataTable18_1
   \   0000011E   0021               MOVS     R1,#+0
   \   00000120   A0F8A010           STRH     R1,[R0, #+160]
    137                    
    138                    SFLASH_Memory.EMS.USE_Enable = 1;
   \   00000124   ....               LDR.N    R0,??DataTable18_1
   \   00000126   0121               MOVS     R1,#+1
   \   00000128   80F88A10           STRB     R1,[R0, #+138]
    139                         
    140                    SFLASH_Memory.EMS.Battery_Volt = 23000 ;
   \   0000012C   ....               LDR.N    R0,??DataTable18_1
   \   0000012E   45F6D811           MOVW     R1,#+23000
   \   00000132   A0F88B10           STRH     R1,[R0, #+139]
    141                    SFLASH_Memory.EMS.ColdWaterTemp_Volt = 5000;
   \   00000136   ....               LDR.N    R0,??DataTable18_1
   \   00000138   41F28831           MOVW     R1,#+5000
   \   0000013C   A0F88D10           STRH     R1,[R0, #+141]
    142                    SFLASH_Memory.EMS.Air_Volt = 4700;
   \   00000140   ....               LDR.N    R0,??DataTable18_1
   \   00000142   41F25C21           MOVW     R1,#+4700
   \   00000146   A0F88F10           STRH     R1,[R0, #+143]
    143                    SFLASH_Memory.EMS.TILTX_Limit = 3;
   \   0000014A   ....               LDR.N    R0,??DataTable18_1
   \   0000014C   0321               MOVS     R1,#+3
   \   0000014E   80F89110           STRB     R1,[R0, #+145]
    144                    SFLASH_Memory.EMS.TILTY_Limit = 5;
   \   00000152   ....               LDR.N    R0,??DataTable18_1
   \   00000154   0521               MOVS     R1,#+5
   \   00000156   80F89210           STRB     R1,[R0, #+146]
    145                    SFLASH_Memory.EMS.LimitSpeed = 10;
   \   0000015A   ....               LDR.N    R0,??DataTable18_1
   \   0000015C   0A21               MOVS     R1,#+10
   \   0000015E   80F89310           STRB     R1,[R0, #+147]
    146                    SFLASH_Memory.EMS.StopTime = 5;
   \   00000162   ....               LDR.N    R0,??DataTable18_1
   \   00000164   0521               MOVS     R1,#+5
   \   00000166   A0F89410           STRH     R1,[R0, #+148]
    147                    
    148                    SFLASH_Memory.FastOverSpeed = 80;
   \   0000016A   ....               LDR.N    R0,??DataTable18_1
   \   0000016C   5021               MOVS     R1,#+80
   \   0000016E   A0F89610           STRH     R1,[R0, #+150]
    149                    SFLASH_Memory.QuickStop = 11;           
   \   00000172   ....               LDR.N    R0,??DataTable18_1
   \   00000174   0B21               MOVS     R1,#+11
   \   00000176   A0F89A10           STRH     R1,[R0, #+154]
    150                    SFLASH_Memory.QuickStart = 8;           //  급출발 기준
   \   0000017A   ....               LDR.N    R0,??DataTable18_1
   \   0000017C   0821               MOVS     R1,#+8
   \   0000017E   A0F89C10           STRH     R1,[R0, #+156]
    151                    SFLASH_Memory.QuickAccel = 8;           // 급가속 기준
   \   00000182   ....               LDR.N    R0,??DataTable18_1
   \   00000184   0821               MOVS     R1,#+8
   \   00000186   A0F89810           STRH     R1,[R0, #+152]
    152                    SFLASH_Memory.OverloadRPM = 1700;          
   \   0000018A   ....               LDR.N    R0,??DataTable18_1
   \   0000018C   40F2A461           MOVW     R1,#+1700
   \   00000190   A0F89E10           STRH     R1,[R0, #+158]
    153                    
    154                    SFLASH_Memory.Voice_Volume = 0;
   \   00000194   ....               LDR.N    R0,??DataTable18_1
   \   00000196   0021               MOVS     R1,#+0
   \   00000198   80F8A310           STRB     R1,[R0, #+163]
    155                    
    156                    // ------------ TILT ---------------------------------------
    157                    
    158                    SFLASH_Memory.Tilt_Reference = 'Z'; // 틸트 오리지날값
   \   0000019C   ....               LDR.N    R0,??DataTable18_1
   \   0000019E   5A21               MOVS     R1,#+90
   \   000001A0   80F87010           STRB     R1,[R0, #+112]
    159                    SFLASH_Memory.TiltRefX = 0;
   \   000001A4   ....               LDR.N    R0,??DataTable18_1
   \   000001A6   0021               MOVS     R1,#+0
   \   000001A8   C0F87110           STR      R1,[R0, #+113]
    160                    SFLASH_Memory.TiltRefY = 0; 
   \   000001AC   ....               LDR.N    R0,??DataTable18_1
   \   000001AE   0021               MOVS     R1,#+0
   \   000001B0   C0F87510           STR      R1,[R0, #+117]
    161                    SFLASH_Memory.EventRefX = 0;
   \   000001B4   ....               LDR.N    R0,??DataTable18_1
   \   000001B6   0021               MOVS     R1,#+0
   \   000001B8   C0F87910           STR      R1,[R0, #+121]
    162                    SFLASH_Memory.EventRefY = 0;
   \   000001BC   ....               LDR.N    R0,??DataTable18_1
   \   000001BE   0021               MOVS     R1,#+0
   \   000001C0   C0F87D10           STR      R1,[R0, #+125]
    163                    
    164                    // ------------ GPS ---------------------------------------
    165                    SFLASH_Memory.Home.Longitude = 0;                     // X             
   \   000001C4   ....               LDR.N    R0,??DataTable18_1
   \   000001C6   0021               MOVS     R1,#+0
   \   000001C8   C0F88110           STR      R1,[R0, #+129]
    166                    SFLASH_Memory.Home.Latitude = 0;                     // Y   
   \   000001CC   ....               LDR.N    R0,??DataTable18_1
   \   000001CE   0021               MOVS     R1,#+0
   \   000001D0   C0F88510           STR      R1,[R0, #+133]
    167          
    168                    SFLASH_Memory.GPS_EMS_Use = 1;               // GPS EMS 사용 0은 사용하지 않음(전체) 1: 차고지만 사용 2: 구간 EMS 사용         
   \   000001D4   ....               LDR.N    R0,??DataTable18_1
   \   000001D6   0121               MOVS     R1,#+1
   \   000001D8   80F88910           STRB     R1,[R0, #+137]
    169                    SFLASH_Memory.DTG_EMS_Select = 1 ;                // 0은 DTG 1은 EMS
   \   000001DC   ....               LDR.N    R0,??DataTable18_1
   \   000001DE   0121               MOVS     R1,#+1
   \   000001E0   80F8A410           STRB     R1,[R0, #+164]
    170                    
    171                    SFLASH_Memory.Reserve0 = 0;
   \   000001E4   ....               LDR.N    R0,??DataTable18_1
   \   000001E6   0021               MOVS     R1,#+0
   \   000001E8   80F8A510           STRB     R1,[R0, #+165]
    172                    SFLASH_Memory.Reserve1 = 0;
   \   000001EC   ....               LDR.N    R0,??DataTable18_1
   \   000001EE   0021               MOVS     R1,#+0
   \   000001F0   A0F8A610           STRH     R1,[R0, #+166]
    173                    SFLASH_Memory.Reserve2 = 0;
   \   000001F4   ....               LDR.N    R0,??DataTable18_1
   \   000001F6   0021               MOVS     R1,#+0
   \   000001F8   C0F8A810           STR      R1,[R0, #+168]
    174                    SFLASH_Memory.Reserve3 = 0;
   \   000001FC   ....               LDR.N    R0,??DataTable18_1
   \   000001FE   0021               MOVS     R1,#+0
   \   00000200   C0F8AC10           STR      R1,[R0, #+172]
    175                    // ---------- VERIFY ---------------------------------------------
    176                    
    177                    SFLASH_Memory.Verify = SFLASH_VERIFY1_MEMORY;          
   \   00000204   ....               LDR.N    R0,??DataTable18_1
   \   00000206   4AF25531           MOVW     R1,#+41813
   \   0000020A   A0F8B010           STRH     R1,[R0, #+176]
    178                    Save_SFLASH();
   \   0000020E   ........           BL       Save_SFLASH
    179          	}       
    180               
    181          //-----------------------------------------------------------------------------     
    182               
    183               sFLASH_ReadBuffer(Buffer, SFLASH_ReadAddress2, sizeof(GPS_RouteCheck) );     
   \                     ??Read_SFLASH_1:
   \   00000212   4422               MOVS     R2,#+68
   \   00000214   5FF40031           MOVS     R1,#+131072
   \   00000218   ....               LDR.N    R0,??DataTable18
   \   0000021A   ........           BL       sFLASH_ReadBuffer
    184          	memcpy(&GPS_RouteCheck,Buffer, sizeof(GPS_RouteCheck));    	
   \   0000021E   4422               MOVS     R2,#+68
   \   00000220   ....               LDR.N    R1,??DataTable18
   \   00000222   ....               LDR.N    R0,??DataTable18_4
   \   00000224   ........           BL       memcpy
    185               
    186               if( GPS_RouteCheck.Verify != SFLASH_VERIFY2 )        // Verify를 읽었을때 오류인가?
   \   00000228   ....               LDR.N    R0,??DataTable18_4
   \   0000022A   B0F84200           LDRH     R0,[R0, #+66]
   \   0000022E   4AF24631           MOVW     R1,#+41798
   \   00000232   8842               CMP      R0,R1
   \   00000234   0BD0               BEQ.N    ??Read_SFLASH_4
    187               {
    188                    memset(&GPS_RouteCheck,0,sizeof(GPS_RouteCheck));
   \   00000236   4422               MOVS     R2,#+68
   \   00000238   0021               MOVS     R1,#+0
   \   0000023A   ....               LDR.N    R0,??DataTable18_4
   \   0000023C   ........           BL       memset
    189                    GPS_RouteCheck.Verify = SFLASH_VERIFY2;
   \   00000240   ....               LDR.N    R0,??DataTable18_4
   \   00000242   4AF24631           MOVW     R1,#+41798
   \   00000246   A0F84210           STRH     R1,[R0, #+66]
    190                    Save_GPS();
   \   0000024A   ........           BL       Save_GPS
    191               }
    192               
    193          //-----------------------------------------------------------------------------
    194               
    195          	sFLASH_ReadBuffer(Buffer, SFLASH_ReadAddress3, sizeof(SFLASH_Wifi) );     
   \                     ??Read_SFLASH_4:
   \   0000024E   4922               MOVS     R2,#+73
   \   00000250   5FF44031           MOVS     R1,#+196608
   \   00000254   ....               LDR.N    R0,??DataTable18
   \   00000256   ........           BL       sFLASH_ReadBuffer
    196          	memcpy(&SFLASH_Wifi,Buffer, sizeof(SFLASH_Wifi));
   \   0000025A   4922               MOVS     R2,#+73
   \   0000025C   ....               LDR.N    R1,??DataTable18
   \   0000025E   ....               LDR.N    R0,??DataTable18_3
   \   00000260   ........           BL       memcpy
    197               
    198               if(SFLASH_Wifi.Verify != SFLASH_VERIFY3_WIFI)
   \   00000264   ....               LDR.N    R0,??DataTable18_3
   \   00000266   B0F84700           LDRH     R0,[R0, #+71]
   \   0000026A   4AF24731           MOVW     R1,#+41799
   \   0000026E   8842               CMP      R0,R1
   \   00000270   1AD0               BEQ.N    ??Read_SFLASH_5
    199               {
    200                    strcpy((char * )SFLASH_Wifi.SSID ,"TAEHO");
   \   00000272   ........           ADR.W    R1,`?<Constant "TAEHO">`
   \   00000276   ....               LDR.N    R0,??DataTable18_3
   \   00000278   ........           BL       strcpy
    201                    strcpy((char * )SFLASH_Wifi.WWPA ,"taeho9901");
   \   0000027C   ........           ADR.W    R1,`?<Constant "taeho9901">`
   \   00000280   ....               LDR.N    R0,??DataTable18_16
   \   00000282   ........           BL       strcpy
    202                    strcpy((char * )SFLASH_Wifi.ServerIP ,"118.107.161.70");
   \   00000286   ........           ADR.W    R1,`?<Constant "118.107.161.70">`
   \   0000028A   ....               LDR.N    R0,??DataTable18_17
   \   0000028C   ........           BL       strcpy
    203                    strcpy((char * )SFLASH_Wifi.ServerPort ,"9513");          
   \   00000290   ........           ADR.W    R1,`?<Constant "9513">`
   \   00000294   ....               LDR.N    R0,??DataTable18_18
   \   00000296   ........           BL       strcpy
    204                    SFLASH_Wifi.Verify = SFLASH_VERIFY3_WIFI;
   \   0000029A   ....               LDR.N    R0,??DataTable18_3
   \   0000029C   4AF24731           MOVW     R1,#+41799
   \   000002A0   A0F84710           STRH     R1,[R0, #+71]
    205                    Save_SFLASH_Wifi();
   \   000002A4   ........           BL       Save_SFLASH_Wifi
    206               }
    207          	     
    208          //-----------------------------------------------------------------------------
    209               
    210          	// SFLASH 데이터를 세팅값에 넣어준다.
    211          	DataSetting();       
   \                     ??Read_SFLASH_5:
   \   000002A8   ........           BL       DataSetting
    212          
    213          	sFLASH_ReadBuffer((uint8_t *)&LookUpTable.LUT, SFLASH_ReadAddress4, sizeof(LookUpTable) );     
   \   000002AC   41F23A02           MOVW     R2,#+4154
   \   000002B0   5FF48021           MOVS     R1,#+262144
   \   000002B4   ....               LDR.N    R0,??DataTable18_2
   \   000002B6   ........           BL       sFLASH_ReadBuffer
    214          //	memcpy(,Buffer, sizeof(LookUpTable));
    215          
    216               if( LookUpTable.Verify != SFLASH_VERIFY4 )
   \   000002BA   ....               LDR.N    R0,??DataTable18_19
   \   000002BC   0088               LDRH     R0,[R0, #+0]
   \   000002BE   4AF24831           MOVW     R1,#+41800
   \   000002C2   8842               CMP      R0,R1
   \   000002C4   0AD0               BEQ.N    ??Read_SFLASH_6
    217               {
    218                    if(NAND_BuildLUT(0) == NAND_OK)
   \   000002C6   0020               MOVS     R0,#+0
   \   000002C8   ........           BL       NAND_BuildLUT
   \   000002CC   0028               CMP      R0,#+0
   \   000002CE   05D1               BNE.N    ??Read_SFLASH_6
    219                    {
    220                         LookUpTable.Verify = SFLASH_VERIFY4;
   \   000002D0   ....               LDR.N    R0,??DataTable18_19
   \   000002D2   4AF24831           MOVW     R1,#+41800
   \   000002D6   0180               STRH     R1,[R0, #+0]
    221                         Save_LookupTable();
   \   000002D8   ........           BL       Save_LookupTable
    222                    }
    223               }
    224          }
   \                     ??Read_SFLASH_6:
   \   000002DC   10BD               POP      {R4,PC}          ;; return

   \                                 In section .text, align 4, keep-with-next
   \                     ??DataTable18:
   \   00000000   ........           DC32     Buffer

   \                                 In section .text, align 4, keep-with-next
   \                     ??DataTable18_1:
   \   00000000   ........           DC32     SFLASH_Memory

   \                                 In section .text, align 4, keep-with-next
   \                     ??DataTable18_2:
   \   00000000   ........           DC32     LookUpTable

   \                                 In section .text, align 4, keep-with-next
   \                     ??DataTable18_3:
   \   00000000   ........           DC32     SFLASH_Wifi

   \                                 In section .text, align 4, keep-with-next
   \                     ??DataTable18_4:
   \   00000000   ........           DC32     GPS_RouteCheck

   \                                 In section .text, align 4, keep-with-next
   \                     ??DataTable18_5:
   \   00000000   ........           DC32     SFLASH_CarInfo

   \                                 In section .text, align 4, keep-with-next
   \                     ??DataTable18_6:
   \   00000000   ........           DC32     Info

   \                                 In section .text, align 4, keep-with-next
   \                     ??DataTable18_7:
   \   00000000   ........           DC32     Reference_Channel1

   \                                 In section .text, align 4, keep-with-next
   \                     ??DataTable18_8:
   \   00000000   ........           DC32     Reference_Channel2

   \                                 In section .text, align 4, keep-with-next
   \                     ??DataTable18_9:
   \   00000000   ........           DC32     Set_Info

   \                                 In section .text, align 4, keep-with-next
   \                     ??DataTable18_10:
   \   00000000   00247449           DC32     0x49742400

   \                                 In section .text, align 4, keep-with-next
   \                     ??DataTable18_11:
   \   00000000   ........           DC32     SFLASH_CarInfo+0x14

   \                                 In section .text, align 4, keep-with-next
   \                     ??DataTable18_12:
   \   00000000   ........           DC32     SFLASH_CarInfo+0x28

   \                                 In section .text, align 4, keep-with-next
   \                     ??DataTable18_13:
   \   00000000   ........           DC32     SFLASH_CarInfo+0x3C

   \                                 In section .text, align 4, keep-with-next
   \                     ??DataTable18_14:
   \   00000000   ........           DC32     SFLASH_CarInfo+0x50

   \                                 In section .text, align 4, keep-with-next
   \                     ??DataTable18_15:
   \   00000000   49450200           DC32     0x24549

   \                                 In section .text, align 4, keep-with-next
   \                     ??DataTable18_16:
   \   00000000   ........           DC32     SFLASH_Wifi+0x1E

   \                                 In section .text, align 4, keep-with-next
   \                     ??DataTable18_17:
   \   00000000   ........           DC32     SFLASH_Wifi+0x32

   \                                 In section .text, align 4, keep-with-next
   \                     ??DataTable18_18:
   \   00000000   ........           DC32     SFLASH_Wifi+0x42

   \                                 In section .text, align 4, keep-with-next
   \                     ??DataTable18_19:
   \   00000000   ........           DC32     LookUpTable+0x1038

   \                                 In section .text, align 4, keep-with-next
   \                     `?<Constant "EMS110818">`:
   \   00000000                      ; Initializer data, 12 bytes
   \   00000000   454D53313130       DC8 69, 77, 83, 49, 49, 48, 56, 49, 56, 0
   \              38313800    
   \   0000000A   0000               DC8 0, 0

   \                                 In section .text, align 4, keep-with-next
   \                     `?<Constant "1T21WK11000000">`:
   \   00000000                      ; Initializer data, 16 bytes
   \   00000000   31543231574B       DC8 49, 84, 50, 49, 87, 75, 49, 49, 48, 48
   \              31313030    
   \   0000000A   303030300000       DC8 48, 48, 48, 48, 0, 0

   \                                 In section .text, align 4, keep-with-next
   \                     `?<Constant "S&G2000">`:
   \   00000000                      ; Initializer data, 8 bytes
   \   00000000   532647323030       DC8 83, 38, 71, 50, 48, 48, 48, 0
   \              3000        

   \                                 In section .text, align 4, keep-with-next
   \                     `?<Constant "11-0033-01">`:
   \   00000000                      ; Initializer data, 12 bytes
   \   00000000   31312D303033       DC8 49, 49, 45, 48, 48, 51, 51, 45, 48, 49
   \              332D3031    
   \   0000000A   0000               DC8 0, 0

   \                                 In section .text, align 4, keep-with-next
   \                     `?<Constant "\\274\\255\\277\\35700\\260\\3700000">`:
   \   00000000                      ; Initializer data, 16 bytes
   \   00000000   BCADBFEF3030       DC8 188, 173, 191, 239, 48, 48, 176, 248, 48, 48
   \              B0F83030    
   \   0000000A   303000000000       DC8 48, 48, 0, 0, 0, 0

   \                                 In section .text, align 4, keep-with-next
   \                     `?<Constant "000000000000000000">`:
   \   00000000                      ; Initializer data, 20 bytes
   \   00000000   303030303030       DC8 48, 48, 48, 48, 48, 48, 48, 48, 48, 48
   \              30303030    
   \   0000000A   303030303030       DC8 48, 48, 48, 48, 48, 48, 48, 48, 0, 0
   \              30300000    

   \                                 In section .text, align 4, keep-with-next
   \                     `?<Constant "TAEHO">`:
   \   00000000                      ; Initializer data, 8 bytes
   \   00000000   544145484F00       DC8 84, 65, 69, 72, 79, 0, 0, 0
   \              0000        

   \                                 In section .text, align 4, keep-with-next
   \                     `?<Constant "taeho9901">`:
   \   00000000                      ; Initializer data, 12 bytes
   \   00000000   746165686F39       DC8 116, 97, 101, 104, 111, 57, 57, 48, 49, 0
   \              39303100    
   \   0000000A   0000               DC8 0, 0

   \                                 In section .text, align 4, keep-with-next
   \                     `?<Constant "118.107.161.70">`:
   \   00000000                      ; Initializer data, 16 bytes
   \   00000000   3131382E3130       DC8 49, 49, 56, 46, 49, 48, 55, 46, 49, 54
   \              372E3136    
   \   0000000A   312E37300000       DC8 49, 46, 55, 48, 0, 0

   \                                 In section .text, align 4, keep-with-next
   \                     `?<Constant "9513">`:
   \   00000000                      ; Initializer data, 8 bytes
   \   00000000   393531330000       DC8 57, 53, 49, 51, 0, 0, 0, 0
   \              0000        

   Maximum stack usage in bytes:

     Function            .cstack
     --------            -------
     DataLoad                 0
     DataSetting              8
     Read_SFLASH              8
     Save_GPS                 8
     Save_LookupTable         8
     Save_SFLASH              8
     Save_SFLASH_CarInfo      8
     Save_SFLASH_Wifi         8
     Verify_SFLASH          184
     memcpy                   8
     memset                   8


   Section sizes:

     Function/Label                               Bytes
     --------------                               -----
     memcpy                                         14
     memset                                         20
     Verify_SFLASH                                  80
     Save_LookupTable                               44
     Save_SFLASH_Wifi                               40
     Save_GPS                                       40
     Save_SFLASH_CarInfo                            36
     Save_SFLASH                                    44
     DataLoad                                       16
     DataSetting                                   104
     Read_SFLASH                                   734
     ??DataTable18                                   4
     ??DataTable18_1                                 4
     ??DataTable18_2                                 4
     ??DataTable18_3                                 4
     ??DataTable18_4                                 4
     ??DataTable18_5                                 4
     ??DataTable18_6                                 4
     ??DataTable18_7                                 4
     ??DataTable18_8                                 4
     ??DataTable18_9                                 4
     ??DataTable18_10                                4
     ??DataTable18_11                                4
     ??DataTable18_12                                4
     ??DataTable18_13                                4
     ??DataTable18_14                                4
     ??DataTable18_15                                4
     ??DataTable18_16                                4
     ??DataTable18_17                                4
     ??DataTable18_18                                4
     ??DataTable18_19                                4
     ?<Constant "EMS110818">                        12
     ?<Constant "1T21WK11000000">                   16
     ?<Constant "S&G2000">                           8
     ?<Constant "11-0033-01">                       12
     ?<Constant "\274\255\277\35700\260\3700000">   16
     ?<Constant "000000000000000000">               20
     ?<Constant "TAEHO">                             8
     ?<Constant "taeho9901">                        12
     ?<Constant "118.107.161.70">                   16
     ?<Constant "9513">                              8

 
 1 380 bytes in section .text
 
 1 346 bytes of CODE memory (+ 34 bytes shared)

Errors: none
Warnings: none
