###############################################################################
#                                                                             #
# IAR ANSI C/C++ Compiler V6.10.1.52143/W32 for ARM     19/Jan/2012  11:08:59 #
# Copyright 1999-2010 IAR Systems AB.                                         #
#                                                                             #
#    Cpu mode     =  thumb                                                    #
#    Endian       =  little                                                   #
#    Source file  =  F:\Work\S&G2000\Firmware\DTG_EMS_SYSTEM\Project\Ems_Syst #
#                    em.c                                                     #
#    Command line =  F:\Work\S&G2000\Firmware\DTG_EMS_SYSTEM\Project\Ems_Syst #
#                    em.c -D USE_STDPERIPH_DRIVER -D STM32F2XX -D             #
#                    USE_STM3220F_EVAL -D USE_USB_OTG_FS -D                   #
#                    RTC_CLOCK_SOURCE_LSE -lC F:\Work\S&G2000\Firmware\DTG_EM #
#                    S_SYSTEM\Project\EWARM\STM3220F_EVAL\List\ -lA           #
#                    F:\Work\S&G2000\Firmware\DTG_EMS_SYSTEM\Project\EWARM\ST #
#                    M3220F_EVAL\List\ -o F:\Work\S&G2000\Firmware\DTG_EMS_SY #
#                    STEM\Project\EWARM\STM3220F_EVAL\Obj\ --no_cse           #
#                    --no_unroll --no_inline --no_code_motion --no_tbaa       #
#                    --no_clustering --no_scheduling --debug --endian=little  #
#                    --cpu=Cortex-M3 -e --fpu=None --dlib_config "C:\Program  #
#                    Files\IAR Systems\Embedded Workbench                     #
#                    6.0\arm\INC\c\DLib_Config_Full.h" -I                     #
#                    F:\Work\S&G2000\Firmware\DTG_EMS_SYSTEM\Project\EWARM\.. #
#                    \ -I F:\Work\S&G2000\Firmware\DTG_EMS_SYSTEM\Project\EWA #
#                    RM\..\..\Libraries\CMSIS\CM3\CoreSupport\ -I             #
#                    F:\Work\S&G2000\Firmware\DTG_EMS_SYSTEM\Project\EWARM\.. #
#                    \..\Libraries\CMSIS\CM3\DeviceSupport\ST\STM32F2xx\ -I   #
#                    F:\Work\S&G2000\Firmware\DTG_EMS_SYSTEM\Project\EWARM\.. #
#                    \..\Libraries\STM32F2xx_StdPeriph_Driver\inc\ -I         #
#                    F:\Work\S&G2000\Firmware\DTG_EMS_SYSTEM\Project\EWARM\.. #
#                    \..\Utilities\STM32_EVAL\ -I                             #
#                    F:\Work\S&G2000\Firmware\DTG_EMS_SYSTEM\Project\EWARM\.. #
#                    \..\Utilities\STM32_EVAL\Common\ -I                      #
#                    F:\Work\S&G2000\Firmware\DTG_EMS_SYSTEM\Project\EWARM\.. #
#                    \..\Utilities\STM32_EVAL\STM3220F_EVAL\ -I               #
#                    F:\Work\S&G2000\Firmware\DTG_EMS_SYSTEM\Project\EWARM\.. #
#                    \..\Libraries\STM32_USB_OTG_Driver\inc\ -I               #
#                    F:\Work\S&G2000\Firmware\DTG_EMS_SYSTEM\Project\EWARM\.. #
#                    \..\Libraries\STM32_USB_Device_Library\Core\inc\ -I      #
#                    F:\Work\S&G2000\Firmware\DTG_EMS_SYSTEM\Project\EWARM\.. #
#                    \..\Libraries\STM32_USB_Device_Library\Class\msc\inc\    #
#                    -I F:\Work\S&G2000\Firmware\DTG_EMS_SYSTEM\Project\EWARM #
#                    \..\Usb\ -I F:\Work\S&G2000\Firmware\DTG_EMS_SYSTEM\Proj #
#                    ect\EWARM\..\Usb\Inc\ -I F:\Work\S&G2000\Firmware\DTG_EM #
#                    S_SYSTEM\Project\EWARM\..\Usb\src\ -I                    #
#                    F:\Work\S&G2000\Firmware\DTG_EMS_SYSTEM\Project\EWARM\.. #
#                    \..\Libraries\STM32_USB_HOST_Library\Core\inc\ -I        #
#                    F:\Work\S&G2000\Firmware\DTG_EMS_SYSTEM\Project\EWARM\.. #
#                    \..\Libraries\STM32_USB_HOST_Library\Class\MSC\inc\ -I   #
#                    F:\Work\S&G2000\Firmware\DTG_EMS_SYSTEM\Project\EWARM\.. #
#                    \..\Libraries\STM32_USB_Device_Library\Class\cdc\inc\    #
#                    -Ol --use_c++_inline                                     #
#    List file    =  F:\Work\S&G2000\Firmware\DTG_EMS_SYSTEM\Project\EWARM\ST #
#                    M3220F_EVAL\List\Ems_System.lst                          #
#    Object file  =  F:\Work\S&G2000\Firmware\DTG_EMS_SYSTEM\Project\EWARM\ST #
#                    M3220F_EVAL\Obj\Ems_System.o                             #
#                                                                             #
#                                                                             #
###############################################################################

F:\Work\S&G2000\Firmware\DTG_EMS_SYSTEM\Project\Ems_System.c
      1          
      2          #include "Ems_System.h"

   \                                 In section .text, align 2, keep-with-next
   \   static __interwork __softfp void SET_ENGINE_ON(void)
   \                     SET_ENGINE_ON:
   \   00000000   80B5               PUSH     {R7,LR}
   \   00000002   4FF40061           MOV      R1,#+2048
   \   00000006   ........           LDR.W    R0,??DataTable43  ;; 0x40021000
   \   0000000A   ........           BL       GPIO_SetBits
   \   0000000E   ........           LDR.W    R0,??DataTable44
   \   00000012   0078               LDRB     R0,[R0, #+0]
   \   00000014   50F00100           ORRS     R0,R0,#0x1
   \   00000018   ........           LDR.W    R1,??DataTable44
   \   0000001C   0870               STRB     R0,[R1, #+0]
   \   0000001E   01BD               POP      {R0,PC}          ;; return

   \                                 In section .text, align 2, keep-with-next
   \   static __interwork __softfp void RESET_ENGINE_ON(void)
   \                     RESET_ENGINE_ON:
   \   00000000   80B5               PUSH     {R7,LR}
   \   00000002   4FF40061           MOV      R1,#+2048
   \   00000006   ........           LDR.W    R0,??DataTable43  ;; 0x40021000
   \   0000000A   ........           BL       GPIO_ResetBits
   \   0000000E   ........           LDR.W    R0,??DataTable44
   \   00000012   0078               LDRB     R0,[R0, #+0]
   \   00000014   10F0FE00           ANDS     R0,R0,#0xFE
   \   00000018   ........           LDR.W    R1,??DataTable44
   \   0000001C   0870               STRB     R0,[R1, #+0]
   \   0000001E   01BD               POP      {R0,PC}          ;; return

   \                                 In section .text, align 2, keep-with-next
   \   static __interwork __softfp void SET_ENGINE_OFF(void)
   \                     SET_ENGINE_OFF:
   \   00000000   80B5               PUSH     {R7,LR}
   \   00000002   4FF48051           MOV      R1,#+4096
   \   00000006   ........           LDR.W    R0,??DataTable43  ;; 0x40021000
   \   0000000A   ........           BL       GPIO_SetBits
   \   0000000E   ........           LDR.W    R0,??DataTable44
   \   00000012   0078               LDRB     R0,[R0, #+0]
   \   00000014   50F00200           ORRS     R0,R0,#0x2
   \   00000018   ........           LDR.W    R1,??DataTable44
   \   0000001C   0870               STRB     R0,[R1, #+0]
   \   0000001E   01BD               POP      {R0,PC}          ;; return

   \                                 In section .text, align 2, keep-with-next
   \   static __interwork __softfp void RESET_ENGINE_OFF(void)
   \                     RESET_ENGINE_OFF:
   \   00000000   80B5               PUSH     {R7,LR}
   \   00000002   4FF48051           MOV      R1,#+4096
   \   00000006   ........           LDR.W    R0,??DataTable43  ;; 0x40021000
   \   0000000A   ........           BL       GPIO_ResetBits
   \   0000000E   ........           LDR.W    R0,??DataTable44
   \   00000012   0078               LDRB     R0,[R0, #+0]
   \   00000014   10F0FD00           ANDS     R0,R0,#0xFD
   \   00000018   ........           LDR.W    R1,??DataTable44
   \   0000001C   0870               STRB     R0,[R1, #+0]
   \   0000001E   01BD               POP      {R0,PC}          ;; return

   \                                 In section .text, align 2, keep-with-next
   \   static __interwork __softfp uint8_t GET_ENGINE_ON(void)
   \                     GET_ENGINE_ON:
   \   00000000   80B5               PUSH     {R7,LR}
   \   00000002   4FF40061           MOV      R1,#+2048
   \   00000006   ........           LDR.W    R0,??DataTable43  ;; 0x40021000
   \   0000000A   ........           BL       GPIO_ReadInputDataBit
   \   0000000E   0128               CMP      R0,#+1
   \   00000010   01D1               BNE.N    ??GET_ENGINE_ON_0
   \   00000012   0120               MOVS     R0,#+1
   \   00000014   00E0               B.N      ??GET_ENGINE_ON_1
   \                     ??GET_ENGINE_ON_0:
   \   00000016   0020               MOVS     R0,#+0
   \                     ??GET_ENGINE_ON_1:
   \   00000018   02BD               POP      {R1,PC}          ;; return

   \                                 In section .text, align 2, keep-with-next
   \   static __interwork __softfp void SET_AIRCON(void)
   \                     SET_AIRCON:
   \   00000000   80B5               PUSH     {R7,LR}
   \   00000002   2021               MOVS     R1,#+32
   \   00000004   ........           LDR.W    R0,??DataTable43_1  ;; 0x40021800
   \   00000008   ........           BL       GPIO_SetBits
   \   0000000C   ........           LDR.W    R0,??DataTable44
   \   00000010   0078               LDRB     R0,[R0, #+0]
   \   00000012   50F00400           ORRS     R0,R0,#0x4
   \   00000016   ........           LDR.W    R1,??DataTable44
   \   0000001A   0870               STRB     R0,[R1, #+0]
   \   0000001C   01BD               POP      {R0,PC}          ;; return

   \                                 In section .text, align 2, keep-with-next
   \   static __interwork __softfp void RESET_AIRCON(void)
   \                     RESET_AIRCON:
   \   00000000   80B5               PUSH     {R7,LR}
   \   00000002   2021               MOVS     R1,#+32
   \   00000004   ........           LDR.W    R0,??DataTable43_1  ;; 0x40021800
   \   00000008   ........           BL       GPIO_ResetBits
   \   0000000C   ........           LDR.W    R0,??DataTable44
   \   00000010   0078               LDRB     R0,[R0, #+0]
   \   00000012   10F0FB00           ANDS     R0,R0,#0xFB
   \   00000016   ........           LDR.W    R1,??DataTable44
   \   0000001A   0870               STRB     R0,[R1, #+0]
   \   0000001C   01BD               POP      {R0,PC}          ;; return

   \                                 In section .text, align 2, keep-with-next
   \   static __interwork __softfp void SET_LIGHT(void)
   \                     SET_LIGHT:
   \   00000000   80B5               PUSH     {R7,LR}
   \   00000002   4FF40051           MOV      R1,#+8192
   \   00000006   ........           LDR.W    R0,??DataTable43  ;; 0x40021000
   \   0000000A   ........           BL       GPIO_SetBits
   \   0000000E   ........           LDR.W    R0,??DataTable44
   \   00000012   0078               LDRB     R0,[R0, #+0]
   \   00000014   50F00800           ORRS     R0,R0,#0x8
   \   00000018   ........           LDR.W    R1,??DataTable44
   \   0000001C   0870               STRB     R0,[R1, #+0]
   \   0000001E   01BD               POP      {R0,PC}          ;; return

   \                                 In section .text, align 2, keep-with-next
   \   static __interwork __softfp void RESET_LIGHT(void)
   \                     RESET_LIGHT:
   \   00000000   80B5               PUSH     {R7,LR}
   \   00000002   4FF40051           MOV      R1,#+8192
   \   00000006   ........           LDR.W    R0,??DataTable43  ;; 0x40021000
   \   0000000A   ........           BL       GPIO_ResetBits
   \   0000000E   ........           LDR.W    R0,??DataTable44
   \   00000012   0078               LDRB     R0,[R0, #+0]
   \   00000014   10F0F700           ANDS     R0,R0,#0xF7
   \   00000018   ........           LDR.W    R1,??DataTable44
   \   0000001C   0870               STRB     R0,[R1, #+0]
   \   0000001E   01BD               POP      {R0,PC}          ;; return

   \                                 In section .text, align 2, keep-with-next
   \   static __interwork __softfp void SET_HITER(void)
   \                     SET_HITER:
   \   00000000   80B5               PUSH     {R7,LR}
   \   00000002   0421               MOVS     R1,#+4
   \   00000004   ........           LDR.W    R0,??DataTable43_1  ;; 0x40021800
   \   00000008   ........           BL       GPIO_SetBits
   \   0000000C   ........           LDR.W    R0,??DataTable44
   \   00000010   0078               LDRB     R0,[R0, #+0]
   \   00000012   50F01000           ORRS     R0,R0,#0x10
   \   00000016   ........           LDR.W    R1,??DataTable44
   \   0000001A   0870               STRB     R0,[R1, #+0]
   \   0000001C   01BD               POP      {R0,PC}          ;; return

   \                                 In section .text, align 2, keep-with-next
   \   static __interwork __softfp void RESET_HITER(void)
   \                     RESET_HITER:
   \   00000000   80B5               PUSH     {R7,LR}
   \   00000002   0421               MOVS     R1,#+4
   \   00000004   ........           LDR.W    R0,??DataTable43_1  ;; 0x40021800
   \   00000008   ........           BL       GPIO_ResetBits
   \   0000000C   ........           LDR.W    R0,??DataTable44
   \   00000010   0078               LDRB     R0,[R0, #+0]
   \   00000012   10F0EF00           ANDS     R0,R0,#0xEF
   \   00000016   ........           LDR.W    R1,??DataTable44
   \   0000001A   0870               STRB     R0,[R1, #+0]
   \   0000001C   01BD               POP      {R0,PC}          ;; return

   \                                 In section .text, align 2, keep-with-next
   \   static __interwork __softfp uint8_t Is_BREAK(void)
   \                     Is_BREAK:
   \   00000000   80B5               PUSH     {R7,LR}
   \   00000002   4FF40071           MOV      R1,#+512
   \   00000006   ........           LDR.W    R0,??DataTable44_1  ;; 0x40020800
   \   0000000A   ........           BL       GPIO_ReadInputDataBit
   \   0000000E   0128               CMP      R0,#+1
   \   00000010   01D1               BNE.N    ??Is_BREAK_0
   \   00000012   0020               MOVS     R0,#+0
   \   00000014   00E0               B.N      ??Is_BREAK_1
   \                     ??Is_BREAK_0:
   \   00000016   0120               MOVS     R0,#+1
   \                     ??Is_BREAK_1:
   \   00000018   02BD               POP      {R1,PC}          ;; return

   \                                 In section .text, align 2, keep-with-next
   \   static __interwork __softfp uint8_t Is_GEAR(void)
   \                     Is_GEAR:
   \   00000000   80B5               PUSH     {R7,LR}
   \   00000002   8021               MOVS     R1,#+128
   \   00000004   ........           LDR.W    R0,??DataTable44_1  ;; 0x40020800
   \   00000008   ........           BL       GPIO_ReadInputDataBit
   \   0000000C   0128               CMP      R0,#+1
   \   0000000E   01D1               BNE.N    ??Is_GEAR_0
   \   00000010   0020               MOVS     R0,#+0
   \   00000012   00E0               B.N      ??Is_GEAR_1
   \                     ??Is_GEAR_0:
   \   00000014   0120               MOVS     R0,#+1
   \                     ??Is_GEAR_1:
   \   00000016   02BD               POP      {R1,PC}          ;; return

   \                                 In section .text, align 2, keep-with-next
   \   static __interwork __softfp uint8_t Is_PARKING_BREAK(void)
   \                     Is_PARKING_BREAK:
   \   00000000   80B5               PUSH     {R7,LR}
   \   00000002   4FF48071           MOV      R1,#+256
   \   00000006   ........           LDR.W    R0,??DataTable44_1  ;; 0x40020800
   \   0000000A   ........           BL       GPIO_ReadInputDataBit
   \   0000000E   0128               CMP      R0,#+1
   \   00000010   01D1               BNE.N    ??Is_PARKING_BREAK_0
   \   00000012   0020               MOVS     R0,#+0
   \   00000014   00E0               B.N      ??Is_PARKING_BREAK_1
   \                     ??Is_PARKING_BREAK_0:
   \   00000016   0120               MOVS     R0,#+1
   \                     ??Is_PARKING_BREAK_1:
   \   00000018   02BD               POP      {R1,PC}          ;; return

   \                                 In section .text, align 2, keep-with-next
   \   static __interwork __softfp uint8_t Is_LLIGHT(void)
   \                     Is_LLIGHT:
   \   00000000   80B5               PUSH     {R7,LR}
   \   00000002   4FF48071           MOV      R1,#+256
   \   00000006   ........           LDR.W    R0,??DataTable44_2  ;; 0x40020000
   \   0000000A   ........           BL       GPIO_ReadInputDataBit
   \   0000000E   0128               CMP      R0,#+1
   \   00000010   01D1               BNE.N    ??Is_LLIGHT_0
   \   00000012   0020               MOVS     R0,#+0
   \   00000014   00E0               B.N      ??Is_LLIGHT_1
   \                     ??Is_LLIGHT_0:
   \   00000016   0120               MOVS     R0,#+1
   \                     ??Is_LLIGHT_1:
   \   00000018   02BD               POP      {R1,PC}          ;; return

   \                                 In section .text, align 2, keep-with-next
   \   static __interwork __softfp uint8_t Is_RLIGHT(void)
   \                     Is_RLIGHT:
   \   00000000   80B5               PUSH     {R7,LR}
   \   00000002   4FF48051           MOV      R1,#+4096
   \   00000006   ........           LDR.W    R0,??DataTable44_1  ;; 0x40020800
   \   0000000A   ........           BL       GPIO_ReadInputDataBit
   \   0000000E   0128               CMP      R0,#+1
   \   00000010   01D1               BNE.N    ??Is_RLIGHT_0
   \   00000012   0020               MOVS     R0,#+0
   \   00000014   00E0               B.N      ??Is_RLIGHT_1
   \                     ??Is_RLIGHT_0:
   \   00000016   0120               MOVS     R0,#+1
   \                     ??Is_RLIGHT_1:
   \   00000018   02BD               POP      {R1,PC}          ;; return

   \                                 In section .text, align 2, keep-with-next
   \   static __interwork __softfp uint8_t Is_FDOOR(void)
   \                     Is_FDOOR:
   \   00000000   80B5               PUSH     {R7,LR}
   \   00000002   4FF40071           MOV      R1,#+512
   \   00000006   ........           LDR.W    R0,??DataTable43_1  ;; 0x40021800
   \   0000000A   ........           BL       GPIO_ReadInputDataBit
   \   0000000E   0128               CMP      R0,#+1
   \   00000010   01D1               BNE.N    ??Is_FDOOR_0
   \   00000012   0020               MOVS     R0,#+0
   \   00000014   00E0               B.N      ??Is_FDOOR_1
   \                     ??Is_FDOOR_0:
   \   00000016   0120               MOVS     R0,#+1
   \                     ??Is_FDOOR_1:
   \   00000018   02BD               POP      {R1,PC}          ;; return

   \                                 In section .text, align 2, keep-with-next
   \   static __interwork __softfp uint8_t Is_RDOOR(void)
   \                     Is_RDOOR:
   \   00000000   80B5               PUSH     {R7,LR}
   \   00000002   4FF48071           MOV      R1,#+256
   \   00000006   ........           LDR.W    R0,??DataTable43_1  ;; 0x40021800
   \   0000000A   ........           BL       GPIO_ReadInputDataBit
   \   0000000E   0128               CMP      R0,#+1
   \   00000010   01D1               BNE.N    ??Is_RDOOR_0
   \   00000012   0020               MOVS     R0,#+0
   \   00000014   00E0               B.N      ??Is_RDOOR_1
   \                     ??Is_RDOOR_0:
   \   00000016   0120               MOVS     R0,#+1
   \                     ??Is_RDOOR_1:
   \   00000018   02BD               POP      {R1,PC}          ;; return

   \                                 In section .text, align 2, keep-with-next
   \   static __interwork __softfp uint8_t Is_KEYON(void)
   \                     Is_KEYON:
   \   00000000   80B5               PUSH     {R7,LR}
   \   00000002   4FF40071           MOV      R1,#+512
   \   00000006   ........           LDR.W    R0,??DataTable44_3  ;; 0x40020c00
   \   0000000A   ........           BL       GPIO_ReadInputDataBit
   \   0000000E   0128               CMP      R0,#+1
   \   00000010   01D1               BNE.N    ??Is_KEYON_0
   \   00000012   0120               MOVS     R0,#+1
   \   00000014   00E0               B.N      ??Is_KEYON_1
   \                     ??Is_KEYON_0:
   \   00000016   0020               MOVS     R0,#+0
   \                     ??Is_KEYON_1:
   \   00000018   02BD               POP      {R1,PC}          ;; return

   \                                 In section .text, align 2, keep-with-next
   \   static __interwork __softfp uint8_t Is_RDISTANCE(void)
   \                     Is_RDISTANCE:
   \   00000000   80B5               PUSH     {R7,LR}
   \   00000002   4FF48071           MOV      R1,#+256
   \   00000006   ........           LDR.W    R0,??DataTable44_3  ;; 0x40020c00
   \   0000000A   ........           BL       GPIO_ReadInputDataBit
   \   0000000E   0128               CMP      R0,#+1
   \   00000010   01D1               BNE.N    ??Is_RDISTANCE_0
   \   00000012   0020               MOVS     R0,#+0
   \   00000014   00E0               B.N      ??Is_RDISTANCE_1
   \                     ??Is_RDISTANCE_0:
   \   00000016   0120               MOVS     R0,#+1
   \                     ??Is_RDISTANCE_1:
   \   00000018   02BD               POP      {R1,PC}          ;; return
      3          #include "main.h"
      4          #include "Log.h"
      5          #include "Voice.h"
      6          

   \                                 In section .bss, align 1
      7          u8 EnginOnActionFlag;  // 엔진 시작 모드인가
   \                     EnginOnActionFlag:
   \   00000000                      DS8 1

   \                                 In section .bss, align 1
      8          u8 EnginOnActionStep;  // 엔진온 상황은 어디서 진행 중인가?
   \                     EnginOnActionStep:
   \   00000000                      DS8 1
      9          

   \                                 In section .bss, align 1
     10          u8 EnginOffActionFlag;  // 공회전 모드로 들어가는가?
   \                     EnginOffActionFlag:
   \   00000000                      DS8 1

   \                                 In section .bss, align 1
     11          u8 EnginOffActionStep;  // 공제 공회전 진행 상황은 어디서 진행 중인가?
   \                     EnginOffActionStep:
   \   00000000                      DS8 1
     12          

   \                                 In section .bss, align 2
     13          u16 EnginOnLimit_Time;     // 실패시 재시동 시간 3초
   \                     EnginOnLimit_Time:
   \   00000000                      DS8 2

   \                                 In section .bss, align 2
     14          u16 EnginOffLimit_Time;    // 공회전 정지 실패시 재시동 시간 10초
   \                     EnginOffLimit_Time:
   \   00000000                      DS8 2
     15          

   \                                 In section .bss, align 1
     16          u8 EnginOff_Flag;  // 공회전으로 현재 엔진 오프중 ( 출력 제어중 )
   \                     EnginOff_Flag:
   \   00000000                      DS8 1
     17          

   \                                 In section .bss, align 1
     18          u8 EnginOffLimit_Flag;		//  공회전 재진입 방지 플래그
   \                     EnginOffLimit_Flag:
   \   00000000                      DS8 1
     19          

   \                                 In section .bss, align 1
     20          u8 Ref_OverDrive;     // 일정 이상 SPEED를 내고 달렸을경우 공회전 정지 조건 추가
   \                     Ref_OverDrive:
   \   00000000                      DS8 1

   \                                 In section .bss, align 1
     21          u8 EMSOn_Check;      //  시동온를 체크 한다.
   \                     EMSOn_Check:
   \   00000000                      DS8 1

   \                                 In section .bss, align 1
     22          u8 EMSOff_Check;     //  시동오프를 체크 한다.
   \                     EMSOff_Check:
   \   00000000                      DS8 1
     23          

   \                                 In section .bss, align 1
     24          u8 EMS_Reley_Off;              // 릴레이 오프 동작 Flag
   \                     EMS_Reley_Off:
   \   00000000                      DS8 1
     25          

   \                                 In section .bss, align 1
     26          u8 EMS_Replay_Flag;
   \                     EMS_Replay_Flag:
   \   00000000                      DS8 1
     27          

   \                                 In section .bss, align 2
     28          u16 EmsOnProgress;                 // 현재 엔진온 조건들을 모두 확인한다. ( DEBUG용)
   \                     EmsOnProgress:
   \   00000000                      DS8 2

   \                                 In section .bss, align 2
     29          u16 EmsOffProgress;                // 현재 엔진오프 조건들을 모두 확인한다. ( DEBUG용)
   \                     EmsOffProgress:
   \   00000000                      DS8 2
     30          

   \                                 In section .bss, align 4
     31          u8 Speed_Buffer1[10];
   \                     Speed_Buffer1:
   \   00000000                      DS8 12

   \                                 In section .bss, align 4
     32          u8 Speed_Buffer2[10];
   \                     Speed_Buffer2:
   \   00000000                      DS8 12

   \                                 In section .bss, align 1
     33          u8 Speed_Check_Count;
   \                     Speed_Check_Count:
   \   00000000                      DS8 1

   \                                 In section .bss, align 4
     34          u8 INPUT_DATA[9];             // 입력중인 핀 데이터
   \                     INPUT_DATA:
   \   00000000                      DS8 12

   \                                 In section .bss, align 2
     35          u16 INPUT_REVERSE_DATA;       // 입력중인 핀 데이터
   \                     INPUT_REVERSE_DATA:
   \   00000000                      DS8 2

   \                                 In section .bss, align 1
     36          u8 OUTPUT_DATA;
   \                     OUTPUT_DATA:
   \   00000000                      DS8 1
     37          

   \                                 In section .text, align 2, keep-with-next
     38          void EMS_Config(void)
     39          {
   \                     EMS_Config:
   \   00000000   80B5               PUSH     {R7,LR}
     40              EnginOnActionFlag = 0;
   \   00000002   ........           LDR.W    R0,??DataTable44_4
   \   00000006   0021               MOVS     R1,#+0
   \   00000008   0170               STRB     R1,[R0, #+0]
     41              EnginOnActionStep = 0;     
   \   0000000A   ........           LDR.W    R0,??DataTable44_5
   \   0000000E   0021               MOVS     R1,#+0
   \   00000010   0170               STRB     R1,[R0, #+0]
     42              EnginOffActionFlag = 0;
   \   00000012   ........           LDR.W    R0,??DataTable44_6
   \   00000016   0021               MOVS     R1,#+0
   \   00000018   0170               STRB     R1,[R0, #+0]
     43              EnginOffActionStep = 0;
   \   0000001A   ........           LDR.W    R0,??DataTable44_7
   \   0000001E   0021               MOVS     R1,#+0
   \   00000020   0170               STRB     R1,[R0, #+0]
     44              EnginOnLimit_Time = 0;
   \   00000022   ........           LDR.W    R0,??DataTable44_8
   \   00000026   0021               MOVS     R1,#+0
   \   00000028   0180               STRH     R1,[R0, #+0]
     45              
     46              EnginOff_Flag = 0;
   \   0000002A   ........           LDR.W    R0,??DataTable44_9
   \   0000002E   0021               MOVS     R1,#+0
   \   00000030   0170               STRB     R1,[R0, #+0]
     47              Ref_OverDrive = 0;
   \   00000032   ........           LDR.W    R0,??DataTable44_10
   \   00000036   0021               MOVS     R1,#+0
   \   00000038   0170               STRB     R1,[R0, #+0]
     48              /////////////////////////////////////////////////////////
     49              
     50              EnginOffLimit_Time = MS_TIMER_1sec;      // 시작하자 마자 공회전 3분간 진입금지
   \   0000003A   ........           LDR.W    R0,??DataTable44_11
   \   0000003E   ........           LDR.W    R1,??DataTable44_12
   \   00000042   0988               LDRH     R1,[R1, #+0]
   \   00000044   0180               STRH     R1,[R0, #+0]
     51              EnginOffLimit_Flag = 1;        
   \   00000046   ........           LDR.W    R0,??DataTable44_13
   \   0000004A   0121               MOVS     R1,#+1
   \   0000004C   0170               STRB     R1,[R0, #+0]
     52              
     53              ///////////////////////////////////////////////////////
     54              
     55              EMS_Reley_Off = 0;
   \   0000004E   ........           LDR.W    R0,??DataTable44_14
   \   00000052   0021               MOVS     R1,#+0
   \   00000054   0170               STRB     R1,[R0, #+0]
     56              EmsOutClear();    // 전출력 오프
   \   00000056   ........           BL       EmsOutClear
     57          
     58              EMS_Replay_Flag = 0;                          // 1분간 재시동 실패시 EMS 정지
   \   0000005A   ........           LDR.W    R0,??DataTable44_15
   \   0000005E   0021               MOVS     R1,#+0
   \   00000060   0170               STRB     R1,[R0, #+0]
     59          
     60          
     61          }
   \   00000062   01BD               POP      {R0,PC}          ;; return

   \                                 In section .text, align 2, keep-with-next
     62          void EMS_Driving_Check(void)            // 운전 EMS 데이터 수집
     63          {
   \                     EMS_Driving_Check:
   \   00000000   80B5               PUSH     {R7,LR}
     64               static u16 EMS_Driving_Timer;     
     65               static u8 StartMotor_Flag = 0;
     66               
     67               if(!CheckTimeOver(1000,EMS_Driving_Timer))
   \   00000002   ........           LDR.W    R0,??DataTable44_16
   \   00000006   0188               LDRH     R1,[R0, #+0]
   \   00000008   4FF47A70           MOV      R0,#+1000
   \   0000000C   ........           BL       CheckTimeOver
   \   00000010   0028               CMP      R0,#+0
   \   00000012   75D0               BEQ.N    ??EMS_Driving_Check_0
     68                    return;      
     69               EMS_Driving_Timer = MS_TIMER;  	// 타이머 5	     
   \                     ??EMS_Driving_Check_1:
   \   00000014   ........           LDR.W    R0,??DataTable44_17  ;; 0x40000c00
   \   00000018   ........           BL       TIM_GetCounter
   \   0000001C   ........           LDR.W    R1,??DataTable44_16
   \   00000020   0880               STRH     R0,[R1, #+0]
     70               // ---- 시동 모터 체크 ------------------------------------
     71               if(Info.RPM_Value == 0)
   \   00000022   ........           LDR.W    R0,??DataTable44_18
   \   00000026   B0F82D00           LDRH     R0,[R0, #+45]
   \   0000002A   0028               CMP      R0,#+0
   \   0000002C   04D1               BNE.N    ??EMS_Driving_Check_2
     72               {
     73                  StartMotor_Flag = 1;
   \   0000002E   ........           LDR.W    R0,??DataTable44_19
   \   00000032   0121               MOVS     R1,#+1
   \   00000034   0170               STRB     R1,[R0, #+0]
   \   00000036   1CE0               B.N      ??EMS_Driving_Check_3
     74               }
     75               else if(Info.RPM_Value > 0 && StartMotor_Flag == 1)
   \                     ??EMS_Driving_Check_2:
   \   00000038   ........           LDR.W    R0,??DataTable44_18
   \   0000003C   B0F82D00           LDRH     R0,[R0, #+45]
   \   00000040   0128               CMP      R0,#+1
   \   00000042   16D3               BCC.N    ??EMS_Driving_Check_3
   \   00000044   ........           LDR.W    R0,??DataTable44_19
   \   00000048   0078               LDRB     R0,[R0, #+0]
   \   0000004A   0128               CMP      R0,#+1
   \   0000004C   11D1               BNE.N    ??EMS_Driving_Check_3
     76               {
     77                    StartMotor_Flag = 0;
   \   0000004E   ........           LDR.W    R0,??DataTable44_19
   \   00000052   0021               MOVS     R1,#+0
   \   00000054   0170               STRB     R1,[R0, #+0]
     78                    ACC_Drive_Value.Total_StartMotor++;                 
   \   00000056   ........           LDR.W    R0,??DataTable44_20
   \   0000005A   0088               LDRH     R0,[R0, #+0]
   \   0000005C   401C               ADDS     R0,R0,#+1
   \   0000005E   ........           LDR.W    R1,??DataTable44_20
   \   00000062   0880               STRH     R0,[R1, #+0]
     79                    EMS_Drive_Value.Day_StarterMotor++;
   \   00000064   ........           LDR.W    R0,??DataTable44_21
   \   00000068   008B               LDRH     R0,[R0, #+24]
   \   0000006A   401C               ADDS     R0,R0,#+1
   \   0000006C   ........           LDR.W    R1,??DataTable44_21
   \   00000070   0883               STRH     R0,[R1, #+24]
     80          
     81               }
     82               // ---- 브레이크 카운트 ------------------------------------
     83               if ( (Info.Input_Status& INPUT_BREAK_FLAG)  )
   \                     ??EMS_Driving_Check_3:
   \   00000072   ........           LDR.W    R0,??DataTable44_18
   \   00000076   90F85500           LDRB     R0,[R0, #+85]
   \   0000007A   C007               LSLS     R0,R0,#+31
   \   0000007C   06D5               BPL.N    ??EMS_Driving_Check_4
     84               {          
     85                    EMS_Drive_Value.Break_Count++;
   \   0000007E   ........           LDR.W    R0,??DataTable44_21
   \   00000082   408C               LDRH     R0,[R0, #+34]
   \   00000084   401C               ADDS     R0,R0,#+1
   \   00000086   ........           LDR.W    R1,??DataTable44_21
   \   0000008A   4884               STRH     R0,[R1, #+34]
     86               }
     87               // ---- 차량 운행시간 계산 ---------------------------------     
     88               if ( (Info.Input_Status& INPUT_KEYON_FLAG)  )          // 키온이 되어있으면 운행시간 증가
   \                     ??EMS_Driving_Check_4:
   \   0000008C   ........           LDR.W    R0,??DataTable44_18
   \   00000090   90F85500           LDRB     R0,[R0, #+85]
   \   00000094   0006               LSLS     R0,R0,#+24
   \   00000096   33D5               BPL.N    ??EMS_Driving_Check_5
     89               {          
     90                    EMS_Drive_Value.Drive_Time ++;   
   \   00000098   ........           LDR.W    R0,??DataTable44_21
   \   0000009C   4068               LDR      R0,[R0, #+4]
   \   0000009E   401C               ADDS     R0,R0,#+1
   \   000000A0   ........           LDR.W    R1,??DataTable44_21
   \   000000A4   4860               STR      R0,[R1, #+4]
     91                    if(Info.RPM_Value > 0)
   \   000000A6   ........           LDR.W    R0,??DataTable44_18
   \   000000AA   B0F82D00           LDRH     R0,[R0, #+45]
   \   000000AE   0128               CMP      R0,#+1
   \   000000B0   0DD3               BCC.N    ??EMS_Driving_Check_6
     92                    {
     93                         if(Info.SPEED_Value == 0)
   \   000000B2   ........           LDR.W    R0,??DataTable44_18
   \   000000B6   90F82C00           LDRB     R0,[R0, #+44]
   \   000000BA   0028               CMP      R0,#+0
   \   000000BC   14D1               BNE.N    ??EMS_Driving_Check_7
     94                         {
     95                              EMS_Drive_Value.DriveStop_Time++;
   \   000000BE   ........           LDR.W    R0,??DataTable44_21
   \   000000C2   C068               LDR      R0,[R0, #+12]
   \   000000C4   401C               ADDS     R0,R0,#+1
   \   000000C6   ........           LDR.W    R1,??DataTable44_21
   \   000000CA   C860               STR      R0,[R1, #+12]
   \   000000CC   0CE0               B.N      ??EMS_Driving_Check_7
     96                         }
     97                    }else if(Info.RPM_Value == 0)
   \                     ??EMS_Driving_Check_6:
   \   000000CE   ........           LDR.W    R0,??DataTable44_18
   \   000000D2   B0F82D00           LDRH     R0,[R0, #+45]
   \   000000D6   0028               CMP      R0,#+0
   \   000000D8   06D1               BNE.N    ??EMS_Driving_Check_7
     98                    {
     99                         EMS_Drive_Value.EngineStop_Time++;
   \   000000DA   ........           LDR.W    R0,??DataTable44_21
   \   000000DE   0069               LDR      R0,[R0, #+16]
   \   000000E0   401C               ADDS     R0,R0,#+1
   \   000000E2   ........           LDR.W    R1,??DataTable44_21
   \   000000E6   0861               STR      R0,[R1, #+16]
    100                    }          
    101                    if(Info.EcoStatus == 1)       // ECO가 온이면 시간 증가
   \                     ??EMS_Driving_Check_7:
   \   000000E8   ........           LDR.W    R0,??DataTable44_18
   \   000000EC   007E               LDRB     R0,[R0, #+24]
   \   000000EE   0128               CMP      R0,#+1
   \   000000F0   06D1               BNE.N    ??EMS_Driving_Check_5
    102                    {
    103                         EMS_Drive_Value.EcoUse_Time++;
   \   000000F2   ........           LDR.W    R0,??DataTable44_21
   \   000000F6   4069               LDR      R0,[R0, #+20]
   \   000000F8   401C               ADDS     R0,R0,#+1
   \   000000FA   ........           LDR.W    R1,??DataTable44_21
   \   000000FE   4861               STR      R0,[R1, #+20]
    104                    }          
    105               }
    106          }
   \                     ??EMS_Driving_Check_5:
   \                     ??EMS_Driving_Check_0:
   \   00000100   01BD               POP      {R0,PC}          ;; return

   \                                 In section .bss, align 2
   \                     ??EMS_Driving_Timer:
   \   00000000                      DS8 2

   \                                 In section .bss, align 1
   \                     ??StartMotor_Flag:
   \   00000000                      DS8 1
    107          
    108          

   \                                 In section .text, align 2, keep-with-next
    109          void ECO_Driving_Check(void)
    110          {
   \                     ECO_Driving_Check:
   \   00000000   10B5               PUSH     {R4,LR}
    111               static u16 ECO_Driving_Timer1;
    112               static u16 ECO_Driving_Timer2;     
    113               static u8 FastOverSpeed_Count = 0;
    114          
    115               static u16 QuickStart_Timer;
    116               static u8 QuickStart_Flag = 0;
    117               static u16 StopTimer = 0;
    118          
    119               static u8 Voice_Count = 0;
    120               //    u8 i;
    121               u8 Check;
    122               
    123               static u8 QuickCount = 0; 
    124               if(!CheckTimeOver(100,ECO_Driving_Timer1))
   \   00000002   ........           LDR.W    R0,??DataTable44_22
   \   00000006   0188               LDRH     R1,[R0, #+0]
   \   00000008   6420               MOVS     R0,#+100
   \   0000000A   ........           BL       CheckTimeOver
   \   0000000E   0028               CMP      R0,#+0
   \   00000010   00F0CD81           BEQ.W    ??ECO_Driving_Check_0
    125                    return;      
    126               
    127               ECO_Driving_Timer1 = MS_TIMER;  	// 타이머 5	
   \                     ??ECO_Driving_Check_1:
   \   00000014   ........           LDR.W    R0,??DataTable44_17  ;; 0x40000c00
   \   00000018   ........           BL       TIM_GetCounter
   \   0000001C   ........           LDR.W    R1,??DataTable44_22
   \   00000020   0880               STRH     R0,[R1, #+0]
    128               
    129               
    130               Check = Speed_Check_Count;    
   \   00000022   ........           LDR.W    R0,??DataTable44_23
   \   00000026   0478               LDRB     R4,[R0, #+0]
    131               
    132               // 현재값이 아닌 이전값을 계산
    133               if(Check == 0)
   \   00000028   E4B2               UXTB     R4,R4            ;; ZeroExt  R4,R4,#+24,#+24
   \   0000002A   002C               CMP      R4,#+0
   \   0000002C   01D1               BNE.N    ??ECO_Driving_Check_2
    134                    Check = 9;
   \   0000002E   0924               MOVS     R4,#+9
   \   00000030   00E0               B.N      ??ECO_Driving_Check_3
    135               else
    136                    Check --;     
   \                     ??ECO_Driving_Check_2:
   \   00000032   641E               SUBS     R4,R4,#+1
    137               
    138               // ------ 급출발 검출 -----------------------------------------------------
    139               if( Speed_Buffer1[Check] < 5 )          // 현재 속도가 5Km 이하일때 5초간 시간 유지
   \                     ??ECO_Driving_Check_3:
   \   00000034   E4B2               UXTB     R4,R4            ;; ZeroExt  R4,R4,#+24,#+24
   \   00000036   ........           LDR.W    R0,??DataTable44_24
   \   0000003A   205C               LDRB     R0,[R4, R0]
   \   0000003C   0528               CMP      R0,#+5
   \   0000003E   0BD2               BCS.N    ??ECO_Driving_Check_4
    140               {
    141                    QuickStart_Timer = MS_TIMER;
   \   00000040   ........           LDR.W    R0,??DataTable44_17  ;; 0x40000c00
   \   00000044   ........           BL       TIM_GetCounter
   \   00000048   ........           LDR.W    R1,??DataTable44_25
   \   0000004C   0880               STRH     R0,[R1, #+0]
    142                    QuickStart_Flag = 1;
   \   0000004E   ........           LDR.W    R0,??DataTable44_26
   \   00000052   0121               MOVS     R1,#+1
   \   00000054   0170               STRB     R1,[R0, #+0]
   \   00000056   11E0               B.N      ??ECO_Driving_Check_5
    143               }else
    144               {
    145                    if(QuickStart_Flag == 1)
   \                     ??ECO_Driving_Check_4:
   \   00000058   ........           LDR.W    R0,??DataTable44_26
   \   0000005C   0078               LDRB     R0,[R0, #+0]
   \   0000005E   0128               CMP      R0,#+1
   \   00000060   0CD1               BNE.N    ??ECO_Driving_Check_5
    146                    {
    147                         if(CheckTimeOver(5000,QuickStart_Timer))                    
   \   00000062   ........           LDR.W    R0,??DataTable44_25
   \   00000066   0188               LDRH     R1,[R0, #+0]
   \   00000068   41F28830           MOVW     R0,#+5000
   \   0000006C   ........           BL       CheckTimeOver
   \   00000070   0028               CMP      R0,#+0
   \   00000072   03D0               BEQ.N    ??ECO_Driving_Check_5
    148                              QuickStart_Flag = 0;
   \   00000074   ........           LDR.W    R0,??DataTable44_26
   \   00000078   0021               MOVS     R1,#+0
   \   0000007A   0170               STRB     R1,[R0, #+0]
    149                    }
    150                    
    151               }
    152               if( QuickCount >= 20 && QuickStart_Flag == 1 )       // 1초전 
   \                     ??ECO_Driving_Check_5:
   \   0000007C   ........           LDR.W    R0,??DataTable44_27
   \   00000080   0078               LDRB     R0,[R0, #+0]
   \   00000082   1428               CMP      R0,#+20
   \   00000084   43D3               BCC.N    ??ECO_Driving_Check_6
   \   00000086   ........           LDR.W    R0,??DataTable44_26
   \   0000008A   0078               LDRB     R0,[R0, #+0]
   \   0000008C   0128               CMP      R0,#+1
   \   0000008E   3ED1               BNE.N    ??ECO_Driving_Check_6
    153               {              
    154                    if( ( Speed_Buffer1[Check] - Speed_Buffer2[Check] ) > SFLASH_Memory.QuickStart )
   \   00000090   ........           LDR.W    R0,??DataTable44_28
   \   00000094   B0F89C00           LDRH     R0,[R0, #+156]
   \   00000098   E4B2               UXTB     R4,R4            ;; ZeroExt  R4,R4,#+24,#+24
   \   0000009A   ........           LDR.W    R1,??DataTable44_24
   \   0000009E   615C               LDRB     R1,[R4, R1]
   \   000000A0   E4B2               UXTB     R4,R4            ;; ZeroExt  R4,R4,#+24,#+24
   \   000000A2   ........           LDR.W    R2,??DataTable44_29
   \   000000A6   A25C               LDRB     R2,[R4, R2]
   \   000000A8   891A               SUBS     R1,R1,R2
   \   000000AA   8842               CMP      R0,R1
   \   000000AC   2BDA               BGE.N    ??ECO_Driving_Check_7
    155                    {
    156                         QuickCount = 0;               
   \   000000AE   ........           LDR.W    R0,??DataTable44_27
   \   000000B2   0021               MOVS     R1,#+0
   \   000000B4   0170               STRB     R1,[R0, #+0]
    157                         if(QuickStart_Flag == 1)
   \   000000B6   ........           LDR.W    R0,??DataTable44_26
   \   000000BA   0078               LDRB     R0,[R0, #+0]
   \   000000BC   0128               CMP      R0,#+1
   \   000000BE   0DD1               BNE.N    ??ECO_Driving_Check_8
    158                         {
    159                              EMS_Drive_Value.QuickStart_Count++;
   \   000000C0   ........           LDR.W    R0,??DataTable44_21
   \   000000C4   808B               LDRH     R0,[R0, #+28]
   \   000000C6   401C               ADDS     R0,R0,#+1
   \   000000C8   ........           LDR.W    R1,??DataTable44_21
   \   000000CC   8883               STRH     R0,[R1, #+28]
    160                              ECO_Driving.QuickStart++;
   \   000000CE   ........           LDR.W    R0,??DataTable44_30
   \   000000D2   8088               LDRH     R0,[R0, #+4]
   \   000000D4   401C               ADDS     R0,R0,#+1
   \   000000D6   ........           LDR.W    R1,??DataTable44_30
   \   000000DA   8880               STRH     R0,[R1, #+4]
    161                         }
    162                         QuickStart_Flag = 0 ;
   \                     ??ECO_Driving_Check_8:
   \   000000DC   ........           LDR.W    R0,??DataTable44_26
   \   000000E0   0021               MOVS     R1,#+0
   \   000000E2   0170               STRB     R1,[R0, #+0]
    163                         // LOG -------------------------------------------------------------------------			
    164                         if(LOGWRITE & LOG_ECO_DRIVE)                                
   \   000000E4   ........           LDR.W    R0,??DataTable44_31
   \   000000E8   0068               LDR      R0,[R0, #+0]
   \   000000EA   0005               LSLS     R0,R0,#+20
   \   000000EC   0FD5               BPL.N    ??ECO_Driving_Check_6
    165                         {
    166                              sprintf((char *)Buffer,"ECO_QUICK_START CHECK \r\n "); 
   \   000000EE   ........           LDR.W    R1,??DataTable44_32
   \   000000F2   ........           LDR.W    R0,??DataTable44_33
   \   000000F6   ........           BL       sprintf
    167                              Write_Log(Buffer, NORMAL_LOG);
   \   000000FA   0121               MOVS     R1,#+1
   \   000000FC   ........           LDR.W    R0,??DataTable44_33
   \   00000100   ........           BL       Write_Log
   \   00000104   03E0               B.N      ??ECO_Driving_Check_6
    168                         }            
    169                         // -----------------------------------------------------------------------------				
    170                    }else
    171                         QuickCount = 20;
   \                     ??ECO_Driving_Check_7:
   \   00000106   ........           LDR.W    R0,??DataTable44_27
   \   0000010A   1421               MOVS     R1,#+20
   \   0000010C   0170               STRB     R1,[R0, #+0]
    172                    
    173               }     
    174               // ------ 급가속 검출 -----------------------------------------------------
    175               if( Speed_Buffer1[Speed_Check_Count] > 3 && ( QuickCount >= 20 ))       // 1초전 
   \                     ??ECO_Driving_Check_6:
   \   0000010E   ........           LDR.W    R0,??DataTable44_23
   \   00000112   0078               LDRB     R0,[R0, #+0]
   \   00000114   ........           LDR.W    R1,??DataTable44_24
   \   00000118   405C               LDRB     R0,[R0, R1]
   \   0000011A   0428               CMP      R0,#+4
   \   0000011C   3DD3               BCC.N    ??ECO_Driving_Check_9
   \   0000011E   ........           LDR.W    R0,??DataTable44_27
   \   00000122   0078               LDRB     R0,[R0, #+0]
   \   00000124   1428               CMP      R0,#+20
   \   00000126   38D3               BCC.N    ??ECO_Driving_Check_9
    176               {              
    177                    if( ( Speed_Buffer1[Check] - Speed_Buffer2[Check] ) > SFLASH_Memory.QuickAccel )
   \   00000128   ........           LDR.W    R0,??DataTable44_28
   \   0000012C   B0F89800           LDRH     R0,[R0, #+152]
   \   00000130   E4B2               UXTB     R4,R4            ;; ZeroExt  R4,R4,#+24,#+24
   \   00000132   ........           LDR.W    R1,??DataTable44_24
   \   00000136   615C               LDRB     R1,[R4, R1]
   \   00000138   E4B2               UXTB     R4,R4            ;; ZeroExt  R4,R4,#+24,#+24
   \   0000013A   ........           LDR.W    R2,??DataTable44_29
   \   0000013E   A25C               LDRB     R2,[R4, R2]
   \   00000140   891A               SUBS     R1,R1,R2
   \   00000142   8842               CMP      R0,R1
   \   00000144   25DA               BGE.N    ??ECO_Driving_Check_10
    178                    {
    179                         QuickCount = 0;
   \   00000146   ........           LDR.W    R0,??DataTable44_27
   \   0000014A   0021               MOVS     R1,#+0
   \   0000014C   0170               STRB     R1,[R0, #+0]
    180                         ECO_Driving.QuickAccel++;
   \   0000014E   ........           LDR.W    R0,??DataTable44_30
   \   00000152   4088               LDRH     R0,[R0, #+2]
   \   00000154   401C               ADDS     R0,R0,#+1
   \   00000156   ........           LDR.W    R1,??DataTable44_30
   \   0000015A   4880               STRH     R0,[R1, #+2]
    181                         EMS_Drive_Value.QuickAccel_Count++;
   \   0000015C   ........           LDR.W    R0,??DataTable44_21
   \   00000160   408B               LDRH     R0,[R0, #+26]
   \   00000162   401C               ADDS     R0,R0,#+1
   \   00000164   ........           LDR.W    R1,??DataTable44_21
   \   00000168   4883               STRH     R0,[R1, #+26]
    182                         Voice_OutAdd(VOICE_QUCIKSTART);	// 음성 출력
   \   0000016A   0120               MOVS     R0,#+1
   \   0000016C   ........           BL       Voice_OutAdd
    183                         
    184          //               if(QuickStart_Flag == 1)
    185          //                    EMS_Drive_Value.QuickStart_Count++;
    186                         
    187                         // LOG -------------------------------------------------------------------------			
    188                         if(LOGWRITE & LOG_ECO_DRIVE)                                
   \   00000170   ........           LDR.W    R0,??DataTable44_31
   \   00000174   0068               LDR      R0,[R0, #+0]
   \   00000176   0005               LSLS     R0,R0,#+20
   \   00000178   0FD5               BPL.N    ??ECO_Driving_Check_9
    189                         {
    190                              sprintf((char *)Buffer,"ECO_QUICK_START CHECK \r\n "); 
   \   0000017A   ........           LDR.W    R1,??DataTable44_32
   \   0000017E   ........           LDR.W    R0,??DataTable44_33
   \   00000182   ........           BL       sprintf
    191                              Write_Log(Buffer, NORMAL_LOG);
   \   00000186   0121               MOVS     R1,#+1
   \   00000188   ........           LDR.W    R0,??DataTable44_33
   \   0000018C   ........           BL       Write_Log
   \   00000190   03E0               B.N      ??ECO_Driving_Check_9
    192                         }            
    193                         // -----------------------------------------------------------------------------				
    194                    }else
    195                         QuickCount = 20;          
   \                     ??ECO_Driving_Check_10:
   \   00000192   ........           LDR.W    R0,??DataTable44_27
   \   00000196   1421               MOVS     R1,#+20
   \   00000198   0170               STRB     R1,[R0, #+0]
    196               }
    197          
    198               // ---- 급정지 검출 ------------------------------------------------------
    199               
    200               if( Speed_Buffer1[Speed_Check_Count] > 11 && ( QuickCount >= 20 ))     
   \                     ??ECO_Driving_Check_9:
   \   0000019A   ........           LDR.W    R0,??DataTable44_23
   \   0000019E   0078               LDRB     R0,[R0, #+0]
   \   000001A0   ........           LDR.W    R1,??DataTable44_24
   \   000001A4   405C               LDRB     R0,[R0, R1]
   \   000001A6   0C28               CMP      R0,#+12
   \   000001A8   3DD3               BCC.N    ??ECO_Driving_Check_11
   \   000001AA   ........           LDR.W    R0,??DataTable44_27
   \   000001AE   0078               LDRB     R0,[R0, #+0]
   \   000001B0   1428               CMP      R0,#+20
   \   000001B2   38D3               BCC.N    ??ECO_Driving_Check_11
    201               {
    202                    if( ( Speed_Buffer2[Check] - Speed_Buffer1[Check] ) > SFLASH_Memory.QuickStop )
   \   000001B4   ........           LDR.W    R0,??DataTable44_28
   \   000001B8   B0F89A00           LDRH     R0,[R0, #+154]
   \   000001BC   E4B2               UXTB     R4,R4            ;; ZeroExt  R4,R4,#+24,#+24
   \   000001BE   ........           LDR.W    R1,??DataTable44_29
   \   000001C2   615C               LDRB     R1,[R4, R1]
   \   000001C4   E4B2               UXTB     R4,R4            ;; ZeroExt  R4,R4,#+24,#+24
   \   000001C6   ........           LDR.W    R2,??DataTable44_24
   \   000001CA   A25C               LDRB     R2,[R4, R2]
   \   000001CC   891A               SUBS     R1,R1,R2
   \   000001CE   8842               CMP      R0,R1
   \   000001D0   25DA               BGE.N    ??ECO_Driving_Check_12
    203                    {
    204                         QuickCount = 0;
   \   000001D2   ........           LDR.W    R0,??DataTable44_27
   \   000001D6   0021               MOVS     R1,#+0
   \   000001D8   0170               STRB     R1,[R0, #+0]
    205                         ECO_Driving.QuickStop++;
   \   000001DA   ........           LDR.W    R0,??DataTable44_30
   \   000001DE   C088               LDRH     R0,[R0, #+6]
   \   000001E0   401C               ADDS     R0,R0,#+1
   \   000001E2   ........           LDR.W    R1,??DataTable44_30
   \   000001E6   C880               STRH     R0,[R1, #+6]
    206                         EMS_Drive_Value.QuickStop_Count++;
   \   000001E8   ........           LDR.W    R0,??DataTable44_21
   \   000001EC   C08B               LDRH     R0,[R0, #+30]
   \   000001EE   401C               ADDS     R0,R0,#+1
   \   000001F0   ........           LDR.W    R1,??DataTable44_21
   \   000001F4   C883               STRH     R0,[R1, #+30]
    207                         Voice_OutAdd(VOICE_QUCIKSTOP);	// 음성 출력
   \   000001F6   0420               MOVS     R0,#+4
   \   000001F8   ........           BL       Voice_OutAdd
    208                         // LOG -------------------------------------------------------------------------			
    209                         if(LOGWRITE & LOG_ECO_DRIVE)                                
   \   000001FC   ........           LDR.W    R0,??DataTable44_31
   \   00000200   0068               LDR      R0,[R0, #+0]
   \   00000202   0005               LSLS     R0,R0,#+20
   \   00000204   0FD5               BPL.N    ??ECO_Driving_Check_11
    210                         {
    211                              sprintf((char *)Buffer,"ECO_QUICK_STOP CHECK \r\n "); 
   \   00000206   ........           LDR.W    R1,??DataTable44_34
   \   0000020A   ........           LDR.W    R0,??DataTable44_33
   \   0000020E   ........           BL       sprintf
    212                              Write_Log(Buffer, NORMAL_LOG);
   \   00000212   0121               MOVS     R1,#+1
   \   00000214   ........           LDR.W    R0,??DataTable44_33
   \   00000218   ........           BL       Write_Log
   \   0000021C   03E0               B.N      ??ECO_Driving_Check_11
    213                         }            
    214                         // -----------------------------------------------------------------------------					
    215                    }else
    216                    {
    217                         QuickCount = 20;
   \                     ??ECO_Driving_Check_12:
   \   0000021E   ........           LDR.W    R0,??DataTable44_27
   \   00000222   1421               MOVS     R1,#+20
   \   00000224   0170               STRB     R1,[R0, #+0]
    218                    }
    219               }
    220          
    221               //printf("%d - %d = %d \r\n",Speed_Buffer1[Check] , Speed_Buffer2[Check],Speed_Buffer1[Check] - Speed_Buffer2[Check]);
    222               QuickCount++;
   \                     ??ECO_Driving_Check_11:
   \   00000226   ........           LDR.W    R0,??DataTable44_27
   \   0000022A   0078               LDRB     R0,[R0, #+0]
   \   0000022C   401C               ADDS     R0,R0,#+1
   \   0000022E   ........           LDR.W    R1,??DataTable44_27
   \   00000232   0870               STRB     R0,[R1, #+0]
    223          //     Old_SPEED_Value = Info.SPEED_Value;	   
    224               
    225               // 과속 체크 1초 마다 진행
    226               if(!CheckTimeOver(1000,ECO_Driving_Timer2))
   \   00000234   ........           LDR.W    R0,??DataTable44_35
   \   00000238   0188               LDRH     R1,[R0, #+0]
   \   0000023A   4FF47A70           MOV      R0,#+1000
   \   0000023E   ........           BL       CheckTimeOver
   \   00000242   0028               CMP      R0,#+0
   \   00000244   00F0B380           BEQ.W    ??ECO_Driving_Check_0
    227                    return;      
    228               ECO_Driving_Timer2 = MS_TIMER;  	// 타이머 5	
   \                     ??ECO_Driving_Check_13:
   \   00000248   ........           LDR.W    R0,??DataTable44_17  ;; 0x40000c00
   \   0000024C   ........           BL       TIM_GetCounter
   \   00000250   ........           LDR.W    R1,??DataTable44_35
   \   00000254   0880               STRH     R0,[R1, #+0]
    229               
    230               // 과속 체크하기
    231               if( Info.SPEED_Value > SFLASH_Memory.FastOverSpeed )
   \   00000256   ........           LDR.W    R0,??DataTable44_28
   \   0000025A   B0F89600           LDRH     R0,[R0, #+150]
   \   0000025E   ........           LDR.W    R1,??DataTable44_18
   \   00000262   91F82C10           LDRB     R1,[R1, #+44]
   \   00000266   89B2               UXTH     R1,R1            ;; ZeroExt  R1,R1,#+16,#+16
   \   00000268   8842               CMP      R0,R1
   \   0000026A   31D2               BCS.N    ??ECO_Driving_Check_14
    232               {
    233                    ECO_Driving.FastOverSpeed++;
   \   0000026C   ........           LDR.W    R0,??DataTable44_30
   \   00000270   0088               LDRH     R0,[R0, #+0]
   \   00000272   401C               ADDS     R0,R0,#+1
   \   00000274   ........           LDR.W    R1,??DataTable44_30
   \   00000278   0880               STRH     R0,[R1, #+0]
    234                    if( FastOverSpeed_Count == 0)         
   \   0000027A   ........           LDR.W    R0,??DataTable44_36
   \   0000027E   0078               LDRB     R0,[R0, #+0]
   \   00000280   0028               CMP      R0,#+0
   \   00000282   03D1               BNE.N    ??ECO_Driving_Check_15
    235                         FastOverSpeed_Count = 5;
   \   00000284   ........           LDR.W    R0,??DataTable44_36
   \   00000288   0521               MOVS     R1,#+5
   \   0000028A   0170               STRB     R1,[R0, #+0]
    236                    if( FastOverSpeed_Count-- > 4 ) 	// 2초긴 과속을 하였을 경우                
   \                     ??ECO_Driving_Check_15:
   \   0000028C   ........           LDR.W    R0,??DataTable44_36
   \   00000290   0078               LDRB     R0,[R0, #+0]
   \   00000292   411E               SUBS     R1,R0,#+1
   \   00000294   ........           LDR.W    R2,??DataTable44_36
   \   00000298   1170               STRB     R1,[R2, #+0]
   \   0000029A   C0B2               UXTB     R0,R0            ;; ZeroExt  R0,R0,#+24,#+24
   \   0000029C   0528               CMP      R0,#+5
   \   0000029E   1BD3               BCC.N    ??ECO_Driving_Check_16
    237                    {
    238                         Voice_OutAdd(VOICE_OVERSPEED);	// 음성 출력
   \   000002A0   0220               MOVS     R0,#+2
   \   000002A2   ........           BL       Voice_OutAdd
    239                         // LOG -------------------------------------------------------------------------			
    240                         if(LOGWRITE & LOG_ECO_DRIVE)                                
   \   000002A6   ........           LDR.W    R0,??DataTable44_31
   \   000002AA   0068               LDR      R0,[R0, #+0]
   \   000002AC   0005               LSLS     R0,R0,#+20
   \   000002AE   13D5               BPL.N    ??ECO_Driving_Check_16
    241                         {
    242                              sprintf((char *)Buffer,"ECO_FASTOVER CHECK %03d \r\n ",Info.SPEED_Value); 
   \   000002B0   ........           LDR.W    R0,??DataTable44_18
   \   000002B4   90F82C20           LDRB     R2,[R0, #+44]
   \   000002B8   ........           LDR.W    R1,??DataTable44_37
   \   000002BC   ........           LDR.W    R0,??DataTable44_33
   \   000002C0   ........           BL       sprintf
    243                              Write_Log(Buffer, NORMAL_LOG);
   \   000002C4   0121               MOVS     R1,#+1
   \   000002C6   ........           LDR.W    R0,??DataTable44_33
   \   000002CA   ........           BL       Write_Log
   \   000002CE   03E0               B.N      ??ECO_Driving_Check_16
    244                         }            
    245                              // -----------------------------------------------------------------------------				
    246                    }
    247               }else
    248               {
    249                    FastOverSpeed_Count = 5 ;
   \                     ??ECO_Driving_Check_14:
   \   000002D0   ........           LDR.W    R0,??DataTable44_36
   \   000002D4   0521               MOVS     R1,#+5
   \   000002D6   0170               STRB     R1,[R0, #+0]
    250               }       
    251          
    252               // ---- 고부하 운전  -------------------------------------------
    253               if(Info.RPM_Value > SFLASH_Memory.OverloadRPM )
   \                     ??ECO_Driving_Check_16:
   \   000002D8   ........           LDR.W    R0,??DataTable44_28
   \   000002DC   B0F89E00           LDRH     R0,[R0, #+158]
   \   000002E0   ........           LDR.W    R1,??DataTable44_18
   \   000002E4   B1F82D10           LDRH     R1,[R1, #+45]
   \   000002E8   8842               CMP      R0,R1
   \   000002EA   35D2               BCS.N    ??ECO_Driving_Check_17
    254               {
    255                    ECO_Driving.OverloadRPM++; 
   \   000002EC   ........           LDR.W    R0,??DataTable44_30
   \   000002F0   0089               LDRH     R0,[R0, #+8]
   \   000002F2   401C               ADDS     R0,R0,#+1
   \   000002F4   ........           LDR.W    R1,??DataTable44_30
   \   000002F8   0881               STRH     R0,[R1, #+8]
    256                    EMS_Drive_Value.HighRPM_Count++;
   \   000002FA   ........           LDR.W    R0,??DataTable44_21
   \   000002FE   008C               LDRH     R0,[R0, #+32]
   \   00000300   401C               ADDS     R0,R0,#+1
   \   00000302   ........           LDR.W    R1,??DataTable44_21
   \   00000306   0884               STRH     R0,[R1, #+32]
    257                    if( Info.SPEED_Value > 10 )
   \   00000308   ........           LDR.W    R0,??DataTable44_18
   \   0000030C   90F82C00           LDRB     R0,[R0, #+44]
   \   00000310   0B28               CMP      R0,#+11
   \   00000312   10D3               BCC.N    ??ECO_Driving_Check_18
    258                    {
    259                         if(Voice_Count++ > 5)
   \   00000314   ........           LDR.W    R0,??DataTable44_38
   \   00000318   0078               LDRB     R0,[R0, #+0]
   \   0000031A   411C               ADDS     R1,R0,#+1
   \   0000031C   ........           LDR.W    R2,??DataTable44_38
   \   00000320   1170               STRB     R1,[R2, #+0]
   \   00000322   C0B2               UXTB     R0,R0            ;; ZeroExt  R0,R0,#+24,#+24
   \   00000324   0628               CMP      R0,#+6
   \   00000326   06D3               BCC.N    ??ECO_Driving_Check_18
    260                         {
    261                            Voice_OutAdd(VOICE_OVERRPM);	// 음성 출력	
   \   00000328   0320               MOVS     R0,#+3
   \   0000032A   ........           BL       Voice_OutAdd
    262                            Voice_Count = 0;
   \   0000032E   ........           LDR.W    R0,??DataTable44_38
   \   00000332   0021               MOVS     R1,#+0
   \   00000334   0170               STRB     R1,[R0, #+0]
    263                         }
    264                    }
    265                    // LOG -------------------------------------------------------------------------			
    266                    if(LOGWRITE & LOG_ECO_DRIVE)                                
   \                     ??ECO_Driving_Check_18:
   \   00000336   ........           LDR.W    R0,??DataTable44_31
   \   0000033A   0068               LDR      R0,[R0, #+0]
   \   0000033C   0005               LSLS     R0,R0,#+20
   \   0000033E   0FD5               BPL.N    ??ECO_Driving_Check_19
    267                    {
    268                         sprintf((char *)Buffer,"ECO_OVERLOAD_RPM CHECK \r\n "); 
   \   00000340   ........           LDR.W    R1,??DataTable44_39
   \   00000344   ........           LDR.W    R0,??DataTable44_33
   \   00000348   ........           BL       sprintf
    269                         Write_Log(Buffer, NORMAL_LOG);
   \   0000034C   0121               MOVS     R1,#+1
   \   0000034E   ........           LDR.W    R0,??DataTable44_33
   \   00000352   ........           BL       Write_Log
   \   00000356   03E0               B.N      ??ECO_Driving_Check_19
    270                    }            
    271                    // -----------------------------------------------------------------------------					
    272               }else
    273               {
    274                    Voice_Count = 6;
   \                     ??ECO_Driving_Check_17:
   \   00000358   ........           LDR.W    R0,??DataTable44_38
   \   0000035C   0621               MOVS     R1,#+6
   \   0000035E   0170               STRB     R1,[R0, #+0]
    275               }
    276               
    277               //------------- 5분이상 가만히 서있을경우 경보음
    278               
    279               if( Info.RPM_Value > 0 &&  Info.SPEED_Value == 0 )
   \                     ??ECO_Driving_Check_19:
   \   00000360   ........           LDR.W    R0,??DataTable44_18
   \   00000364   B0F82D00           LDRH     R0,[R0, #+45]
   \   00000368   0128               CMP      R0,#+1
   \   0000036A   1CD3               BCC.N    ??ECO_Driving_Check_20
   \   0000036C   ........           LDR.W    R0,??DataTable44_18
   \   00000370   90F82C00           LDRB     R0,[R0, #+44]
   \   00000374   0028               CMP      R0,#+0
   \   00000376   16D1               BNE.N    ??ECO_Driving_Check_20
    280               {
    281                    StopTimer++;
   \   00000378   ........           LDR.W    R0,??DataTable45
   \   0000037C   0088               LDRH     R0,[R0, #+0]
   \   0000037E   401C               ADDS     R0,R0,#+1
   \   00000380   ........           LDR.W    R1,??DataTable45
   \   00000384   0880               STRH     R0,[R1, #+0]
    282                    if(StopTimer > 300)
   \   00000386   ........           LDR.W    R0,??DataTable45
   \   0000038A   0088               LDRH     R0,[R0, #+0]
   \   0000038C   40F22D11           MOVW     R1,#+301
   \   00000390   8842               CMP      R0,R1
   \   00000392   0CD3               BCC.N    ??ECO_Driving_Check_21
    283                    {
    284                         Voice_Error_Out = 1;
   \   00000394   ........           LDR.W    R0,??DataTable44_40
   \   00000398   0121               MOVS     R1,#+1
   \   0000039A   0170               STRB     R1,[R0, #+0]
    285                         StopTimer = 0;
   \   0000039C   ........           LDR.W    R0,??DataTable45
   \   000003A0   0021               MOVS     R1,#+0
   \   000003A2   0180               STRH     R1,[R0, #+0]
   \   000003A4   03E0               B.N      ??ECO_Driving_Check_21
    286                    }
    287               }else
    288               {
    289                    StopTimer = 0;
   \                     ??ECO_Driving_Check_20:
   \   000003A6   ........           LDR.W    R0,??DataTable45
   \   000003AA   0021               MOVS     R1,#+0
   \   000003AC   0180               STRH     R1,[R0, #+0]
    290               }
    291               
    292          }
   \                     ??ECO_Driving_Check_21:
   \                     ??ECO_Driving_Check_0:
   \   000003AE   10BD               POP      {R4,PC}          ;; return

   \                                 In section .bss, align 2
   \                     ??ECO_Driving_Timer1:
   \   00000000                      DS8 2

   \                                 In section .bss, align 2
   \                     ??ECO_Driving_Timer2:
   \   00000000                      DS8 2

   \                                 In section .bss, align 1
   \                     ??FastOverSpeed_Count:
   \   00000000                      DS8 1

   \                                 In section .bss, align 2
   \                     ??QuickStart_Timer:
   \   00000000                      DS8 2

   \                                 In section .bss, align 1
   \                     ??QuickStart_Flag:
   \   00000000                      DS8 1

   \                                 In section .bss, align 2
   \                     ??StopTimer:
   \   00000000                      DS8 2

   \                                 In section .bss, align 1
   \                     ??Voice_Count:
   \   00000000                      DS8 1

   \                                 In section .bss, align 1
   \                     ??QuickCount:
   \   00000000                      DS8 1
    293          

   \                                 In section .text, align 2, keep-with-next
    294          void EmsOutClear(void)
    295          {
   \                     EmsOutClear:
   \   00000000   80B5               PUSH     {R7,LR}
    296               
    297               RESET_ENGINE_ON();
   \   00000002   ........           BL       RESET_ENGINE_ON
    298               RESET_ENGINE_OFF();
   \   00000006   ........           BL       RESET_ENGINE_OFF
    299               RESET_AIRCON();
   \   0000000A   ........           BL       RESET_AIRCON
    300               RESET_HITER();
   \   0000000E   ........           BL       RESET_HITER
    301               RESET_LIGHT();           
   \   00000012   ........           BL       RESET_LIGHT
    302               // LOG -------------------------------------------------------------------------
    303               // 로그 기록단위 500ms 
    304               if(LOGWRITE & LOG_EMS_ENGINE)                       
   \   00000016   ........           LDR.W    R0,??DataTable44_31
   \   0000001A   0078               LDRB     R0,[R0, #+0]
   \   0000001C   C006               LSLS     R0,R0,#+27
   \   0000001E   0AD5               BPL.N    ??EmsOutClear_0
    305               {
    306                    sprintf((char *)Buffer,"ENGINE_PIN CLEAR \r\n "); 
   \   00000020   ........           LDR.W    R1,??DataTable45_1
   \   00000024   ........           LDR.W    R0,??DataTable44_33
   \   00000028   ........           BL       sprintf
    307                    Write_Log(Buffer, NORMAL_LOG);
   \   0000002C   0121               MOVS     R1,#+1
   \   0000002E   ........           LDR.W    R0,??DataTable44_33
   \   00000032   ........           BL       Write_Log
    308               }            
    309               // -----------------------------------------------------------------------------	     
    310          }
   \                     ??EmsOutClear_0:
   \   00000036   01BD               POP      {R0,PC}          ;; return
    311          

   \                                 In section .text, align 2, keep-with-next
    312          void Ems_realtime_Check(void)
    313          { 
   \                     Ems_realtime_Check:
   \   00000000   80B5               PUSH     {R7,LR}
    314               if(Is_BREAK())
   \   00000002   ........           BL       Is_BREAK
   \   00000006   0028               CMP      R0,#+0
   \   00000008   0ED0               BEQ.N    ??Ems_realtime_Check_0
    315               {
    316                    if(INPUT_DATA[0] ++ >= 100)
   \   0000000A   ........           LDR.W    R0,??DataTable46
   \   0000000E   0078               LDRB     R0,[R0, #+0]
   \   00000010   411C               ADDS     R1,R0,#+1
   \   00000012   ........           LDR.W    R2,??DataTable46
   \   00000016   1170               STRB     R1,[R2, #+0]
   \   00000018   C0B2               UXTB     R0,R0            ;; ZeroExt  R0,R0,#+24,#+24
   \   0000001A   6428               CMP      R0,#+100
   \   0000001C   08D3               BCC.N    ??Ems_realtime_Check_1
    317                    {
    318                         INPUT_DATA[0] = 100;
   \   0000001E   ........           LDR.W    R0,??DataTable46
   \   00000022   6421               MOVS     R1,#+100
   \   00000024   0170               STRB     R1,[R0, #+0]
   \   00000026   03E0               B.N      ??Ems_realtime_Check_1
    319                    }
    320               }else 
    321               {
    322                    INPUT_DATA[0] = 0 ;
   \                     ??Ems_realtime_Check_0:
   \   00000028   ........           LDR.W    R0,??DataTable46
   \   0000002C   0021               MOVS     R1,#+0
   \   0000002E   0170               STRB     R1,[R0, #+0]
    323               }
    324               
    325               if(Is_GEAR ())
   \                     ??Ems_realtime_Check_1:
   \   00000030   ........           BL       Is_GEAR
   \   00000034   0028               CMP      R0,#+0
   \   00000036   0ED0               BEQ.N    ??Ems_realtime_Check_2
    326               {
    327                    if(INPUT_DATA[1] ++ >= 100)
   \   00000038   ........           LDR.W    R0,??DataTable46
   \   0000003C   4078               LDRB     R0,[R0, #+1]
   \   0000003E   ........           LDR.W    R1,??DataTable46
   \   00000042   421C               ADDS     R2,R0,#+1
   \   00000044   4A70               STRB     R2,[R1, #+1]
   \   00000046   C0B2               UXTB     R0,R0            ;; ZeroExt  R0,R0,#+24,#+24
   \   00000048   6428               CMP      R0,#+100
   \   0000004A   08D3               BCC.N    ??Ems_realtime_Check_3
    328                    {
    329                         INPUT_DATA[1] = 100;
   \   0000004C   ........           LDR.W    R0,??DataTable46
   \   00000050   6421               MOVS     R1,#+100
   \   00000052   4170               STRB     R1,[R0, #+1]
   \   00000054   03E0               B.N      ??Ems_realtime_Check_3
    330                    }
    331               }else 
    332               {
    333                    INPUT_DATA[1] = 0;
   \                     ??Ems_realtime_Check_2:
   \   00000056   ........           LDR.W    R0,??DataTable46
   \   0000005A   0021               MOVS     R1,#+0
   \   0000005C   4170               STRB     R1,[R0, #+1]
    334               } 
    335               if(Is_PARKING_BREAK())
   \                     ??Ems_realtime_Check_3:
   \   0000005E   ........           BL       Is_PARKING_BREAK
   \   00000062   0028               CMP      R0,#+0
   \   00000064   0ED0               BEQ.N    ??Ems_realtime_Check_4
    336               {
    337                    if(INPUT_DATA[2] ++ >= 100)
   \   00000066   ........           LDR.W    R0,??DataTable46
   \   0000006A   8078               LDRB     R0,[R0, #+2]
   \   0000006C   ........           LDR.W    R1,??DataTable46
   \   00000070   421C               ADDS     R2,R0,#+1
   \   00000072   8A70               STRB     R2,[R1, #+2]
   \   00000074   C0B2               UXTB     R0,R0            ;; ZeroExt  R0,R0,#+24,#+24
   \   00000076   6428               CMP      R0,#+100
   \   00000078   08D3               BCC.N    ??Ems_realtime_Check_5
    338                    {
    339                         INPUT_DATA[2] = 100;
   \   0000007A   ........           LDR.W    R0,??DataTable46
   \   0000007E   6421               MOVS     R1,#+100
   \   00000080   8170               STRB     R1,[R0, #+2]
   \   00000082   03E0               B.N      ??Ems_realtime_Check_5
    340                    }
    341               }else 
    342               {
    343                    INPUT_DATA[2] = 0;
   \                     ??Ems_realtime_Check_4:
   \   00000084   ........           LDR.W    R0,??DataTable46
   \   00000088   0021               MOVS     R1,#+0
   \   0000008A   8170               STRB     R1,[R0, #+2]
    344               }
    345               
    346               if(Is_RLIGHT())
   \                     ??Ems_realtime_Check_5:
   \   0000008C   ........           BL       Is_RLIGHT
   \   00000090   0028               CMP      R0,#+0
   \   00000092   0ED0               BEQ.N    ??Ems_realtime_Check_6
    347               {
    348                    if(INPUT_DATA[3] ++ >= 100)
   \   00000094   ........           LDR.W    R0,??DataTable46
   \   00000098   C078               LDRB     R0,[R0, #+3]
   \   0000009A   ........           LDR.W    R1,??DataTable46
   \   0000009E   421C               ADDS     R2,R0,#+1
   \   000000A0   CA70               STRB     R2,[R1, #+3]
   \   000000A2   C0B2               UXTB     R0,R0            ;; ZeroExt  R0,R0,#+24,#+24
   \   000000A4   6428               CMP      R0,#+100
   \   000000A6   08D3               BCC.N    ??Ems_realtime_Check_7
    349                    {
    350                         INPUT_DATA[3] = 100;
   \   000000A8   ........           LDR.W    R0,??DataTable46
   \   000000AC   6421               MOVS     R1,#+100
   \   000000AE   C170               STRB     R1,[R0, #+3]
   \   000000B0   03E0               B.N      ??Ems_realtime_Check_7
    351                    }
    352               }
    353               else 
    354               {
    355                    INPUT_DATA[3]  = 0;
   \                     ??Ems_realtime_Check_6:
   \   000000B2   ........           LDR.W    R0,??DataTable46
   \   000000B6   0021               MOVS     R1,#+0
   \   000000B8   C170               STRB     R1,[R0, #+3]
    356               }     
    357          
    358               if(Is_LLIGHT())
   \                     ??Ems_realtime_Check_7:
   \   000000BA   ........           BL       Is_LLIGHT
   \   000000BE   0028               CMP      R0,#+0
   \   000000C0   0ED0               BEQ.N    ??Ems_realtime_Check_8
    359               {
    360                    if(INPUT_DATA[4] ++ >= 100)
   \   000000C2   ........           LDR.W    R0,??DataTable46
   \   000000C6   0079               LDRB     R0,[R0, #+4]
   \   000000C8   ........           LDR.W    R1,??DataTable46
   \   000000CC   421C               ADDS     R2,R0,#+1
   \   000000CE   0A71               STRB     R2,[R1, #+4]
   \   000000D0   C0B2               UXTB     R0,R0            ;; ZeroExt  R0,R0,#+24,#+24
   \   000000D2   6428               CMP      R0,#+100
   \   000000D4   08D3               BCC.N    ??Ems_realtime_Check_9
    361                    {
    362                         INPUT_DATA[4] = 100;
   \   000000D6   ........           LDR.W    R0,??DataTable46
   \   000000DA   6421               MOVS     R1,#+100
   \   000000DC   0171               STRB     R1,[R0, #+4]
   \   000000DE   03E0               B.N      ??Ems_realtime_Check_9
    363                    }
    364               }else
    365               {
    366                    INPUT_DATA[4] = 0 ;
   \                     ??Ems_realtime_Check_8:
   \   000000E0   ........           LDR.W    R0,??DataTable46
   \   000000E4   0021               MOVS     R1,#+0
   \   000000E6   0171               STRB     R1,[R0, #+4]
    367               }
    368               
    369               
    370          
    371               if(Is_FDOOR())
   \                     ??Ems_realtime_Check_9:
   \   000000E8   ........           BL       Is_FDOOR
   \   000000EC   0028               CMP      R0,#+0
   \   000000EE   0ED0               BEQ.N    ??Ems_realtime_Check_10
    372               {
    373                    if(INPUT_DATA[5] ++ >= 100)
   \   000000F0   ........           LDR.W    R0,??DataTable46
   \   000000F4   4079               LDRB     R0,[R0, #+5]
   \   000000F6   ........           LDR.W    R1,??DataTable46
   \   000000FA   421C               ADDS     R2,R0,#+1
   \   000000FC   4A71               STRB     R2,[R1, #+5]
   \   000000FE   C0B2               UXTB     R0,R0            ;; ZeroExt  R0,R0,#+24,#+24
   \   00000100   6428               CMP      R0,#+100
   \   00000102   08D3               BCC.N    ??Ems_realtime_Check_11
    374                    {
    375                         INPUT_DATA[5] = 100;
   \   00000104   ........           LDR.W    R0,??DataTable46
   \   00000108   6421               MOVS     R1,#+100
   \   0000010A   4171               STRB     R1,[R0, #+5]
   \   0000010C   03E0               B.N      ??Ems_realtime_Check_11
    376                    }
    377               }else
    378               {
    379                    INPUT_DATA[5] = 0;
   \                     ??Ems_realtime_Check_10:
   \   0000010E   ........           LDR.W    R0,??DataTable46
   \   00000112   0021               MOVS     R1,#+0
   \   00000114   4171               STRB     R1,[R0, #+5]
    380               }
    381          
    382               if(Is_RDOOR())
   \                     ??Ems_realtime_Check_11:
   \   00000116   ........           BL       Is_RDOOR
   \   0000011A   0028               CMP      R0,#+0
   \   0000011C   0ED0               BEQ.N    ??Ems_realtime_Check_12
    383               {
    384                    if(INPUT_DATA[6] ++ >= 100)
   \   0000011E   ........           LDR.W    R0,??DataTable46
   \   00000122   8079               LDRB     R0,[R0, #+6]
   \   00000124   ........           LDR.W    R1,??DataTable46
   \   00000128   421C               ADDS     R2,R0,#+1
   \   0000012A   8A71               STRB     R2,[R1, #+6]
   \   0000012C   C0B2               UXTB     R0,R0            ;; ZeroExt  R0,R0,#+24,#+24
   \   0000012E   6428               CMP      R0,#+100
   \   00000130   08D3               BCC.N    ??Ems_realtime_Check_13
    385                    {
    386                         INPUT_DATA[6] = 100;
   \   00000132   ........           LDR.W    R0,??DataTable46
   \   00000136   6421               MOVS     R1,#+100
   \   00000138   8171               STRB     R1,[R0, #+6]
   \   0000013A   03E0               B.N      ??Ems_realtime_Check_13
    387                    }
    388               }else
    389               {
    390                    INPUT_DATA[6] = 0;
   \                     ??Ems_realtime_Check_12:
   \   0000013C   ........           LDR.W    R0,??DataTable46
   \   00000140   0021               MOVS     R1,#+0
   \   00000142   8171               STRB     R1,[R0, #+6]
    391               }
    392               if(Is_KEYON())
   \                     ??Ems_realtime_Check_13:
   \   00000144   ........           BL       Is_KEYON
   \   00000148   0028               CMP      R0,#+0
   \   0000014A   0ED0               BEQ.N    ??Ems_realtime_Check_14
    393               {
    394                    if(INPUT_DATA[7] ++ >= 100)
   \   0000014C   ........           LDR.W    R0,??DataTable46
   \   00000150   C079               LDRB     R0,[R0, #+7]
   \   00000152   ........           LDR.W    R1,??DataTable46
   \   00000156   421C               ADDS     R2,R0,#+1
   \   00000158   CA71               STRB     R2,[R1, #+7]
   \   0000015A   C0B2               UXTB     R0,R0            ;; ZeroExt  R0,R0,#+24,#+24
   \   0000015C   6428               CMP      R0,#+100
   \   0000015E   08D3               BCC.N    ??Ems_realtime_Check_15
    395                    {
    396                         INPUT_DATA[7] = 100;
   \   00000160   ........           LDR.W    R0,??DataTable46
   \   00000164   6421               MOVS     R1,#+100
   \   00000166   C171               STRB     R1,[R0, #+7]
   \   00000168   03E0               B.N      ??Ems_realtime_Check_15
    397                    }
    398               }else
    399               {
    400                    INPUT_DATA[7] = 0;
   \                     ??Ems_realtime_Check_14:
   \   0000016A   ........           LDR.W    R0,??DataTable46
   \   0000016E   0021               MOVS     R1,#+0
   \   00000170   C171               STRB     R1,[R0, #+7]
    401               }
    402               
    403          
    404               if(Is_RDISTANCE())
   \                     ??Ems_realtime_Check_15:
   \   00000172   ........           BL       Is_RDISTANCE
   \   00000176   0028               CMP      R0,#+0
   \   00000178   0ED0               BEQ.N    ??Ems_realtime_Check_16
    405               {
    406                    if(INPUT_DATA[8] ++ >= 100)
   \   0000017A   ........           LDR.W    R0,??DataTable46
   \   0000017E   007A               LDRB     R0,[R0, #+8]
   \   00000180   ........           LDR.W    R1,??DataTable46
   \   00000184   421C               ADDS     R2,R0,#+1
   \   00000186   0A72               STRB     R2,[R1, #+8]
   \   00000188   C0B2               UXTB     R0,R0            ;; ZeroExt  R0,R0,#+24,#+24
   \   0000018A   6428               CMP      R0,#+100
   \   0000018C   08D3               BCC.N    ??Ems_realtime_Check_17
    407                    {
    408                         INPUT_DATA[8] = 100;
   \   0000018E   ........           LDR.W    R0,??DataTable46
   \   00000192   6421               MOVS     R1,#+100
   \   00000194   0172               STRB     R1,[R0, #+8]
   \   00000196   03E0               B.N      ??Ems_realtime_Check_17
    409                    }
    410               }else 
    411               {
    412                    INPUT_DATA[8] = 0;
   \                     ??Ems_realtime_Check_16:
   \   00000198   ........           LDR.W    R0,??DataTable46
   \   0000019C   0021               MOVS     R1,#+0
   \   0000019E   0172               STRB     R1,[R0, #+8]
    413               }
    414          }
   \                     ??Ems_realtime_Check_17:
   \   000001A0   01BD               POP      {R0,PC}          ;; return
    415          

   \                                 In section .text, align 2, keep-with-next
    416          void Ems_Port_Check()
    417          {     
    418               u16 Input_IO = 0 ;
   \                     Ems_Port_Check:
   \   00000000   0020               MOVS     R0,#+0
    419               
    420               if( INPUT_DATA[0] == 100 )
   \   00000002   ........           LDR.W    R1,??DataTable46
   \   00000006   0978               LDRB     R1,[R1, #+0]
   \   00000008   6429               CMP      R1,#+100
   \   0000000A   01D1               BNE.N    ??Ems_Port_Check_0
    421               {
    422                    Input_IO |=  0x0001;          
   \   0000000C   50F00100           ORRS     R0,R0,#0x1
    423               }
    424               if( INPUT_DATA[1] == 100 )
   \                     ??Ems_Port_Check_0:
   \   00000010   ........           LDR.W    R1,??DataTable46
   \   00000014   4978               LDRB     R1,[R1, #+1]
   \   00000016   6429               CMP      R1,#+100
   \   00000018   01D1               BNE.N    ??Ems_Port_Check_1
    425               {
    426                    Input_IO |=  0x0002;          
   \   0000001A   50F00200           ORRS     R0,R0,#0x2
    427               }
    428               if( INPUT_DATA[2] >= 100 )
   \                     ??Ems_Port_Check_1:
   \   0000001E   ........           LDR.W    R1,??DataTable46
   \   00000022   8978               LDRB     R1,[R1, #+2]
   \   00000024   6429               CMP      R1,#+100
   \   00000026   01D3               BCC.N    ??Ems_Port_Check_2
    429               {
    430                    Input_IO |=  0x0004;          
   \   00000028   50F00400           ORRS     R0,R0,#0x4
    431               }
    432               if( INPUT_DATA[3] == 100 )
   \                     ??Ems_Port_Check_2:
   \   0000002C   ........           LDR.W    R1,??DataTable46
   \   00000030   C978               LDRB     R1,[R1, #+3]
   \   00000032   6429               CMP      R1,#+100
   \   00000034   01D1               BNE.N    ??Ems_Port_Check_3
    433               {
    434                    Input_IO |=  0x0008;          
   \   00000036   50F00800           ORRS     R0,R0,#0x8
    435               }
    436               if( INPUT_DATA[4] == 100 )
   \                     ??Ems_Port_Check_3:
   \   0000003A   ........           LDR.W    R1,??DataTable46
   \   0000003E   0979               LDRB     R1,[R1, #+4]
   \   00000040   6429               CMP      R1,#+100
   \   00000042   01D1               BNE.N    ??Ems_Port_Check_4
    437               {
    438                    Input_IO |=  0x0010;          
   \   00000044   50F01000           ORRS     R0,R0,#0x10
    439               }
    440               if( INPUT_DATA[5] == 100 )
   \                     ??Ems_Port_Check_4:
   \   00000048   ........           LDR.W    R1,??DataTable46
   \   0000004C   4979               LDRB     R1,[R1, #+5]
   \   0000004E   6429               CMP      R1,#+100
   \   00000050   01D1               BNE.N    ??Ems_Port_Check_5
    441               {
    442                    Input_IO |=  0x0020;          
   \   00000052   50F02000           ORRS     R0,R0,#0x20
    443               }
    444               if( INPUT_DATA[6] == 100 )
   \                     ??Ems_Port_Check_5:
   \   00000056   ........           LDR.W    R1,??DataTable46
   \   0000005A   8979               LDRB     R1,[R1, #+6]
   \   0000005C   6429               CMP      R1,#+100
   \   0000005E   01D1               BNE.N    ??Ems_Port_Check_6
    445               {
    446                    Input_IO |=  0x0040;          
   \   00000060   50F04000           ORRS     R0,R0,#0x40
    447               }
    448               if( INPUT_DATA[7] == 100 )
   \                     ??Ems_Port_Check_6:
   \   00000064   ........           LDR.W    R1,??DataTable46
   \   00000068   C979               LDRB     R1,[R1, #+7]
   \   0000006A   6429               CMP      R1,#+100
   \   0000006C   01D1               BNE.N    ??Ems_Port_Check_7
    449               {
    450                    Input_IO |=  0x0080;          
   \   0000006E   50F08000           ORRS     R0,R0,#0x80
    451               }
    452               if( INPUT_DATA[8] == 100 )
   \                     ??Ems_Port_Check_7:
   \   00000072   ........           LDR.W    R1,??DataTable46
   \   00000076   097A               LDRB     R1,[R1, #+8]
   \   00000078   6429               CMP      R1,#+100
   \   0000007A   02D1               BNE.N    ??Ems_Port_Check_8
    453               {
    454                    Input_IO |=  0x0100;          
   \   0000007C   4FF48071           MOV      R1,#+256
   \   00000080   0843               ORRS     R0,R1,R0
    455               }     
    456               if( Info.EcoStatus )          //에코 버튼이 눌려져 있는가?
   \                     ??Ems_Port_Check_8:
   \   00000082   ........           LDR.W    R1,??DataTable44_18
   \   00000086   097E               LDRB     R1,[R1, #+24]
   \   00000088   0029               CMP      R1,#+0
   \   0000008A   01D0               BEQ.N    ??Ems_Port_Check_9
    457               {
    458                    Input_IO |=  0x8000;                   
   \   0000008C   50F40040           ORRS     R0,R0,#0x8000
    459               }
    460          //     Input_IO = 0 ;
    461          //     Input_IO |= Is_BREAK() ;
    462          //     Input_IO |= Is_GEAR() << 1;
    463          //     Input_IO |= Is_PARKING_BREAK() << 2;
    464          //     Input_IO |= Is_RLIGHT() << 3;
    465          //     Input_IO |= Is_LLIGHT() << 4;
    466          //     Input_IO |= Is_FDOOR() << 5;
    467          //     Input_IO |= Is_RDOOR() << 6;
    468          //     Input_IO |= Is_KEYON() << 7;
    469          //     Input_IO |= Is_RDISTANCE() << 8;          
    470               
    471          	// 입력 수신 신호 설정에 따라 반전 시킨다.     
    472               Input_IO ^= Set_Info.IO_Reverser;
   \                     ??Ems_Port_Check_9:
   \   00000090   ........           LDR.W    R1,??DataTable47
   \   00000094   C989               LDRH     R1,[R1, #+14]
   \   00000096   4840               EORS     R0,R1,R0
    473               Info.Input_Status =Input_IO;
   \   00000098   ........           LDR.W    R1,??DataTable44_18
   \   0000009C   A1F85500           STRH     R0,[R1, #+85]
    474          //     printf("%x\r\n",Info.Input_Status);
    475          }
   \   000000A0   7047               BX       LR               ;; return
    476          
    477          

   \                                 In section .text, align 2, keep-with-next
    478          void EngineOn_EMSCheck(void)
    479          {
   \                     EngineOn_EMSCheck:
   \   00000000   80B5               PUSH     {R7,LR}
    480          	static u16 StartOnTimer = 0;
    481               static u8 BreakOnFlag = 0;  //공회전을 한번이라도 했다면 브레이크를 띄었다가 검사 	
    482          	static u16 CheckEms = 0;
    483          
    484               ///////////////////////////////////////////////////////////////////////////
    485               // EMS 온동작데이터
    486               ///////////////////////////////////////////////////////////////////////////
    487               if( CheckTimeOver ( 500 , CheckEms ) )
   \   00000002   ........           LDR.W    R0,??DataTable47_1
   \   00000006   0188               LDRH     R1,[R0, #+0]
   \   00000008   4FF4FA70           MOV      R0,#+500
   \   0000000C   ........           BL       CheckTimeOver
   \   00000010   0028               CMP      R0,#+0
   \   00000012   00F0AD80           BEQ.W    ??EngineOn_EMSCheck_0
    488               {
    489                    CheckEms = MS_TIMER;
   \   00000016   ........           LDR.W    R0,??DataTable44_17  ;; 0x40000c00
   \   0000001A   ........           BL       TIM_GetCounter
   \   0000001E   ........           LDR.W    R1,??DataTable47_1
   \   00000022   0880               STRH     R0,[R1, #+0]
    490                    EmsOnProgress = 0;
   \   00000024   ........           LDR.W    R0,??DataTable47_2
   \   00000028   0021               MOVS     R1,#+0
   \   0000002A   0180               STRH     R1,[R0, #+0]
    491                    if( ! EnginOnActionFlag )      // 현재 시동온 동작 중인가?
   \   0000002C   ....               LDR.N    R0,??DataTable44_4
   \   0000002E   0078               LDRB     R0,[R0, #+0]
   \   00000030   0028               CMP      R0,#+0
   \   00000032   07D1               BNE.N    ??EngineOn_EMSCheck_1
    492                         EmsOnProgress |= 0x0001;
   \   00000034   ........           LDR.W    R0,??DataTable47_2
   \   00000038   0088               LDRH     R0,[R0, #+0]
   \   0000003A   50F00100           ORRS     R0,R0,#0x1
   \   0000003E   ........           LDR.W    R1,??DataTable47_2
   \   00000042   0880               STRH     R0,[R1, #+0]
    493                    if( Info.EcoStatus )    // 시동 동작 조건 1  에코스위치가 켜져 있는가?
   \                     ??EngineOn_EMSCheck_1:
   \   00000044   ....               LDR.N    R0,??DataTable44_18
   \   00000046   007E               LDRB     R0,[R0, #+24]
   \   00000048   0028               CMP      R0,#+0
   \   0000004A   07D0               BEQ.N    ??EngineOn_EMSCheck_2
    494                         EmsOnProgress |= 0x0002;
   \   0000004C   ........           LDR.W    R0,??DataTable47_2
   \   00000050   0088               LDRH     R0,[R0, #+0]
   \   00000052   50F00200           ORRS     R0,R0,#0x2
   \   00000056   ........           LDR.W    R1,??DataTable47_2
   \   0000005A   0880               STRH     R0,[R1, #+0]
    495                    if ( ( Info.Input_Status & INPUT_KEYON_FLAG ) )    //  키가 켜져있는가?
   \                     ??EngineOn_EMSCheck_2:
   \   0000005C   ....               LDR.N    R0,??DataTable44_18
   \   0000005E   90F85500           LDRB     R0,[R0, #+85]
   \   00000062   0006               LSLS     R0,R0,#+24
   \   00000064   07D5               BPL.N    ??EngineOn_EMSCheck_3
    496                         EmsOnProgress |= 0x0004;
   \   00000066   ........           LDR.W    R0,??DataTable47_2
   \   0000006A   0088               LDRH     R0,[R0, #+0]
   \   0000006C   50F00400           ORRS     R0,R0,#0x4
   \   00000070   ........           LDR.W    R1,??DataTable47_2
   \   00000074   0880               STRH     R0,[R1, #+0]
    497                    if ( Info.RPM_Value == 0 )        // 현재 RPM이 있는가?
   \                     ??EngineOn_EMSCheck_3:
   \   00000076   ....               LDR.N    R0,??DataTable44_18
   \   00000078   B0F82D00           LDRH     R0,[R0, #+45]
   \   0000007C   0028               CMP      R0,#+0
   \   0000007E   07D1               BNE.N    ??EngineOn_EMSCheck_4
    498                         EmsOnProgress |= 0x0008;
   \   00000080   ........           LDR.W    R0,??DataTable47_2
   \   00000084   0088               LDRH     R0,[R0, #+0]
   \   00000086   50F00800           ORRS     R0,R0,#0x8
   \   0000008A   ........           LDR.W    R1,??DataTable47_2
   \   0000008E   0880               STRH     R0,[R1, #+0]
    499                    if ( Info.SPEED_Value == 0 )      // 현재 스피드가 있는가?
   \                     ??EngineOn_EMSCheck_4:
   \   00000090   ....               LDR.N    R0,??DataTable44_18
   \   00000092   90F82C00           LDRB     R0,[R0, #+44]
   \   00000096   0028               CMP      R0,#+0
   \   00000098   07D1               BNE.N    ??EngineOn_EMSCheck_5
    500                         EmsOnProgress |= 0x0010;
   \   0000009A   ........           LDR.W    R0,??DataTable47_2
   \   0000009E   0088               LDRH     R0,[R0, #+0]
   \   000000A0   50F01000           ORRS     R0,R0,#0x10
   \   000000A4   ........           LDR.W    R1,??DataTable47_2
   \   000000A8   0880               STRH     R0,[R1, #+0]
    501                    if ( Info.EMS_Data.GPS_Speed == 0 )     // GPS 속도가 있다면 
   \                     ??EngineOn_EMSCheck_5:
   \   000000AA   ....               LDR.N    R0,??DataTable44_18
   \   000000AC   B0F84D00           LDRH     R0,[R0, #+77]
   \   000000B0   0028               CMP      R0,#+0
   \   000000B2   07D1               BNE.N    ??EngineOn_EMSCheck_6
    502                         EmsOnProgress |= 0x0020;
   \   000000B4   ........           LDR.W    R0,??DataTable47_2
   \   000000B8   0088               LDRH     R0,[R0, #+0]
   \   000000BA   50F02000           ORRS     R0,R0,#0x20
   \   000000BE   ........           LDR.W    R1,??DataTable47_2
   \   000000C2   0880               STRH     R0,[R1, #+0]
    503                    if ( (Info.Input_Status & INPUT_GEAR_FLAG)  )    // 기어가 중립인가
   \                     ??EngineOn_EMSCheck_6:
   \   000000C4   ....               LDR.N    R0,??DataTable44_18
   \   000000C6   90F85500           LDRB     R0,[R0, #+85]
   \   000000CA   8007               LSLS     R0,R0,#+30
   \   000000CC   07D5               BPL.N    ??EngineOn_EMSCheck_7
    504                         EmsOnProgress |= 0x0040;            
   \   000000CE   ........           LDR.W    R0,??DataTable47_2
   \   000000D2   0088               LDRH     R0,[R0, #+0]
   \   000000D4   50F04000           ORRS     R0,R0,#0x40
   \   000000D8   ........           LDR.W    R1,??DataTable47_2
   \   000000DC   0880               STRH     R0,[R1, #+0]
    505                    if( EMS_Replay_Flag != 1)               // 1분간 2번 실패했을경우 리셋이 걸리기전까지 엔진시작 안함        
   \                     ??EngineOn_EMSCheck_7:
   \   000000DE   ....               LDR.N    R0,??DataTable44_15
   \   000000E0   0078               LDRB     R0,[R0, #+0]
   \   000000E2   0128               CMP      R0,#+1
   \   000000E4   07D0               BEQ.N    ??EngineOn_EMSCheck_8
    506                         EmsOnProgress |= 0x0080;
   \   000000E6   ........           LDR.W    R0,??DataTable47_2
   \   000000EA   0088               LDRH     R0,[R0, #+0]
   \   000000EC   50F08000           ORRS     R0,R0,#0x80
   \   000000F0   ........           LDR.W    R1,??DataTable47_2
   \   000000F4   0880               STRH     R0,[R1, #+0]
    507                    if( CheckTimeOver ( 3000 , EnginOnLimit_Time ) != 0 )   //  시동온 재시도 시간이 초과榮째?   3초
   \                     ??EngineOn_EMSCheck_8:
   \   000000F6   ....               LDR.N    R0,??DataTable44_8
   \   000000F8   0188               LDRH     R1,[R0, #+0]
   \   000000FA   40F6B830           MOVW     R0,#+3000
   \   000000FE   ........           BL       CheckTimeOver
   \   00000102   0028               CMP      R0,#+0
   \   00000104   08D0               BEQ.N    ??EngineOn_EMSCheck_9
    508                         EmsOnProgress |= 0x0100;         
   \   00000106   ........           LDR.W    R0,??DataTable47_2
   \   0000010A   0088               LDRH     R0,[R0, #+0]
   \   0000010C   4FF48071           MOV      R1,#+256
   \   00000110   0843               ORRS     R0,R1,R0
   \   00000112   ........           LDR.W    R1,??DataTable47_2
   \   00000116   0880               STRH     R0,[R1, #+0]
    509                    if ( (Info.Input_Status & INPUT_BREAK_FLAG)  )    // 브레이크를 밟고 있는가?
   \                     ??EngineOn_EMSCheck_9:
   \   00000118   ....               LDR.N    R0,??DataTable44_18
   \   0000011A   90F85500           LDRB     R0,[R0, #+85]
   \   0000011E   C007               LSLS     R0,R0,#+31
   \   00000120   08D5               BPL.N    ??EngineOn_EMSCheck_10
    510                         EmsOnProgress |= 0x0200;
   \   00000122   ........           LDR.W    R0,??DataTable47_2
   \   00000126   0088               LDRH     R0,[R0, #+0]
   \   00000128   4FF40071           MOV      R1,#+512
   \   0000012C   0843               ORRS     R0,R1,R0
   \   0000012E   ........           LDR.W    R1,??DataTable47_2
   \   00000132   0880               STRH     R0,[R1, #+0]
    511                    if( BreakOnFlag == 1 )        // 두번 브레이크 밟기로 바꾸면 3으로
   \                     ??EngineOn_EMSCheck_10:
   \   00000134   ........           LDR.W    R0,??DataTable48
   \   00000138   0078               LDRB     R0,[R0, #+0]
   \   0000013A   0128               CMP      R0,#+1
   \   0000013C   07D1               BNE.N    ??EngineOn_EMSCheck_11
    512                         EmsOnProgress |= 0x0400;
   \   0000013E   ........           LDR.W    R0,??DataTable47_2
   \   00000142   0088               LDRH     R0,[R0, #+0]
   \   00000144   50F48060           ORRS     R0,R0,#0x400
   \   00000148   ........           LDR.W    R1,??DataTable47_2
   \   0000014C   0880               STRH     R0,[R1, #+0]
    513                    if( CheckTimeOver ( 1000 , StartOnTimer ) != 0 )   //  모든 조건이 만족했을때 1초후에 시동온   
   \                     ??EngineOn_EMSCheck_11:
   \   0000014E   ........           LDR.W    R0,??DataTable48_1
   \   00000152   0188               LDRH     R1,[R0, #+0]
   \   00000154   4FF47A70           MOV      R0,#+1000
   \   00000158   ........           BL       CheckTimeOver
   \   0000015C   0028               CMP      R0,#+0
   \   0000015E   07D0               BEQ.N    ??EngineOn_EMSCheck_0
    514                         EmsOnProgress |= 0x0800;     
   \   00000160   ........           LDR.W    R0,??DataTable47_2
   \   00000164   0088               LDRH     R0,[R0, #+0]
   \   00000166   50F40060           ORRS     R0,R0,#0x800
   \   0000016A   ........           LDR.W    R1,??DataTable47_2
   \   0000016E   0880               STRH     R0,[R1, #+0]
    515               }
    516               
    517          	EMSOn_Check = 0;	
   \                     ??EngineOn_EMSCheck_0:
   \   00000170   ........           LDR.W    R0,??DataTable48_2
   \   00000174   0021               MOVS     R1,#+0
   \   00000176   0170               STRB     R1,[R0, #+0]
    518               if( EnginOnActionFlag )      // 현재 시동온 동작 중인가?
   \   00000178   ....               LDR.N    R0,??DataTable44_4
   \   0000017A   0078               LDRB     R0,[R0, #+0]
   \   0000017C   0028               CMP      R0,#+0
   \   0000017E   06D0               BEQ.N    ??EngineOn_EMSCheck_12
    519               {    
    520                    StartOnTimer = MS_TIMER;
   \   00000180   ....               LDR.N    R0,??DataTable44_17  ;; 0x40000c00
   \   00000182   ........           BL       TIM_GetCounter
   \   00000186   ........           LDR.W    R1,??DataTable48_1
   \   0000018A   0880               STRH     R0,[R1, #+0]
    521                    return ;
   \   0000018C   D0E0               B.N      ??EngineOn_EMSCheck_13
    522               } 
    523               EMSOn_Check = 1;
   \                     ??EngineOn_EMSCheck_12:
   \   0000018E   ........           LDR.W    R0,??DataTable48_2
   \   00000192   0121               MOVS     R1,#+1
   \   00000194   0170               STRB     R1,[R0, #+0]
    524               if( !Info.EcoStatus )    // 시동 동작 조건 1  에코스위치가 켜져 있는가?
   \   00000196   ....               LDR.N    R0,??DataTable44_18
   \   00000198   007E               LDRB     R0,[R0, #+24]
   \   0000019A   0028               CMP      R0,#+0
   \   0000019C   06D1               BNE.N    ??EngineOn_EMSCheck_14
    525               {    
    526                    StartOnTimer = MS_TIMER;
   \   0000019E   ....               LDR.N    R0,??DataTable44_17  ;; 0x40000c00
   \   000001A0   ........           BL       TIM_GetCounter
   \   000001A4   ........           LDR.W    R1,??DataTable48_1
   \   000001A8   0880               STRH     R0,[R1, #+0]
    527                    return;
   \   000001AA   C1E0               B.N      ??EngineOn_EMSCheck_13
    528               }
    529               EMSOn_Check = 2;     
   \                     ??EngineOn_EMSCheck_14:
   \   000001AC   ........           LDR.W    R0,??DataTable48_2
   \   000001B0   0221               MOVS     R1,#+2
   \   000001B2   0170               STRB     R1,[R0, #+0]
    530              if ( !( Info.Input_Status & INPUT_KEYON_FLAG ) )    //  키가 켜져있는가?
   \   000001B4   ....               LDR.N    R0,??DataTable44_18
   \   000001B6   90F85500           LDRB     R0,[R0, #+85]
   \   000001BA   0006               LSLS     R0,R0,#+24
   \   000001BC   06D4               BMI.N    ??EngineOn_EMSCheck_15
    531               {    
    532                    StartOnTimer = MS_TIMER;
   \   000001BE   ....               LDR.N    R0,??DataTable44_17  ;; 0x40000c00
   \   000001C0   ........           BL       TIM_GetCounter
   \   000001C4   ........           LDR.W    R1,??DataTable48_1
   \   000001C8   0880               STRH     R0,[R1, #+0]
    533                    return ;
   \   000001CA   B1E0               B.N      ??EngineOn_EMSCheck_13
    534               } 
    535               EMSOn_Check = 3;
   \                     ??EngineOn_EMSCheck_15:
   \   000001CC   ........           LDR.W    R0,??DataTable48_2
   \   000001D0   0321               MOVS     R1,#+3
   \   000001D2   0170               STRB     R1,[R0, #+0]
    536               if ( Info.RPM_Value != 0 )        // 현재 RPM이 있는가?
   \   000001D4   ....               LDR.N    R0,??DataTable44_18
   \   000001D6   B0F82D00           LDRH     R0,[R0, #+45]
   \   000001DA   0028               CMP      R0,#+0
   \   000001DC   06D0               BEQ.N    ??EngineOn_EMSCheck_16
    537               {    
    538                    StartOnTimer = MS_TIMER;
   \   000001DE   ....               LDR.N    R0,??DataTable44_17  ;; 0x40000c00
   \   000001E0   ........           BL       TIM_GetCounter
   \   000001E4   ........           LDR.W    R1,??DataTable48_1
   \   000001E8   0880               STRH     R0,[R1, #+0]
    539                    return ;
   \   000001EA   A1E0               B.N      ??EngineOn_EMSCheck_13
    540               }
    541               EMSOn_Check = 4;
   \                     ??EngineOn_EMSCheck_16:
   \   000001EC   ........           LDR.W    R0,??DataTable48_2
   \   000001F0   0421               MOVS     R1,#+4
   \   000001F2   0170               STRB     R1,[R0, #+0]
    542               if ( Info.SPEED_Value != 0 )      // 현재 스피드가 있는가?
   \   000001F4   ....               LDR.N    R0,??DataTable44_18
   \   000001F6   90F82C00           LDRB     R0,[R0, #+44]
   \   000001FA   0028               CMP      R0,#+0
   \   000001FC   06D0               BEQ.N    ??EngineOn_EMSCheck_17
    543               {    
    544                    StartOnTimer = MS_TIMER;
   \   000001FE   ....               LDR.N    R0,??DataTable44_17  ;; 0x40000c00
   \   00000200   ........           BL       TIM_GetCounter
   \   00000204   ........           LDR.W    R1,??DataTable48_1
   \   00000208   0880               STRH     R0,[R1, #+0]
    545                    return ;
   \   0000020A   91E0               B.N      ??EngineOn_EMSCheck_13
    546               }
    547               EMSOn_Check = 5;
   \                     ??EngineOn_EMSCheck_17:
   \   0000020C   ........           LDR.W    R0,??DataTable48_2
   \   00000210   0521               MOVS     R1,#+5
   \   00000212   0170               STRB     R1,[R0, #+0]
    548               if ( Info.EMS_Data.GPS_Speed != 0 )     // GPS 속도가 있다면 
   \   00000214   ....               LDR.N    R0,??DataTable44_18
   \   00000216   B0F84D00           LDRH     R0,[R0, #+77]
   \   0000021A   0028               CMP      R0,#+0
   \   0000021C   06D0               BEQ.N    ??EngineOn_EMSCheck_18
    549               {    
    550                    StartOnTimer = MS_TIMER;
   \   0000021E   ....               LDR.N    R0,??DataTable44_17  ;; 0x40000c00
   \   00000220   ........           BL       TIM_GetCounter
   \   00000224   ........           LDR.W    R1,??DataTable48_1
   \   00000228   0880               STRH     R0,[R1, #+0]
    551                    return ;
   \   0000022A   81E0               B.N      ??EngineOn_EMSCheck_13
    552               } 
    553               EMSOn_Check = 6;
   \                     ??EngineOn_EMSCheck_18:
   \   0000022C   ........           LDR.W    R0,??DataTable48_2
   \   00000230   0621               MOVS     R1,#+6
   \   00000232   0170               STRB     R1,[R0, #+0]
    554               if ( !(Info.Input_Status & INPUT_GEAR_FLAG)  )    // 기어가 중립인가
   \   00000234   ....               LDR.N    R0,??DataTable44_18
   \   00000236   90F85500           LDRB     R0,[R0, #+85]
   \   0000023A   8007               LSLS     R0,R0,#+30
   \   0000023C   06D4               BMI.N    ??EngineOn_EMSCheck_19
    555               {    
    556                    StartOnTimer = MS_TIMER;
   \   0000023E   ....               LDR.N    R0,??DataTable44_17  ;; 0x40000c00
   \   00000240   ........           BL       TIM_GetCounter
   \   00000244   ........           LDR.W    R1,??DataTable48_1
   \   00000248   0880               STRH     R0,[R1, #+0]
    557                    return ;
   \   0000024A   71E0               B.N      ??EngineOn_EMSCheck_13
    558               }
    559               EMSOn_Check = 7;             
   \                     ??EngineOn_EMSCheck_19:
   \   0000024C   ........           LDR.W    R0,??DataTable48_2
   \   00000250   0721               MOVS     R1,#+7
   \   00000252   0170               STRB     R1,[R0, #+0]
    560               if( EMS_Replay_Flag == 1)               // 1분간 2번 실패했을경우 리셋이 걸리기전까지 엔진시작 안함        
   \   00000254   ....               LDR.N    R0,??DataTable44_15
   \   00000256   0078               LDRB     R0,[R0, #+0]
   \   00000258   0128               CMP      R0,#+1
   \   0000025A   06D1               BNE.N    ??EngineOn_EMSCheck_20
    561               {    
    562                    StartOnTimer = MS_TIMER;
   \   0000025C   ....               LDR.N    R0,??DataTable44_17  ;; 0x40000c00
   \   0000025E   ........           BL       TIM_GetCounter
   \   00000262   ........           LDR.W    R1,??DataTable48_1
   \   00000266   0880               STRH     R0,[R1, #+0]
    563                    return ;
   \   00000268   62E0               B.N      ??EngineOn_EMSCheck_13
    564               }
    565               EMSOn_Check = 8;  
   \                     ??EngineOn_EMSCheck_20:
   \   0000026A   ........           LDR.W    R0,??DataTable48_2
   \   0000026E   0821               MOVS     R1,#+8
   \   00000270   0170               STRB     R1,[R0, #+0]
    566               if( CheckTimeOver ( 3000 , EnginOnLimit_Time ) == 0 )   //  시동온 재시도 시간이 초과榮째?   3초
   \   00000272   ....               LDR.N    R0,??DataTable44_8
   \   00000274   0188               LDRH     R1,[R0, #+0]
   \   00000276   40F6B830           MOVW     R0,#+3000
   \   0000027A   ........           BL       CheckTimeOver
   \   0000027E   0028               CMP      R0,#+0
   \   00000280   06D1               BNE.N    ??EngineOn_EMSCheck_21
    567               {    
    568                    StartOnTimer = MS_TIMER;
   \   00000282   ....               LDR.N    R0,??DataTable44_17  ;; 0x40000c00
   \   00000284   ........           BL       TIM_GetCounter
   \   00000288   ........           LDR.W    R1,??DataTable48_1
   \   0000028C   0880               STRH     R0,[R1, #+0]
    569                    return ;
   \   0000028E   4FE0               B.N      ??EngineOn_EMSCheck_13
    570               }     
    571               EMSOn_Check = 9;       
   \                     ??EngineOn_EMSCheck_21:
   \   00000290   ........           LDR.W    R0,??DataTable48_2
   \   00000294   0921               MOVS     R1,#+9
   \   00000296   0170               STRB     R1,[R0, #+0]
    572          
    573               if ( !(Info.Input_Status & INPUT_BREAK_FLAG)  )    // 브레이크를 밟고 있는가?
   \   00000298   ....               LDR.N    R0,??DataTable44_18
   \   0000029A   90F85500           LDRB     R0,[R0, #+85]
   \   0000029E   C007               LSLS     R0,R0,#+31
   \   000002A0   0AD4               BMI.N    ??EngineOn_EMSCheck_22
    574               {
    575                    BreakOnFlag = 1;
   \   000002A2   ........           LDR.W    R0,??DataTable48
   \   000002A6   0121               MOVS     R1,#+1
   \   000002A8   0170               STRB     R1,[R0, #+0]
    576                    StartOnTimer = MS_TIMER;
   \   000002AA   ....               LDR.N    R0,??DataTable44_17  ;; 0x40000c00
   \   000002AC   ........           BL       TIM_GetCounter
   \   000002B0   ........           LDR.W    R1,??DataTable48_1
   \   000002B4   0880               STRH     R0,[R1, #+0]
    577          	     return ;
   \   000002B6   3BE0               B.N      ??EngineOn_EMSCheck_13
    578               }
    579               EMSOn_Check = 10;
   \                     ??EngineOn_EMSCheck_22:
   \   000002B8   ........           LDR.W    R0,??DataTable48_2
   \   000002BC   0A21               MOVS     R1,#+10
   \   000002BE   0170               STRB     R1,[R0, #+0]
    580          
    581               if( BreakOnFlag == 0 )
   \   000002C0   ........           LDR.W    R0,??DataTable48
   \   000002C4   0078               LDRB     R0,[R0, #+0]
   \   000002C6   0028               CMP      R0,#+0
   \   000002C8   06D1               BNE.N    ??EngineOn_EMSCheck_23
    582               {    
    583                    StartOnTimer = MS_TIMER;
   \   000002CA   ....               LDR.N    R0,??DataTable44_17  ;; 0x40000c00
   \   000002CC   ........           BL       TIM_GetCounter
   \   000002D0   ........           LDR.W    R1,??DataTable48_1
   \   000002D4   0880               STRH     R0,[R1, #+0]
    584                    return ;          
   \   000002D6   2BE0               B.N      ??EngineOn_EMSCheck_13
    585               }
    586               EMSOn_Check = 11;  
   \                     ??EngineOn_EMSCheck_23:
   \   000002D8   ........           LDR.W    R0,??DataTable48_2
   \   000002DC   0B21               MOVS     R1,#+11
   \   000002DE   0170               STRB     R1,[R0, #+0]
    587              /* if ( !(Info.Input_Status & INPUT_BREAK_FLAG)  )    // 브레이크를 밟고 있는가?
    588               {
    589                    if(BreakOnFlag == 0)
    590                         BreakOnFlag = 1;
    591                    else if(BreakOnFlag == 2)
    592                         BreakOnFlag = 3;
    593                    StartOnTimer = MS_TIMER;
    594          	     return ;
    595               }
    596               EMSOn_Check = 10;
    597          
    598               if( BreakOnFlag == 1 )
    599               {    
    600                    BreakOnFlag = 2;
    601                    StartOnTimer = MS_TIMER;
    602                    return ;
    603               }else if( BreakOnFlag == 2 )
    604               {
    605                    StartOnTimer = MS_TIMER;
    606                    return ;          
    607               }
    608               */
    609               EMSOn_Check = 11;       
   \   000002E0   ........           LDR.W    R0,??DataTable48_2
   \   000002E4   0B21               MOVS     R1,#+11
   \   000002E6   0170               STRB     R1,[R0, #+0]
    610               if( CheckTimeOver ( 1000 , StartOnTimer ) == 0 )   //  모든 조건이 만족했을때 1초후에 시동온   
   \   000002E8   ........           LDR.W    R0,??DataTable48_1
   \   000002EC   0188               LDRH     R1,[R0, #+0]
   \   000002EE   4FF47A70           MOV      R0,#+1000
   \   000002F2   ........           BL       CheckTimeOver
   \   000002F6   0028               CMP      R0,#+0
   \   000002F8   1AD0               BEQ.N    ??EngineOn_EMSCheck_13
    611                    return ;
    612               EMSOn_Check = 12;         
   \                     ??EngineOn_EMSCheck_24:
   \   000002FA   ........           LDR.W    R0,??DataTable48_2
   \   000002FE   0C21               MOVS     R1,#+12
   \   00000300   0170               STRB     R1,[R0, #+0]
    613               // 엔지 시동 온동작
    614               if(LOGWRITE & LOG_EMS_ENGINE)                       
   \   00000302   ....               LDR.N    R0,??DataTable44_31
   \   00000304   0078               LDRB     R0,[R0, #+0]
   \   00000306   C006               LSLS     R0,R0,#+27
   \   00000308   08D5               BPL.N    ??EngineOn_EMSCheck_25
    615               {
    616                    sprintf((char*)Buffer,"ENGINE_ON START \r\n "); 
   \   0000030A   ........           LDR.W    R1,??DataTable48_3
   \   0000030E   ....               LDR.N    R0,??DataTable44_33
   \   00000310   ........           BL       sprintf
    617                    Write_Log(Buffer, NORMAL_LOG);
   \   00000314   0121               MOVS     R1,#+1
   \   00000316   ....               LDR.N    R0,??DataTable44_33
   \   00000318   ........           BL       Write_Log
    618               }     
    619               EnginOnActionFlag = 1;
   \                     ??EngineOn_EMSCheck_25:
   \   0000031C   ....               LDR.N    R0,??DataTable44_4
   \   0000031E   0121               MOVS     R1,#+1
   \   00000320   0170               STRB     R1,[R0, #+0]
    620               EnginOnActionStep = 0;               
   \   00000322   ....               LDR.N    R0,??DataTable44_5
   \   00000324   0021               MOVS     R1,#+0
   \   00000326   0170               STRB     R1,[R0, #+0]
    621               BreakOnFlag = 0;
   \   00000328   ........           LDR.W    R0,??DataTable48
   \   0000032C   0021               MOVS     R1,#+0
   \   0000032E   0170               STRB     R1,[R0, #+0]
    622          }
   \                     ??EngineOn_EMSCheck_13:
   \   00000330   01BD               POP      {R0,PC}          ;; return

   \                                 In section .bss, align 2
   \                     ??StartOnTimer:
   \   00000000                      DS8 2

   \                                 In section .bss, align 1
   \                     ??BreakOnFlag:
   \   00000000                      DS8 1

   \                                 In section .bss, align 2
   \                     ??CheckEms:
   \   00000000                      DS8 2

   \                                 In section .text, align 2, keep-with-next
    623          void EngineOff_EMSCheck(void)
    624          {
   \                     EngineOff_EMSCheck:
   \   00000000   80B5               PUSH     {R7,LR}
    625               static u16 EMSOff_Timer = 0;
    626          //     static u8 First_Check = 0;
    627               static u16 CheckEms = 0;
    628               
    629               ///////////////////////////////////////////////////////////////////////////
    630               // EMS 오프 동작데이터
    631               ///////////////////////////////////////////////////////////////////////////
    632               if( CheckTimeOver ( 500 , CheckEms )  )
   \   00000002   ........           LDR.W    R0,??DataTable49
   \   00000006   0188               LDRH     R1,[R0, #+0]
   \   00000008   4FF4FA70           MOV      R0,#+500
   \   0000000C   ........           BL       CheckTimeOver
   \   00000010   0028               CMP      R0,#+0
   \   00000012   00F01381           BEQ.W    ??EngineOff_EMSCheck_0
    633               {     
    634                    CheckEms = MS_TIMER;
   \   00000016   ........           LDR.W    R0,??DataTable49_1  ;; 0x40000c00
   \   0000001A   ........           BL       TIM_GetCounter
   \   0000001E   ........           LDR.W    R1,??DataTable49
   \   00000022   0880               STRH     R0,[R1, #+0]
    635                    EmsOffProgress = 0;
   \   00000024   ........           LDR.W    R0,??DataTable49_2
   \   00000028   0021               MOVS     R1,#+0
   \   0000002A   0180               STRH     R1,[R0, #+0]
    636                    if( !EnginOffActionFlag )       // 현재 시동오프 동작 중인가?
   \   0000002C   ........           LDR.W    R0,??DataTable49_3
   \   00000030   0078               LDRB     R0,[R0, #+0]
   \   00000032   0028               CMP      R0,#+0
   \   00000034   07D1               BNE.N    ??EngineOff_EMSCheck_1
    637                         EmsOffProgress |= 0x0001;
   \   00000036   ........           LDR.W    R0,??DataTable49_2
   \   0000003A   0088               LDRH     R0,[R0, #+0]
   \   0000003C   50F00100           ORRS     R0,R0,#0x1
   \   00000040   ........           LDR.W    R1,??DataTable49_2
   \   00000044   0880               STRH     R0,[R1, #+0]
    638                    if( Info.EcoStatus )               //  에코스위치가 켜져 있는가?
   \                     ??EngineOff_EMSCheck_1:
   \   00000046   ........           LDR.W    R0,??DataTable49_4
   \   0000004A   007E               LDRB     R0,[R0, #+24]
   \   0000004C   0028               CMP      R0,#+0
   \   0000004E   07D0               BEQ.N    ??EngineOff_EMSCheck_2
    639                         EmsOffProgress |= 0x0002;
   \   00000050   ........           LDR.W    R0,??DataTable49_2
   \   00000054   0088               LDRH     R0,[R0, #+0]
   \   00000056   50F00200           ORRS     R0,R0,#0x2
   \   0000005A   ........           LDR.W    R1,??DataTable49_2
   \   0000005E   0880               STRH     R0,[R1, #+0]
    640                    if ( ( Info.Input_Status & INPUT_KEYON_FLAG ) )    //  키가 켜져있는가?
   \                     ??EngineOff_EMSCheck_2:
   \   00000060   ........           LDR.W    R0,??DataTable49_4
   \   00000064   90F85500           LDRB     R0,[R0, #+85]
   \   00000068   0006               LSLS     R0,R0,#+24
   \   0000006A   07D5               BPL.N    ??EngineOff_EMSCheck_3
    641                         EmsOffProgress |= 0x0004;
   \   0000006C   ........           LDR.W    R0,??DataTable49_2
   \   00000070   0088               LDRH     R0,[R0, #+0]
   \   00000072   50F00400           ORRS     R0,R0,#0x4
   \   00000076   ........           LDR.W    R1,??DataTable49_2
   \   0000007A   0880               STRH     R0,[R1, #+0]
    642                    if ( Info.RPM_Value != 0 )          // 현재 RPM이 있는가?
   \                     ??EngineOff_EMSCheck_3:
   \   0000007C   ........           LDR.W    R0,??DataTable49_4
   \   00000080   B0F82D00           LDRH     R0,[R0, #+45]
   \   00000084   0028               CMP      R0,#+0
   \   00000086   07D0               BEQ.N    ??EngineOff_EMSCheck_4
    643                         EmsOffProgress |= 0x0008;
   \   00000088   ........           LDR.W    R0,??DataTable49_2
   \   0000008C   0088               LDRH     R0,[R0, #+0]
   \   0000008E   50F00800           ORRS     R0,R0,#0x8
   \   00000092   ........           LDR.W    R1,??DataTable49_2
   \   00000096   0880               STRH     R0,[R1, #+0]
    644                    if ( Info.SPEED_Value == 0 )        // 현재 스피드가 있는가?
   \                     ??EngineOff_EMSCheck_4:
   \   00000098   ........           LDR.W    R0,??DataTable49_4
   \   0000009C   90F82C00           LDRB     R0,[R0, #+44]
   \   000000A0   0028               CMP      R0,#+0
   \   000000A2   07D1               BNE.N    ??EngineOff_EMSCheck_5
    645                         EmsOffProgress |= 0x0010;
   \   000000A4   ........           LDR.W    R0,??DataTable49_2
   \   000000A8   0088               LDRH     R0,[R0, #+0]
   \   000000AA   50F01000           ORRS     R0,R0,#0x10
   \   000000AE   ........           LDR.W    R1,??DataTable49_2
   \   000000B2   0880               STRH     R0,[R1, #+0]
    646                    if ( Info.EMS_Data.GPS_Speed == 0 )     //  GPS 속도가 있다면 
   \                     ??EngineOff_EMSCheck_5:
   \   000000B4   ........           LDR.W    R0,??DataTable49_4
   \   000000B8   B0F84D00           LDRH     R0,[R0, #+77]
   \   000000BC   0028               CMP      R0,#+0
   \   000000BE   07D1               BNE.N    ??EngineOff_EMSCheck_6
    647                         EmsOffProgress |= 0x0020;
   \   000000C0   ........           LDR.W    R0,??DataTable49_2
   \   000000C4   0088               LDRH     R0,[R0, #+0]
   \   000000C6   50F02000           ORRS     R0,R0,#0x20
   \   000000CA   ........           LDR.W    R1,??DataTable49_2
   \   000000CE   0880               STRH     R0,[R1, #+0]
    648                    if ( ( Info.Input_Status & INPUT_GEAR_FLAG ) )    // 기어가 중립인가
   \                     ??EngineOff_EMSCheck_6:
   \   000000D0   ........           LDR.W    R0,??DataTable49_4
   \   000000D4   90F85500           LDRB     R0,[R0, #+85]
   \   000000D8   8007               LSLS     R0,R0,#+30
   \   000000DA   07D5               BPL.N    ??EngineOff_EMSCheck_7
    649                         EmsOffProgress |= 0x0040;
   \   000000DC   ........           LDR.W    R0,??DataTable49_2
   \   000000E0   0088               LDRH     R0,[R0, #+0]
   \   000000E2   50F04000           ORRS     R0,R0,#0x40
   \   000000E6   ........           LDR.W    R1,??DataTable49_2
   \   000000EA   0880               STRH     R0,[R1, #+0]
    650                    if ( Info.EMS_Data.Battery_Volt > SFLASH_Memory.EMS.Battery_Volt )  //  공회전중 정지 배터리 전압이 기준보다 작은가?
   \                     ??EngineOff_EMSCheck_7:
   \   000000EC   ........           LDR.W    R0,??DataTable49_5
   \   000000F0   B0F88B00           LDRH     R0,[R0, #+139]
   \   000000F4   ........           LDR.W    R1,??DataTable49_4
   \   000000F8   B1F84110           LDRH     R1,[R1, #+65]
   \   000000FC   8842               CMP      R0,R1
   \   000000FE   07D2               BCS.N    ??EngineOff_EMSCheck_8
    651                         EmsOffProgress |= 0x0080;
   \   00000100   ........           LDR.W    R0,??DataTable49_2
   \   00000104   0088               LDRH     R0,[R0, #+0]
   \   00000106   50F08000           ORRS     R0,R0,#0x80
   \   0000010A   ........           LDR.W    R1,??DataTable49_2
   \   0000010E   0880               STRH     R0,[R1, #+0]
    652                    if ( Info.EMS_Data.CoolWaterTemp_Volt < SFLASH_Memory.EMS.ColdWaterTemp_Volt )  //  냉각수 온도가 기준보다 낮은가
   \                     ??EngineOff_EMSCheck_8:
   \   00000110   ........           LDR.W    R0,??DataTable49_4
   \   00000114   B0F84500           LDRH     R0,[R0, #+69]
   \   00000118   ........           LDR.W    R1,??DataTable49_5
   \   0000011C   B1F88D10           LDRH     R1,[R1, #+141]
   \   00000120   8842               CMP      R0,R1
   \   00000122   08D2               BCS.N    ??EngineOff_EMSCheck_9
    653                         EmsOffProgress |= 0x0100;
   \   00000124   ........           LDR.W    R0,??DataTable49_2
   \   00000128   0088               LDRH     R0,[R0, #+0]
   \   0000012A   4FF48071           MOV      R1,#+256
   \   0000012E   0843               ORRS     R0,R1,R0
   \   00000130   ........           LDR.W    R1,??DataTable49_2
   \   00000134   0880               STRH     R0,[R1, #+0]
    654                    if ( Info.EMS_Data.AirPressure_Volt > SFLASH_Memory.EMS.Air_Volt )  //  공기압이 정상이 기준보다 낮은가? 
   \                     ??EngineOff_EMSCheck_9:
   \   00000136   ........           LDR.W    R0,??DataTable49_5
   \   0000013A   B0F88F00           LDRH     R0,[R0, #+143]
   \   0000013E   ........           LDR.W    R1,??DataTable49_4
   \   00000142   B1F84310           LDRH     R1,[R1, #+67]
   \   00000146   8842               CMP      R0,R1
   \   00000148   08D2               BCS.N    ??EngineOff_EMSCheck_10
    655                         EmsOffProgress |= 0x0200;
   \   0000014A   ........           LDR.W    R0,??DataTable49_2
   \   0000014E   0088               LDRH     R0,[R0, #+0]
   \   00000150   4FF40071           MOV      R1,#+512
   \   00000154   0843               ORRS     R0,R1,R0
   \   00000156   ........           LDR.W    R1,??DataTable49_2
   \   0000015A   0880               STRH     R0,[R1, #+0]
    656                    if ( !( (Info.EMS_Data.Tilt_X < TILT_LOW ) || ( Info.EMS_Data.Tilt_X > TILT_HIGH ) ))   //  기울기X 가 범위안에 들어가는가
   \                     ??EngineOff_EMSCheck_10:
   \   0000015C   ........           LDR.W    R0,??DataTable49_4
   \   00000160   90F94B00           LDRSB    R0,[R0, #+75]
   \   00000164   FB38               SUBS     R0,R0,#+251
   \   00000166   C0B2               UXTB     R0,R0            ;; ZeroExt  R0,R0,#+24,#+24
   \   00000168   0B28               CMP      R0,#+11
   \   0000016A   07D2               BCS.N    ??EngineOff_EMSCheck_11
    657                         EmsOffProgress |= 0x0400;
   \   0000016C   ........           LDR.W    R0,??DataTable49_2
   \   00000170   0088               LDRH     R0,[R0, #+0]
   \   00000172   50F48060           ORRS     R0,R0,#0x400
   \   00000176   ........           LDR.W    R1,??DataTable49_2
   \   0000017A   0880               STRH     R0,[R1, #+0]
    658                    if ( !( ( Info.EMS_Data.Tilt_Y < TILT_LOW ) || ( Info.EMS_Data.Tilt_Y > TILT_HIGH ) ))  //  기울기 Y가 범위안에 들어가는가?
   \                     ??EngineOff_EMSCheck_11:
   \   0000017C   ........           LDR.W    R0,??DataTable49_4
   \   00000180   90F94C00           LDRSB    R0,[R0, #+76]
   \   00000184   FB38               SUBS     R0,R0,#+251
   \   00000186   C0B2               UXTB     R0,R0            ;; ZeroExt  R0,R0,#+24,#+24
   \   00000188   0B28               CMP      R0,#+11
   \   0000018A   07D2               BCS.N    ??EngineOff_EMSCheck_12
    659                         EmsOffProgress |= 0x0800;    
   \   0000018C   ........           LDR.W    R0,??DataTable49_2
   \   00000190   0088               LDRH     R0,[R0, #+0]
   \   00000192   50F40060           ORRS     R0,R0,#0x800
   \   00000196   ........           LDR.W    R1,??DataTable49_2
   \   0000019A   0880               STRH     R0,[R1, #+0]
    660                    if ( SFLASH_Memory.GPS_EMS_Use != 0 )
   \                     ??EngineOff_EMSCheck_12:
   \   0000019C   ........           LDR.W    R0,??DataTable49_5
   \   000001A0   90F88900           LDRB     R0,[R0, #+137]
   \   000001A4   0028               CMP      R0,#+0
   \   000001A6   0DD0               BEQ.N    ??EngineOff_EMSCheck_13
    661                    {
    662                         if ( Flag.GPS_IsRoute == 1 )  //  GPS 플래그 확인                                        
   \   000001A8   ........           LDR.W    R0,??DataTable49_6
   \   000001AC   007B               LDRB     R0,[R0, #+12]
   \   000001AE   0128               CMP      R0,#+1
   \   000001B0   10D1               BNE.N    ??EngineOff_EMSCheck_14
    663                              EmsOffProgress |= 0x1000;           
   \   000001B2   ........           LDR.W    R0,??DataTable49_2
   \   000001B6   0088               LDRH     R0,[R0, #+0]
   \   000001B8   50F48050           ORRS     R0,R0,#0x1000
   \   000001BC   ........           LDR.W    R1,??DataTable49_2
   \   000001C0   0880               STRH     R0,[R1, #+0]
   \   000001C2   07E0               B.N      ??EngineOff_EMSCheck_14
    664                    }
    665                    else
    666                         EmsOffProgress |= 0x1000; 
   \                     ??EngineOff_EMSCheck_13:
   \   000001C4   ........           LDR.W    R0,??DataTable49_2
   \   000001C8   0088               LDRH     R0,[R0, #+0]
   \   000001CA   50F48050           ORRS     R0,R0,#0x1000
   \   000001CE   ........           LDR.W    R1,??DataTable49_2
   \   000001D2   0880               STRH     R0,[R1, #+0]
    667                    ///////////////////////////////////////////////////////////////////////////////////////////////////     
    668                    // 파킹 모드
    669                    if ( ( Info.Input_Status & INPUT_PARKING_BREAK_FLAG ) )
   \                     ??EngineOff_EMSCheck_14:
   \   000001D4   ........           LDR.W    R0,??DataTable49_4
   \   000001D8   90F85500           LDRB     R0,[R0, #+85]
   \   000001DC   4007               LSLS     R0,R0,#+29
   \   000001DE   07D5               BPL.N    ??EngineOff_EMSCheck_15
    670                         EmsOffProgress |= 0x2000;
   \   000001E0   ........           LDR.W    R0,??DataTable49_2
   \   000001E4   0088               LDRH     R0,[R0, #+0]
   \   000001E6   50F40050           ORRS     R0,R0,#0x2000
   \   000001EA   ........           LDR.W    R1,??DataTable49_2
   \   000001EE   0880               STRH     R0,[R1, #+0]
    671                         // 공회전 정지를 했다면 
    672                    if(! EnginOffLimit_Flag )
   \                     ??EngineOff_EMSCheck_15:
   \   000001F0   ........           LDR.W    R0,??DataTable49_7
   \   000001F4   0078               LDRB     R0,[R0, #+0]
   \   000001F6   0028               CMP      R0,#+0
   \   000001F8   0FD1               BNE.N    ??EngineOff_EMSCheck_16
    673                    {
    674                         if( CheckTimeOver1Sec ( 180 , EnginOffLimit_Time ) )	     // 3분간재진입 금지 1분당 5초 차이남
   \   000001FA   ........           LDR.W    R0,??DataTable49_8
   \   000001FE   0188               LDRH     R1,[R0, #+0]
   \   00000200   B420               MOVS     R0,#+180
   \   00000202   ........           BL       CheckTimeOver1Sec
   \   00000206   0028               CMP      R0,#+0
   \   00000208   07D0               BEQ.N    ??EngineOff_EMSCheck_16
    675                              EmsOffProgress |= 0x4000;                    
   \   0000020A   ........           LDR.W    R0,??DataTable49_2
   \   0000020E   0088               LDRH     R0,[R0, #+0]
   \   00000210   50F48040           ORRS     R0,R0,#0x4000
   \   00000214   ........           LDR.W    R1,??DataTable49_2
   \   00000218   0880               STRH     R0,[R1, #+0]
    676                    }
    677                    if( ! CheckTimeOver ( 3000 , EMSOff_Timer ) )		// 15. 모든 조건이 만족하였을때 3초대기
   \                     ??EngineOff_EMSCheck_16:
   \   0000021A   ........           LDR.W    R0,??DataTable50
   \   0000021E   0188               LDRH     R1,[R0, #+0]
   \   00000220   40F6B830           MOVW     R0,#+3000
   \   00000224   ........           BL       CheckTimeOver
   \   00000228   0028               CMP      R0,#+0
   \   0000022A   07D1               BNE.N    ??EngineOff_EMSCheck_0
    678                         EmsOffProgress |= 0x8000;
   \   0000022C   ........           LDR.W    R0,??DataTable49_2
   \   00000230   0088               LDRH     R0,[R0, #+0]
   \   00000232   50F40040           ORRS     R0,R0,#0x8000
   \   00000236   ........           LDR.W    R1,??DataTable49_2
   \   0000023A   0880               STRH     R0,[R1, #+0]
    679               }
    680               EMSOff_Check = 0;
   \                     ??EngineOff_EMSCheck_0:
   \   0000023C   ........           LDR.W    R0,??DataTable49_9
   \   00000240   0021               MOVS     R1,#+0
   \   00000242   0170               STRB     R1,[R0, #+0]
    681               // 공회전 정지 동작 조건
    682               if( EnginOffActionFlag )       // 현재 시동오프 동작 중인가?
   \   00000244   ........           LDR.W    R0,??DataTable49_3
   \   00000248   0078               LDRB     R0,[R0, #+0]
   \   0000024A   0028               CMP      R0,#+0
   \   0000024C   0CD0               BEQ.N    ??EngineOff_EMSCheck_17
    683               {
    684                    Info.EMS3Sec_Count = 3;
   \   0000024E   ........           LDR.W    R0,??DataTable49_4
   \   00000252   0321               MOVS     R1,#+3
   \   00000254   80F85D10           STRB     R1,[R0, #+93]
    685                    EMSOff_Timer = MS_TIMER;  
   \   00000258   ........           LDR.W    R0,??DataTable49_1  ;; 0x40000c00
   \   0000025C   ........           BL       TIM_GetCounter
   \   00000260   ........           LDR.W    R1,??DataTable50
   \   00000264   0880               STRH     R0,[R1, #+0]
    686                    return ;        
   \   00000266   0DE2               B.N      ??EngineOff_EMSCheck_18
    687               }
    688               EMSOff_Check = 1;
   \                     ??EngineOff_EMSCheck_17:
   \   00000268   ........           LDR.W    R0,??DataTable49_9
   \   0000026C   0121               MOVS     R1,#+1
   \   0000026E   0170               STRB     R1,[R0, #+0]
    689               if( !Info.EcoStatus )               //  에코스위치가 켜져 있는가?
   \   00000270   ........           LDR.W    R0,??DataTable49_4
   \   00000274   007E               LDRB     R0,[R0, #+24]
   \   00000276   0028               CMP      R0,#+0
   \   00000278   17D1               BNE.N    ??EngineOff_EMSCheck_19
    690               {
    691                    Info.EMS3Sec_Count = 3;
   \   0000027A   ........           LDR.W    R0,??DataTable49_4
   \   0000027E   0321               MOVS     R1,#+3
   \   00000280   80F85D10           STRB     R1,[R0, #+93]
    692                    Info.EMS3Min_Count = 180;
   \   00000284   ........           LDR.W    R0,??DataTable49_4
   \   00000288   B421               MOVS     R1,#+180
   \   0000028A   80F85E10           STRB     R1,[R0, #+94]
    693                    EMSOff_Timer = MS_TIMER;  
   \   0000028E   ........           LDR.W    R0,??DataTable49_1  ;; 0x40000c00
   \   00000292   ........           BL       TIM_GetCounter
   \   00000296   ........           LDR.W    R1,??DataTable50
   \   0000029A   0880               STRH     R0,[R1, #+0]
    694                    EnginOffLimit_Time = MS_TIMER_1sec;               // 3 분 공회전 대기 Clear
   \   0000029C   ........           LDR.W    R0,??DataTable49_8
   \   000002A0   ........           LDR.W    R1,??DataTable49_10
   \   000002A4   0988               LDRH     R1,[R1, #+0]
   \   000002A6   0180               STRH     R1,[R0, #+0]
    695                    return;
   \   000002A8   ECE1               B.N      ??EngineOff_EMSCheck_18
    696               } 
    697               EMSOff_Check = 2;
   \                     ??EngineOff_EMSCheck_19:
   \   000002AA   ........           LDR.W    R0,??DataTable49_9
   \   000002AE   0221               MOVS     R1,#+2
   \   000002B0   0170               STRB     R1,[R0, #+0]
    698               if ( !( Info.Input_Status & INPUT_KEYON_FLAG ) )    //  키가 켜져있는가?
   \   000002B2   ........           LDR.W    R0,??DataTable49_4
   \   000002B6   90F85500           LDRB     R0,[R0, #+85]
   \   000002BA   0006               LSLS     R0,R0,#+24
   \   000002BC   1BD4               BMI.N    ??EngineOff_EMSCheck_20
    699               {
    700                    Info.EMS3Sec_Count = 3;
   \   000002BE   ........           LDR.W    R0,??DataTable49_4
   \   000002C2   0321               MOVS     R1,#+3
   \   000002C4   80F85D10           STRB     R1,[R0, #+93]
    701                    Info.EMS3Min_Count = 180;
   \   000002C8   ........           LDR.W    R0,??DataTable49_4
   \   000002CC   B421               MOVS     R1,#+180
   \   000002CE   80F85E10           STRB     R1,[R0, #+94]
    702                    EMSOff_Timer = MS_TIMER;  
   \   000002D2   ........           LDR.W    R0,??DataTable49_1  ;; 0x40000c00
   \   000002D6   ........           BL       TIM_GetCounter
   \   000002DA   ........           LDR.W    R1,??DataTable50
   \   000002DE   0880               STRH     R0,[R1, #+0]
    703                    EnginOffLimit_Flag = 1;
   \   000002E0   ........           LDR.W    R0,??DataTable49_7
   \   000002E4   0121               MOVS     R1,#+1
   \   000002E6   0170               STRB     R1,[R0, #+0]
    704                    EnginOffLimit_Time = MS_TIMER_1sec;               // 3 분 공회전 대기 Clear
   \   000002E8   ........           LDR.W    R0,??DataTable49_8
   \   000002EC   ........           LDR.W    R1,??DataTable49_10
   \   000002F0   0988               LDRH     R1,[R1, #+0]
   \   000002F2   0180               STRH     R1,[R0, #+0]
    705                    return;
   \   000002F4   C6E1               B.N      ??EngineOff_EMSCheck_18
    706               }    
    707               EMSOff_Check = 3;
   \                     ??EngineOff_EMSCheck_20:
   \   000002F6   ........           LDR.W    R0,??DataTable49_9
   \   000002FA   0321               MOVS     R1,#+3
   \   000002FC   0170               STRB     R1,[R0, #+0]
    708               if ( Info.RPM_Value == 0 )          // 현재 RPM이 있는가?
   \   000002FE   ........           LDR.W    R0,??DataTable49_4
   \   00000302   B0F82D00           LDRH     R0,[R0, #+45]
   \   00000306   0028               CMP      R0,#+0
   \   00000308   1BD1               BNE.N    ??EngineOff_EMSCheck_21
    709               {
    710                    Info.EMS3Sec_Count = 3;
   \   0000030A   ........           LDR.W    R0,??DataTable49_4
   \   0000030E   0321               MOVS     R1,#+3
   \   00000310   80F85D10           STRB     R1,[R0, #+93]
    711                    Info.EMS3Min_Count = 180;
   \   00000314   ........           LDR.W    R0,??DataTable49_4
   \   00000318   B421               MOVS     R1,#+180
   \   0000031A   80F85E10           STRB     R1,[R0, #+94]
    712                    EMSOff_Timer = MS_TIMER;  
   \   0000031E   ........           LDR.W    R0,??DataTable49_1  ;; 0x40000c00
   \   00000322   ........           BL       TIM_GetCounter
   \   00000326   ........           LDR.W    R1,??DataTable50
   \   0000032A   0880               STRH     R0,[R1, #+0]
    713                    EnginOffLimit_Flag = 1;
   \   0000032C   ........           LDR.W    R0,??DataTable49_7
   \   00000330   0121               MOVS     R1,#+1
   \   00000332   0170               STRB     R1,[R0, #+0]
    714                    EnginOffLimit_Time = MS_TIMER_1sec;               // 3 분 공회전 대기 Clear
   \   00000334   ........           LDR.W    R0,??DataTable49_8
   \   00000338   ........           LDR.W    R1,??DataTable49_10
   \   0000033C   0988               LDRH     R1,[R1, #+0]
   \   0000033E   0180               STRH     R1,[R0, #+0]
    715                    return;
   \   00000340   A0E1               B.N      ??EngineOff_EMSCheck_18
    716               }
    717               EMSOff_Check = 4;
   \                     ??EngineOff_EMSCheck_21:
   \   00000342   ........           LDR.W    R0,??DataTable49_9
   \   00000346   0421               MOVS     R1,#+4
   \   00000348   0170               STRB     R1,[R0, #+0]
    718               if ( Info.SPEED_Value != 0 )        // 현재 스피드가 있는가?
   \   0000034A   ........           LDR.W    R0,??DataTable49_4
   \   0000034E   90F82C00           LDRB     R0,[R0, #+44]
   \   00000352   0028               CMP      R0,#+0
   \   00000354   17D0               BEQ.N    ??EngineOff_EMSCheck_22
    719               {
    720                    Info.EMS3Sec_Count = 3;
   \   00000356   ........           LDR.W    R0,??DataTable49_4
   \   0000035A   0321               MOVS     R1,#+3
   \   0000035C   80F85D10           STRB     R1,[R0, #+93]
    721                    Info.EMS3Min_Count = 180;
   \   00000360   ........           LDR.W    R0,??DataTable49_4
   \   00000364   B421               MOVS     R1,#+180
   \   00000366   80F85E10           STRB     R1,[R0, #+94]
    722                    EMSOff_Timer = MS_TIMER;  
   \   0000036A   ........           LDR.W    R0,??DataTable49_1  ;; 0x40000c00
   \   0000036E   ........           BL       TIM_GetCounter
   \   00000372   ........           LDR.W    R1,??DataTable50
   \   00000376   0880               STRH     R0,[R1, #+0]
    723                    EnginOffLimit_Time = MS_TIMER_1sec;               // 3 분 공회전 대기 Clear
   \   00000378   ........           LDR.W    R0,??DataTable49_8
   \   0000037C   ........           LDR.W    R1,??DataTable49_10
   \   00000380   0988               LDRH     R1,[R1, #+0]
   \   00000382   0180               STRH     R1,[R0, #+0]
    724                    return;
   \   00000384   7EE1               B.N      ??EngineOff_EMSCheck_18
    725               }
    726               EMSOff_Check = 5;
   \                     ??EngineOff_EMSCheck_22:
   \   00000386   ........           LDR.W    R0,??DataTable49_9
   \   0000038A   0521               MOVS     R1,#+5
   \   0000038C   0170               STRB     R1,[R0, #+0]
    727               if ( Info.EMS_Data.GPS_Speed != 0 )     //  GPS 속도가 있다면 
   \   0000038E   ........           LDR.W    R0,??DataTable49_4
   \   00000392   B0F84D00           LDRH     R0,[R0, #+77]
   \   00000396   0028               CMP      R0,#+0
   \   00000398   17D0               BEQ.N    ??EngineOff_EMSCheck_23
    728               {
    729                    Info.EMS3Sec_Count = 3;
   \   0000039A   ........           LDR.W    R0,??DataTable49_4
   \   0000039E   0321               MOVS     R1,#+3
   \   000003A0   80F85D10           STRB     R1,[R0, #+93]
    730                    Info.EMS3Min_Count = 180;
   \   000003A4   ........           LDR.W    R0,??DataTable49_4
   \   000003A8   B421               MOVS     R1,#+180
   \   000003AA   80F85E10           STRB     R1,[R0, #+94]
    731                    EMSOff_Timer = MS_TIMER;  
   \   000003AE   ........           LDR.W    R0,??DataTable49_1  ;; 0x40000c00
   \   000003B2   ........           BL       TIM_GetCounter
   \   000003B6   ........           LDR.W    R1,??DataTable50
   \   000003BA   0880               STRH     R0,[R1, #+0]
    732                    EnginOffLimit_Time = MS_TIMER_1sec;              // 3 분 공회전 대기 Clear
   \   000003BC   ........           LDR.W    R0,??DataTable49_8
   \   000003C0   ........           LDR.W    R1,??DataTable49_10
   \   000003C4   0988               LDRH     R1,[R1, #+0]
   \   000003C6   0180               STRH     R1,[R0, #+0]
    733                    return;     
   \   000003C8   5CE1               B.N      ??EngineOff_EMSCheck_18
    734               }
    735               EMSOff_Check = 6;
   \                     ??EngineOff_EMSCheck_23:
   \   000003CA   ........           LDR.W    R0,??DataTable49_9
   \   000003CE   0621               MOVS     R1,#+6
   \   000003D0   0170               STRB     R1,[R0, #+0]
    736               if ( !( Info.Input_Status & INPUT_GEAR_FLAG ) )    // 기어가 중립인가
   \   000003D2   ........           LDR.W    R0,??DataTable49_4
   \   000003D6   90F85500           LDRB     R0,[R0, #+85]
   \   000003DA   8007               LSLS     R0,R0,#+30
   \   000003DC   17D4               BMI.N    ??EngineOff_EMSCheck_24
    737               {
    738                    Info.EMS3Sec_Count = 3;
   \   000003DE   ........           LDR.W    R0,??DataTable49_4
   \   000003E2   0321               MOVS     R1,#+3
   \   000003E4   80F85D10           STRB     R1,[R0, #+93]
    739                    Info.EMS3Min_Count = 180;
   \   000003E8   ........           LDR.W    R0,??DataTable49_4
   \   000003EC   B421               MOVS     R1,#+180
   \   000003EE   80F85E10           STRB     R1,[R0, #+94]
    740                    EMSOff_Timer = MS_TIMER;  
   \   000003F2   ........           LDR.W    R0,??DataTable49_1  ;; 0x40000c00
   \   000003F6   ........           BL       TIM_GetCounter
   \   000003FA   ........           LDR.W    R1,??DataTable50
   \   000003FE   0880               STRH     R0,[R1, #+0]
    741                    EnginOffLimit_Time = MS_TIMER_1sec;              // 3 분 공회전 대기 Clear          
   \   00000400   ........           LDR.W    R0,??DataTable49_8
   \   00000404   ........           LDR.W    R1,??DataTable49_10
   \   00000408   0988               LDRH     R1,[R1, #+0]
   \   0000040A   0180               STRH     R1,[R0, #+0]
    742                    return;     
   \   0000040C   3AE1               B.N      ??EngineOff_EMSCheck_18
    743               }
    744               EMSOff_Check = 7;     
   \                     ??EngineOff_EMSCheck_24:
   \   0000040E   ........           LDR.W    R0,??DataTable49_9
   \   00000412   0721               MOVS     R1,#+7
   \   00000414   0170               STRB     R1,[R0, #+0]
    745          //     if ( Info.Battery_Volt_Driving < 24000 )  //  운행중 배터리 전압체크
    746          //          return;
    747               EMSOff_Check = 8;
   \   00000416   ........           LDR.W    R0,??DataTable49_9
   \   0000041A   0821               MOVS     R1,#+8
   \   0000041C   0170               STRB     R1,[R0, #+0]
    748               if ( Info.EMS_Data.Battery_Volt < SFLASH_Memory.EMS.Battery_Volt )  //  공회전중 정지 배터리 전압이 기준보다 작은가?
   \   0000041E   ........           LDR.W    R0,??DataTable49_4
   \   00000422   B0F84100           LDRH     R0,[R0, #+65]
   \   00000426   ........           LDR.W    R1,??DataTable49_5
   \   0000042A   B1F88B10           LDRH     R1,[R1, #+139]
   \   0000042E   8842               CMP      R0,R1
   \   00000430   0CD2               BCS.N    ??EngineOff_EMSCheck_25
    749               {
    750                    Info.EMS3Sec_Count = 3;
   \   00000432   ........           LDR.W    R0,??DataTable49_4
   \   00000436   0321               MOVS     R1,#+3
   \   00000438   80F85D10           STRB     R1,[R0, #+93]
    751          //          Info.EMS3Min_Count = 180;
    752                    EMSOff_Timer = MS_TIMER;  
   \   0000043C   ........           LDR.W    R0,??DataTable49_1  ;; 0x40000c00
   \   00000440   ........           BL       TIM_GetCounter
   \   00000444   ........           LDR.W    R1,??DataTable50
   \   00000448   0880               STRH     R0,[R1, #+0]
    753                    
    754                    return;
   \   0000044A   1BE1               B.N      ??EngineOff_EMSCheck_18
    755               }
    756               EMSOff_Check = 9;
   \                     ??EngineOff_EMSCheck_25:
   \   0000044C   ........           LDR.W    R0,??DataTable49_9
   \   00000450   0921               MOVS     R1,#+9
   \   00000452   0170               STRB     R1,[R0, #+0]
    757               if ( Info.EMS_Data.CoolWaterTemp_Volt > SFLASH_Memory.EMS.ColdWaterTemp_Volt)//5000 )  //  냉각수 온도가 기준보다 낮은가
   \   00000454   ........           LDR.W    R0,??DataTable49_5
   \   00000458   B0F88D00           LDRH     R0,[R0, #+141]
   \   0000045C   ........           LDR.W    R1,??DataTable49_4
   \   00000460   B1F84510           LDRH     R1,[R1, #+69]
   \   00000464   8842               CMP      R0,R1
   \   00000466   0CD2               BCS.N    ??EngineOff_EMSCheck_26
    758               {
    759                    Info.EMS3Sec_Count = 3;
   \   00000468   ........           LDR.W    R0,??DataTable49_4
   \   0000046C   0321               MOVS     R1,#+3
   \   0000046E   80F85D10           STRB     R1,[R0, #+93]
    760          //          Info.EMS3Min_Count = 180;
    761                    EMSOff_Timer = MS_TIMER;  
   \   00000472   ........           LDR.W    R0,??DataTable49_1  ;; 0x40000c00
   \   00000476   ........           BL       TIM_GetCounter
   \   0000047A   ........           LDR.W    R1,??DataTable50
   \   0000047E   0880               STRH     R0,[R1, #+0]
    762                    return;
   \   00000480   00E1               B.N      ??EngineOff_EMSCheck_18
    763               }
    764               EMSOff_Check = 10;
   \                     ??EngineOff_EMSCheck_26:
   \   00000482   ........           LDR.W    R0,??DataTable49_9
   \   00000486   0A21               MOVS     R1,#+10
   \   00000488   0170               STRB     R1,[R0, #+0]
    765               if ( Info.EMS_Data.AirPressure_Volt < SFLASH_Memory.EMS.Air_Volt) //4700 )  //  공기압이 정상이 기준보다 낮은가? 
   \   0000048A   ........           LDR.W    R0,??DataTable49_4
   \   0000048E   B0F84300           LDRH     R0,[R0, #+67]
   \   00000492   ........           LDR.W    R1,??DataTable49_5
   \   00000496   B1F88F10           LDRH     R1,[R1, #+143]
   \   0000049A   8842               CMP      R0,R1
   \   0000049C   0CD2               BCS.N    ??EngineOff_EMSCheck_27
    766               {
    767                    Info.EMS3Sec_Count = 3;
   \   0000049E   ........           LDR.W    R0,??DataTable49_4
   \   000004A2   0321               MOVS     R1,#+3
   \   000004A4   80F85D10           STRB     R1,[R0, #+93]
    768          //          Info.EMS3Min_Count = 180;          
    769                    EMSOff_Timer = MS_TIMER;  
   \   000004A8   ........           LDR.W    R0,??DataTable49_1  ;; 0x40000c00
   \   000004AC   ........           BL       TIM_GetCounter
   \   000004B0   ........           LDR.W    R1,??DataTable50
   \   000004B4   0880               STRH     R0,[R1, #+0]
    770                    return;   
   \   000004B6   E5E0               B.N      ??EngineOff_EMSCheck_18
    771               }
    772               EMSOff_Check = 11;
   \                     ??EngineOff_EMSCheck_27:
   \   000004B8   ........           LDR.W    R0,??DataTable49_9
   \   000004BC   0B21               MOVS     R1,#+11
   \   000004BE   0170               STRB     R1,[R0, #+0]
    773               if ( (Info.EMS_Data.Tilt_X < TILT_LOW ) || ( Info.EMS_Data.Tilt_X > TILT_HIGH ) )   //  기울기X 가 범위안에 들어가는가
   \   000004C0   ........           LDR.W    R0,??DataTable49_4
   \   000004C4   90F94B00           LDRSB    R0,[R0, #+75]
   \   000004C8   FB38               SUBS     R0,R0,#+251
   \   000004CA   C0B2               UXTB     R0,R0            ;; ZeroExt  R0,R0,#+24,#+24
   \   000004CC   0B28               CMP      R0,#+11
   \   000004CE   17D3               BCC.N    ??EngineOff_EMSCheck_28
    774               {
    775                    Info.EMS3Sec_Count = 3;
   \   000004D0   ........           LDR.W    R0,??DataTable49_4
   \   000004D4   0321               MOVS     R1,#+3
   \   000004D6   80F85D10           STRB     R1,[R0, #+93]
    776                    Info.EMS3Min_Count = 180;          
   \   000004DA   ........           LDR.W    R0,??DataTable49_4
   \   000004DE   B421               MOVS     R1,#+180
   \   000004E0   80F85E10           STRB     R1,[R0, #+94]
    777                    EMSOff_Timer = MS_TIMER;  
   \   000004E4   ........           LDR.W    R0,??DataTable49_1  ;; 0x40000c00
   \   000004E8   ........           BL       TIM_GetCounter
   \   000004EC   ........           LDR.W    R1,??DataTable50
   \   000004F0   0880               STRH     R0,[R1, #+0]
    778                    EnginOffLimit_Time = MS_TIMER_1sec;              // 3 분 공회전 대기 Clear  
   \   000004F2   ........           LDR.W    R0,??DataTable49_8
   \   000004F6   ........           LDR.W    R1,??DataTable49_10
   \   000004FA   0988               LDRH     R1,[R1, #+0]
   \   000004FC   0180               STRH     R1,[R0, #+0]
    779                    return;  
   \   000004FE   C1E0               B.N      ??EngineOff_EMSCheck_18
    780               }
    781               EMSOff_Check = 12;
   \                     ??EngineOff_EMSCheck_28:
   \   00000500   ........           LDR.W    R0,??DataTable49_9
   \   00000504   0C21               MOVS     R1,#+12
   \   00000506   0170               STRB     R1,[R0, #+0]
    782               if ( ( Info.EMS_Data.Tilt_Y < TILT_LOW ) || ( Info.EMS_Data.Tilt_Y > TILT_HIGH ) )  //  기울기 Y가 범위안에 들어가는가?
   \   00000508   ........           LDR.W    R0,??DataTable49_4
   \   0000050C   90F94C00           LDRSB    R0,[R0, #+76]
   \   00000510   FB38               SUBS     R0,R0,#+251
   \   00000512   C0B2               UXTB     R0,R0            ;; ZeroExt  R0,R0,#+24,#+24
   \   00000514   0B28               CMP      R0,#+11
   \   00000516   17D3               BCC.N    ??EngineOff_EMSCheck_29
    783               {
    784                    Info.EMS3Sec_Count = 3;
   \   00000518   ........           LDR.W    R0,??DataTable49_4
   \   0000051C   0321               MOVS     R1,#+3
   \   0000051E   80F85D10           STRB     R1,[R0, #+93]
    785                    Info.EMS3Min_Count = 180;          
   \   00000522   ........           LDR.W    R0,??DataTable49_4
   \   00000526   B421               MOVS     R1,#+180
   \   00000528   80F85E10           STRB     R1,[R0, #+94]
    786                    EMSOff_Timer = MS_TIMER;  
   \   0000052C   ........           LDR.W    R0,??DataTable49_1  ;; 0x40000c00
   \   00000530   ........           BL       TIM_GetCounter
   \   00000534   ........           LDR.W    R1,??DataTable50
   \   00000538   0880               STRH     R0,[R1, #+0]
    787                    EnginOffLimit_Time = MS_TIMER_1sec;              // 3 분 공회전 대기 Clear  
   \   0000053A   ........           LDR.W    R0,??DataTable49_8
   \   0000053E   ........           LDR.W    R1,??DataTable49_10
   \   00000542   0988               LDRH     R1,[R1, #+0]
   \   00000544   0180               STRH     R1,[R0, #+0]
    788                    return;
   \   00000546   9DE0               B.N      ??EngineOff_EMSCheck_18
    789               }
    790               EMSOff_Check = 13;
   \                     ??EngineOff_EMSCheck_29:
   \   00000548   ........           LDR.W    R0,??DataTable49_9
   \   0000054C   0D21               MOVS     R1,#+13
   \   0000054E   0170               STRB     R1,[R0, #+0]
    791               if ( SFLASH_Memory.GPS_EMS_Use != 0  )  //  GPS 플래그 확인
   \   00000550   ........           LDR.W    R0,??DataTable49_5
   \   00000554   90F88900           LDRB     R0,[R0, #+137]
   \   00000558   0028               CMP      R0,#+0
   \   0000055A   1CD0               BEQ.N    ??EngineOff_EMSCheck_30
    792                    if( Flag.GPS_IsRoute != 1 ) 
   \   0000055C   ........           LDR.W    R0,??DataTable49_6
   \   00000560   007B               LDRB     R0,[R0, #+12]
   \   00000562   0128               CMP      R0,#+1
   \   00000564   17D0               BEQ.N    ??EngineOff_EMSCheck_30
    793                    {
    794                         Info.EMS3Sec_Count = 3;
   \   00000566   ........           LDR.W    R0,??DataTable49_4
   \   0000056A   0321               MOVS     R1,#+3
   \   0000056C   80F85D10           STRB     R1,[R0, #+93]
    795                         Info.EMS3Min_Count = 180;               
   \   00000570   ........           LDR.W    R0,??DataTable49_4
   \   00000574   B421               MOVS     R1,#+180
   \   00000576   80F85E10           STRB     R1,[R0, #+94]
    796                         EMSOff_Timer = MS_TIMER;
   \   0000057A   ........           LDR.W    R0,??DataTable49_1  ;; 0x40000c00
   \   0000057E   ........           BL       TIM_GetCounter
   \   00000582   ........           LDR.W    R1,??DataTable50
   \   00000586   0880               STRH     R0,[R1, #+0]
    797                         EnginOffLimit_Time = MS_TIMER_1sec;              // 3 분 공회전 대기 Clear  
   \   00000588   ........           LDR.W    R0,??DataTable49_8
   \   0000058C   ........           LDR.W    R1,??DataTable49_10
   \   00000590   0988               LDRH     R1,[R1, #+0]
   \   00000592   0180               STRH     R1,[R0, #+0]
    798                         return;
   \   00000594   76E0               B.N      ??EngineOff_EMSCheck_18
    799                    }
    800               EMSOff_Check = 14;
   \                     ??EngineOff_EMSCheck_30:
   \   00000596   ........           LDR.W    R0,??DataTable49_9
   \   0000059A   0E21               MOVS     R1,#+14
   \   0000059C   0170               STRB     R1,[R0, #+0]
    801          ///////////////////////////////////////////////////////////////////////////////////////////////////     
    802              // 파킹 모드
    803               if ( ( Info.Input_Status & INPUT_PARKING_BREAK_FLAG ) )
   \   0000059E   ........           LDR.W    R0,??DataTable49_4
   \   000005A2   90F85500           LDRB     R0,[R0, #+85]
   \   000005A6   4007               LSLS     R0,R0,#+29
   \   000005A8   55D5               BPL.N    ??EngineOff_EMSCheck_31
    804               {          
    805                    EMSOff_Check = 15;
   \   000005AA   ........           LDR.W    R0,??DataTable49_9
   \   000005AE   0F21               MOVS     R1,#+15
   \   000005B0   0170               STRB     R1,[R0, #+0]
    806          
    807          	     // 공회전 정지를 했다면 
    808          	    if( EnginOffLimit_Flag )
   \   000005B2   ........           LDR.W    R0,??DataTable49_7
   \   000005B6   0078               LDRB     R0,[R0, #+0]
   \   000005B8   0028               CMP      R0,#+0
   \   000005BA   14D0               BEQ.N    ??EngineOff_EMSCheck_32
    809          	    {		    //다시진입 3분간 진입 금지제한
    810          		    if( !CheckTimeOver1Sec ( 183 , EnginOffLimit_Time ) )	
   \   000005BC   ........           LDR.W    R0,??DataTable49_8
   \   000005C0   0188               LDRH     R1,[R0, #+0]
   \   000005C2   B720               MOVS     R0,#+183
   \   000005C4   ........           BL       CheckTimeOver1Sec
   \   000005C8   0028               CMP      R0,#+0
   \   000005CA   0CD1               BNE.N    ??EngineOff_EMSCheck_32
    811                        {
    812                             Info.EMS3Sec_Count = 3;
   \   000005CC   ........           LDR.W    R0,??DataTable49_4
   \   000005D0   0321               MOVS     R1,#+3
   \   000005D2   80F85D10           STRB     R1,[R0, #+93]
    813                             EMSOff_Timer = MS_TIMER; 
   \   000005D6   ........           LDR.W    R0,??DataTable49_1  ;; 0x40000c00
   \   000005DA   ........           BL       TIM_GetCounter
   \   000005DE   ........           LDR.W    R1,??DataTable50
   \   000005E2   0880               STRH     R0,[R1, #+0]
    814          			    return;
   \   000005E4   4EE0               B.N      ??EngineOff_EMSCheck_18
    815                        }
    816                              //EnginOffLimit_Time = MS_TIMER_1sec;
    817          	    }
    818                    EMSOff_Check = 16;	    
   \                     ??EngineOff_EMSCheck_32:
   \   000005E6   ........           LDR.W    R0,??DataTable49_9
   \   000005EA   1021               MOVS     R1,#+16
   \   000005EC   0170               STRB     R1,[R0, #+0]
    819          	    
    820                    if( ! CheckTimeOver ( 3000 , EMSOff_Timer ) )		// 15. 모든 조건이 만족하였을때 3초대기
   \   000005EE   ........           LDR.W    R0,??DataTable50
   \   000005F2   0188               LDRH     R1,[R0, #+0]
   \   000005F4   40F6B830           MOVW     R0,#+3000
   \   000005F8   ........           BL       CheckTimeOver
   \   000005FC   0028               CMP      R0,#+0
   \   000005FE   41D0               BEQ.N    ??EngineOff_EMSCheck_18
    821                        return;	    
    822                    {
    823          		    // LOG -------------------------------------------------------------------------
    824          		    // 로그 기록단위 500ms 
    825          		    EMSOff_Check = 17;
   \                     ??EngineOff_EMSCheck_33:
   \   00000600   ........           LDR.W    R0,??DataTable49_9
   \   00000604   1121               MOVS     R1,#+17
   \   00000606   0170               STRB     R1,[R0, #+0]
    826          		    if(LOGWRITE & LOG_EMS_ENGINE)                       
   \   00000608   ........           LDR.W    R0,??DataTable50_1
   \   0000060C   0078               LDRB     R0,[R0, #+0]
   \   0000060E   C006               LSLS     R0,R0,#+27
   \   00000610   0AD5               BPL.N    ??EngineOff_EMSCheck_34
    827          		    {
    828          			    sprintf((char*)Buffer,"ENGINE_OFF PARKING_BREAK CHECK \r\n "); 
   \   00000612   ........           LDR.W    R1,??DataTable50_2
   \   00000616   ........           LDR.W    R0,??DataTable50_3
   \   0000061A   ........           BL       sprintf
    829          			    Write_Log(Buffer, NORMAL_LOG);
   \   0000061E   0121               MOVS     R1,#+1
   \   00000620   ........           LDR.W    R0,??DataTable50_3
   \   00000624   ........           BL       Write_Log
    830          		    }
    831          		    // -----------------------------------------------------------------------------	
    832          		    EnginOffLimit_Time = MS_TIMER_1sec;
   \                     ??EngineOff_EMSCheck_34:
   \   00000628   ........           LDR.W    R0,??DataTable49_8
   \   0000062C   ........           LDR.W    R1,??DataTable49_10
   \   00000630   0988               LDRH     R1,[R1, #+0]
   \   00000632   0180               STRH     R1,[R0, #+0]
    833          		    EnginOffLimit_Flag = 1;
   \   00000634   ........           LDR.W    R0,??DataTable49_7
   \   00000638   0121               MOVS     R1,#+1
   \   0000063A   0170               STRB     R1,[R0, #+0]
    834          		    
    835          		    EnginOffActionFlag = 1;  // 공회전 모드
   \   0000063C   ........           LDR.W    R0,??DataTable49_3
   \   00000640   0121               MOVS     R1,#+1
   \   00000642   0170               STRB     R1,[R0, #+0]
    836          		    EnginOffActionStep = 0 ;  // 공회전 정지 모드
   \   00000644   ........           LDR.W    R0,??DataTable50_4
   \   00000648   0021               MOVS     R1,#+0
   \   0000064A   0170               STRB     R1,[R0, #+0]
    837          		    
    838          //		    First_Check = 0 ;
    839          		    Ref_OverDrive = 0;
   \   0000064C   ........           LDR.W    R0,??DataTable50_5
   \   00000650   0021               MOVS     R1,#+0
   \   00000652   0170               STRB     R1,[R0, #+0]
   \   00000654   16E0               B.N      ??EngineOff_EMSCheck_35
    840                        
    841                    }
    842               }
    843               /*else if ( (INPUT_DATA & INPUT_BREAK_FLAG ) )    // 브레이크를 밟고 있는가?
    844               {
    845                    EMSOff_Check = 16;
    846                    if( Ref_OverDrive )     				// 일정이상 속도를 내고 이동 했을 경우 공회전정지
    847                    {
    848                         if( First_Check == 0)			// 처음 진입시에 속도를 체크 한다.
    849                         {
    850                              First_Check = 1 ;
    851                              EMSOff_Timer = MS_TIMER;
    852                         }
    853          		   EmsStopTime = SFLASH_Memory.EmsStopTime * 1000;
    854                         if(! CheckTimeOver ( EmsStopTime , EMSOff_Timer ) )		// 기준을 휴지하며 일정 시간 유지하는가?
    855                              return;
    856                         else
    857                         {
    858                              EMSOff_Check = 16;
    859                              // LOG -------------------------------------------------------------------------
    860                              // 로그 기록단위 500ms 
    861                              if(LOGWRITE & LOG_EMS_ENGINE)                       
    862                              {
    863                                   sprintf((char*)Buffer,"ENGINE_OFF  BREAK CHECK \r\n "); 
    864                                   Write_Log(Buffer, NORMAL_LOG);
    865                              }            
    866                              // -----------------------------------------------------------------------------	                    
    867          		    EnginOffLimit_Time = MS_TIMER_1sec;
    868          		    EnginOffLimit_Flag = 1;
    869                              EnginOffActionFlag = 1;  	// 공회전 정지 모드
    870                              EnginOffActionStep = 0 ;  	// 공회전 정지 시작 스텝
    871                              First_Check = 0 ;     	// 첫진입
    872                              Ref_OverDrive = 0;		// 기준이상 속도체크 초기화
    873                         }
    874                    }
    875               }*/
    876               else
    877               {
    878                    Info.EMS3Sec_Count = 3;
   \                     ??EngineOff_EMSCheck_31:
   \   00000656   ........           LDR.W    R0,??DataTable49_4
   \   0000065A   0321               MOVS     R1,#+3
   \   0000065C   80F85D10           STRB     R1,[R0, #+93]
    879                    Info.EMS3Min_Count = 180;     
   \   00000660   ........           LDR.W    R0,??DataTable49_4
   \   00000664   B421               MOVS     R1,#+180
   \   00000666   80F85E10           STRB     R1,[R0, #+94]
    880                    EnginOffLimit_Time = MS_TIMER_1sec;              // 3 분 공회전 대기 Clear          
   \   0000066A   ........           LDR.W    R0,??DataTable49_8
   \   0000066E   ........           LDR.W    R1,??DataTable49_10
   \   00000672   0988               LDRH     R1,[R1, #+0]
   \   00000674   0180               STRH     R1,[R0, #+0]
    881                    EMSOff_Timer = MS_TIMER;
   \   00000676   ........           LDR.W    R0,??DataTable49_1  ;; 0x40000c00
   \   0000067A   ........           BL       TIM_GetCounter
   \   0000067E   ........           LDR.W    R1,??DataTable50
   \   00000682   0880               STRH     R0,[R1, #+0]
    882               }
    883          }
   \                     ??EngineOff_EMSCheck_35:
   \                     ??EngineOff_EMSCheck_18:
   \   00000684   01BD               POP      {R0,PC}          ;; return

   \                                 In section .bss, align 2
   \                     ??EMSOff_Timer:
   \   00000000                      DS8 2

   \                                 In section .bss, align 2
   \                     ??CheckEms_1:
   \   00000000                      DS8 2
    884          

   \                                 In section .text, align 2, keep-with-next
    885          void Relay_Off_Clear(void)
    886          {
   \                     Relay_Off_Clear:
   \   00000000   80B5               PUSH     {R7,LR}
    887               static u16 EMS_WATCH_Timer3=0;
    888               
    889               switch( EMS_Reley_Off )          // 릴레이 오프 진입
   \   00000002   ........           LDR.W    R0,??DataTable50_6
   \   00000006   0078               LDRB     R0,[R0, #+0]
   \   00000008   0128               CMP      R0,#+1
   \   0000000A   06D0               BEQ.N    ??Relay_Off_Clear_0
   \   0000000C   5AD3               BCC.N    ??Relay_Off_Clear_1
   \   0000000E   0328               CMP      R0,#+3
   \   00000010   26D0               BEQ.N    ??Relay_Off_Clear_2
   \   00000012   0ED3               BCC.N    ??Relay_Off_Clear_3
   \   00000014   0428               CMP      R0,#+4
   \   00000016   3AD0               BEQ.N    ??Relay_Off_Clear_4
   \   00000018   54E0               B.N      ??Relay_Off_Clear_1
    890               {
    891                    case 1:
    892                    {               
    893                         EMS_WATCH_Timer3 = MS_TIMER;
   \                     ??Relay_Off_Clear_0:
   \   0000001A   ........           LDR.W    R0,??DataTable49_1  ;; 0x40000c00
   \   0000001E   ........           BL       TIM_GetCounter
   \   00000022   ........           LDR.W    R1,??DataTable50_7
   \   00000026   0880               STRH     R0,[R1, #+0]
    894                         EMS_Reley_Off = 2;          
   \   00000028   ........           LDR.W    R0,??DataTable50_6
   \   0000002C   0221               MOVS     R1,#+2
   \   0000002E   0170               STRB     R1,[R0, #+0]
    895                    }break;
   \   00000030   4CE0               B.N      ??Relay_Off_Clear_5
    896                    case 2:       // 릴레이 오프 동작 중
    897                    {
    898                         if(!CheckTimeOver(3000, EMS_WATCH_Timer3))return;  //3000ms 후에 라이트 오프      
   \                     ??Relay_Off_Clear_3:
   \   00000032   ........           LDR.W    R0,??DataTable50_7
   \   00000036   0188               LDRH     R1,[R0, #+0]
   \   00000038   40F6B830           MOVW     R0,#+3000
   \   0000003C   ........           BL       CheckTimeOver
   \   00000040   0028               CMP      R0,#+0
   \   00000042   43D0               BEQ.N    ??Relay_Off_Clear_6
    899                         EMS_WATCH_Timer3 = MS_TIMER;
   \                     ??Relay_Off_Clear_7:
   \   00000044   ........           LDR.W    R0,??DataTable49_1  ;; 0x40000c00
   \   00000048   ........           BL       TIM_GetCounter
   \   0000004C   ........           LDR.W    R1,??DataTable50_7
   \   00000050   0880               STRH     R0,[R1, #+0]
    900                         RESET_LIGHT();
   \   00000052   ........           BL       RESET_LIGHT
    901                         EMS_Reley_Off = 3;
   \   00000056   ........           LDR.W    R0,??DataTable50_6
   \   0000005A   0321               MOVS     R1,#+3
   \   0000005C   0170               STRB     R1,[R0, #+0]
    902                         
    903                    }break;
   \   0000005E   35E0               B.N      ??Relay_Off_Clear_5
    904                    case 3:
    905                    {
    906                         if(!CheckTimeOver(1000, EMS_WATCH_Timer3))return;  //1000ms 후에 히터 오프 
   \                     ??Relay_Off_Clear_2:
   \   00000060   ........           LDR.W    R0,??DataTable50_7
   \   00000064   0188               LDRH     R1,[R0, #+0]
   \   00000066   4FF47A70           MOV      R0,#+1000
   \   0000006A   ........           BL       CheckTimeOver
   \   0000006E   0028               CMP      R0,#+0
   \   00000070   2CD0               BEQ.N    ??Relay_Off_Clear_6
    907                         EMS_WATCH_Timer3 = MS_TIMER;
   \                     ??Relay_Off_Clear_8:
   \   00000072   ........           LDR.W    R0,??DataTable49_1  ;; 0x40000c00
   \   00000076   ........           BL       TIM_GetCounter
   \   0000007A   ........           LDR.W    R1,??DataTable50_7
   \   0000007E   0880               STRH     R0,[R1, #+0]
    908                         RESET_HITER();
   \   00000080   ........           BL       RESET_HITER
    909                         EMS_Reley_Off = 4;          
   \   00000084   ........           LDR.W    R0,??DataTable50_6
   \   00000088   0421               MOVS     R1,#+4
   \   0000008A   0170               STRB     R1,[R0, #+0]
    910                    }break;
   \   0000008C   1EE0               B.N      ??Relay_Off_Clear_5
    911                    case 4:
    912                    {
    913                         if(!CheckTimeOver(1000, EMS_WATCH_Timer3))return;  //1000ms 후에 에어컨 오프       
   \                     ??Relay_Off_Clear_4:
   \   0000008E   ........           LDR.W    R0,??DataTable50_7
   \   00000092   0188               LDRH     R1,[R0, #+0]
   \   00000094   4FF47A70           MOV      R0,#+1000
   \   00000098   ........           BL       CheckTimeOver
   \   0000009C   0028               CMP      R0,#+0
   \   0000009E   15D0               BEQ.N    ??Relay_Off_Clear_6
    914                         EMS_WATCH_Timer3 = MS_TIMER;
   \                     ??Relay_Off_Clear_9:
   \   000000A0   ........           LDR.W    R0,??DataTable49_1  ;; 0x40000c00
   \   000000A4   ........           BL       TIM_GetCounter
   \   000000A8   ........           LDR.W    R1,??DataTable50_7
   \   000000AC   0880               STRH     R0,[R1, #+0]
    915                         RESET_AIRCON();
   \   000000AE   ........           BL       RESET_AIRCON
    916                         EMS_Reley_Off = 0;          
   \   000000B2   ........           LDR.W    R0,??DataTable50_6
   \   000000B6   0021               MOVS     R1,#+0
   \   000000B8   0170               STRB     R1,[R0, #+0]
    917                         EnginOff_Flag = 0;
   \   000000BA   ........           LDR.W    R0,??DataTable50_8
   \   000000BE   0021               MOVS     R1,#+0
   \   000000C0   0170               STRB     R1,[R0, #+0]
    918                    }break;
   \   000000C2   03E0               B.N      ??Relay_Off_Clear_5
    919                    default:
    920                    {
    921                         EMS_Reley_Off = 0;
   \                     ??Relay_Off_Clear_1:
   \   000000C4   ........           LDR.W    R0,??DataTable50_6
   \   000000C8   0021               MOVS     R1,#+0
   \   000000CA   0170               STRB     R1,[R0, #+0]
    922                    }          
    923                    break;
    924               }          
    925          }
   \                     ??Relay_Off_Clear_5:
   \                     ??Relay_Off_Clear_6:
   \   000000CC   01BD               POP      {R0,PC}          ;; return

   \                                 In section .bss, align 2
   \                     ??EMS_WATCH_Timer3:
   \   00000000                      DS8 2

   \                                 In section .text, align 2, keep-with-next
    926          void Emergency(void)
    927          {
   \                     Emergency:
   \   00000000   80B5               PUSH     {R7,LR}
    928               static u16 EMS_Emc_Timer;     
    929               static u8 Check = 0;
    930               
    931               static u8 Drive_On = 0;
                                ^
Warning[Pe550]: variable "Drive_On" was set but never used
    932               static u8 OldGear = 0;
                                ^
Warning[Pe177]: variable "OldGear" was declared but never referenced
    933               static u8 CheckGear = 0;     
                                ^
Warning[Pe177]: variable "CheckGear" was declared but never referenced
    934               if( Check == 0 )
   \   00000002   ........           LDR.W    R0,??DataTable50_9
   \   00000006   0078               LDRB     R0,[R0, #+0]
   \   00000008   0028               CMP      R0,#+0
   \   0000000A   0FD1               BNE.N    ??Emergency_0
    935               {
    936                    if( GET_ENGINE_ON() == 1)       // 엔진온 출력이 나가고 있다면 타이머 
   \   0000000C   ........           BL       GET_ENGINE_ON
   \   00000010   0128               CMP      R0,#+1
   \   00000012   22D1               BNE.N    ??Emergency_1
    937                    {
    938                         EMS_Emc_Timer = MS_TIMER;
   \   00000014   ........           LDR.W    R0,??DataTable49_1  ;; 0x40000c00
   \   00000018   ........           BL       TIM_GetCounter
   \   0000001C   ........           LDR.W    R1,??DataTable50_10
   \   00000020   0880               STRH     R0,[R1, #+0]
    939                         Check = 1;
   \   00000022   ........           LDR.W    R0,??DataTable50_9
   \   00000026   0121               MOVS     R1,#+1
   \   00000028   0170               STRB     R1,[R0, #+0]
   \   0000002A   16E0               B.N      ??Emergency_1
    940                    }
    941               }else          // 출력이 나가고 있다면 3초간 대기
    942               {
    943                    if(GET_ENGINE_ON() == 0)
   \                     ??Emergency_0:
   \   0000002C   ........           BL       GET_ENGINE_ON
   \   00000030   0028               CMP      R0,#+0
   \   00000032   03D1               BNE.N    ??Emergency_2
    944                    {
    945                         Check = 0;
   \   00000034   ........           LDR.W    R0,??DataTable50_9
   \   00000038   0021               MOVS     R1,#+0
   \   0000003A   0170               STRB     R1,[R0, #+0]
    946                    }
    947                    if(CheckTimeOver(5000, EMS_Emc_Timer))            // 5초간 출력이 나가고 있다면 강제 클리어
   \                     ??Emergency_2:
   \   0000003C   ........           LDR.W    R0,??DataTable50_10
   \   00000040   0188               LDRH     R1,[R0, #+0]
   \   00000042   41F28830           MOVW     R0,#+5000
   \   00000046   ........           BL       CheckTimeOver
   \   0000004A   0028               CMP      R0,#+0
   \   0000004C   05D0               BEQ.N    ??Emergency_1
    948                    {
    949                         RESET_ENGINE_ON();
   \   0000004E   ........           BL       RESET_ENGINE_ON
    950                         Check = 0;
   \   00000052   ........           LDR.W    R0,??DataTable50_9
   \   00000056   0021               MOVS     R1,#+0
   \   00000058   0170               STRB     R1,[R0, #+0]
    951                    }
    952               }          
    953               if(Info.SPEED_Value > 3)
   \                     ??Emergency_1:
   \   0000005A   ........           LDR.W    R0,??DataTable49_4
   \   0000005E   90F82C00           LDRB     R0,[R0, #+44]
   \   00000062   0428               CMP      R0,#+4
   \   00000064   09D3               BCC.N    ??Emergency_3
    954               {
    955                    if ( (Info.Input_Status & INPUT_PARKING_BREAK_FLAG ))
   \   00000066   ........           LDR.W    R0,??DataTable49_4
   \   0000006A   90F85500           LDRB     R0,[R0, #+85]
   \   0000006E   4007               LSLS     R0,R0,#+29
   \   00000070   03D5               BPL.N    ??Emergency_3
    956                    {          
    957                         Flag.Machine_Error = 0x01;
   \   00000072   ........           LDR.W    R0,??DataTable49_6
   \   00000076   0121               MOVS     R1,#+1
   \   00000078   8174               STRB     R1,[R0, #+18]
    958                    }                  
    959               }
    960               if(Info.SPEED_Value > 10)
   \                     ??Emergency_3:
   \   0000007A   ........           LDR.W    R0,??DataTable49_4
   \   0000007E   90F82C00           LDRB     R0,[R0, #+44]
   \   00000082   0B28               CMP      R0,#+11
   \   00000084   03D3               BCC.N    ??Emergency_4
    961               {
    962                    Drive_On = 1;
   \   00000086   ........           LDR.W    R0,??DataTable50_11
   \   0000008A   0121               MOVS     R1,#+1
   \   0000008C   0170               STRB     R1,[R0, #+0]
    963               }
    964          //     if(Info.SPEED_Value > 0 && Drive_On == 1)
    965          //     {
    966          //                      // 운행이 시작함           
    967          //          if(Info.Input_Status & INPUT_GEAR_FLAG )  
    968          //          {
    969          //               if(OldGear == 0)
    970          //               {
    971          //                    CheckGear = 1;
    972          //               }
    973          //               OldGear = 1;                            
    974          //          }
    975          //          else
    976          //          {                    
    977          //               if(OldGear == 1)
    978          //               {
    979          //                    CheckGear = 1;
    980          //               }              
    981          //               OldGear = 0;
    982          //          }
    983          //     }else if( Info.SPEED_Value == 0 && Drive_On == 1 )
    984          //     {
    985          //          if(CheckGear == 0)
    986          //               Flag.Machine_Error = 0x02;
    987          //          Drive_On = 0;
    988          //          CheckGear = 0;
    989          //     }
    990               
    991          //     if(Info.EMS_Data.GPS_Speed > 10)
    992          //     {
    993          //          if(Info.SPEED_Value == 0)
    994          //          {
    995          //               Flag.Machine_Error = 0x04;
    996          //          }
    997          //     }     
    998          }
   \                     ??Emergency_4:
   \   0000008E   01BD               POP      {R0,PC}          ;; return

   \                                 In section .bss, align 2
   \                     ??EMS_Emc_Timer:
   \   00000000                      DS8 2

   \                                 In section .bss, align 1
   \                     ??Check:
   \   00000000                      DS8 1

   \                                 In section .bss, align 1
   \                     ??Drive_On:
   \   00000000                      DS8 1

   \                                 In section .text, align 2, keep-with-next
    999          void EMS_Watching(void)
   1000          {
   \                     EMS_Watching:
   \   00000000   80B5               PUSH     {R7,LR}
   1001               static u16 EMS_WATCH_Timer;
   1002                 
   1003               // 공회전 정지 중에 차량의 RPM과 스피드가 살아난다면 
   1004               // Key로 시동을 온 한것으로 간주하고
   1005               // 동작을 시켜준다.                
   1006               
   1007               if(EnginOff_Flag == 1)   
   \   00000002   ........           LDR.W    R0,??DataTable50_8
   \   00000006   0078               LDRB     R0,[R0, #+0]
   \   00000008   0128               CMP      R0,#+1
   \   0000000A   44D1               BNE.N    ??EMS_Watching_0
   1008               {
   1009                    if(Info.RPM_Value > 500)    //rpm이 0이 될때 까지 기둘린다.                    
   \   0000000C   ........           LDR.W    R0,??DataTable49_4
   \   00000010   B0F82D00           LDRH     R0,[R0, #+45]
   \   00000014   40F2F511           MOVW     R1,#+501
   \   00000018   8842               CMP      R0,R1
   \   0000001A   11D3               BCC.N    ??EMS_Watching_1
   1010                    {
   1011                         if(!CheckTimeOver(500, EMS_WATCH_Timer))return;  //500ms 간 유지할때 시동온으로 간주
   \   0000001C   ........           LDR.W    R0,??DataTable50_12
   \   00000020   0188               LDRH     R1,[R0, #+0]
   \   00000022   4FF4FA70           MOV      R0,#+500
   \   00000026   ........           BL       CheckTimeOver
   \   0000002A   0028               CMP      R0,#+0
   \   0000002C   63D0               BEQ.N    ??EMS_Watching_2
   1012                         {
   1013                              EMS_Reley_Off = 1;
   \                     ??EMS_Watching_3:
   \   0000002E   ........           LDR.W    R0,??DataTable50_6
   \   00000032   0121               MOVS     R1,#+1
   \   00000034   0170               STRB     R1,[R0, #+0]
   1014                              EnginOff_Flag = 0;
   \   00000036   ........           LDR.W    R0,??DataTable50_8
   \   0000003A   0021               MOVS     R1,#+0
   \   0000003C   0170               STRB     R1,[R0, #+0]
   \   0000003E   1CE0               B.N      ??EMS_Watching_4
   1015                         }
   1016                    }
   1017                    else if(Info.SPEED_Value > 10)
   \                     ??EMS_Watching_1:
   \   00000040   ....               LDR.N    R0,??DataTable49_4
   \   00000042   90F82C00           LDRB     R0,[R0, #+44]
   \   00000046   0B28               CMP      R0,#+11
   \   00000048   11D3               BCC.N    ??EMS_Watching_5
   1018                    {
   1019                         if(!CheckTimeOver(500, EMS_WATCH_Timer))return;  //500ms 간 유지할때 시동온으로 간주                         
   \   0000004A   ........           LDR.W    R0,??DataTable50_12
   \   0000004E   0188               LDRH     R1,[R0, #+0]
   \   00000050   4FF4FA70           MOV      R0,#+500
   \   00000054   ........           BL       CheckTimeOver
   \   00000058   0028               CMP      R0,#+0
   \   0000005A   4CD0               BEQ.N    ??EMS_Watching_2
   1020                         {
   1021                              EMS_Reley_Off = 1;  
   \                     ??EMS_Watching_6:
   \   0000005C   ........           LDR.W    R0,??DataTable50_6
   \   00000060   0121               MOVS     R1,#+1
   \   00000062   0170               STRB     R1,[R0, #+0]
   1022                              EnginOff_Flag = 0;
   \   00000064   ........           LDR.W    R0,??DataTable50_8
   \   00000068   0021               MOVS     R1,#+0
   \   0000006A   0170               STRB     R1,[R0, #+0]
   \   0000006C   05E0               B.N      ??EMS_Watching_4
   1023                         }               
   1024                    }else
   1025                    {
   1026                          EMS_WATCH_Timer = MS_TIMER;
   \                     ??EMS_Watching_5:
   \   0000006E   ....               LDR.N    R0,??DataTable49_1  ;; 0x40000c00
   \   00000070   ........           BL       TIM_GetCounter
   \   00000074   ........           LDR.W    R1,??DataTable50_12
   \   00000078   0880               STRH     R0,[R1, #+0]
   1027                    }          
   1028                    if ( !( Info.Input_Status & INPUT_KEYON_FLAG ) )    //  키가 켜져있는가?
   \                     ??EMS_Watching_4:
   \   0000007A   ....               LDR.N    R0,??DataTable49_4
   \   0000007C   90F85500           LDRB     R0,[R0, #+85]
   \   00000080   0006               LSLS     R0,R0,#+24
   \   00000082   24D4               BMI.N    ??EMS_Watching_7
   1029                    {
   1030                         EMS_Reley_Off = 1;    
   \   00000084   ........           LDR.W    R0,??DataTable50_6
   \   00000088   0121               MOVS     R1,#+1
   \   0000008A   0170               STRB     R1,[R0, #+0]
   1031                         EnginOff_Flag = 0;
   \   0000008C   ........           LDR.W    R0,??DataTable50_8
   \   00000090   0021               MOVS     R1,#+0
   \   00000092   0170               STRB     R1,[R0, #+0]
   \   00000094   1BE0               B.N      ??EMS_Watching_7
   1032                    }          
   1033               }     
   1034               else           // 공회전 정지 중이 아닐때 30km(조정가능)이상 되었을때 정지조건에 추가한다.
   1035               {
   1036                    if( Info.SPEED_Value > SFLASH_Memory.EMS.LimitSpeed)
   \                     ??EMS_Watching_0:
   \   00000096   ....               LDR.N    R0,??DataTable49_5
   \   00000098   90F89300           LDRB     R0,[R0, #+147]
   \   0000009C   ....               LDR.N    R1,??DataTable49_4
   \   0000009E   91F82C10           LDRB     R1,[R1, #+44]
   \   000000A2   8842               CMP      R0,R1
   \   000000A4   0DD2               BCS.N    ??EMS_Watching_8
   1037                    {          
   1038                         if(!CheckTimeOver(2000, EMS_WATCH_Timer))return;  // 2000ms 간 유지했을 경우 기준이상속도 체크
   \   000000A6   ........           LDR.W    R0,??DataTable50_12
   \   000000AA   0188               LDRH     R1,[R0, #+0]
   \   000000AC   4FF4FA60           MOV      R0,#+2000
   \   000000B0   ........           BL       CheckTimeOver
   \   000000B4   0028               CMP      R0,#+0
   \   000000B6   1ED0               BEQ.N    ??EMS_Watching_2
   1039                         {
   1040                              Ref_OverDrive = 1;                           // 오버 플래그 셋
   \                     ??EMS_Watching_9:
   \   000000B8   ........           LDR.W    R0,??DataTable50_5
   \   000000BC   0121               MOVS     R1,#+1
   \   000000BE   0170               STRB     R1,[R0, #+0]
   \   000000C0   05E0               B.N      ??EMS_Watching_7
   1041                         }               
   1042                    }else
   1043                    {
   1044                         EMS_WATCH_Timer = MS_TIMER;
   \                     ??EMS_Watching_8:
   \   000000C2   ....               LDR.N    R0,??DataTable49_1  ;; 0x40000c00
   \   000000C4   ........           BL       TIM_GetCounter
   \   000000C8   ........           LDR.W    R1,??DataTable50_12
   \   000000CC   0880               STRH     R0,[R1, #+0]
   1045                    }
   1046               }
   1047               
   1048               if ( !(Info.Input_Status & INPUT_PARKING_BREAK_FLAG ))
   \                     ??EMS_Watching_7:
   \   000000CE   ....               LDR.N    R0,??DataTable49_4
   \   000000D0   90F85500           LDRB     R0,[R0, #+85]
   \   000000D4   4007               LSLS     R0,R0,#+29
   \   000000D6   0ED4               BMI.N    ??EMS_Watching_10
   1049                    if( Info.SPEED_Value > SFLASH_Memory.EMS.LimitSpeed )	// 1km 이상 속도가
   \   000000D8   ....               LDR.N    R0,??DataTable49_5
   \   000000DA   90F89300           LDRB     R0,[R0, #+147]
   \   000000DE   ....               LDR.N    R1,??DataTable49_4
   \   000000E0   91F82C10           LDRB     R1,[R1, #+44]
   \   000000E4   8842               CMP      R0,R1
   \   000000E6   06D2               BCS.N    ??EMS_Watching_10
   1050                         if( Flag.RPM1Min == 0 )  // RPM이 나타난지 1초 이후라면
   \   000000E8   ....               LDR.N    R0,??DataTable49_6
   \   000000EA   8079               LDRB     R0,[R0, #+6]
   \   000000EC   0028               CMP      R0,#+0
   \   000000EE   02D1               BNE.N    ??EMS_Watching_10
   1051                              EnginOffLimit_Flag = 0;       // 3초
   \   000000F0   ....               LDR.N    R0,??DataTable49_7
   \   000000F2   0021               MOVS     R1,#+0
   \   000000F4   0170               STRB     R1,[R0, #+0]
   1052                
   1053          
   1054          }
   \                     ??EMS_Watching_10:
   \                     ??EMS_Watching_2:
   \   000000F6   01BD               POP      {R0,PC}          ;; return

   \                                 In section .bss, align 2
   \                     ??EMS_WATCH_Timer:
   \   00000000                      DS8 2

   \                                 In section .text, align 2, keep-with-next
   1055          void EngineOn_Action(void)
   1056          {
   \                     EngineOn_Action:
   \   00000000   80B5               PUSH     {R7,LR}
   1057               static u16 EngineOn_Timer1 = 0;
   1058               static u16 EngineOn_Timer2 = 0;     
   1059               
   1060               static u16 EngineOn_Fail_Timer = 0;
   1061               
   1062               static u8 EMS_Replay_FailCount = 0;
   1063               
   1064               if(!EnginOnActionFlag)
   \   00000002   ........           LDR.W    R0,??DataTable50_13
   \   00000006   0078               LDRB     R0,[R0, #+0]
   \   00000008   0028               CMP      R0,#+0
   \   0000000A   04D1               BNE.N    ??EngineOn_Action_0
   1065               {
   1066                    EnginOnActionStep = 0;
   \   0000000C   ........           LDR.W    R0,??DataTable50_14
   \   00000010   0021               MOVS     R1,#+0
   \   00000012   0170               STRB     R1,[R0, #+0]
   1067                    return;	
   \   00000014   23E1               B.N      ??EngineOn_Action_1
   1068               }     
   1069               
   1070               switch(EnginOnActionStep)
   \                     ??EngineOn_Action_0:
   \   00000016   ........           LDR.W    R0,??DataTable50_14
   \   0000001A   0078               LDRB     R0,[R0, #+0]
   \   0000001C   0028               CMP      R0,#+0
   \   0000001E   07D0               BEQ.N    ??EngineOn_Action_2
   \   00000020   0228               CMP      R0,#+2
   \   00000022   4FD0               BEQ.N    ??EngineOn_Action_3
   \   00000024   2ED3               BCC.N    ??EngineOn_Action_4
   \   00000026   0428               CMP      R0,#+4
   \   00000028   00F0E280           BEQ.W    ??EngineOn_Action_5
   \   0000002C   5FD3               BCC.N    ??EngineOn_Action_6
   \   0000002E   08E1               B.N      ??EngineOn_Action_7
   1071               {
   1072                 case 0x00:
   1073                    {
   1074                         
   1075                         if(!CheckTimeOver(50, EngineOn_Timer1))break;  //50ms 간 유지한다.              
   \                     ??EngineOn_Action_2:
   \   00000030   ........           LDR.W    R0,??DataTable50_15
   \   00000034   0188               LDRH     R1,[R0, #+0]
   \   00000036   3220               MOVS     R0,#+50
   \   00000038   ........           BL       CheckTimeOver
   \   0000003C   0028               CMP      R0,#+0
   \   0000003E   00F00E81           BEQ.W    ??EngineOn_Action_8
   1076                         EngineOn_Timer1 = MS_TIMER;         
   \                     ??EngineOn_Action_9:
   \   00000042   ....               LDR.N    R0,??DataTable49_1  ;; 0x40000c00
   \   00000044   ........           BL       TIM_GetCounter
   \   00000048   ........           LDR.W    R1,??DataTable50_15
   \   0000004C   0880               STRH     R0,[R1, #+0]
   1077          		   
   1078                         //Info.Battery_Volt = Info.Battery_Volt; //25;//BATTERY_Value;
   1079                         // LOG -------------------------------------------------------------------------
   1080                         // 로그 기록단위 500ms 
   1081                         if(LOGWRITE & LOG_EMS_ENGINE)                       
   \   0000004E   ........           LDR.W    R0,??DataTable50_1
   \   00000052   0078               LDRB     R0,[R0, #+0]
   \   00000054   C006               LSLS     R0,R0,#+27
   \   00000056   10D5               BPL.N    ??EngineOn_Action_10
   1082                         {
   1083                              sprintf((char*)Buffer,"ENGINE_ON %d step, Battery=%d \r\n ",EnginOnActionStep,Info.EMS_Data.Battery_Volt); 
   \   00000058   ....               LDR.N    R0,??DataTable49_4
   \   0000005A   B0F84130           LDRH     R3,[R0, #+65]
   \   0000005E   ........           LDR.W    R0,??DataTable50_14
   \   00000062   0278               LDRB     R2,[R0, #+0]
   \   00000064   ........           ADR.W    R1,`?<Constant "ENGINE_ON %d step, Ba...">`
   \   00000068   ........           LDR.W    R0,??DataTable50_3
   \   0000006C   ........           BL       sprintf
   1084                              Write_Log(Buffer, NORMAL_LOG);
   \   00000070   0121               MOVS     R1,#+1
   \   00000072   ........           LDR.W    R0,??DataTable50_3
   \   00000076   ........           BL       Write_Log
   1085                         }            
   1086                         // -----------------------------------------------------------------------------	
   1087          
   1088                         EnginOnActionStep = 1;
   \                     ??EngineOn_Action_10:
   \   0000007A   ........           LDR.W    R0,??DataTable50_14
   \   0000007E   0121               MOVS     R1,#+1
   \   00000080   0170               STRB     R1,[R0, #+0]
   1089          
   1090                    }break;
   \   00000082   ECE0               B.N      ??EngineOn_Action_8
   1091                 case 0x01:
   1092                    {               
   1093                    //     EmsOutClear();    // 전출력 오프
   1094                         SET_ENGINE_ON();    // 엔진 온
   \                     ??EngineOn_Action_4:
   \   00000084   ........           BL       SET_ENGINE_ON
   1095                         EngineOn_Timer1 = MS_TIMER;               
   \   00000088   ....               LDR.N    R0,??DataTable49_1  ;; 0x40000c00
   \   0000008A   ........           BL       TIM_GetCounter
   \   0000008E   ........           LDR.W    R1,??DataTable50_15
   \   00000092   0880               STRH     R0,[R1, #+0]
   1096                         // LOG -------------------------------------------------------------------------
   1097                         // 로그 기록단위 500ms 
   1098                         if(LOGWRITE & LOG_EMS_ENGINE)                       
   \   00000094   ........           LDR.W    R0,??DataTable50_1
   \   00000098   0078               LDRB     R0,[R0, #+0]
   \   0000009A   C006               LSLS     R0,R0,#+27
   \   0000009C   0DD5               BPL.N    ??EngineOn_Action_11
   1099                         {
   1100                              sprintf((char*)Buffer,"ENGINE_ON %d step\r\n ",EnginOnActionStep); 
   \   0000009E   ........           LDR.W    R0,??DataTable50_14
   \   000000A2   0278               LDRB     R2,[R0, #+0]
   \   000000A4   ........           ADR.W    R1,`?<Constant "ENGINE_ON %d step\\r\\n ">`
   \   000000A8   ........           LDR.W    R0,??DataTable50_3
   \   000000AC   ........           BL       sprintf
   1101                              Write_Log(Buffer, NORMAL_LOG);
   \   000000B0   0121               MOVS     R1,#+1
   \   000000B2   ........           LDR.W    R0,??DataTable50_3
   \   000000B6   ........           BL       Write_Log
   1102                         }            
   1103                         // -----------------------------------------------------------------------------	               
   1104                         EnginOnActionStep = 2;
   \                     ??EngineOn_Action_11:
   \   000000BA   ........           LDR.W    R0,??DataTable50_14
   \   000000BE   0221               MOVS     R1,#+2
   \   000000C0   0170               STRB     R1,[R0, #+0]
   1105                         
   1106                    }break;
   \   000000C2   CCE0               B.N      ??EngineOn_Action_8
   1107                 case 0x02:
   1108                    {
   1109                         // 0.5초 이내에 발생되는 신호는 노이즈로 간주한다.
   1110                         if(!CheckTimeOver(500, EngineOn_Timer1))    // 0.5초안 시동이 켜지기를 기다린다.
   \                     ??EngineOn_Action_3:
   \   000000C4   ........           LDR.W    R0,??DataTable50_15
   \   000000C8   0188               LDRH     R1,[R0, #+0]
   \   000000CA   4FF4FA70           MOV      R0,#+500
   \   000000CE   ........           BL       CheckTimeOver
   \   000000D2   0028               CMP      R0,#+0
   \   000000D4   00F0C380           BEQ.W    ??EngineOn_Action_1
   1111                         { 
   1112                              return;
   1113                         } 
   1114                         else
   1115                         {
   1116                              EngineOn_Timer1 = MS_TIMER;
   \                     ??EngineOn_Action_12:
   \   000000D8   ....               LDR.N    R0,??DataTable49_1  ;; 0x40000c00
   \   000000DA   ........           BL       TIM_GetCounter
   \   000000DE   ........           LDR.W    R1,??DataTable50_15
   \   000000E2   0880               STRH     R0,[R1, #+0]
   1117                              EnginOnActionStep = 3;
   \   000000E4   ........           LDR.W    R0,??DataTable50_14
   \   000000E8   0321               MOVS     R1,#+3
   \   000000EA   0170               STRB     R1,[R0, #+0]
   1118                         }
   1119                    }break;
   \   000000EC   B7E0               B.N      ??EngineOn_Action_8
   1120               case 0x03:
   1121                    {
   1122                         if(!CheckTimeOver(2500, EngineOn_Timer1))    // 2.5초안 시동이 켜지기를 기다린다.
   \                     ??EngineOn_Action_6:
   \   000000EE   ........           LDR.W    R0,??DataTable50_15
   \   000000F2   0188               LDRH     R1,[R0, #+0]
   \   000000F4   40F6C410           MOVW     R0,#+2500
   \   000000F8   ........           BL       CheckTimeOver
   \   000000FC   0028               CMP      R0,#+0
   \   000000FE   31D1               BNE.N    ??EngineOn_Action_13
   1123                         {
   1124                              if(Info.RPM_Value > 250)    //rpm이 0이 될때 까지 기둘린다.                    
   \   00000100   ....               LDR.N    R0,??DataTable49_4
   \   00000102   B0F82D00           LDRH     R0,[R0, #+45]
   \   00000106   FB28               CMP      R0,#+251
   \   00000108   25D3               BCC.N    ??EngineOn_Action_14
   1125                              {
   1126                                                     
   1127                                   if(!CheckTimeOver(100, EngineOn_Timer2))break;  //     100ms 간 유지하면 시동 온으로 인정한다.
   \   0000010A   ........           LDR.W    R0,??DataTable50_16
   \   0000010E   0188               LDRH     R1,[R0, #+0]
   \   00000110   6420               MOVS     R0,#+100
   \   00000112   ........           BL       CheckTimeOver
   \   00000116   0028               CMP      R0,#+0
   \   00000118   00F0A180           BEQ.W    ??EngineOn_Action_8
   1128                                   {
   1129                                        RESET_ENGINE_ON();    // 엔진 온                              
   \                     ??EngineOn_Action_15:
   \   0000011C   ........           BL       RESET_ENGINE_ON
   1130                                        // LOG -------------------------------------------------------------------------
   1131                                        // 로그  
   1132                                        if(LOGWRITE & LOG_EMS_ENGINE)                       
   \   00000120   ........           LDR.W    R0,??DataTable50_1
   \   00000124   0078               LDRB     R0,[R0, #+0]
   \   00000126   C006               LSLS     R0,R0,#+27
   \   00000128   10D5               BPL.N    ??EngineOn_Action_16
   1133                                        {
   1134                                             sprintf((char*)Buffer,"ENGINE_ON %d step %d rpm \r\n ",EnginOnActionStep,Info.RPM_Value);
   \   0000012A   ....               LDR.N    R0,??DataTable49_4
   \   0000012C   B0F82D30           LDRH     R3,[R0, #+45]
   \   00000130   ........           LDR.W    R0,??DataTable50_14
   \   00000134   0278               LDRB     R2,[R0, #+0]
   \   00000136   ........           ADR.W    R1,`?<Constant "ENGINE_ON %d step %d ...">`
   \   0000013A   ........           LDR.W    R0,??DataTable50_3
   \   0000013E   ........           BL       sprintf
   1135                                             Write_Log(Buffer, NORMAL_LOG);
   \   00000142   0121               MOVS     R1,#+1
   \   00000144   ........           LDR.W    R0,??DataTable50_3
   \   00000148   ........           BL       Write_Log
   1136                                        }            
   1137                                        // -----------------------------------------------------------------------------	                              
   1138                                        EnginOnActionStep = 4;
   \                     ??EngineOn_Action_16:
   \   0000014C   ........           LDR.W    R0,??DataTable50_14
   \   00000150   0421               MOVS     R1,#+4
   \   00000152   0170               STRB     R1,[R0, #+0]
   \   00000154   4BE0               B.N      ??EngineOn_Action_17
   1139                                   }                        
   1140                              }
   1141                              else
   1142                              {
   1143                                   EngineOn_Timer2 = MS_TIMER;
   \                     ??EngineOn_Action_14:
   \   00000156   ....               LDR.N    R0,??DataTable49_1  ;; 0x40000c00
   \   00000158   ........           BL       TIM_GetCounter
   \   0000015C   ........           LDR.W    R1,??DataTable50_16
   \   00000160   0880               STRH     R0,[R1, #+0]
   \   00000162   44E0               B.N      ??EngineOn_Action_17
   1144                              }
   1145                         }
   1146                         else   // 재시동 실패 
   1147                         {
   1148                         // LOG -------------------------------------------------------------------------
   1149                         // 로그   
   1150                              if(LOGWRITE & LOG_EMS_ENGINE)
   \                     ??EngineOn_Action_13:
   \   00000164   ........           LDR.W    R0,??DataTable50_1
   \   00000168   0078               LDRB     R0,[R0, #+0]
   \   0000016A   C006               LSLS     R0,R0,#+27
   \   0000016C   0DD5               BPL.N    ??EngineOn_Action_18
   1151                              {
   1152                                   sprintf((char*)Buffer,"ENGINE_ON FAIL %d step\r\n ",EnginOnActionStep); 
   \   0000016E   ........           LDR.W    R0,??DataTable50_14
   \   00000172   0278               LDRB     R2,[R0, #+0]
   \   00000174   ........           ADR.W    R1,`?<Constant "ENGINE_ON FAIL %d ste...">`
   \   00000178   ........           LDR.W    R0,??DataTable50_3
   \   0000017C   ........           BL       sprintf
   1153                                   Write_Log(Buffer, FAIL_LOG);
   \   00000180   0221               MOVS     R1,#+2
   \   00000182   ........           LDR.W    R0,??DataTable50_3
   \   00000186   ........           BL       Write_Log
   1154                              }            
   1155                         // -----------------------------------------------------------------------------	                    
   1156                              RESET_ENGINE_ON();
   \                     ??EngineOn_Action_18:
   \   0000018A   ........           BL       RESET_ENGINE_ON
   1157                              
   1158                              if(EMS_Replay_FailCount == 0)           // 스타트 실패시부터 1분 타이머 설정
   \   0000018E   ........           LDR.W    R0,??DataTable50_17
   \   00000192   0078               LDRB     R0,[R0, #+0]
   \   00000194   0028               CMP      R0,#+0
   \   00000196   0CD1               BNE.N    ??EngineOn_Action_19
   1159                              {
   1160                                   EngineOn_Fail_Timer = MS_TIMER_1sec;
   \   00000198   ........           LDR.W    R0,??DataTable50_18
   \   0000019C   ....               LDR.N    R1,??DataTable49_10
   \   0000019E   0988               LDRH     R1,[R1, #+0]
   \   000001A0   0180               STRH     R1,[R0, #+0]
   1161                                   EMS_Replay_FailCount ++;
   \   000001A2   ........           LDR.W    R0,??DataTable50_17
   \   000001A6   0078               LDRB     R0,[R0, #+0]
   \   000001A8   401C               ADDS     R0,R0,#+1
   \   000001AA   ........           LDR.W    R1,??DataTable50_17
   \   000001AE   0870               STRB     R0,[R1, #+0]
   \   000001B0   0FE0               B.N      ??EngineOn_Action_20
   1162                              }          
   1163                              else if( !CheckTimeOver1Sec ( 60 , EngineOn_Fail_Timer ) ) // 1분이내에 스타트 실패시 재시동금지
   \                     ??EngineOn_Action_19:
   \   000001B2   ........           LDR.W    R0,??DataTable50_18
   \   000001B6   0188               LDRH     R1,[R0, #+0]
   \   000001B8   3C20               MOVS     R0,#+60
   \   000001BA   ........           BL       CheckTimeOver1Sec
   \   000001BE   0028               CMP      R0,#+0
   \   000001C0   07D1               BNE.N    ??EngineOn_Action_20
   1164                              {
   1165                                   EngineOn_Fail_Timer = 0;
   \   000001C2   ........           LDR.W    R0,??DataTable50_18
   \   000001C6   0021               MOVS     R1,#+0
   \   000001C8   0180               STRH     R1,[R0, #+0]
   1166                                   EMS_Replay_Flag = 1;               // 1분간 재시도 2회실패 플래그 셋
   \   000001CA   ........           LDR.W    R0,??DataTable50_19
   \   000001CE   0121               MOVS     R1,#+1
   \   000001D0   0170               STRB     R1,[R0, #+0]
   1167                              }
   1168                              
   1169                              EnginOnLimit_Time = MS_TIMER;
   \                     ??EngineOn_Action_20:
   \   000001D2   ....               LDR.N    R0,??DataTable49_1  ;; 0x40000c00
   \   000001D4   ........           BL       TIM_GetCounter
   \   000001D8   ........           LDR.W    R1,??DataTable50_20
   \   000001DC   0880               STRH     R0,[R1, #+0]
   1170                              EnginOnActionStep = 0;                                        
   \   000001DE   ........           LDR.W    R0,??DataTable50_14
   \   000001E2   0021               MOVS     R1,#+0
   \   000001E4   0170               STRB     R1,[R0, #+0]
   1171                              EnginOnActionFlag = 0 ;
   \   000001E6   ........           LDR.W    R0,??DataTable50_13
   \   000001EA   0021               MOVS     R1,#+0
   \   000001EC   0170               STRB     R1,[R0, #+0]
   1172                         }
   1173                    }break;
   \                     ??EngineOn_Action_17:
   \   000001EE   36E0               B.N      ??EngineOn_Action_8
   1174                 case 0x04:                       // 시동온 동작 시작
   1175                    {
   1176                         EMS_Reley_Off = 1 ;      // 릴레이 동작 플래그
   \                     ??EngineOn_Action_5:
   \   000001F0   ........           LDR.W    R0,??DataTable50_6
   \   000001F4   0121               MOVS     R1,#+1
   \   000001F6   0170               STRB     R1,[R0, #+0]
   1177          
   1178                         EnginOnLimit_Time = MS_TIMER;
   \   000001F8   ....               LDR.N    R0,??DataTable49_1  ;; 0x40000c00
   \   000001FA   ........           BL       TIM_GetCounter
   \   000001FE   ........           LDR.W    R1,??DataTable50_20
   \   00000202   0880               STRH     R0,[R1, #+0]
   1179                         EnginOffLimit_Time = MS_TIMER_1sec;
   \   00000204   ....               LDR.N    R0,??DataTable49_8
   \   00000206   ....               LDR.N    R1,??DataTable49_10
   \   00000208   0988               LDRH     R1,[R1, #+0]
   \   0000020A   0180               STRH     R1,[R0, #+0]
   1180                         EnginOffLimit_Flag = 1;
   \   0000020C   ....               LDR.N    R0,??DataTable49_7
   \   0000020E   0121               MOVS     R1,#+1
   \   00000210   0170               STRB     R1,[R0, #+0]
   1181                         EnginOnActionStep = 0;                                        
   \   00000212   ........           LDR.W    R0,??DataTable50_14
   \   00000216   0021               MOVS     R1,#+0
   \   00000218   0170               STRB     R1,[R0, #+0]
   1182                         EnginOnActionFlag = 0 ;
   \   0000021A   ........           LDR.W    R0,??DataTable50_13
   \   0000021E   0021               MOVS     R1,#+0
   \   00000220   0170               STRB     R1,[R0, #+0]
   1183                         EnginOff_Flag = 0;   
   \   00000222   ........           LDR.W    R0,??DataTable50_8
   \   00000226   0021               MOVS     R1,#+0
   \   00000228   0170               STRB     R1,[R0, #+0]
   1184                         
   1185                         EngineOn_Fail_Timer = 0;
   \   0000022A   ........           LDR.W    R0,??DataTable50_18
   \   0000022E   0021               MOVS     R1,#+0
   \   00000230   0180               STRH     R1,[R0, #+0]
   1186                         EMS_Replay_Flag = 0;     // 공회전 1분간 2 실패체크 플래그 클리어
   \   00000232   ........           LDR.W    R0,??DataTable50_19
   \   00000236   0021               MOVS     R1,#+0
   \   00000238   0170               STRB     R1,[R0, #+0]
   1187                         EMS_Replay_FailCount = 0;               
   \   0000023A   ........           LDR.W    R0,??DataTable50_17
   \   0000023E   0021               MOVS     R1,#+0
   \   00000240   0170               STRB     R1,[R0, #+0]
   1188                    }
   1189                    
   1190                 default:
   1191                    {
   1192                         EnginOnLimit_Time = MS_TIMER;
   \                     ??EngineOn_Action_7:
   \   00000242   ....               LDR.N    R0,??DataTable49_1  ;; 0x40000c00
   \   00000244   ........           BL       TIM_GetCounter
   \   00000248   ........           LDR.W    R1,??DataTable50_20
   \   0000024C   0880               STRH     R0,[R1, #+0]
   1193                         EnginOnActionStep = 0;                                        
   \   0000024E   ........           LDR.W    R0,??DataTable50_14
   \   00000252   0021               MOVS     R1,#+0
   \   00000254   0170               STRB     R1,[R0, #+0]
   1194                         EnginOnActionFlag = 0 ;               
   \   00000256   ........           LDR.W    R0,??DataTable50_13
   \   0000025A   0021               MOVS     R1,#+0
   \   0000025C   0170               STRB     R1,[R0, #+0]
   1195                    }break;
   1196               }          
   1197          }
   \                     ??EngineOn_Action_8:
   \                     ??EngineOn_Action_1:
   \   0000025E   01BD               POP      {R0,PC}          ;; return

   \                                 In section .bss, align 2
   \                     ??EngineOn_Timer1:
   \   00000000                      DS8 2

   \                                 In section .bss, align 2
   \                     ??EngineOn_Timer2:
   \   00000000                      DS8 2

   \                                 In section .bss, align 2
   \                     ??EngineOn_Fail_Timer:
   \   00000000                      DS8 2

   \                                 In section .bss, align 1
   \                     ??EMS_Replay_FailCount:
   \   00000000                      DS8 1

   \                                 In section .text, align 2, keep-with-next
   1198          void EngineOff_Action(void)
   1199          {
   \                     EngineOff_Action:
   \   00000000   80B5               PUSH     {R7,LR}
   1200               static u16 EngineOff_Timer1 = 0;
   1201               static u16 EngineOff_Timer2 = 0;     
   1202               if(!EnginOffActionFlag)
   \   00000002   ....               LDR.N    R0,??DataTable50_21
   \   00000004   0078               LDRB     R0,[R0, #+0]
   \   00000006   0028               CMP      R0,#+0
   \   00000008   03D1               BNE.N    ??EngineOff_Action_0
   1203               {          
   1204                    EnginOffActionStep = 0;    
   \   0000000A   ....               LDR.N    R0,??DataTable50_4
   \   0000000C   0021               MOVS     R1,#+0
   \   0000000E   0170               STRB     R1,[R0, #+0]
   1205                    return;
   \   00000010   34E1               B.N      ??EngineOff_Action_1
   1206               }
   1207          	
   1208               switch(EnginOffActionStep)
   \                     ??EngineOff_Action_0:
   \   00000012   ....               LDR.N    R0,??DataTable50_4
   \   00000014   0078               LDRB     R0,[R0, #+0]
   \   00000016   0028               CMP      R0,#+0
   \   00000018   0DD0               BEQ.N    ??EngineOff_Action_2
   \   0000001A   0228               CMP      R0,#+2
   \   0000001C   7AD0               BEQ.N    ??EngineOff_Action_3
   \   0000001E   2BD3               BCC.N    ??EngineOff_Action_4
   \   00000020   0428               CMP      R0,#+4
   \   00000022   00F0B480           BEQ.W    ??EngineOff_Action_5
   \   00000026   C0F08F80           BCC.W    ??EngineOff_Action_6
   \   0000002A   0628               CMP      R0,#+6
   \   0000002C   00F0F380           BEQ.W    ??EngineOff_Action_7
   \   00000030   C0F0CF80           BCC.W    ??EngineOff_Action_8
   \   00000034   10E1               B.N      ??EngineOff_Action_9
   1209               {
   1210          	case 0x00 : 
   1211                     
   1212                     // LOG -------------------------------------------------------------------------
   1213                     // 로그 기록단위 500ms 
   1214                     if(LOGWRITE & LOG_EMS_ENGINE)                       
   \                     ??EngineOff_Action_2:
   \   00000036   ....               LDR.N    R0,??DataTable50_1
   \   00000038   0078               LDRB     R0,[R0, #+0]
   \   0000003A   C006               LSLS     R0,R0,#+27
   \   0000003C   0AD5               BPL.N    ??EngineOff_Action_10
   1215                    {
   1216                         sprintf((char*)Buffer,"ENGINE_OFF %d step\r\n ",EnginOffActionStep); 
   \   0000003E   ....               LDR.N    R0,??DataTable50_4
   \   00000040   0278               LDRB     R2,[R0, #+0]
   \   00000042   ........           ADR.W    R1,`?<Constant "ENGINE_OFF %d step\\r\\n ">`
   \   00000046   ....               LDR.N    R0,??DataTable50_3
   \   00000048   ........           BL       sprintf
   1217                         Write_Log(Buffer, NORMAL_LOG);
   \   0000004C   0121               MOVS     R1,#+1
   \   0000004E   ....               LDR.N    R0,??DataTable50_3
   \   00000050   ........           BL       Write_Log
   1218                    }            
   1219                    // -----------------------------------------------------------------------------	
   1220                    EmsOutClear();    // 전출력 오프  
   \                     ??EngineOff_Action_10:
   \   00000054   ........           BL       EmsOutClear
   1221                    SET_ENGINE_OFF();    // 엔진 온
   \   00000058   ........           BL       SET_ENGINE_OFF
   1222                    EnginOffActionStep = 1;   // 다음 스템
   \   0000005C   ....               LDR.N    R0,??DataTable50_4
   \   0000005E   0121               MOVS     R1,#+1
   \   00000060   0170               STRB     R1,[R0, #+0]
   1223                    EngineOff_Timer1 = MS_TIMER;    // 100ms 간격을 읽기
   \   00000062   ....               LDR.N    R0,??DataTable50_22  ;; 0x40000c00
   \   00000064   ........           BL       TIM_GetCounter
   \   00000068   ....               LDR.N    R1,??DataTable50_23
   \   0000006A   0880               STRH     R0,[R1, #+0]
   1224                    EngineOff_Timer2 = MS_TIMER;    // 10초간 대기
   \   0000006C   ....               LDR.N    R0,??DataTable50_22  ;; 0x40000c00
   \   0000006E   ........           BL       TIM_GetCounter
   \   00000072   ....               LDR.N    R1,??DataTable50_24
   \   00000074   0880               STRH     R0,[R1, #+0]
   1225                    break;
   \   00000076   01E1               B.N      ??EngineOff_Action_11
   1226          		
   1227          	case 0x01 : 
   1228                     {
   1229                          
   1230          		if(Info.RPM_Value == 0)    //rpm이 0이 될때 까지 기둘린다.
   \                     ??EngineOff_Action_4:
   \   00000078   ....               LDR.N    R0,??DataTable50_25
   \   0000007A   B0F82D00           LDRH     R0,[R0, #+45]
   \   0000007E   0028               CMP      R0,#+0
   \   00000080   1AD1               BNE.N    ??EngineOff_Action_12
   1231                    {
   1232                         if(!CheckTimeOver(100, EngineOff_Timer1))break;  //100ms 간 유지한다.
   \   00000082   ....               LDR.N    R0,??DataTable50_23
   \   00000084   0188               LDRH     R1,[R0, #+0]
   \   00000086   6420               MOVS     R0,#+100
   \   00000088   ........           BL       CheckTimeOver
   \   0000008C   0028               CMP      R0,#+0
   \   0000008E   00F0F580           BEQ.W    ??EngineOff_Action_11
   1233                         EnginOffActionStep = 2;
   \                     ??EngineOff_Action_13:
   \   00000092   ....               LDR.N    R0,??DataTable50_4
   \   00000094   0221               MOVS     R1,#+2
   \   00000096   0170               STRB     R1,[R0, #+0]
   1234                         // LOG -------------------------------------------------------------------------
   1235                         // 로그 기록단위 정상적으로 종료됨
   1236                         if(LOGWRITE & LOG_EMS_ENGINE)                       
   \   00000098   ....               LDR.N    R0,??DataTable50_1
   \   0000009A   0078               LDRB     R0,[R0, #+0]
   \   0000009C   C006               LSLS     R0,R0,#+27
   \   0000009E   35D5               BPL.N    ??EngineOff_Action_14
   1237                         {
   1238                              sprintf((char*)Buffer,"ENGINE_OFF %d step \r\n ",EnginOffActionStep); 
   \   000000A0   ....               LDR.N    R0,??DataTable50_4
   \   000000A2   0278               LDRB     R2,[R0, #+0]
   \   000000A4   ........           ADR.W    R1,`?<Constant "ENGINE_OFF %d step \\r\\n ">`
   \   000000A8   ....               LDR.N    R0,??DataTable50_3
   \   000000AA   ........           BL       sprintf
   1239                              Write_Log(Buffer, NORMAL_LOG);
   \   000000AE   0121               MOVS     R1,#+1
   \   000000B0   ....               LDR.N    R0,??DataTable50_3
   \   000000B2   ........           BL       Write_Log
   \   000000B6   29E0               B.N      ??EngineOff_Action_14
   1240                         }            
   1241                         // -----------------------------------------------------------------------------
   1242                         
   1243                    }
   1244                    else        // rpm이 10초간 0으로 떨어지지 않으면 장치의 이상 
   1245                    {
   1246                         EngineOff_Timer1 = MS_TIMER;    // 100ms 간격을 읽기                     
   \                     ??EngineOff_Action_12:
   \   000000B8   ....               LDR.N    R0,??DataTable50_22  ;; 0x40000c00
   \   000000BA   ........           BL       TIM_GetCounter
   \   000000BE   ....               LDR.N    R1,??DataTable50_23
   \   000000C0   0880               STRH     R0,[R1, #+0]
   1247                         if(!CheckTimeOver(10000, EngineOff_Timer2))break;  //10초간 
   \   000000C2   ....               LDR.N    R0,??DataTable50_24
   \   000000C4   0188               LDRH     R1,[R0, #+0]
   \   000000C6   42F21070           MOVW     R0,#+10000
   \   000000CA   ........           BL       CheckTimeOver
   \   000000CE   0028               CMP      R0,#+0
   \   000000D0   00F0D480           BEQ.W    ??EngineOff_Action_11
   1248                         // LOG -------------------------------------------------------------------------
   1249                         // 로그 기록단위 Error
   1250                         if(LOGWRITE & LOG_EMS_ENGINE)                       
   \                     ??EngineOff_Action_15:
   \   000000D4   ....               LDR.N    R0,??DataTable50_1
   \   000000D6   0078               LDRB     R0,[R0, #+0]
   \   000000D8   C006               LSLS     R0,R0,#+27
   \   000000DA   0AD5               BPL.N    ??EngineOff_Action_16
   1251                         {
   1252                              sprintf((char*)Buffer,"ENGINE_OFF %d step RPM_TimerOut\r\n ",EnginOffActionStep); 
   \   000000DC   ....               LDR.N    R0,??DataTable50_4
   \   000000DE   0278               LDRB     R2,[R0, #+0]
   \   000000E0   ........           ADR.W    R1,`?<Constant "ENGINE_OFF %d step RP...">`
   \   000000E4   ....               LDR.N    R0,??DataTable50_3
   \   000000E6   ........           BL       sprintf
   1253                              Write_Log(Buffer, FAIL_LOG);
   \   000000EA   0221               MOVS     R1,#+2
   \   000000EC   ....               LDR.N    R0,??DataTable50_3
   \   000000EE   ........           BL       Write_Log
   1254                         }            
   1255                         RESET_ENGINE_OFF();
   \                     ??EngineOff_Action_16:
   \   000000F2   ........           BL       RESET_ENGINE_OFF
   1256                         EnginOnLimit_Time = MS_TIMER;   // 다시 정지모드로 들어오기 10초간 딜레이
   \   000000F6   ....               LDR.N    R0,??DataTable50_22  ;; 0x40000c00
   \   000000F8   ........           BL       TIM_GetCounter
   \   000000FC   ....               LDR.N    R1,??DataTable50_20
   \   000000FE   0880               STRH     R0,[R1, #+0]
   1257                         EnginOffActionStep = 0 ;   // step 과  Flag 클리어
   \   00000100   ....               LDR.N    R0,??DataTable50_4
   \   00000102   0021               MOVS     R1,#+0
   \   00000104   0170               STRB     R1,[R0, #+0]
   1258                         EnginOffActionFlag = 0 ;
   \   00000106   ....               LDR.N    R0,??DataTable50_21
   \   00000108   0021               MOVS     R1,#+0
   \   0000010A   0170               STRB     R1,[R0, #+0]
   1259                    // -----------------------------------------------------------------------------	                     
   1260                               
   1261                    }
   1262          
   1263          		EnginOffActionStep = 2;
   \                     ??EngineOff_Action_14:
   \   0000010C   ....               LDR.N    R0,??DataTable50_4
   \   0000010E   0221               MOVS     R1,#+2
   \   00000110   0170               STRB     R1,[R0, #+0]
   1264          		break;
   \   00000112   B3E0               B.N      ??EngineOff_Action_11
   1265                     }
   1266          	case 0x02 : 
   1267                     {
   1268                          RESET_ENGINE_OFF();    // 엔진 온
   \                     ??EngineOff_Action_3:
   \   00000114   ........           BL       RESET_ENGINE_OFF
   1269                          EnginOffActionStep = 3;
   \   00000118   ....               LDR.N    R0,??DataTable50_4
   \   0000011A   0321               MOVS     R1,#+3
   \   0000011C   0170               STRB     R1,[R0, #+0]
   1270                          EngineOff_Timer1 = MS_TIMER;    // 100ms 간격을 읽기                         
   \   0000011E   ....               LDR.N    R0,??DataTable50_22  ;; 0x40000c00
   \   00000120   ........           BL       TIM_GetCounter
   \   00000124   ....               LDR.N    R1,??DataTable50_23
   \   00000126   0880               STRH     R0,[R1, #+0]
   1271          
   1272                     // LOG -------------------------------------------------------------------------
   1273                     // 로그 기록단위 정상적으로 종료됨
   1274                               if(LOGWRITE & LOG_EMS_ENGINE)                       
   \   00000128   ....               LDR.N    R0,??DataTable50_1
   \   0000012A   0078               LDRB     R0,[R0, #+0]
   \   0000012C   C006               LSLS     R0,R0,#+27
   \   0000012E   0AD5               BPL.N    ??EngineOff_Action_17
   1275                               {
   1276                                    sprintf((char*)Buffer,"ENGINE_OFF %d step \r\n ",EnginOffActionStep); 
   \   00000130   ....               LDR.N    R0,??DataTable50_4
   \   00000132   0278               LDRB     R2,[R0, #+0]
   \   00000134   ........           ADR.W    R1,`?<Constant "ENGINE_OFF %d step \\r\\n ">`
   \   00000138   ....               LDR.N    R0,??DataTable50_3
   \   0000013A   ........           BL       sprintf
   1277                                    Write_Log(Buffer, NORMAL_LOG);
   \   0000013E   0121               MOVS     R1,#+1
   \   00000140   ....               LDR.N    R0,??DataTable50_3
   \   00000142   ........           BL       Write_Log
   1278                               }            
   1279                    // -----------------------------------------------------------------------------
   1280                           
   1281          		break;
   \                     ??EngineOff_Action_17:
   \   00000146   99E0               B.N      ??EngineOff_Action_11
   1282                     }
   1283          	case 0x03 : 
   1284                     {
   1285                          if(!CheckTimeOver(1000, EngineOff_Timer1))break;  //1초간 대기
   \                     ??EngineOff_Action_6:
   \   00000148   ....               LDR.N    R0,??DataTable50_23
   \   0000014A   0188               LDRH     R1,[R0, #+0]
   \   0000014C   4FF47A70           MOV      R0,#+1000
   \   00000150   ........           BL       CheckTimeOver
   \   00000154   0028               CMP      R0,#+0
   \   00000156   00F09180           BEQ.W    ??EngineOff_Action_11
   1286                          EngineOff_Timer1 = MS_TIMER;	
   \                     ??EngineOff_Action_18:
   \   0000015A   ....               LDR.N    R0,??DataTable50_22  ;; 0x40000c00
   \   0000015C   ........           BL       TIM_GetCounter
   \   00000160   ....               LDR.N    R1,??DataTable50_23
   \   00000162   0880               STRH     R0,[R1, #+0]
   1287                          SET_LIGHT();
   \   00000164   ........           BL       SET_LIGHT
   1288                          // LOG -------------------------------------------------------------------------
   1289                          // 로그 기록단위 정상적으로 종료됨
   1290                          if(LOGWRITE & LOG_EMS_ENGINE)                       
   \   00000168   ....               LDR.N    R0,??DataTable50_1
   \   0000016A   0078               LDRB     R0,[R0, #+0]
   \   0000016C   C006               LSLS     R0,R0,#+27
   \   0000016E   0AD5               BPL.N    ??EngineOff_Action_19
   1291                          {
   1292                               sprintf((char*)Buffer,"ENGINE_OFF %d step SET_LIGHT_RELAY\r\n ",EnginOffActionStep); 
   \   00000170   ....               LDR.N    R0,??DataTable50_4
   \   00000172   0278               LDRB     R2,[R0, #+0]
   \   00000174   ........           ADR.W    R1,`?<Constant "ENGINE_OFF %d step SE...">`
   \   00000178   ....               LDR.N    R0,??DataTable50_3
   \   0000017A   ........           BL       sprintf
   1293                               Write_Log(Buffer, NORMAL_LOG);
   \   0000017E   0121               MOVS     R1,#+1
   \   00000180   ....               LDR.N    R0,??DataTable50_3
   \   00000182   ........           BL       Write_Log
   1294                          }            
   1295                          // -----------------------------------------------------------------------------
   1296                          EnginOffActionStep = 4;		    
   \                     ??EngineOff_Action_19:
   \   00000186   ....               LDR.N    R0,??DataTable50_4
   \   00000188   0421               MOVS     R1,#+4
   \   0000018A   0170               STRB     R1,[R0, #+0]
   1297                          break;                                 
   \   0000018C   76E0               B.N      ??EngineOff_Action_11
   1298                     }
   1299          	case 0x04 : 
   1300                     {
   1301          		if(!CheckTimeOver(1000, EngineOff_Timer1))break;  //500ms 후에 AIRCON
   \                     ??EngineOff_Action_5:
   \   0000018E   ....               LDR.N    R0,??DataTable50_23
   \   00000190   0188               LDRH     R1,[R0, #+0]
   \   00000192   4FF47A70           MOV      R0,#+1000
   \   00000196   ........           BL       CheckTimeOver
   \   0000019A   0028               CMP      R0,#+0
   \   0000019C   6ED0               BEQ.N    ??EngineOff_Action_11
   1302          		EngineOff_Timer1 = MS_TIMER;	
   \                     ??EngineOff_Action_20:
   \   0000019E   ....               LDR.N    R0,??DataTable50_22  ;; 0x40000c00
   \   000001A0   ........           BL       TIM_GetCounter
   \   000001A4   ....               LDR.N    R1,??DataTable50_23
   \   000001A6   0880               STRH     R0,[R1, #+0]
   1303                     // LOG -------------------------------------------------------------------------
   1304                     // 로그 기록단위 정상적으로 종료됨
   1305                               if(LOGWRITE & LOG_EMS_ENGINE)                       
   \   000001A8   ....               LDR.N    R0,??DataTable50_1
   \   000001AA   0078               LDRB     R0,[R0, #+0]
   \   000001AC   C006               LSLS     R0,R0,#+27
   \   000001AE   0AD5               BPL.N    ??EngineOff_Action_21
   1306                               {
   1307                                    sprintf((char*)Buffer,"ENGINE_OFF %d step SET_AIRCON_RELAY\r\n ",EnginOffActionStep); 
   \   000001B0   ....               LDR.N    R0,??DataTable50_4
   \   000001B2   0278               LDRB     R2,[R0, #+0]
   \   000001B4   ........           ADR.W    R1,`?<Constant "ENGINE_OFF %d step SE...">_1`
   \   000001B8   ....               LDR.N    R0,??DataTable50_3
   \   000001BA   ........           BL       sprintf
   1308                                    Write_Log(Buffer, NORMAL_LOG);
   \   000001BE   0121               MOVS     R1,#+1
   \   000001C0   ....               LDR.N    R0,??DataTable50_3
   \   000001C2   ........           BL       Write_Log
   1309                               }            
   1310                    // -----------------------------------------------------------------------------                
   1311          		SET_HITER();
   \                     ??EngineOff_Action_21:
   \   000001C6   ........           BL       SET_HITER
   1312          	
   1313                           
   1314          		EnginOffActionStep = 5;
   \   000001CA   ....               LDR.N    R0,??DataTable50_4
   \   000001CC   0521               MOVS     R1,#+5
   \   000001CE   0170               STRB     R1,[R0, #+0]
   1315                          
   1316          		break;
   \   000001D0   54E0               B.N      ??EngineOff_Action_11
   1317                     }
   1318                    case 0x05 : 
   1319                    {
   1320                         if(!CheckTimeOver(1000, EngineOff_Timer1))break;  //500ms 후에 AIRCON
   \                     ??EngineOff_Action_8:
   \   000001D2   ....               LDR.N    R0,??DataTable50_23
   \   000001D4   0188               LDRH     R1,[R0, #+0]
   \   000001D6   4FF47A70           MOV      R0,#+1000
   \   000001DA   ........           BL       CheckTimeOver
   \   000001DE   0028               CMP      R0,#+0
   \   000001E0   4CD0               BEQ.N    ??EngineOff_Action_11
   1321                         EngineOff_Timer1 = MS_TIMER;	
   \                     ??EngineOff_Action_22:
   \   000001E2   ....               LDR.N    R0,??DataTable50_22  ;; 0x40000c00
   \   000001E4   ........           BL       TIM_GetCounter
   \   000001E8   ....               LDR.N    R1,??DataTable50_23
   \   000001EA   0880               STRH     R0,[R1, #+0]
   1322                         // LOG -------------------------------------------------------------------------
   1323                         // 로그 기록단위 정상적으로 종료됨
   1324                         if(LOGWRITE & LOG_EMS_ENGINE)                       
   \   000001EC   ....               LDR.N    R0,??DataTable50_1
   \   000001EE   0078               LDRB     R0,[R0, #+0]
   \   000001F0   C006               LSLS     R0,R0,#+27
   \   000001F2   0AD5               BPL.N    ??EngineOff_Action_23
   1325                         {
   1326                              sprintf((char*)Buffer,"ENGINE_OFF %d step SET_AIRCON_RELAY\r\n ",EnginOffActionStep); 
   \   000001F4   ....               LDR.N    R0,??DataTable50_4
   \   000001F6   0278               LDRB     R2,[R0, #+0]
   \   000001F8   ........           ADR.W    R1,`?<Constant "ENGINE_OFF %d step SE...">_1`
   \   000001FC   ....               LDR.N    R0,??DataTable50_3
   \   000001FE   ........           BL       sprintf
   1327                              Write_Log(Buffer, NORMAL_LOG);
   \   00000202   0121               MOVS     R1,#+1
   \   00000204   ....               LDR.N    R0,??DataTable50_3
   \   00000206   ........           BL       Write_Log
   1328                         }            
   1329                         // -----------------------------------------------------------------------------                
   1330                         SET_AIRCON();
   \                     ??EngineOff_Action_23:
   \   0000020A   ........           BL       SET_AIRCON
   1331                         EnginOffActionStep = 6;
   \   0000020E   ....               LDR.N    R0,??DataTable50_4
   \   00000210   0621               MOVS     R1,#+6
   \   00000212   0170               STRB     R1,[R0, #+0]
   1332                         break;
   \   00000214   32E0               B.N      ??EngineOff_Action_11
   1333                    }          
   1334                    case 0x06 : 
   1335                    {
   1336                         // LOG -------------------------------------------------------------------------
   1337                         // 로그 기록단위 정상적으로 종료됨
   1338                         if(LOGWRITE & LOG_EMS_ENGINE)                       
   \                     ??EngineOff_Action_7:
   \   00000216   ....               LDR.N    R0,??DataTable50_1
   \   00000218   0078               LDRB     R0,[R0, #+0]
   \   0000021A   C006               LSLS     R0,R0,#+27
   \   0000021C   0AD5               BPL.N    ??EngineOff_Action_24
   1339                         {
   1340                              sprintf((char*)Buffer,"ENGINE_OFF %d step Done\r\n ",EnginOffActionStep); 
   \   0000021E   ....               LDR.N    R0,??DataTable50_4
   \   00000220   0278               LDRB     R2,[R0, #+0]
   \   00000222   ........           ADR.W    R1,`?<Constant "ENGINE_OFF %d step Do...">`
   \   00000226   ....               LDR.N    R0,??DataTable50_3
   \   00000228   ........           BL       sprintf
   1341                              Write_Log(Buffer, NORMAL_LOG);
   \   0000022C   0121               MOVS     R1,#+1
   \   0000022E   ....               LDR.N    R0,??DataTable50_3
   \   00000230   ........           BL       Write_Log
   1342                         }            
   1343                         // -----------------------------------------------------------------------------      	
   1344                         EnginOffActionStep = 0;
   \                     ??EngineOff_Action_24:
   \   00000234   ....               LDR.N    R0,??DataTable50_4
   \   00000236   0021               MOVS     R1,#+0
   \   00000238   0170               STRB     R1,[R0, #+0]
   1345                         EnginOffActionFlag = 0;
   \   0000023A   ....               LDR.N    R0,??DataTable50_21
   \   0000023C   0021               MOVS     R1,#+0
   \   0000023E   0170               STRB     R1,[R0, #+0]
   1346                         EnginOff_Flag = 1;
   \   00000240   ....               LDR.N    R0,??DataTable50_8
   \   00000242   0121               MOVS     R1,#+1
   \   00000244   0170               STRB     R1,[R0, #+0]
   1347                         EnginOnLimit_Time = MS_TIMER;   // 다시 정지모드로 들어오기 3초간 딜레이
   \   00000246   ....               LDR.N    R0,??DataTable50_22  ;; 0x40000c00
   \   00000248   ........           BL       TIM_GetCounter
   \   0000024C   ....               LDR.N    R1,??DataTable50_20
   \   0000024E   0880               STRH     R0,[R1, #+0]
   1348                         EnginOffActionStep = 7;
   \   00000250   ....               LDR.N    R0,??DataTable50_4
   \   00000252   0721               MOVS     R1,#+7
   \   00000254   0170               STRB     R1,[R0, #+0]
   1349                         break;
   \   00000256   11E0               B.N      ??EngineOff_Action_11
   1350                    }
   1351          
   1352          	default : 
   1353                     {
   1354                     // LOG -------------------------------------------------------------------------
   1355                     // 로그 기록단위 정상적으로 종료됨
   1356                               if(LOGWRITE & LOG_EMS_ENGINE)                       
   \                     ??EngineOff_Action_9:
   \   00000258   ....               LDR.N    R0,??DataTable50_1
   \   0000025A   0078               LDRB     R0,[R0, #+0]
   \   0000025C   C006               LSLS     R0,R0,#+27
   \   0000025E   0AD5               BPL.N    ??EngineOff_Action_25
   1357                               {
   1358                                    sprintf((char*)Buffer,"ENGINE_OFF %d step / StepError \r\n ",EnginOffActionStep); 
   \   00000260   ....               LDR.N    R0,??DataTable50_4
   \   00000262   0278               LDRB     R2,[R0, #+0]
   \   00000264   ........           ADR.W    R1,`?<Constant "ENGINE_OFF %d step / ...">`
   \   00000268   ....               LDR.N    R0,??DataTable50_3
   \   0000026A   ........           BL       sprintf
   1359                                    Write_Log(Buffer, ERROR_LOG);
   \   0000026E   0421               MOVS     R1,#+4
   \   00000270   ....               LDR.N    R0,??DataTable50_3
   \   00000272   ........           BL       Write_Log
   1360                               }            
   1361                    // -----------------------------------------------------------------------------                      
   1362          		EnginOffActionStep = 0;
   \                     ??EngineOff_Action_25:
   \   00000276   ....               LDR.N    R0,??DataTable50_4
   \   00000278   0021               MOVS     R1,#+0
   \   0000027A   0170               STRB     R1,[R0, #+0]
   1363          
   1364          		break;
   1365                     }
   1366               }
   1367          }
   \                     ??EngineOff_Action_11:
   \                     ??EngineOff_Action_1:
   \   0000027C   01BD               POP      {R0,PC}          ;; return

   \                                 In section .bss, align 2
   \                     ??EngineOff_Timer1:
   \   00000000                      DS8 2

   \                                 In section .bss, align 2
   \                     ??EngineOff_Timer2:
   \   00000000                      DS8 2

   \                                 In section .text, align 4, keep-with-next
   \                     ??DataTable43:
   \   00000000   00100240           DC32     0x40021000

   \                                 In section .text, align 4, keep-with-next
   \                     ??DataTable43_1:
   \   00000000   00180240           DC32     0x40021800

   \                                 In section .text, align 4, keep-with-next
   \                     ??DataTable44:
   \   00000000   ........           DC32     OUTPUT_DATA

   \                                 In section .text, align 4, keep-with-next
   \                     ??DataTable44_1:
   \   00000000   00080240           DC32     0x40020800

   \                                 In section .text, align 4, keep-with-next
   \                     ??DataTable44_2:
   \   00000000   00000240           DC32     0x40020000

   \                                 In section .text, align 4, keep-with-next
   \                     ??DataTable44_3:
   \   00000000   000C0240           DC32     0x40020c00

   \                                 In section .text, align 4, keep-with-next
   \                     ??DataTable44_4:
   \   00000000   ........           DC32     EnginOnActionFlag

   \                                 In section .text, align 4, keep-with-next
   \                     ??DataTable44_5:
   \   00000000   ........           DC32     EnginOnActionStep

   \                                 In section .text, align 4, keep-with-next
   \                     ??DataTable44_6:
   \   00000000   ........           DC32     EnginOffActionFlag

   \                                 In section .text, align 4, keep-with-next
   \                     ??DataTable44_7:
   \   00000000   ........           DC32     EnginOffActionStep

   \                                 In section .text, align 4, keep-with-next
   \                     ??DataTable44_8:
   \   00000000   ........           DC32     EnginOnLimit_Time

   \                                 In section .text, align 4, keep-with-next
   \                     ??DataTable44_9:
   \   00000000   ........           DC32     EnginOff_Flag

   \                                 In section .text, align 4, keep-with-next
   \                     ??DataTable44_10:
   \   00000000   ........           DC32     Ref_OverDrive

   \                                 In section .text, align 4, keep-with-next
   \                     ??DataTable44_11:
   \   00000000   ........           DC32     EnginOffLimit_Time

   \                                 In section .text, align 4, keep-with-next
   \                     ??DataTable44_12:
   \   00000000   ........           DC32     Timer_1Sec

   \                                 In section .text, align 4, keep-with-next
   \                     ??DataTable44_13:
   \   00000000   ........           DC32     EnginOffLimit_Flag

   \                                 In section .text, align 4, keep-with-next
   \                     ??DataTable44_14:
   \   00000000   ........           DC32     EMS_Reley_Off

   \                                 In section .text, align 4, keep-with-next
   \                     ??DataTable44_15:
   \   00000000   ........           DC32     EMS_Replay_Flag

   \                                 In section .text, align 4, keep-with-next
   \                     ??DataTable44_16:
   \   00000000   ........           DC32     ??EMS_Driving_Timer

   \                                 In section .text, align 4, keep-with-next
   \                     ??DataTable44_17:
   \   00000000   000C0040           DC32     0x40000c00

   \                                 In section .text, align 4, keep-with-next
   \                     ??DataTable44_18:
   \   00000000   ........           DC32     Info

   \                                 In section .text, align 4, keep-with-next
   \                     ??DataTable44_19:
   \   00000000   ........           DC32     ??StartMotor_Flag

   \                                 In section .text, align 4, keep-with-next
   \                     ??DataTable44_20:
   \   00000000   ........           DC32     ACC_Drive_Value

   \                                 In section .text, align 4, keep-with-next
   \                     ??DataTable44_21:
   \   00000000   ........           DC32     EMS_Drive_Value

   \                                 In section .text, align 4, keep-with-next
   \                     ??DataTable44_22:
   \   00000000   ........           DC32     ??ECO_Driving_Timer1

   \                                 In section .text, align 4, keep-with-next
   \                     ??DataTable44_23:
   \   00000000   ........           DC32     Speed_Check_Count

   \                                 In section .text, align 4, keep-with-next
   \                     ??DataTable44_24:
   \   00000000   ........           DC32     Speed_Buffer1

   \                                 In section .text, align 4, keep-with-next
   \                     ??DataTable44_25:
   \   00000000   ........           DC32     ??QuickStart_Timer

   \                                 In section .text, align 4, keep-with-next
   \                     ??DataTable44_26:
   \   00000000   ........           DC32     ??QuickStart_Flag

   \                                 In section .text, align 4, keep-with-next
   \                     ??DataTable44_27:
   \   00000000   ........           DC32     ??QuickCount

   \                                 In section .text, align 4, keep-with-next
   \                     ??DataTable44_28:
   \   00000000   ........           DC32     SFLASH_Memory

   \                                 In section .text, align 4, keep-with-next
   \                     ??DataTable44_29:
   \   00000000   ........           DC32     Speed_Buffer2

   \                                 In section .text, align 4, keep-with-next
   \                     ??DataTable44_30:
   \   00000000   ........           DC32     ECO_Driving

   \                                 In section .text, align 4, keep-with-next
   \                     ??DataTable44_31:
   \   00000000   ........           DC32     LOGWRITE

   \                                 In section .text, align 4, keep-with-next
   \                     ??DataTable44_32:
   \   00000000   ........           DC32     `?<Constant "ECO_QUICK_START CHECK...">`

   \                                 In section .text, align 4, keep-with-next
   \                     ??DataTable44_33:
   \   00000000   ........           DC32     Buffer

   \                                 In section .text, align 4, keep-with-next
   \                     ??DataTable44_34:
   \   00000000   ........           DC32     `?<Constant "ECO_QUICK_STOP CHECK \\r\\n ">`

   \                                 In section .text, align 4, keep-with-next
   \                     ??DataTable44_35:
   \   00000000   ........           DC32     ??ECO_Driving_Timer2

   \                                 In section .text, align 4, keep-with-next
   \                     ??DataTable44_36:
   \   00000000   ........           DC32     ??FastOverSpeed_Count

   \                                 In section .text, align 4, keep-with-next
   \                     ??DataTable44_37:
   \   00000000   ........           DC32     `?<Constant "ECO_FASTOVER CHECK %0...">`

   \                                 In section .text, align 4, keep-with-next
   \                     ??DataTable44_38:
   \   00000000   ........           DC32     ??Voice_Count

   \                                 In section .text, align 4, keep-with-next
   \                     ??DataTable44_39:
   \   00000000   ........           DC32     `?<Constant "ECO_OVERLOAD_RPM CHEC...">`

   \                                 In section .text, align 4, keep-with-next
   \                     ??DataTable44_40:
   \   00000000   ........           DC32     Voice_Error_Out

   \                                 In section .text, align 4, keep-with-next
   \                     ??DataTable45:
   \   00000000   ........           DC32     ??StopTimer

   \                                 In section .text, align 4, keep-with-next
   \                     ??DataTable45_1:
   \   00000000   ........           DC32     `?<Constant "ENGINE_PIN CLEAR \\r\\n ">`

   \                                 In section .text, align 4, keep-with-next
   \                     `?<Constant "ECO_QUICK_START CHECK...">`:
   \   00000000                      ; Initializer data, 28 bytes
   \   00000000   45434F5F5155       DC8 69, 67, 79, 95, 81, 85, 73, 67, 75, 95
   \              49434B5F    
   \   0000000A   535441525420       DC8 83, 84, 65, 82, 84, 32, 67, 72, 69, 67
   \              43484543    
   \   00000014   4B200D0A2000       DC8 75, 32, 13, 10, 32, 0, 0, 0
   \              0000        

   \                                 In section .text, align 4, keep-with-next
   \                     ??DataTable46:
   \   00000000   ........           DC32     INPUT_DATA

   \                                 In section .text, align 4, keep-with-next
   \                     ??DataTable47:
   \   00000000   ........           DC32     Set_Info

   \                                 In section .text, align 4, keep-with-next
   \                     ??DataTable47_1:
   \   00000000   ........           DC32     ??CheckEms

   \                                 In section .text, align 4, keep-with-next
   \                     ??DataTable47_2:
   \   00000000   ........           DC32     EmsOnProgress

   \                                 In section .text, align 4, keep-with-next
   \                     `?<Constant "ECO_QUICK_STOP CHECK \\r\\n ">`:
   \   00000000                      ; Initializer data, 28 bytes
   \   00000000   45434F5F5155       DC8 69, 67, 79, 95, 81, 85, 73, 67, 75, 95
   \              49434B5F    
   \   0000000A   53544F502043       DC8 83, 84, 79, 80, 32, 67, 72, 69, 67, 75
   \              4845434B    
   \   00000014   200D0A200000       DC8 32, 13, 10, 32, 0, 0, 0, 0
   \              0000        

   \                                 In section .text, align 4, keep-with-next
   \                     `?<Constant "ECO_FASTOVER CHECK %0...">`:
   \   00000000                      ; Initializer data, 28 bytes
   \   00000000   45434F5F4641       DC8 69, 67, 79, 95, 70, 65, 83, 84, 79, 86
   \              53544F56    
   \   0000000A   455220434845       DC8 69, 82, 32, 67, 72, 69, 67, 75, 32, 37
   \              434B2025    
   \   00000014   303364200D0A       DC8 48, 51, 100, 32, 13, 10, 32, 0
   \              2000        

   \                                 In section .text, align 4, keep-with-next
   \                     `?<Constant "ECO_OVERLOAD_RPM CHEC...">`:
   \   00000000                      ; Initializer data, 28 bytes
   \   00000000   45434F5F4F56       DC8 69, 67, 79, 95, 79, 86, 69, 82, 76, 79
   \              45524C4F    
   \   0000000A   41445F52504D       DC8 65, 68, 95, 82, 80, 77, 32, 67, 72, 69
   \              20434845    
   \   00000014   434B200D0A20       DC8 67, 75, 32, 13, 10, 32, 0, 0
   \              0000        

   \                                 In section .text, align 4, keep-with-next
   \                     ??DataTable48:
   \   00000000   ........           DC32     ??BreakOnFlag

   \                                 In section .text, align 4, keep-with-next
   \                     ??DataTable48_1:
   \   00000000   ........           DC32     ??StartOnTimer

   \                                 In section .text, align 4, keep-with-next
   \                     ??DataTable48_2:
   \   00000000   ........           DC32     EMSOn_Check

   \                                 In section .text, align 4, keep-with-next
   \                     ??DataTable48_3:
   \   00000000   ........           DC32     `?<Constant "ENGINE_ON START \\r\\n ">`

   \                                 In section .text, align 4, keep-with-next
   \                     `?<Constant "ENGINE_PIN CLEAR \\r\\n ">`:
   \   00000000                      ; Initializer data, 24 bytes
   \   00000000   454E47494E45       DC8 69, 78, 71, 73, 78, 69, 95, 80, 73, 78
   \              5F50494E    
   \   0000000A   20434C454152       DC8 32, 67, 76, 69, 65, 82, 32, 13, 10, 32
   \              200D0A20    
   \   00000014   00000000           DC8 0, 0, 0, 0

   \                                 In section .text, align 4, keep-with-next
   \                     ??DataTable49:
   \   00000000   ........           DC32     ??CheckEms_1

   \                                 In section .text, align 4, keep-with-next
   \                     ??DataTable49_1:
   \   00000000   000C0040           DC32     0x40000c00

   \                                 In section .text, align 4, keep-with-next
   \                     ??DataTable49_2:
   \   00000000   ........           DC32     EmsOffProgress

   \                                 In section .text, align 4, keep-with-next
   \                     ??DataTable49_3:
   \   00000000   ........           DC32     EnginOffActionFlag

   \                                 In section .text, align 4, keep-with-next
   \                     ??DataTable49_4:
   \   00000000   ........           DC32     Info

   \                                 In section .text, align 4, keep-with-next
   \                     ??DataTable49_5:
   \   00000000   ........           DC32     SFLASH_Memory

   \                                 In section .text, align 4, keep-with-next
   \                     ??DataTable49_6:
   \   00000000   ........           DC32     Flag

   \                                 In section .text, align 4, keep-with-next
   \                     ??DataTable49_7:
   \   00000000   ........           DC32     EnginOffLimit_Flag

   \                                 In section .text, align 4, keep-with-next
   \                     ??DataTable49_8:
   \   00000000   ........           DC32     EnginOffLimit_Time

   \                                 In section .text, align 4, keep-with-next
   \                     ??DataTable49_9:
   \   00000000   ........           DC32     EMSOff_Check

   \                                 In section .text, align 4, keep-with-next
   \                     ??DataTable49_10:
   \   00000000   ........           DC32     Timer_1Sec

   \                                 In section .text, align 4, keep-with-next
   \                     `?<Constant "ENGINE_ON START \\r\\n ">`:
   \   00000000                      ; Initializer data, 20 bytes
   \   00000000   454E47494E45       DC8 69, 78, 71, 73, 78, 69, 95, 79, 78, 32
   \              5F4F4E20    
   \   0000000A   535441525420       DC8 83, 84, 65, 82, 84, 32, 13, 10, 32, 0
   \              0D0A2000    

   \                                 In section .text, align 4, keep-with-next
   \                     `?<Constant "ENGINE_OFF PARKING_BR...">`:
   \   00000000                      ; Initializer data, 36 bytes
   \   00000000   454E47494E45       DC8 69, 78, 71, 73, 78, 69, 95, 79, 70, 70
   \              5F4F4646    
   \   0000000A   205041524B49       DC8 32, 80, 65, 82, 75, 73, 78, 71, 95, 66
   \              4E475F42    
   \   00000014   5245414B2043       DC8 82, 69, 65, 75, 32, 67, 72, 69, 67, 75
   \              4845434B    
   \   0000001E   200D0A200000       DC8 32, 13, 10, 32, 0, 0

   \                                 In section .text, align 4, keep-with-next
   \                     `?<Constant "ENGINE_ON %d step, Ba...">`:
   \   00000000                      ; Initializer data, 36 bytes
   \   00000000   454E47494E45       DC8 69, 78, 71, 73, 78, 69, 95, 79, 78, 32
   \              5F4F4E20    
   \   0000000A   256420737465       DC8 37, 100, 32, 115, 116, 101, 112, 44, 32, 66
   \              702C2042    
   \   00000014   617474657279       DC8 97, 116, 116, 101, 114, 121, 61, 37, 100, 32
   \              3D256420    
   \   0000001E   0D0A20000000       DC8 13, 10, 32, 0, 0, 0

   \                                 In section .text, align 4, keep-with-next
   \                     `?<Constant "ENGINE_ON %d step\\r\\n ">`:
   \   00000000                      ; Initializer data, 24 bytes
   \   00000000   454E47494E45       DC8 69, 78, 71, 73, 78, 69, 95, 79, 78, 32
   \              5F4F4E20    
   \   0000000A   256420737465       DC8 37, 100, 32, 115, 116, 101, 112, 13, 10, 32
   \              700D0A20    
   \   00000014   00000000           DC8 0, 0, 0, 0

   \                                 In section .text, align 4, keep-with-next
   \                     `?<Constant "ENGINE_ON %d step %d ...">`:
   \   00000000                      ; Initializer data, 32 bytes
   \   00000000   454E47494E45       DC8 69, 78, 71, 73, 78, 69, 95, 79, 78, 32
   \              5F4F4E20    
   \   0000000A   256420737465       DC8 37, 100, 32, 115, 116, 101, 112, 32, 37, 100
   \              70202564    
   \   00000014   2072706D200D       DC8 32, 114, 112, 109, 32, 13, 10, 32, 0, 0
   \              0A200000    
   \   0000001E   0000               DC8 0, 0

   \                                 In section .text, align 4, keep-with-next
   \                     `?<Constant "ENGINE_ON FAIL %d ste...">`:
   \   00000000                      ; Initializer data, 28 bytes
   \   00000000   454E47494E45       DC8 69, 78, 71, 73, 78, 69, 95, 79, 78, 32
   \              5F4F4E20    
   \   0000000A   4641494C2025       DC8 70, 65, 73, 76, 32, 37, 100, 32, 115, 116
   \              64207374    
   \   00000014   65700D0A2000       DC8 101, 112, 13, 10, 32, 0, 0, 0
   \              0000        

   \                                 In section .text, align 4, keep-with-next
   \                     ??DataTable50:
   \   00000000   ........           DC32     ??EMSOff_Timer

   \                                 In section .text, align 4, keep-with-next
   \                     ??DataTable50_1:
   \   00000000   ........           DC32     LOGWRITE

   \                                 In section .text, align 4, keep-with-next
   \                     ??DataTable50_2:
   \   00000000   ........           DC32     `?<Constant "ENGINE_OFF PARKING_BR...">`

   \                                 In section .text, align 4, keep-with-next
   \                     ??DataTable50_3:
   \   00000000   ........           DC32     Buffer

   \                                 In section .text, align 4, keep-with-next
   \                     ??DataTable50_4:
   \   00000000   ........           DC32     EnginOffActionStep

   \                                 In section .text, align 4, keep-with-next
   \                     ??DataTable50_5:
   \   00000000   ........           DC32     Ref_OverDrive

   \                                 In section .text, align 4, keep-with-next
   \                     ??DataTable50_6:
   \   00000000   ........           DC32     EMS_Reley_Off

   \                                 In section .text, align 4, keep-with-next
   \                     ??DataTable50_7:
   \   00000000   ........           DC32     ??EMS_WATCH_Timer3

   \                                 In section .text, align 4, keep-with-next
   \                     ??DataTable50_8:
   \   00000000   ........           DC32     EnginOff_Flag

   \                                 In section .text, align 4, keep-with-next
   \                     ??DataTable50_9:
   \   00000000   ........           DC32     ??Check

   \                                 In section .text, align 4, keep-with-next
   \                     ??DataTable50_10:
   \   00000000   ........           DC32     ??EMS_Emc_Timer

   \                                 In section .text, align 4, keep-with-next
   \                     ??DataTable50_11:
   \   00000000   ........           DC32     ??Drive_On

   \                                 In section .text, align 4, keep-with-next
   \                     ??DataTable50_12:
   \   00000000   ........           DC32     ??EMS_WATCH_Timer

   \                                 In section .text, align 4, keep-with-next
   \                     ??DataTable50_13:
   \   00000000   ........           DC32     EnginOnActionFlag

   \                                 In section .text, align 4, keep-with-next
   \                     ??DataTable50_14:
   \   00000000   ........           DC32     EnginOnActionStep

   \                                 In section .text, align 4, keep-with-next
   \                     ??DataTable50_15:
   \   00000000   ........           DC32     ??EngineOn_Timer1

   \                                 In section .text, align 4, keep-with-next
   \                     ??DataTable50_16:
   \   00000000   ........           DC32     ??EngineOn_Timer2

   \                                 In section .text, align 4, keep-with-next
   \                     ??DataTable50_17:
   \   00000000   ........           DC32     ??EMS_Replay_FailCount

   \                                 In section .text, align 4, keep-with-next
   \                     ??DataTable50_18:
   \   00000000   ........           DC32     ??EngineOn_Fail_Timer

   \                                 In section .text, align 4, keep-with-next
   \                     ??DataTable50_19:
   \   00000000   ........           DC32     EMS_Replay_Flag

   \                                 In section .text, align 4, keep-with-next
   \                     ??DataTable50_20:
   \   00000000   ........           DC32     EnginOnLimit_Time

   \                                 In section .text, align 4, keep-with-next
   \                     ??DataTable50_21:
   \   00000000   ........           DC32     EnginOffActionFlag

   \                                 In section .text, align 4, keep-with-next
   \                     ??DataTable50_22:
   \   00000000   000C0040           DC32     0x40000c00

   \                                 In section .text, align 4, keep-with-next
   \                     ??DataTable50_23:
   \   00000000   ........           DC32     ??EngineOff_Timer1

   \                                 In section .text, align 4, keep-with-next
   \                     ??DataTable50_24:
   \   00000000   ........           DC32     ??EngineOff_Timer2

   \                                 In section .text, align 4, keep-with-next
   \                     ??DataTable50_25:
   \   00000000   ........           DC32     Info

   \                                 In section .text, align 4, keep-with-next
   \                     `?<Constant "ENGINE_OFF %d step\\r\\n ">`:
   \   00000000                      ; Initializer data, 24 bytes
   \   00000000   454E47494E45       DC8 69, 78, 71, 73, 78, 69, 95, 79, 70, 70
   \              5F4F4646    
   \   0000000A   202564207374       DC8 32, 37, 100, 32, 115, 116, 101, 112, 13, 10
   \              65700D0A    
   \   00000014   20000000           DC8 32, 0, 0, 0

   \                                 In section .text, align 4, keep-with-next
   \                     `?<Constant "ENGINE_OFF %d step \\r\\n ">`:
   \   00000000                      ; Initializer data, 24 bytes
   \   00000000   454E47494E45       DC8 69, 78, 71, 73, 78, 69, 95, 79, 70, 70
   \              5F4F4646    
   \   0000000A   202564207374       DC8 32, 37, 100, 32, 115, 116, 101, 112, 32, 13
   \              6570200D    
   \   00000014   0A200000           DC8 10, 32, 0, 0

   \                                 In section .text, align 4, keep-with-next
   \                     `?<Constant "ENGINE_OFF %d step RP...">`:
   \   00000000                      ; Initializer data, 36 bytes
   \   00000000   454E47494E45       DC8 69, 78, 71, 73, 78, 69, 95, 79, 70, 70
   \              5F4F4646    
   \   0000000A   202564207374       DC8 32, 37, 100, 32, 115, 116, 101, 112, 32, 82
   \              65702052    
   \   00000014   504D5F54696D       DC8 80, 77, 95, 84, 105, 109, 101, 114, 79, 117
   \              65724F75    
   \   0000001E   740D0A200000       DC8 116, 13, 10, 32, 0, 0

   \                                 In section .text, align 4, keep-with-next
   \                     `?<Constant "ENGINE_OFF %d step SE...">`:
   \   00000000                      ; Initializer data, 40 bytes
   \   00000000   454E47494E45       DC8 69, 78, 71, 73, 78, 69, 95, 79, 70, 70
   \              5F4F4646    
   \   0000000A   202564207374       DC8 32, 37, 100, 32, 115, 116, 101, 112, 32, 83
   \              65702053    
   \   00000014   45545F4C4947       DC8 69, 84, 95, 76, 73, 71, 72, 84, 95, 82
   \              48545F52    
   \   0000001E   454C41590D0A       DC8 69, 76, 65, 89, 13, 10, 32, 0, 0, 0
   \              20000000    

   \                                 In section .text, align 4, keep-with-next
   \                     `?<Constant "ENGINE_OFF %d step SE...">_1`:
   \   00000000                      ; Initializer data, 40 bytes
   \   00000000   454E47494E45       DC8 69, 78, 71, 73, 78, 69, 95, 79, 70, 70
   \              5F4F4646    
   \   0000000A   202564207374       DC8 32, 37, 100, 32, 115, 116, 101, 112, 32, 83
   \              65702053    
   \   00000014   45545F414952       DC8 69, 84, 95, 65, 73, 82, 67, 79, 78, 95
   \              434F4E5F    
   \   0000001E   52454C41590D       DC8 82, 69, 76, 65, 89, 13, 10, 32, 0, 0
   \              0A200000    

   \                                 In section .text, align 4, keep-with-next
   \                     `?<Constant "ENGINE_OFF %d step Do...">`:
   \   00000000                      ; Initializer data, 28 bytes
   \   00000000   454E47494E45       DC8 69, 78, 71, 73, 78, 69, 95, 79, 70, 70
   \              5F4F4646    
   \   0000000A   202564207374       DC8 32, 37, 100, 32, 115, 116, 101, 112, 32, 68
   \              65702044    
   \   00000014   6F6E650D0A20       DC8 111, 110, 101, 13, 10, 32, 0, 0
   \              0000        

   \                                 In section .text, align 4, keep-with-next
   \                     `?<Constant "ENGINE_OFF %d step / ...">`:
   \   00000000                      ; Initializer data, 36 bytes
   \   00000000   454E47494E45       DC8 69, 78, 71, 73, 78, 69, 95, 79, 70, 70
   \              5F4F4646    
   \   0000000A   202564207374       DC8 32, 37, 100, 32, 115, 116, 101, 112, 32, 47
   \              6570202F    
   \   00000014   205374657045       DC8 32, 83, 116, 101, 112, 69, 114, 114, 111, 114
   \              72726F72    
   \   0000001E   200D0A200000       DC8 32, 13, 10, 32, 0, 0

   Maximum stack usage in bytes:

     Function           .cstack
     --------           -------
     ECO_Driving_Check       8
     EMS_Config              8
     EMS_Driving_Check       8
     EMS_Watching            8
     Emergency               8
     EmsOutClear             8
     Ems_Port_Check          0
     Ems_realtime_Check      8
     EngineOff_Action        8
     EngineOff_EMSCheck      8
     EngineOn_Action         8
     EngineOn_EMSCheck       8
     GET_ENGINE_ON           8
     Is_BREAK                8
     Is_FDOOR                8
     Is_GEAR                 8
     Is_KEYON                8
     Is_LLIGHT               8
     Is_PARKING_BREAK        8
     Is_RDISTANCE            8
     Is_RDOOR                8
     Is_RLIGHT               8
     RESET_AIRCON            8
     RESET_ENGINE_OFF        8
     RESET_ENGINE_ON         8
     RESET_HITER             8
     RESET_LIGHT             8
     Relay_Off_Clear         8
     SET_AIRCON              8
     SET_ENGINE_OFF          8
     SET_ENGINE_ON           8
     SET_HITER               8
     SET_LIGHT               8


   Section sizes:

     Function/Label                           Bytes
     --------------                           -----
     SET_ENGINE_ON                              32
     RESET_ENGINE_ON                            32
     SET_ENGINE_OFF                             32
     RESET_ENGINE_OFF                           32
     GET_ENGINE_ON                              26
     SET_AIRCON                                 30
     RESET_AIRCON                               30
     SET_LIGHT                                  32
     RESET_LIGHT                                32
     SET_HITER                                  30
     RESET_HITER                                30
     Is_BREAK                                   26
     Is_GEAR                                    24
     Is_PARKING_BREAK                           26
     Is_LLIGHT                                  26
     Is_RLIGHT                                  26
     Is_FDOOR                                   26
     Is_RDOOR                                   26
     Is_KEYON                                   26
     Is_RDISTANCE                               26
     EnginOnActionFlag                           1
     EnginOnActionStep                           1
     EnginOffActionFlag                          1
     EnginOffActionStep                          1
     EnginOnLimit_Time                           2
     EnginOffLimit_Time                          2
     EnginOff_Flag                               1
     EnginOffLimit_Flag                          1
     Ref_OverDrive                               1
     EMSOn_Check                                 1
     EMSOff_Check                                1
     EMS_Reley_Off                               1
     EMS_Replay_Flag                             1
     EmsOnProgress                               2
     EmsOffProgress                              2
     Speed_Buffer1                              12
     Speed_Buffer2                              12
     Speed_Check_Count                           1
     INPUT_DATA                                 12
     INPUT_REVERSE_DATA                          2
     OUTPUT_DATA                                 1
     EMS_Config                                100
     EMS_Driving_Check                         258
     EMS_Driving_Timer                           2
     StartMotor_Flag                             1
     ECO_Driving_Check                         944
     ECO_Driving_Timer1                          2
     ECO_Driving_Timer2                          2
     FastOverSpeed_Count                         1
     QuickStart_Timer                            2
     QuickStart_Flag                             1
     StopTimer                                   2
     Voice_Count                                 1
     QuickCount                                  1
     EmsOutClear                                56
     Ems_realtime_Check                        418
     Ems_Port_Check                            162
     EngineOn_EMSCheck                         818
     StartOnTimer                                2
     BreakOnFlag                                 1
     CheckEms                                    2
     EngineOff_EMSCheck                       1670
     EMSOff_Timer                                2
     CheckEms                                    2
     Relay_Off_Clear                           206
     EMS_WATCH_Timer3                            2
     Emergency                                 144
     EMS_Emc_Timer                               2
     Check                                       1
     Drive_On                                    1
     EMS_Watching                              248
     EMS_WATCH_Timer                             2
     EngineOn_Action                           608
     EngineOn_Timer1                             2
     EngineOn_Timer2                             2
     EngineOn_Fail_Timer                         2
     EMS_Replay_FailCount                        1
     EngineOff_Action                          638
     EngineOff_Timer1                            2
     EngineOff_Timer2                            2
     ??DataTable43                               4
     ??DataTable43_1                             4
     ??DataTable44                               4
     ??DataTable44_1                             4
     ??DataTable44_2                             4
     ??DataTable44_3                             4
     ??DataTable44_4                             4
     ??DataTable44_5                             4
     ??DataTable44_6                             4
     ??DataTable44_7                             4
     ??DataTable44_8                             4
     ??DataTable44_9                             4
     ??DataTable44_10                            4
     ??DataTable44_11                            4
     ??DataTable44_12                            4
     ??DataTable44_13                            4
     ??DataTable44_14                            4
     ??DataTable44_15                            4
     ??DataTable44_16                            4
     ??DataTable44_17                            4
     ??DataTable44_18                            4
     ??DataTable44_19                            4
     ??DataTable44_20                            4
     ??DataTable44_21                            4
     ??DataTable44_22                            4
     ??DataTable44_23                            4
     ??DataTable44_24                            4
     ??DataTable44_25                            4
     ??DataTable44_26                            4
     ??DataTable44_27                            4
     ??DataTable44_28                            4
     ??DataTable44_29                            4
     ??DataTable44_30                            4
     ??DataTable44_31                            4
     ??DataTable44_32                            4
     ??DataTable44_33                            4
     ??DataTable44_34                            4
     ??DataTable44_35                            4
     ??DataTable44_36                            4
     ??DataTable44_37                            4
     ??DataTable44_38                            4
     ??DataTable44_39                            4
     ??DataTable44_40                            4
     ??DataTable45                               4
     ??DataTable45_1                             4
     ?<Constant "ECO_QUICK_START CHECK...">     28
     ??DataTable46                               4
     ??DataTable47                               4
     ??DataTable47_1                             4
     ??DataTable47_2                             4
     ?<Constant "ECO_QUICK_STOP CHECK \r\n ">   28
     ?<Constant "ECO_FASTOVER CHECK %0...">     28
     ?<Constant "ECO_OVERLOAD_RPM CHEC...">     28
     ??DataTable48                               4
     ??DataTable48_1                             4
     ??DataTable48_2                             4
     ??DataTable48_3                             4
     ?<Constant "ENGINE_PIN CLEAR \r\n ">       24
     ??DataTable49                               4
     ??DataTable49_1                             4
     ??DataTable49_2                             4
     ??DataTable49_3                             4
     ??DataTable49_4                             4
     ??DataTable49_5                             4
     ??DataTable49_6                             4
     ??DataTable49_7                             4
     ??DataTable49_8                             4
     ??DataTable49_9                             4
     ??DataTable49_10                            4
     ?<Constant "ENGINE_ON START \r\n ">        20
     ?<Constant "ENGINE_OFF PARKING_BR...">     36
     ?<Constant "ENGINE_ON %d step, Ba...">     36
     ?<Constant "ENGINE_ON %d step\r\n ">       24
     ?<Constant "ENGINE_ON %d step %d ...">     32
     ?<Constant "ENGINE_ON FAIL %d ste...">     28
     ??DataTable50                               4
     ??DataTable50_1                             4
     ??DataTable50_2                             4
     ??DataTable50_3                             4
     ??DataTable50_4                             4
     ??DataTable50_5                             4
     ??DataTable50_6                             4
     ??DataTable50_7                             4
     ??DataTable50_8                             4
     ??DataTable50_9                             4
     ??DataTable50_10                            4
     ??DataTable50_11                            4
     ??DataTable50_12                            4
     ??DataTable50_13                            4
     ??DataTable50_14                            4
     ??DataTable50_15                            4
     ??DataTable50_16                            4
     ??DataTable50_17                            4
     ??DataTable50_18                            4
     ??DataTable50_19                            4
     ??DataTable50_20                            4
     ??DataTable50_21                            4
     ??DataTable50_22                            4
     ??DataTable50_23                            4
     ??DataTable50_24                            4
     ??DataTable50_25                            4
     ?<Constant "ENGINE_OFF %d step\r\n ">      24
     ?<Constant "ENGINE_OFF %d step \r\n ">     24
     ?<Constant "ENGINE_OFF %d step RP...">     36
     ?<Constant "ENGINE_OFF %d step SE...">     40
     ?<Constant "ENGINE_OFF %d step SE...">_1   40
     ?<Constant "ENGINE_OFF %d step Do...">     28
     ?<Constant "ENGINE_OFF %d step / ...">     36

 
   102 bytes in section .bss
 7 740 bytes in section .text
 
 7 740 bytes of CODE memory
   102 bytes of DATA memory

Errors: none
Warnings: 3
