###############################################################################
#                                                                             #
# IAR ANSI C/C++ Compiler V6.10.1.52143/W32 for ARM     19/Jan/2012  11:09:04 #
# Copyright 1999-2010 IAR Systems AB.                                         #
#                                                                             #
#    Cpu mode     =  thumb                                                    #
#    Endian       =  little                                                   #
#    Source file  =  F:\Work\S&G2000\Firmware\DTG_EMS_SYSTEM\Project\GPSLIB.c #
#    Command line =  F:\Work\S&G2000\Firmware\DTG_EMS_SYSTEM\Project\GPSLIB.c #
#                     -D USE_STDPERIPH_DRIVER -D STM32F2XX -D                 #
#                    USE_STM3220F_EVAL -D USE_USB_OTG_FS -D                   #
#                    RTC_CLOCK_SOURCE_LSE -lC F:\Work\S&G2000\Firmware\DTG_EM #
#                    S_SYSTEM\Project\EWARM\STM3220F_EVAL\List\ -lA           #
#                    F:\Work\S&G2000\Firmware\DTG_EMS_SYSTEM\Project\EWARM\ST #
#                    M3220F_EVAL\List\ -o F:\Work\S&G2000\Firmware\DTG_EMS_SY #
#                    STEM\Project\EWARM\STM3220F_EVAL\Obj\ --no_cse           #
#                    --no_unroll --no_inline --no_code_motion --no_tbaa       #
#                    --no_clustering --no_scheduling --debug --endian=little  #
#                    --cpu=Cortex-M3 -e --fpu=None --dlib_config "C:\Program  #
#                    Files\IAR Systems\Embedded Workbench                     #
#                    6.0\arm\INC\c\DLib_Config_Full.h" -I                     #
#                    F:\Work\S&G2000\Firmware\DTG_EMS_SYSTEM\Project\EWARM\.. #
#                    \ -I F:\Work\S&G2000\Firmware\DTG_EMS_SYSTEM\Project\EWA #
#                    RM\..\..\Libraries\CMSIS\CM3\CoreSupport\ -I             #
#                    F:\Work\S&G2000\Firmware\DTG_EMS_SYSTEM\Project\EWARM\.. #
#                    \..\Libraries\CMSIS\CM3\DeviceSupport\ST\STM32F2xx\ -I   #
#                    F:\Work\S&G2000\Firmware\DTG_EMS_SYSTEM\Project\EWARM\.. #
#                    \..\Libraries\STM32F2xx_StdPeriph_Driver\inc\ -I         #
#                    F:\Work\S&G2000\Firmware\DTG_EMS_SYSTEM\Project\EWARM\.. #
#                    \..\Utilities\STM32_EVAL\ -I                             #
#                    F:\Work\S&G2000\Firmware\DTG_EMS_SYSTEM\Project\EWARM\.. #
#                    \..\Utilities\STM32_EVAL\Common\ -I                      #
#                    F:\Work\S&G2000\Firmware\DTG_EMS_SYSTEM\Project\EWARM\.. #
#                    \..\Utilities\STM32_EVAL\STM3220F_EVAL\ -I               #
#                    F:\Work\S&G2000\Firmware\DTG_EMS_SYSTEM\Project\EWARM\.. #
#                    \..\Libraries\STM32_USB_OTG_Driver\inc\ -I               #
#                    F:\Work\S&G2000\Firmware\DTG_EMS_SYSTEM\Project\EWARM\.. #
#                    \..\Libraries\STM32_USB_Device_Library\Core\inc\ -I      #
#                    F:\Work\S&G2000\Firmware\DTG_EMS_SYSTEM\Project\EWARM\.. #
#                    \..\Libraries\STM32_USB_Device_Library\Class\msc\inc\    #
#                    -I F:\Work\S&G2000\Firmware\DTG_EMS_SYSTEM\Project\EWARM #
#                    \..\Usb\ -I F:\Work\S&G2000\Firmware\DTG_EMS_SYSTEM\Proj #
#                    ect\EWARM\..\Usb\Inc\ -I F:\Work\S&G2000\Firmware\DTG_EM #
#                    S_SYSTEM\Project\EWARM\..\Usb\src\ -I                    #
#                    F:\Work\S&G2000\Firmware\DTG_EMS_SYSTEM\Project\EWARM\.. #
#                    \..\Libraries\STM32_USB_HOST_Library\Core\inc\ -I        #
#                    F:\Work\S&G2000\Firmware\DTG_EMS_SYSTEM\Project\EWARM\.. #
#                    \..\Libraries\STM32_USB_HOST_Library\Class\MSC\inc\ -I   #
#                    F:\Work\S&G2000\Firmware\DTG_EMS_SYSTEM\Project\EWARM\.. #
#                    \..\Libraries\STM32_USB_Device_Library\Class\cdc\inc\    #
#                    -Ol --use_c++_inline                                     #
#    List file    =  F:\Work\S&G2000\Firmware\DTG_EMS_SYSTEM\Project\EWARM\ST #
#                    M3220F_EVAL\List\GPSLIB.lst                              #
#    Object file  =  F:\Work\S&G2000\Firmware\DTG_EMS_SYSTEM\Project\EWARM\ST #
#                    M3220F_EVAL\Obj\GPSLIB.o                                 #
#                                                                             #
#                                                                             #
###############################################################################

F:\Work\S&G2000\Firmware\DTG_EMS_SYSTEM\Project\GPSLIB.c
      1          
      2          
      3          #include "GPSLib.h"
      4          #include "serial.h"
      5          #include "rtc.h"
      6          #include "main.h"

   \                                 In section .text, align 2
   \   __intrinsic __interwork __softfp void *memcpy(void *, void const *, size_t)
   \                     memcpy:
   \   00000000   10B5               PUSH     {R4,LR}
   \   00000002   0400               MOVS     R4,R0
   \   00000004   2000               MOVS     R0,R4
   \   00000006   ........           BL       __aeabi_memcpy
   \   0000000A   2000               MOVS     R0,R4
   \   0000000C   10BD               POP      {R4,PC}          ;; return

   \                                 In section .text, align 2
   \   __intrinsic __interwork __softfp void *memset(void *, int, size_t)
   \                     memset:
   \   00000000   10B5               PUSH     {R4,LR}
   \   00000002   0400               MOVS     R4,R0
   \   00000004   1000               MOVS     R0,R2
   \   00000006   0A00               MOVS     R2,R1
   \   00000008   0100               MOVS     R1,R0
   \   0000000A   2000               MOVS     R0,R4
   \   0000000C   ........           BL       __aeabi_memset
   \   00000010   2000               MOVS     R0,R4
   \   00000012   10BD               POP      {R4,PC}          ;; return
      7          #include "Serial.h"
      8          #include "Log.h"
      9          #include <stdio.h>
     10          #include <string.h>
     11          #include <stdlib.h>
     12          
     13          
     14          /*
     15          $GPRMC,     // Recommended Minimmum data
     16          114455.532, // 시간 11시 44분 55.532초
     17          A,          // 'A' : 정상 데이터, 'V'비정상 데이터 
     18          3735.0079,N, // 위도
     19          12701.6446,W,   // 경도 
     20          0.0000, 속도 
     21          121.61, 방향각
     22          120509, 날짜
     23          ,나침각
     24          *
     25          CheckSum
     26          0x0d, 0x0a
     27          
     28          Ex)
     29          $GPRMC,095845.000,A,3729.0571,N,12652.8196,E,0.00,0.0,120509,,*31
     30          
     31          */
     32          
     33          int   GetGpsInfo(char *strGpsData);	//Gps정보를 받아서 경도,위도,속도, 시간,진행각도를 가져온다.
     34          
     35          int   Catoi(char *str, int len);
     36          u32   ConvRawData(u32 raw);
     37          

   \                                 In section .bss, align 4
     38          struct _GPSInfo   GPSInfoTemp;
   \                     GPSInfoTemp:
   \   00000000                      DS8 248

   \                                 In section .bss, align 4
     39          struct _GPSInfo   GPSInfo;
   \                     GPSInfo:
   \   00000000                      DS8 248
     40          

   \                                 In section .bss, align 2
     41          u16 GPSSinsitivity;
   \                     GPSSinsitivity:
   \   00000000                      DS8 2
     42          
     43          // 영역 안에 있는지 확인한다.

   \                                 In section .text, align 2, keep-with-next
     44          u8 isInsideArea(AreaInfo *pRect, u32 nLongitude/*경도*/, u32 nLatitude/*위도*/)
     45          {
     46               if( nLongitude == 0)
   \                     isInsideArea:
   \   00000000   0029               CMP      R1,#+0
   \   00000002   01D1               BNE.N    ??isInsideArea_0
     47                    return 0;
   \   00000004   0020               MOVS     R0,#+0
   \   00000006   1EE0               B.N      ??isInsideArea_1
     48               if( ( pRect->Longitude == 0 ) ||  ( pRect->Latitude == 0 ))
   \                     ??isInsideArea_0:
   \   00000008   0368               LDR      R3,[R0, #+0]
   \   0000000A   002B               CMP      R3,#+0
   \   0000000C   02D0               BEQ.N    ??isInsideArea_2
   \   0000000E   4368               LDR      R3,[R0, #+4]
   \   00000010   002B               CMP      R3,#+0
   \   00000012   01D1               BNE.N    ??isInsideArea_3
     49                    return 0;
   \                     ??isInsideArea_2:
   \   00000014   0020               MOVS     R0,#+0
   \   00000016   16E0               B.N      ??isInsideArea_1
     50               if( nLongitude > ( pRect->Longitude - GPS_ROUTE ) )
   \                     ??isInsideArea_3:
   \   00000018   0368               LDR      R3,[R0, #+0]
   \   0000001A   B3F5FA63           SUBS     R3,R3,#+2000
   \   0000001E   8B42               CMP      R3,R1
   \   00000020   10D2               BCS.N    ??isInsideArea_4
     51               { 
     52                    if( nLongitude < ( pRect->Longitude + GPS_ROUTE ) )
   \   00000022   0368               LDR      R3,[R0, #+0]
   \   00000024   13F5FA63           ADDS     R3,R3,#+2000
   \   00000028   9942               CMP      R1,R3
   \   0000002A   0BD2               BCS.N    ??isInsideArea_4
     53                    {
     54                         if(nLatitude > ( pRect->Latitude - GPS_ROUTE) )
   \   0000002C   4168               LDR      R1,[R0, #+4]
   \   0000002E   B1F5FA61           SUBS     R1,R1,#+2000
   \   00000032   9142               CMP      R1,R2
   \   00000034   06D2               BCS.N    ??isInsideArea_4
     55                         {
     56                              if(nLatitude <  ( pRect->Latitude + GPS_ROUTE) )
   \   00000036   4068               LDR      R0,[R0, #+4]
   \   00000038   10F5FA60           ADDS     R0,R0,#+2000
   \   0000003C   8242               CMP      R2,R0
   \   0000003E   01D2               BCS.N    ??isInsideArea_4
     57                                   return 1;
   \   00000040   0120               MOVS     R0,#+1
   \   00000042   00E0               B.N      ??isInsideArea_1
     58                         }
     59                    }
     60               }
     61             return 0; 
   \                     ??isInsideArea_4:
   \   00000044   0020               MOVS     R0,#+0
   \                     ??isInsideArea_1:
   \   00000046   7047               BX       LR               ;; return
     62          }
     63          
     64          

   \                                 In section .text, align 2, keep-with-next
     65          void RouteCheck(void)
     66          {     
   \                     RouteCheck:
   \   00000000   80B5               PUSH     {R7,LR}
     67                  
     68               static u16 GPS_RouteTimer = 0;
     69               // 과속 체크 1초 마다 진행
     70               if(!CheckTimeOver(1000,GPS_RouteTimer))
   \   00000002   ........           LDR.W    R0,??DataTable12
   \   00000006   0188               LDRH     R1,[R0, #+0]
   \   00000008   4FF47A70           MOV      R0,#+1000
   \   0000000C   ........           BL       CheckTimeOver
   \   00000010   0028               CMP      R0,#+0
   \   00000012   24D0               BEQ.N    ??RouteCheck_0
     71                    return;      
     72               GPS_RouteTimer = MS_TIMER;  	// 타이머 5	
   \                     ??RouteCheck_1:
   \   00000014   ........           LDR.W    R0,??DataTable12_1  ;; 0x40000c00
   \   00000018   ........           BL       TIM_GetCounter
   \   0000001C   ........           LDR.W    R1,??DataTable12
   \   00000020   0880               STRH     R0,[R1, #+0]
     73               // GPS 수신이 되지 않았으면 리턴     
     74               if (!GPSInfo.Conv.nLatitude)        return;     
   \   00000022   ........           LDR.W    R0,??DataTable12_2
   \   00000026   D0F8EC00           LDR      R0,[R0, #+236]
   \   0000002A   0028               CMP      R0,#+0
   \   0000002C   17D0               BEQ.N    ??RouteCheck_0
     75          
     76               if(SFLASH_Memory.Home.Latitude != 0)
   \                     ??RouteCheck_2:
   \   0000002E   ........           LDR.W    R0,??DataTable12_3
   \   00000032   D0F88500           LDR      R0,[R0, #+133]
   \   00000036   0028               CMP      R0,#+0
   \   00000038   11D0               BEQ.N    ??RouteCheck_3
     77               {
     78                    if (isInsideArea(&SFLASH_Memory.Home, GPSInfo.Conv.nLatitude, GPSInfo.Conv.nLongitude)) {
   \   0000003A   ........           LDR.W    R0,??DataTable12_2
   \   0000003E   D0F8E820           LDR      R2,[R0, #+232]
   \   00000042   ........           LDR.W    R0,??DataTable12_2
   \   00000046   D0F8EC10           LDR      R1,[R0, #+236]
   \   0000004A   ........           LDR.W    R0,??DataTable12_4
   \   0000004E   ........           BL       isInsideArea
   \   00000052   0028               CMP      R0,#+0
   \   00000054   03D0               BEQ.N    ??RouteCheck_3
     79                         DrivePositionInfo.position = IN_AREA1;     
   \   00000056   ........           LDR.W    R0,??DataTable12_5
   \   0000005A   0021               MOVS     R1,#+0
   \   0000005C   4170               STRB     R1,[R0, #+1]
     80                         
     81                    }
     82               }       
     83          }
   \                     ??RouteCheck_3:
   \                     ??RouteCheck_0:
   \   0000005E   01BD               POP      {R0,PC}          ;; return

   \                                 In section .bss, align 2
   \                     ??GPS_RouteTimer:
   \   00000000                      DS8 2
     84          
     85          //======================================================================================
     86          /*
     87          void Catoi(void)
     88          기능 : 문자열중 정해진 길이만큼 숫자로 변경한다.
     89          */

   \                                 In section .text, align 2, keep-with-next
     90          int Catoi(char *str, int len)
     91          {
   \                     Catoi:
   \   00000000   3EB5               PUSH     {R1-R5,LR}
   \   00000002   0400               MOVS     R4,R0
   \   00000004   0D00               MOVS     R5,R1
     92          	char buffer[10];
     93          	
     94          	if (len >= sizeof(buffer)) return 0;
   \   00000006   0A2D               CMP      R5,#+10
   \   00000008   01D3               BCC.N    ??Catoi_0
   \   0000000A   0020               MOVS     R0,#+0
   \   0000000C   0CE0               B.N      ??Catoi_1
     95          	
     96          	memset(buffer, 0x00, sizeof(buffer));
   \                     ??Catoi_0:
   \   0000000E   0A22               MOVS     R2,#+10
   \   00000010   0021               MOVS     R1,#+0
   \   00000012   00A8               ADD      R0,SP,#+0
   \   00000014   ........           BL       memset
     97          	
     98          	memcpy(buffer, str, len);
   \   00000018   2A00               MOVS     R2,R5
   \   0000001A   2100               MOVS     R1,R4
   \   0000001C   00A8               ADD      R0,SP,#+0
   \   0000001E   ........           BL       memcpy
     99          	
    100          	return atoi(buffer);
   \   00000022   00A8               ADD      R0,SP,#+0
   \   00000024   ........           BL       atoi
   \                     ??Catoi_1:
   \   00000028   3EBD               POP      {R1-R5,PC}       ;; return
    101          }
    102          

   \                                 In section .text, align 2, keep-with-next
    103          int GetGpsInfo(char *GpsData)	//Gps정보를 받아서 경도,위도,속도, 시간,진행각도를 가져온다.
    104          {
   \                     GetGpsInfo:
   \   00000000   70B5               PUSH     {R4-R6,LR}
   \   00000002   0600               MOVS     R6,R0
    105             static u8 HDOP;
    106             
    107             int posi = 0;
   \   00000004   0025               MOVS     R5,#+0
    108             char *strGpsData = GpsData;
    109             int commacnt= 0;
   \   00000006   0024               MOVS     R4,#+0
    110          	//-- GPS 정보에서 데이터를 가져왔을때만 0 가 리턴된다.
    111          	// 1리턴시= 아직 GPS가 잡히지 않은 상태
    112          	// 2리턴시= GPRMC패킷이 아닌경우
    113          	// -1= 에러 상태
    114          
    115          	memset(&GPSInfoTemp,0,sizeof(GPSInfoTemp));
   \   00000008   F822               MOVS     R2,#+248
   \   0000000A   0021               MOVS     R1,#+0
   \   0000000C   ........           LDR.W    R0,??DataTable12_6
   \   00000010   ........           BL       memset
   \   00000014   02E0               B.N      ??GetGpsInfo_0
    116          
    117             while(*strGpsData) {
    118                if (*strGpsData == ',') {
    119                   commacnt++;
   \                     ??GetGpsInfo_1:
   \   00000016   641C               ADDS     R4,R4,#+1
    120                   strGpsData++;
   \   00000018   761C               ADDS     R6,R6,#+1
    121                   posi = 0;
   \   0000001A   0025               MOVS     R5,#+0
    122                   continue;
    123                }
   \                     ??GetGpsInfo_0:
   \   0000001C   3078               LDRB     R0,[R6, #+0]
   \   0000001E   0028               CMP      R0,#+0
   \   00000020   00F00581           BEQ.W    ??GetGpsInfo_2
   \   00000024   3078               LDRB     R0,[R6, #+0]
   \   00000026   2C28               CMP      R0,#+44
   \   00000028   F5D0               BEQ.N    ??GetGpsInfo_1
    124                switch(commacnt) {
   \   0000002A   002C               CMP      R4,#+0
   \   0000002C   16D0               BEQ.N    ??GetGpsInfo_3
   \   0000002E   022C               CMP      R4,#+2
   \   00000030   43D0               BEQ.N    ??GetGpsInfo_4
   \   00000032   33D3               BCC.N    ??GetGpsInfo_5
   \   00000034   042C               CMP      R4,#+4
   \   00000036   62D0               BEQ.N    ??GetGpsInfo_6
   \   00000038   54D3               BCC.N    ??GetGpsInfo_7
   \   0000003A   062C               CMP      R4,#+6
   \   0000003C   71D0               BEQ.N    ??GetGpsInfo_8
   \   0000003E   63D3               BCC.N    ??GetGpsInfo_9
   \   00000040   082C               CMP      R4,#+8
   \   00000042   7CD0               BEQ.N    ??GetGpsInfo_10
   \   00000044   6ED3               BCC.N    ??GetGpsInfo_11
   \   00000046   0A2C               CMP      R4,#+10
   \   00000048   00F0C880           BEQ.W    ??GetGpsInfo_12
   \   0000004C   C0F08E80           BCC.W    ??GetGpsInfo_13
   \   00000050   0C2C               CMP      R4,#+12
   \   00000052   00F0C380           BEQ.W    ??GetGpsInfo_12
   \   00000056   C0F0C180           BCC.W    ??GetGpsInfo_12
   \   0000005A   0EE0               B.N      ??GetGpsInfo_14
    125                case  0:     // $GPRMC
    126                   if (posi == 0) {
   \                     ??GetGpsInfo_3:
   \   0000005C   002D               CMP      R5,#+0
   \   0000005E   0BD1               BNE.N    ??GetGpsInfo_15
    127                      if (memcmp(strGpsData, "$GPRMC", 6) == 0)
   \   00000060   0622               MOVS     R2,#+6
   \   00000062   ........           ADR.W    R1,`?<Constant "$GPRMC">`
   \   00000066   3000               MOVS     R0,R6
   \   00000068   ........           BL       memcmp
   \   0000006C   0028               CMP      R0,#+0
   \   0000006E   06D1               BNE.N    ??GetGpsInfo_16
    128                          HDOP = 0;
   \   00000070   ........           LDR.W    R0,??DataTable12_7
   \   00000074   0021               MOVS     R1,#+0
   \   00000076   0170               STRB     R1,[R0, #+0]
    129                      else
    130                      if (memcmp(strGpsData, "$GPGGA", 6) == 0)                
    131                          HDOP = 1;
    132                      else
    133                          return 0;
    134                          
    135                   }
    136                   posi++;
   \                     ??GetGpsInfo_15:
   \   00000078   6D1C               ADDS     R5,R5,#+1
    137                   break;
    138                case  1:     // 시간 
    139                   if(HDOP == 0)
    140                   if (posi < 6)  GPSInfoTemp.refCurTime[posi++] = *strGpsData;
    141                   break;
    142                case  2:     // 상태
    143                   if(HDOP == 0)
    144                   if (posi == 0)  {
    145                      GPSInfoTemp.Status = *strGpsData;
    146                      Flag.GPS_Check = GPSInfoTemp.Status;           // GPS 수신확인 
    147                  //         if (GPSInfoTemp.Status != 'A')   return 0;
    148                   }
    149                   posi++;
    150                   break;
    151                case  3:    // 위도 
    152                             if(HDOP == 0)
    153                   GPSInfoTemp.refLatitude[posi++] = *strGpsData;
    154                   break;
    155                case  4:    // 'N'
    156                             if(HDOP == 0)
    157                   break;
    158                case  5:    // 경도 
    159                             if(HDOP == 0)
    160                   GPSInfoTemp.refLongitude[posi++] = *strGpsData;
    161                   break;
    162                case  6:    // 'E'
    163                   break;
    164                case  7:    // 속도 
    165                             if(HDOP == 0)
    166                   GPSInfoTemp.refSpeed[posi++] = *strGpsData;
    167                   break;
    168                case  8:    // 방향각
    169                    if(HDOP == 0)
    170                    {
    171                    if (sizeof(GPSInfoTemp.azimuth) > posi) 
    172                      GPSInfoTemp.azimuth[posi++] = *strGpsData;
    173                    }
    174                    else
    175                    {
    176                        GPSInfoTemp.HDOP[posi++] = *strGpsData;
    177                    }
    178                   break;
    179                case  9:    // 날짜
    180                   if(HDOP == 0)
    181                   {
    182                   switch(posi++) 
    183                   {
    184                        //120509
    185                   case  0: 
    186                        GPSInfoTemp.refCurDate[4] = *strGpsData;  break;
    187                   case  1: 
    188                        GPSInfoTemp.refCurDate[5] = *strGpsData;  break;
    189                   case  2: 
    190                        GPSInfoTemp.refCurDate[2] = *strGpsData;  break;
    191                   case  3: 
    192                        GPSInfoTemp.refCurDate[3] = *strGpsData;  break;
    193                   case  4: 
    194                        GPSInfoTemp.refCurDate[0] = *strGpsData;  break;
    195                   case  5: 
    196                        GPSInfoTemp.refCurDate[1] = *strGpsData;  break;
    197                   }
    198                   }
    199                   else
    200                   {
    201                       return 2;
    202                   }
    203                   break;
    204                case  10:   // 나침각
    205                case 11:    // 완료 
    206                case 12:    // 완료            
    207          //         if ((*strGpsData == '*') || (*strGpsData == 'E')) 
    208                    if(HDOP == 0)
    209                    {
    210                         float fSpeed;
    211                         
    212                         fSpeed=atof(GPSInfoTemp.refSpeed);
    213                         fSpeed=fSpeed*1.852;
    214                         sprintf(GPSInfoTemp.refSpeed,"%0.02f",fSpeed);
    215                         
    216                         // 이상없는 데이터 이므로 수신된 정보를 저장한다.
    217                         GPSInfo = GPSInfoTemp;
    218          
    219                      return   1;
    220                   }
    221                }
    222                strGpsData++;
   \                     ??GetGpsInfo_14:
   \   0000007A   761C               ADDS     R6,R6,#+1
   \   0000007C   CEE7               B.N      ??GetGpsInfo_0
   \                     ??GetGpsInfo_16:
   \   0000007E   0622               MOVS     R2,#+6
   \   00000080   ........           ADR.W    R1,`?<Constant "$GPGGA">`
   \   00000084   3000               MOVS     R0,R6
   \   00000086   ........           BL       memcmp
   \   0000008A   0028               CMP      R0,#+0
   \   0000008C   04D1               BNE.N    ??GetGpsInfo_17
   \   0000008E   ........           LDR.W    R0,??DataTable12_7
   \   00000092   0121               MOVS     R1,#+1
   \   00000094   0170               STRB     R1,[R0, #+0]
   \   00000096   EFE7               B.N      ??GetGpsInfo_15
   \                     ??GetGpsInfo_17:
   \   00000098   0020               MOVS     R0,#+0
   \   0000009A   C9E0               B.N      ??GetGpsInfo_18
   \                     ??GetGpsInfo_5:
   \   0000009C   ........           LDR.W    R0,??DataTable12_7
   \   000000A0   0078               LDRB     R0,[R0, #+0]
   \   000000A2   0028               CMP      R0,#+0
   \   000000A4   08D1               BNE.N    ??GetGpsInfo_19
   \   000000A6   062D               CMP      R5,#+6
   \   000000A8   06DA               BGE.N    ??GetGpsInfo_19
   \   000000AA   ........           LDR.W    R0,??DataTable12_6
   \   000000AE   2818               ADDS     R0,R5,R0
   \   000000B0   3178               LDRB     R1,[R6, #+0]
   \   000000B2   80F87710           STRB     R1,[R0, #+119]
   \   000000B6   6D1C               ADDS     R5,R5,#+1
   \                     ??GetGpsInfo_19:
   \   000000B8   DFE7               B.N      ??GetGpsInfo_14
   \                     ??GetGpsInfo_4:
   \   000000BA   ........           LDR.W    R0,??DataTable12_7
   \   000000BE   0078               LDRB     R0,[R0, #+0]
   \   000000C0   0028               CMP      R0,#+0
   \   000000C2   0DD1               BNE.N    ??GetGpsInfo_20
   \   000000C4   002D               CMP      R5,#+0
   \   000000C6   0BD1               BNE.N    ??GetGpsInfo_20
   \   000000C8   ........           LDR.W    R0,??DataTable12_6
   \   000000CC   3178               LDRB     R1,[R6, #+0]
   \   000000CE   80F89F10           STRB     R1,[R0, #+159]
   \   000000D2   ........           LDR.W    R0,??DataTable12_8
   \   000000D6   ........           LDR.W    R1,??DataTable12_6
   \   000000DA   91F89F10           LDRB     R1,[R1, #+159]
   \   000000DE   C170               STRB     R1,[R0, #+3]
   \                     ??GetGpsInfo_20:
   \   000000E0   6D1C               ADDS     R5,R5,#+1
   \   000000E2   CAE7               B.N      ??GetGpsInfo_14
   \                     ??GetGpsInfo_7:
   \   000000E4   ........           LDR.W    R0,??DataTable12_7
   \   000000E8   0078               LDRB     R0,[R0, #+0]
   \   000000EA   0028               CMP      R0,#+0
   \   000000EC   06D1               BNE.N    ??GetGpsInfo_21
   \   000000EE   ........           LDR.W    R0,??DataTable12_6
   \   000000F2   2818               ADDS     R0,R5,R0
   \   000000F4   3178               LDRB     R1,[R6, #+0]
   \   000000F6   80F8B410           STRB     R1,[R0, #+180]
   \   000000FA   6D1C               ADDS     R5,R5,#+1
   \                     ??GetGpsInfo_21:
   \   000000FC   BDE7               B.N      ??GetGpsInfo_14
   \                     ??GetGpsInfo_6:
   \   000000FE   ........           LDR.W    R0,??DataTable12_7
   \   00000102   0078               LDRB     R0,[R0, #+0]
   \   00000104   0028               CMP      R0,#+0
   \   00000106   B8D0               BEQ.N    ??GetGpsInfo_14
   \                     ??GetGpsInfo_9:
   \   00000108   ........           LDR.W    R0,??DataTable12_7
   \   0000010C   0078               LDRB     R0,[R0, #+0]
   \   0000010E   0028               CMP      R0,#+0
   \   00000110   06D1               BNE.N    ??GetGpsInfo_22
   \   00000112   ........           LDR.W    R0,??DataTable12_6
   \   00000116   2818               ADDS     R0,R5,R0
   \   00000118   3178               LDRB     R1,[R6, #+0]
   \   0000011A   80F88B10           STRB     R1,[R0, #+139]
   \   0000011E   6D1C               ADDS     R5,R5,#+1
   \                     ??GetGpsInfo_22:
   \   00000120   ABE7               B.N      ??GetGpsInfo_14
   \                     ??GetGpsInfo_8:
   \   00000122   AAE7               B.N      ??GetGpsInfo_14
   \                     ??GetGpsInfo_11:
   \   00000124   ........           LDR.W    R0,??DataTable12_7
   \   00000128   0078               LDRB     R0,[R0, #+0]
   \   0000012A   0028               CMP      R0,#+0
   \   0000012C   06D1               BNE.N    ??GetGpsInfo_23
   \   0000012E   ........           LDR.W    R0,??DataTable12_6
   \   00000132   2818               ADDS     R0,R5,R0
   \   00000134   3178               LDRB     R1,[R6, #+0]
   \   00000136   80F8C810           STRB     R1,[R0, #+200]
   \   0000013A   6D1C               ADDS     R5,R5,#+1
   \                     ??GetGpsInfo_23:
   \   0000013C   9DE7               B.N      ??GetGpsInfo_14
   \                     ??GetGpsInfo_10:
   \   0000013E   ........           LDR.W    R0,??DataTable12_7
   \   00000142   0078               LDRB     R0,[R0, #+0]
   \   00000144   0028               CMP      R0,#+0
   \   00000146   09D1               BNE.N    ??GetGpsInfo_24
   \   00000148   0A2D               CMP      R5,#+10
   \   0000014A   0ED2               BCS.N    ??GetGpsInfo_25
   \   0000014C   ........           LDR.W    R0,??DataTable12_6
   \   00000150   2818               ADDS     R0,R5,R0
   \   00000152   3178               LDRB     R1,[R6, #+0]
   \   00000154   80F86810           STRB     R1,[R0, #+104]
   \   00000158   6D1C               ADDS     R5,R5,#+1
   \   0000015A   06E0               B.N      ??GetGpsInfo_25
   \                     ??GetGpsInfo_24:
   \   0000015C   ........           LDR.W    R0,??DataTable12_6
   \   00000160   2818               ADDS     R0,R5,R0
   \   00000162   3178               LDRB     R1,[R6, #+0]
   \   00000164   80F87210           STRB     R1,[R0, #+114]
   \   00000168   6D1C               ADDS     R5,R5,#+1
   \                     ??GetGpsInfo_25:
   \   0000016A   86E7               B.N      ??GetGpsInfo_14
   \                     ??GetGpsInfo_13:
   \   0000016C   ........           LDR.W    R0,??DataTable12_7
   \   00000170   0078               LDRB     R0,[R0, #+0]
   \   00000172   0028               CMP      R0,#+0
   \   00000174   30D1               BNE.N    ??GetGpsInfo_26
   \   00000176   2800               MOVS     R0,R5
   \   00000178   451C               ADDS     R5,R0,#+1
   \   0000017A   0028               CMP      R0,#+0
   \   0000017C   08D0               BEQ.N    ??GetGpsInfo_27
   \   0000017E   0228               CMP      R0,#+2
   \   00000180   12D0               BEQ.N    ??GetGpsInfo_28
   \   00000182   0BD3               BCC.N    ??GetGpsInfo_29
   \   00000184   0428               CMP      R0,#+4
   \   00000186   1BD0               BEQ.N    ??GetGpsInfo_30
   \   00000188   14D3               BCC.N    ??GetGpsInfo_31
   \   0000018A   0528               CMP      R0,#+5
   \   0000018C   1ED0               BEQ.N    ??GetGpsInfo_32
   \   0000018E   22E0               B.N      ??GetGpsInfo_33
   \                     ??GetGpsInfo_27:
   \   00000190   ........           LDR.W    R0,??DataTable12_6
   \   00000194   3178               LDRB     R1,[R6, #+0]
   \   00000196   80F8A410           STRB     R1,[R0, #+164]
   \   0000019A   1CE0               B.N      ??GetGpsInfo_33
   \                     ??GetGpsInfo_29:
   \   0000019C   ........           LDR.W    R0,??DataTable12_6
   \   000001A0   3178               LDRB     R1,[R6, #+0]
   \   000001A2   80F8A510           STRB     R1,[R0, #+165]
   \   000001A6   16E0               B.N      ??GetGpsInfo_33
   \                     ??GetGpsInfo_28:
   \   000001A8   ........           LDR.W    R0,??DataTable12_6
   \   000001AC   3178               LDRB     R1,[R6, #+0]
   \   000001AE   80F8A210           STRB     R1,[R0, #+162]
   \   000001B2   10E0               B.N      ??GetGpsInfo_33
   \                     ??GetGpsInfo_31:
   \   000001B4   ........           LDR.W    R0,??DataTable12_6
   \   000001B8   3178               LDRB     R1,[R6, #+0]
   \   000001BA   80F8A310           STRB     R1,[R0, #+163]
   \   000001BE   0AE0               B.N      ??GetGpsInfo_33
   \                     ??GetGpsInfo_30:
   \   000001C0   ........           LDR.W    R0,??DataTable12_6
   \   000001C4   3178               LDRB     R1,[R6, #+0]
   \   000001C6   80F8A010           STRB     R1,[R0, #+160]
   \   000001CA   04E0               B.N      ??GetGpsInfo_33
   \                     ??GetGpsInfo_32:
   \   000001CC   ........           LDR.W    R0,??DataTable12_6
   \   000001D0   3178               LDRB     R1,[R6, #+0]
   \   000001D2   80F8A110           STRB     R1,[R0, #+161]
   \                     ??GetGpsInfo_33:
   \   000001D6   50E7               B.N      ??GetGpsInfo_14
   \                     ??GetGpsInfo_26:
   \   000001D8   0220               MOVS     R0,#+2
   \   000001DA   29E0               B.N      ??GetGpsInfo_18
   \                     ??GetGpsInfo_12:
   \   000001DC   ........           LDR.W    R0,??DataTable12_7
   \   000001E0   0078               LDRB     R0,[R0, #+0]
   \   000001E2   0028               CMP      R0,#+0
   \   000001E4   7FF449AF           BNE.W    ??GetGpsInfo_14
   \   000001E8   ........           LDR.W    R0,??DataTable12_9
   \   000001EC   ........           BL       atof
   \   000001F0   ........           BL       __aeabi_d2f
   \   000001F4   ........           BL       __aeabi_f2d
   \   000001F8   ........           LDR.W    R2,??DataTable12_10  ;; 0xc083126f
   \   000001FC   ........           LDR.W    R3,??DataTable12_11  ;; 0x3ffda1ca
   \   00000200   ........           BL       __aeabi_dmul
   \   00000204   ........           BL       __aeabi_d2f
   \   00000208   ........           BL       __aeabi_f2d
   \   0000020C   0200               MOVS     R2,R0
   \   0000020E   0B00               MOVS     R3,R1
   \   00000210   ........           ADR.W    R1,`?<Constant "%0.02f">`
   \   00000214   ........           LDR.W    R0,??DataTable12_9
   \   00000218   ........           BL       sprintf
   \   0000021C   ........           LDR.W    R0,??DataTable12_2
   \   00000220   ........           LDR.W    R1,??DataTable12_6
   \   00000224   F822               MOVS     R2,#+248
   \   00000226   ........           BL       __aeabi_memcpy4
   \   0000022A   0120               MOVS     R0,#+1
   \   0000022C   00E0               B.N      ??GetGpsInfo_18
    223             }
    224             return   0;
   \                     ??GetGpsInfo_2:
   \   0000022E   0020               MOVS     R0,#+0
   \                     ??GetGpsInfo_18:
   \   00000230   70BD               POP      {R4-R6,PC}       ;; return
    225          }

   \                                 In section .bss, align 1
   \                     ??HDOP:
   \   00000000                      DS8 1
    226          

   \                                 In section .text, align 2, keep-with-next
    227          void ReceiveGPS(void)
    228          {
   \                     ReceiveGPS:
   \   00000000   10B5               PUSH     {R4,LR}
   \   00000002   84B0               SUB      SP,SP,#+16
    229          	char data;
    230          	char buff[10];
    231               
    232               // 수신된 데이터가 처리중이면 다시 진입하지 않는다.
    233               if (GPSInfo.ReceiveDataFlag == 1)   return;
   \   00000004   ........           LDR.W    R0,??DataTable12_2
   \   00000008   90F86500           LDRB     R0,[R0, #+101]
   \   0000000C   0128               CMP      R0,#+1
   \   0000000E   00F08F80           BEQ.W    ??ReceiveGPS_0
    234               
    235               if (RTX_GPS.rxep != RTX_GPS.rxsp)
   \                     ??ReceiveGPS_1:
   \   00000012   ........           LDR.W    R0,??DataTable12_12
   \   00000016   B0F80204           LDRH     R0,[R0, #+1026]
   \   0000001A   ........           LDR.W    R1,??DataTable12_12
   \   0000001E   B1F80014           LDRH     R1,[R1, #+1024]
   \   00000022   8842               CMP      R0,R1
   \   00000024   00F08480           BEQ.W    ??ReceiveGPS_2
    236               {
    237                    data = RTX_GPS.rxbuf[RTX_GPS.rxsp++];
   \   00000028   ........           LDR.W    R0,??DataTable12_12
   \   0000002C   B0F80004           LDRH     R0,[R0, #+1024]
   \   00000030   ........           LDR.W    R1,??DataTable12_12
   \   00000034   445C               LDRB     R4,[R0, R1]
   \   00000036   ........           LDR.W    R0,??DataTable12_12
   \   0000003A   B0F80004           LDRH     R0,[R0, #+1024]
   \   0000003E   401C               ADDS     R0,R0,#+1
   \   00000040   ........           LDR.W    R1,??DataTable12_12
   \   00000044   A1F80004           STRH     R0,[R1, #+1024]
    238          		
    239                    if(data == '$') {
   \   00000048   E4B2               UXTB     R4,R4            ;; ZeroExt  R4,R4,#+24,#+24
   \   0000004A   242C               CMP      R4,#+36
   \   0000004C   0FD1               BNE.N    ??ReceiveGPS_3
    240                         GPSInfo.GpsDataCnt = 0;	
   \   0000004E   ........           LDR.W    R0,??DataTable12_2
   \   00000052   0021               MOVS     R1,#+0
   \   00000054   80F86410           STRB     R1,[R0, #+100]
    241          //               memset(GPSInfo.GpsData, 0x00, sizeof(GPSInfo.GpsData));
    242                         GPSInfo.CheckSum = '$';
   \   00000058   ........           LDR.W    R0,??DataTable12_2
   \   0000005C   2421               MOVS     R1,#+36
   \   0000005E   80F86610           STRB     R1,[R0, #+102]
    243                         GPSInfo.CheckFlag = 1;
   \   00000062   ........           LDR.W    R0,??DataTable12_2
   \   00000066   0121               MOVS     R1,#+1
   \   00000068   80F86710           STRB     R1,[R0, #+103]
   \   0000006C   2DE0               B.N      ??ReceiveGPS_4
    244                    }
    245                    else if (data == '*') {
   \                     ??ReceiveGPS_3:
   \   0000006E   E4B2               UXTB     R4,R4            ;; ZeroExt  R4,R4,#+24,#+24
   \   00000070   2A2C               CMP      R4,#+42
   \   00000072   05D1               BNE.N    ??ReceiveGPS_5
    246                         GPSInfo.CheckFlag = 0;
   \   00000074   ........           LDR.W    R0,??DataTable12_2
   \   00000078   0021               MOVS     R1,#+0
   \   0000007A   80F86710           STRB     R1,[R0, #+103]
   \   0000007E   24E0               B.N      ??ReceiveGPS_4
    247                    }
    248                    else if(data == 0x0a) {
   \                     ??ReceiveGPS_5:
   \   00000080   E4B2               UXTB     R4,R4            ;; ZeroExt  R4,R4,#+24,#+24
   \   00000082   0A2C               CMP      R4,#+10
   \   00000084   21D1               BNE.N    ??ReceiveGPS_4
    249                         if (GPSInfo.GpsDataCnt < 10)  return;                    // 길이가 너무 작으면 리턴한다.
   \   00000086   ........           LDR.W    R0,??DataTable12_2
   \   0000008A   90F86400           LDRB     R0,[R0, #+100]
   \   0000008E   0A28               CMP      R0,#+10
   \   00000090   4ED3               BCC.N    ??ReceiveGPS_0
    250                         sprintf(buff, "%02X", GPSInfo.CheckSum);
   \                     ??ReceiveGPS_6:
   \   00000092   ........           LDR.W    R0,??DataTable12_2
   \   00000096   90F86620           LDRB     R2,[R0, #+102]
   \   0000009A   ........           ADR.W    R1,`?<Constant "%02X">`
   \   0000009E   00A8               ADD      R0,SP,#+0
   \   000000A0   ........           BL       sprintf
    251                         if (memcmp(buff, &GPSInfo.GpsData[GPSInfo.GpsDataCnt - 3], 2) == 0) 
   \   000000A4   0222               MOVS     R2,#+2
   \   000000A6   ........           LDR.W    R0,??DataTable12_2
   \   000000AA   90F86400           LDRB     R0,[R0, #+100]
   \   000000AE   ........           LDR.W    R1,??DataTable12_2
   \   000000B2   4018               ADDS     R0,R0,R1
   \   000000B4   C11E               SUBS     R1,R0,#+3
   \   000000B6   00A8               ADD      R0,SP,#+0
   \   000000B8   ........           BL       memcmp
   \   000000BC   0028               CMP      R0,#+0
   \   000000BE   04D1               BNE.N    ??ReceiveGPS_4
    252                         {      // CheckSum이 같으면
    253                              //      Clear_Serial4();     // 수신 버퍼 클리어
    254                              GPSInfo.ReceiveDataFlag = 1;	                                          // 새로운 전문을 수신하였음
   \   000000C0   ........           LDR.W    R0,??DataTable12_2
   \   000000C4   0121               MOVS     R1,#+1
   \   000000C6   80F86510           STRB     R1,[R0, #+101]
    255                         }
    256                    }
    257                    
    258                    if (GPSInfo.CheckFlag) GPSInfo.CheckSum ^= data;
   \                     ??ReceiveGPS_4:
   \   000000CA   ........           LDR.W    R0,??DataTable12_2
   \   000000CE   90F86700           LDRB     R0,[R0, #+103]
   \   000000D2   0028               CMP      R0,#+0
   \   000000D4   08D0               BEQ.N    ??ReceiveGPS_7
   \   000000D6   ........           LDR.W    R0,??DataTable12_2
   \   000000DA   90F86600           LDRB     R0,[R0, #+102]
   \   000000DE   6040               EORS     R0,R4,R0
   \   000000E0   ........           LDR.W    R1,??DataTable12_2
   \   000000E4   81F86600           STRB     R0,[R1, #+102]
    259                    
    260                    GPSInfo.GpsData[GPSInfo.GpsDataCnt] = data;
   \                     ??ReceiveGPS_7:
   \   000000E8   ........           LDR.W    R0,??DataTable12_2
   \   000000EC   90F86400           LDRB     R0,[R0, #+100]
   \   000000F0   ........           LDR.W    R1,??DataTable12_2
   \   000000F4   4454               STRB     R4,[R0, R1]
    261                    
    262                    if(GPSInfo.GpsDataCnt++ > sizeof(GPSInfo.GpsData))     GPSInfo.GpsDataCnt = 0;
   \   000000F6   ........           LDR.W    R0,??DataTable12_2
   \   000000FA   90F86400           LDRB     R0,[R0, #+100]
   \   000000FE   ........           LDR.W    R1,??DataTable12_2
   \   00000102   421C               ADDS     R2,R0,#+1
   \   00000104   81F86420           STRB     R2,[R1, #+100]
   \   00000108   C0B2               UXTB     R0,R0            ;; ZeroExt  R0,R0,#+24,#+24
   \   0000010A   6528               CMP      R0,#+101
   \   0000010C   04D3               BCC.N    ??ReceiveGPS_8
   \   0000010E   ........           LDR.W    R0,??DataTable12_2
   \   00000112   0021               MOVS     R1,#+0
   \   00000114   80F86410           STRB     R1,[R0, #+100]
    263                    if(RTX_GPS.rxsp >= MAX_SERIAL_BUF)   RTX_GPS.rxsp = 0 ;
   \                     ??ReceiveGPS_8:
   \   00000118   ........           LDR.W    R0,??DataTable12_12
   \   0000011C   B0F80004           LDRH     R0,[R0, #+1024]
   \   00000120   B0F5806F           CMP      R0,#+1024
   \   00000124   04D3               BCC.N    ??ReceiveGPS_2
   \   00000126   ........           LDR.W    R0,??DataTable12_12
   \   0000012A   0021               MOVS     R1,#+0
   \   0000012C   A0F80014           STRH     R1,[R0, #+1024]
    264               }
    265          }
   \                     ??ReceiveGPS_2:
   \                     ??ReceiveGPS_0:
   \   00000130   1FBD               POP      {R0-R4,PC}       ;; return
    266          

   \                                 In section .text, align 2, keep-with-next
    267          u32 ConvRawData(u32 raw)
    268          {
   \                     ConvRawData:
   \   00000000   30B5               PUSH     {R4,R5,LR}
    269              u32      up;
    270              u32      dn;
    271              float    tmp;
    272              
    273              up = (raw / 1000000) * 1000000;
   \   00000002   ........           LDR.W    R1,??DataTable12_13  ;; 0xf4240
   \   00000006   B0FBF1F1           UDIV     R1,R0,R1
   \   0000000A   ........           LDR.W    R2,??DataTable12_13  ;; 0xf4240
   \   0000000E   02FB01F4           MUL      R4,R2,R1
    274              tmp = (raw % 1000000) / 60.0;
   \   00000012   ........           LDR.W    R1,??DataTable12_13  ;; 0xf4240
   \   00000016   B0FBF1F2           UDIV     R2,R0,R1
   \   0000001A   01FB1200           MLS      R0,R1,R2,R0
   \   0000001E   ........           BL       __aeabi_ui2d
   \   00000022   0022               MOVS     R2,#+0
   \   00000024   ........           LDR.W    R3,??DataTable12_14  ;; 0x404e0000
   \   00000028   ........           BL       __aeabi_ddiv
   \   0000002C   ........           BL       __aeabi_d2f
   \   00000030   0500               MOVS     R5,R0
    275              
    276              if (tmp == 0)
   \   00000032   2800               MOVS     R0,R5
   \   00000034   0021               MOVS     R1,#+0
   \   00000036   ........           BL       __aeabi_cfcmpeq
   \   0000003A   04D1               BNE.N    ??ConvRawData_0
    277              {
    278                  dn = (u32) tmp;
   \   0000003C   2800               MOVS     R0,R5
   \   0000003E   ........           BL       __aeabi_f2uiz
    279                  return up+dn;
   \   00000042   0019               ADDS     R0,R0,R4
   \   00000044   09E0               B.N      ??ConvRawData_1
    280              }
    281              
    282          /*  
    283              if(tmp < 100000)
    284              {
    285                  tmp *= 10;
    286              }
    287              */ 
    288              
    289              // 위도 경도 틀리게 나옴 넘어가는 구간에서 ---------------------------------
    290              
    291              tmp *= 100;
   \                     ??ConvRawData_0:
   \   00000046   ........           LDR.W    R0,??DataTable12_15  ;; 0x42c80000
   \   0000004A   2900               MOVS     R1,R5
   \   0000004C   ........           BL       __aeabi_fmul
   \   00000050   0500               MOVS     R5,R0
    292              
    293              dn = (u32) tmp;
   \   00000052   2800               MOVS     R0,R5
   \   00000054   ........           BL       __aeabi_f2uiz
    294              
    295              return up+dn;
   \   00000058   0019               ADDS     R0,R0,R4
   \                     ??ConvRawData_1:
   \   0000005A   30BD               POP      {R4,R5,PC}       ;; return
    296          }
    297          
    298          

   \                                 In section .text, align 2, keep-with-next
    299          void HomeCheck(void)
    300          {
    301               if(GPSInfo.Conv.nLongitude != 0)
   \                     HomeCheck:
   \   00000000   ........           LDR.W    R0,??DataTable12_2
   \   00000004   D0F8E800           LDR      R0,[R0, #+232]
   \   00000008   0028               CMP      R0,#+0
   \   0000000A   10D0               BEQ.N    ??HomeCheck_0
    302               {
    303                    SFLASH_Memory.Home.Latitude = GPSInfo.Conv.nLatitude ;                     // X   
   \   0000000C   ........           LDR.W    R0,??DataTable12_3
   \   00000010   ........           LDR.W    R1,??DataTable12_2
   \   00000014   D1F8EC10           LDR      R1,[R1, #+236]
   \   00000018   C0F88510           STR      R1,[R0, #+133]
    304                    SFLASH_Memory.Home.Longitude = GPSInfo.Conv.nLongitude ;                     // X                                    
   \   0000001C   ........           LDR.W    R0,??DataTable12_3
   \   00000020   ........           LDR.W    R1,??DataTable12_2
   \   00000024   D1F8E810           LDR      R1,[R1, #+232]
   \   00000028   C0F88110           STR      R1,[R0, #+129]
   \   0000002C   09E0               B.N      ??HomeCheck_1
    305               }else
    306               {
    307                    SFLASH_Memory.Home.Latitude = 0;                     // X   
   \                     ??HomeCheck_0:
   \   0000002E   ........           LDR.W    R0,??DataTable12_3
   \   00000032   0021               MOVS     R1,#+0
   \   00000034   C0F88510           STR      R1,[R0, #+133]
    308                    SFLASH_Memory.Home.Longitude = 0;                     // X   
   \   00000038   ........           LDR.W    R0,??DataTable12_3
   \   0000003C   0021               MOVS     R1,#+0
   \   0000003E   C0F88110           STR      R1,[R0, #+129]
    309               }
    310          }
   \                     ??HomeCheck_1:
   \   00000042   7047               BX       LR               ;; return
    311          

   \                                 In section .text, align 2, keep-with-next
    312          void GPS_Process(void)
    313          {
   \                     GPS_Process:
   \   00000000   10B5               PUSH     {R4,LR}
   \   00000002   92B0               SUB      SP,SP,#+72
    314          	static u8 StartTimeCheck = 0;
    315          	static u16 GpsTimeOver = 0;
    316               
    317          	TM_Struct temp_system_time;
    318          	
    319          	u32 Sec;
    320               
    321               u8 Result = 0 ;
   \   00000004   0024               MOVS     R4,#+0
    322               
    323               ReceiveGPS();     // 수신된 데이터를 처리한다. ----------------------------
   \   00000006   ........           BL       ReceiveGPS
    324               
    325               if (GPSInfo.ReceiveDataFlag == 1) 
   \   0000000A   ........           LDR.W    R0,??DataTable12_2
   \   0000000E   90F86500           LDRB     R0,[R0, #+101]
   \   00000012   0128               CMP      R0,#+1
   \   00000014   40F02181           BNE.W    ??GPS_Process_0
    326               {
    327          
    328                    GpsTimeOver = MS_TIMER;          
   \   00000018   ........           LDR.W    R0,??DataTable12_1  ;; 0x40000c00
   \   0000001C   ........           BL       TIM_GetCounter
   \   00000020   ........           LDR.W    R1,??DataTable12_16
   \   00000024   0880               STRH     R0,[R1, #+0]
    329                    
    330                    GPSInfo.ReceiveDataFlag = 0;
   \   00000026   ........           LDR.W    R0,??DataTable12_2
   \   0000002A   0021               MOVS     R1,#+0
   \   0000002C   80F86510           STRB     R1,[R0, #+101]
    331                    
    332                    Result = GetGpsInfo(GPSInfo.GpsData);
   \   00000030   ........           LDR.W    R0,??DataTable12_2
   \   00000034   ........           BL       GetGpsInfo
   \   00000038   0400               MOVS     R4,R0
    333                    
    334                    if (Result == 1) 
   \   0000003A   E4B2               UXTB     R4,R4            ;; ZeroExt  R4,R4,#+24,#+24
   \   0000003C   012C               CMP      R4,#+1
   \   0000003E   40F0E980           BNE.W    ??GPS_Process_1
    335                    {               
    336                         // 문자로된 위도 , 경도를 바이너리로 바꾼다. --------------------
    337                         
    338                         GPSInfo.Raw.nLongitude = (u32)(atof(GPSInfo.refLongitude) * 10000);         // 경도
   \   00000042   ........           LDR.W    R0,??DataTable12_17
   \   00000046   ........           BL       atof
   \   0000004A   0022               MOVS     R2,#+0
   \   0000004C   ........           LDR.W    R3,??DataTable12_18  ;; 0x40c38800
   \   00000050   ........           BL       __aeabi_dmul
   \   00000054   ........           BL       __aeabi_d2uiz
   \   00000058   ........           LDR.W    R1,??DataTable12_2
   \   0000005C   C1F8DC00           STR      R0,[R1, #+220]
    339                         GPSInfo.Raw.nLatitude  = (u32)(atof(GPSInfo.refLatitude ) * 10000);         // 위도
   \   00000060   ........           LDR.W    R0,??DataTable12_19
   \   00000064   ........           BL       atof
   \   00000068   0022               MOVS     R2,#+0
   \   0000006A   ........           LDR.W    R3,??DataTable12_18  ;; 0x40c38800
   \   0000006E   ........           BL       __aeabi_dmul
   \   00000072   ........           BL       __aeabi_d2uiz
   \   00000076   ........           LDR.W    R1,??DataTable12_2
   \   0000007A   C1F8E000           STR      R0,[R1, #+224]
    340                         GPSInfo.Raw.azimuth		= atoi((char*)GPSInfo.azimuth); 
   \   0000007E   ........           LDR.W    R0,??DataTable12_20
   \   00000082   ........           BL       atoi
   \   00000086   ........           LDR.W    R1,??DataTable12_2
   \   0000008A   A1F8E400           STRH     R0,[R1, #+228]
    341                         GPSInfo.Conv.nLongitude  = ConvRawData(GPSInfo.Raw.nLongitude);
   \   0000008E   ........           LDR.W    R0,??DataTable12_2
   \   00000092   D0F8DC00           LDR      R0,[R0, #+220]
   \   00000096   ........           BL       ConvRawData
   \   0000009A   ........           LDR.W    R1,??DataTable12_2
   \   0000009E   C1F8E800           STR      R0,[R1, #+232]
    342                         GPSInfo.Conv.nLatitude   = ConvRawData(GPSInfo.Raw.nLatitude);
   \   000000A2   ........           LDR.W    R0,??DataTable12_2
   \   000000A6   D0F8E000           LDR      R0,[R0, #+224]
   \   000000AA   ........           BL       ConvRawData
   \   000000AE   ........           LDR.W    R1,??DataTable12_2
   \   000000B2   C1F8EC00           STR      R0,[R1, #+236]
    343                         GPSInfo.Conv.azimuth		= atoi((char*)GPSInfo.azimuth);
   \   000000B6   ........           LDR.W    R0,??DataTable12_20
   \   000000BA   ........           BL       atoi
   \   000000BE   ........           LDR.W    R1,??DataTable12_2
   \   000000C2   A1F8F000           STRH     R0,[R1, #+240]
    344                         GPSInfo.Conv.GPS_Speed		= (u32)(atof((char*)GPSInfo.refSpeed) * 100);	// 소수점 2자리 문자로 들어옴
   \   000000C6   ........           LDR.W    R0,??DataTable12_21
   \   000000CA   ........           BL       atof
   \   000000CE   0022               MOVS     R2,#+0
   \   000000D0   ........           LDR.W    R3,??DataTable12_22  ;; 0x40590000
   \   000000D4   ........           BL       __aeabi_dmul
   \   000000D8   ........           BL       __aeabi_d2uiz
   \   000000DC   ........           LDR.W    R1,??DataTable12_2
   \   000000E0   A1F8F400           STRH     R0,[R1, #+244]
    345                         
    346                         temp_system_time.tm_year = Catoi(&GPSInfo.refCurDate[ 0], 2) + 2000;
   \   000000E4   0221               MOVS     R1,#+2
   \   000000E6   ........           LDR.W    R0,??DataTable12_23
   \   000000EA   ........           BL       Catoi
   \   000000EE   10F5FA60           ADDS     R0,R0,#+2000
   \   000000F2   0E90               STR      R0,[SP, #+56]
    347                         temp_system_time.tm_mon  = Catoi(&GPSInfo.refCurDate[ 2], 2);
   \   000000F4   0221               MOVS     R1,#+2
   \   000000F6   ........           LDR.W    R0,??DataTable12_24
   \   000000FA   ........           BL       Catoi
   \   000000FE   0D90               STR      R0,[SP, #+52]
    348                         temp_system_time.tm_mday = Catoi(&GPSInfo.refCurDate[ 4], 2);
   \   00000100   0221               MOVS     R1,#+2
   \   00000102   ........           LDR.W    R0,??DataTable12_25
   \   00000106   ........           BL       Catoi
   \   0000010A   0C90               STR      R0,[SP, #+48]
    349                         temp_system_time.tm_hour = Catoi(&GPSInfo.refCurTime[ 0], 2);
   \   0000010C   0221               MOVS     R1,#+2
   \   0000010E   ........           LDR.W    R0,??DataTable12_26
   \   00000112   ........           BL       Catoi
   \   00000116   0B90               STR      R0,[SP, #+44]
    350                         temp_system_time.tm_min  = Catoi(&GPSInfo.refCurTime[ 2], 2);
   \   00000118   0221               MOVS     R1,#+2
   \   0000011A   ........           LDR.W    R0,??DataTable12_27
   \   0000011E   ........           BL       Catoi
   \   00000122   0A90               STR      R0,[SP, #+40]
    351                         temp_system_time.tm_sec  = Catoi(&GPSInfo.refCurTime[ 4], 2);
   \   00000124   0221               MOVS     R1,#+2
   \   00000126   ........           LDR.W    R0,??DataTable12_28
   \   0000012A   ........           BL       Catoi
   \   0000012E   0990               STR      R0,[SP, #+36]
    352                         Sec = RTC_DateToBinary(&temp_system_time) + (9 * 60 * 60);		// GPS에서 받은 시간은 9시간이 늦다
   \   00000130   09A8               ADD      R0,SP,#+36
   \   00000132   ........           BL       RTC_DateToBinary
   \   00000136   47F69061           MOVW     R1,#+32400
   \   0000013A   0818               ADDS     R0,R1,R0
    353                         RTC_BinaryToDate(Sec, &temp_system_time);
   \   0000013C   09A9               ADD      R1,SP,#+36
   \   0000013E   ........           BL       RTC_BinaryToDate
    354                         
    355                         // LOG ----------------------------------------------------------
    356                         
    357                         if(LOGWRITE & LOG_GPS_RECIEVE )                       
   \   00000142   ........           LDR.W    R0,??DataTable12_29
   \   00000146   0078               LDRB     R0,[R0, #+0]
   \   00000148   4006               LSLS     R0,R0,#+25
   \   0000014A   28D5               BPL.N    ??GPS_Process_2
    358                         {
    359                              sprintf((char *)Buffer,"GPS_RECEIVE [ %d,%d,%03d,%05d,%02d ][ %02d/%02d/%02d-%02d:%02d:%02d ] \r\n",
    360                                      GPSInfo.Conv.nLongitude,
    361                                      GPSInfo.Conv.nLatitude,
    362                                      GPSInfo.Conv.azimuth,
    363                                      GPSInfo.Conv.GPS_Speed,
    364                                      GPSSinsitivity,
    365                                      temp_system_time.tm_year,
    366                                      temp_system_time.tm_mon,
    367                                      temp_system_time.tm_mday,
    368                                      temp_system_time.tm_hour,
    369                                      temp_system_time.tm_min,
    370                                      temp_system_time.tm_sec); 
   \   0000014C   0998               LDR      R0,[SP, #+36]
   \   0000014E   0890               STR      R0,[SP, #+32]
   \   00000150   0A98               LDR      R0,[SP, #+40]
   \   00000152   0790               STR      R0,[SP, #+28]
   \   00000154   0B98               LDR      R0,[SP, #+44]
   \   00000156   0690               STR      R0,[SP, #+24]
   \   00000158   0C98               LDR      R0,[SP, #+48]
   \   0000015A   0590               STR      R0,[SP, #+20]
   \   0000015C   0D98               LDR      R0,[SP, #+52]
   \   0000015E   0490               STR      R0,[SP, #+16]
   \   00000160   0E98               LDR      R0,[SP, #+56]
   \   00000162   0390               STR      R0,[SP, #+12]
   \   00000164   ........           LDR.W    R0,??DataTable12_30
   \   00000168   0088               LDRH     R0,[R0, #+0]
   \   0000016A   0290               STR      R0,[SP, #+8]
   \   0000016C   ....               LDR.N    R0,??DataTable12_2
   \   0000016E   B0F8F400           LDRH     R0,[R0, #+244]
   \   00000172   0190               STR      R0,[SP, #+4]
   \   00000174   ....               LDR.N    R0,??DataTable12_2
   \   00000176   B0F8F000           LDRH     R0,[R0, #+240]
   \   0000017A   0090               STR      R0,[SP, #+0]
   \   0000017C   ....               LDR.N    R0,??DataTable12_2
   \   0000017E   D0F8EC30           LDR      R3,[R0, #+236]
   \   00000182   ....               LDR.N    R0,??DataTable12_2
   \   00000184   D0F8E820           LDR      R2,[R0, #+232]
   \   00000188   ........           ADR.W    R1,`?<Constant "GPS_RECEIVE [ %d,%d,%...">`
   \   0000018C   ........           LDR.W    R0,??DataTable12_31
   \   00000190   ........           BL       sprintf
    371                              Write_Log(Buffer, NORMAL_LOG);
   \   00000194   0121               MOVS     R1,#+1
   \   00000196   ........           LDR.W    R0,??DataTable12_31
   \   0000019A   ........           BL       Write_Log
    372                         }            
    373                         // --------------------------------------------------------------		 
    374                         
    375                         if( StartTimeCheck == 0 && GPSInfo.Status == 0x41)
   \                     ??GPS_Process_2:
   \   0000019E   ........           LDR.W    R0,??DataTable12_32
   \   000001A2   0078               LDRB     R0,[R0, #+0]
   \   000001A4   0028               CMP      R0,#+0
   \   000001A6   4FD1               BNE.N    ??GPS_Process_3
   \   000001A8   ....               LDR.N    R0,??DataTable12_2
   \   000001AA   90F89F00           LDRB     R0,[R0, #+159]
   \   000001AE   4128               CMP      R0,#+65
   \   000001B0   4AD1               BNE.N    ??GPS_Process_3
    376                         {
    377                              StartTimeCheck = 1;
   \   000001B2   ........           LDR.W    R0,??DataTable12_32
   \   000001B6   0121               MOVS     R1,#+1
   \   000001B8   0170               STRB     R1,[R0, #+0]
    378                              // 처음 한번 시간 맞첨 // 정상적으로 GPS가 수신 되었을때 
    379                              // LOG -----------------------------------------------------
    380                              RTC_DateStructure.RTC_Date = temp_system_time.tm_mday;
   \   000001BA   ....               LDR.N    R0,??DataTable12_33
   \   000001BC   0C99               LDR      R1,[SP, #+48]
   \   000001BE   8170               STRB     R1,[R0, #+2]
    381                              RTC_DateStructure.RTC_Month = temp_system_time.tm_mon;
   \   000001C0   ....               LDR.N    R0,??DataTable12_33
   \   000001C2   0D99               LDR      R1,[SP, #+52]
   \   000001C4   4170               STRB     R1,[R0, #+1]
    382                              RTC_DateStructure.RTC_Year = temp_system_time.tm_year - 2000;
   \   000001C6   0E98               LDR      R0,[SP, #+56]
   \   000001C8   3030               ADDS     R0,R0,#+48
   \   000001CA   ....               LDR.N    R1,??DataTable12_33
   \   000001CC   C870               STRB     R0,[R1, #+3]
    383                              RTC_TimeStructure.RTC_Hours = temp_system_time.tm_hour;
   \   000001CE   0B98               LDR      R0,[SP, #+44]
   \   000001D0   ....               LDR.N    R1,??DataTable12_34
   \   000001D2   0870               STRB     R0,[R1, #+0]
    384                              RTC_TimeStructure.RTC_Minutes = temp_system_time.tm_min;
   \   000001D4   ....               LDR.N    R0,??DataTable12_34
   \   000001D6   0A99               LDR      R1,[SP, #+40]
   \   000001D8   4170               STRB     R1,[R0, #+1]
    385                              RTC_TimeStructure.RTC_Seconds = temp_system_time.tm_sec;  		
   \   000001DA   ....               LDR.N    R0,??DataTable12_34
   \   000001DC   0999               LDR      R1,[SP, #+36]
   \   000001DE   8170               STRB     R1,[R0, #+2]
    386                              RTC_TimeRegulate();                               // 타이머 세팅			 
   \   000001E0   ........           BL       RTC_TimeRegulate
    387                              if(LOGWRITE & LOG_GPS_TIME_CHECK)
   \   000001E4   ....               LDR.N    R0,??DataTable12_29
   \   000001E6   0078               LDRB     R0,[R0, #+0]
   \   000001E8   0006               LSLS     R0,R0,#+24
   \   000001EA   2DD5               BPL.N    ??GPS_Process_3
    388                              {
    389                                   sprintf((char *)Buffer,"GPS_TIME_CHANGE [ %02d/%02d/%02d-%02d:%02d:%02d ] \r\n",
    390                                           temp_system_time.tm_year,
    391                                           temp_system_time.tm_mon,
    392                                           temp_system_time.tm_mday,
    393                                           temp_system_time.tm_hour,
    394                                           temp_system_time.tm_min,
    395                                           temp_system_time.tm_sec); 
   \   000001EC   0998               LDR      R0,[SP, #+36]
   \   000001EE   0390               STR      R0,[SP, #+12]
   \   000001F0   0A98               LDR      R0,[SP, #+40]
   \   000001F2   0290               STR      R0,[SP, #+8]
   \   000001F4   0B98               LDR      R0,[SP, #+44]
   \   000001F6   0190               STR      R0,[SP, #+4]
   \   000001F8   0C98               LDR      R0,[SP, #+48]
   \   000001FA   0090               STR      R0,[SP, #+0]
   \   000001FC   0D9B               LDR      R3,[SP, #+52]
   \   000001FE   0E9A               LDR      R2,[SP, #+56]
   \   00000200   ........           ADR.W    R1,`?<Constant "GPS_TIME_CHANGE [ %02...">`
   \   00000204   ....               LDR.N    R0,??DataTable12_31
   \   00000206   ........           BL       sprintf
    396                                   Write_Log(Buffer, NORMAL_LOG);
   \   0000020A   0121               MOVS     R1,#+1
   \   0000020C   ....               LDR.N    R0,??DataTable12_31
   \   0000020E   ........           BL       Write_Log
   \   00000212   19E0               B.N      ??GPS_Process_3
    397                              }
    398                              // ---------------------------------------------------------		 
    399                         }
    400                    }
    401                    else if( Result == 2 )
   \                     ??GPS_Process_1:
   \   00000214   E4B2               UXTB     R4,R4            ;; ZeroExt  R4,R4,#+24,#+24
   \   00000216   022C               CMP      R4,#+2
   \   00000218   16D1               BNE.N    ??GPS_Process_3
    402                    {
    403                         GPSInfo.Raw.HDOP = (u16)(atof((char *)GPSInfoTemp.HDOP) * 10);
   \   0000021A   ....               LDR.N    R0,??DataTable12_35
   \   0000021C   ........           BL       atof
   \   00000220   0022               MOVS     R2,#+0
   \   00000222   ....               LDR.N    R3,??DataTable12_36  ;; 0x40240000
   \   00000224   ........           BL       __aeabi_dmul
   \   00000228   ........           BL       __aeabi_d2iz
   \   0000022C   ....               LDR.N    R1,??DataTable12_2
   \   0000022E   A1F8E600           STRH     R0,[R1, #+230]
    404                         GPSInfo.Conv.HDOP = GPSInfo.Raw.HDOP ;
   \   00000232   ....               LDR.N    R0,??DataTable12_2
   \   00000234   ....               LDR.N    R1,??DataTable12_2
   \   00000236   B1F8E610           LDRH     R1,[R1, #+230]
   \   0000023A   A0F8F210           STRH     R1,[R0, #+242]
    405                         GPSSinsitivity = GPSInfo.Conv.HDOP;
   \   0000023E   ....               LDR.N    R0,??DataTable12_2
   \   00000240   B0F8F200           LDRH     R0,[R0, #+242]
   \   00000244   ....               LDR.N    R1,??DataTable12_30
   \   00000246   0880               STRH     R0,[R1, #+0]
    406                    }
    407                    memset(GPSInfo.GpsData, 0x00, sizeof(GPSInfo.GpsData));
   \                     ??GPS_Process_3:
   \   00000248   6422               MOVS     R2,#+100
   \   0000024A   0021               MOVS     R1,#+0
   \   0000024C   ....               LDR.N    R0,??DataTable12_2
   \   0000024E   ........           BL       memset
    408                    GPSInfo.GpsDataCnt = 0;
   \   00000252   ....               LDR.N    R0,??DataTable12_2
   \   00000254   0021               MOVS     R1,#+0
   \   00000256   80F86410           STRB     R1,[R0, #+100]
    409               }
    410               // 3초동안 GPS 수신이 없을 경우 GPS 값 초기화
    411               if (CheckTimeOver(3000, GpsTimeOver)) {
   \                     ??GPS_Process_0:
   \   0000025A   ....               LDR.N    R0,??DataTable12_16
   \   0000025C   0188               LDRH     R1,[R0, #+0]
   \   0000025E   40F6B830           MOVW     R0,#+3000
   \   00000262   ........           BL       CheckTimeOver
   \   00000266   0028               CMP      R0,#+0
   \   00000268   22D0               BEQ.N    ??GPS_Process_4
    412                    Flag.GPS_Check = 'N' ;
   \   0000026A   ....               LDR.N    R0,??DataTable12_8
   \   0000026C   4E21               MOVS     R1,#+78
   \   0000026E   C170               STRB     R1,[R0, #+3]
    413                    GpsTimeOver = MS_TIMER;
   \   00000270   ....               LDR.N    R0,??DataTable12_1  ;; 0x40000c00
   \   00000272   ........           BL       TIM_GetCounter
   \   00000276   ....               LDR.N    R1,??DataTable12_16
   \   00000278   0880               STRH     R0,[R1, #+0]
    414                    memset(&GPSInfo.Raw,0,sizeof(GPSInfo.Raw));
   \   0000027A   0C22               MOVS     R2,#+12
   \   0000027C   0021               MOVS     R1,#+0
   \   0000027E   ....               LDR.N    R0,??DataTable12_37
   \   00000280   ........           BL       memset
    415                    memset(&GPSInfo.Conv,0,sizeof(GPSInfo.Conv));          
   \   00000284   1022               MOVS     R2,#+16
   \   00000286   0021               MOVS     R1,#+0
   \   00000288   ....               LDR.N    R0,??DataTable12_38
   \   0000028A   ........           BL       memset
    416                    GPSInfo.Status = 'E';
   \   0000028E   ....               LDR.N    R0,??DataTable12_2
   \   00000290   4521               MOVS     R1,#+69
   \   00000292   80F89F10           STRB     R1,[R0, #+159]
    417                    // LOG ---------------------------------------------------------------
    418                    
    419                    if(LOGWRITE & LOG_GPS_RECIEVE)                       
   \   00000296   ....               LDR.N    R0,??DataTable12_29
   \   00000298   0078               LDRB     R0,[R0, #+0]
   \   0000029A   4006               LSLS     R0,R0,#+25
   \   0000029C   08D5               BPL.N    ??GPS_Process_4
    420                    {
    421                         sprintf((char *)Buffer,"GPS NO RESPONSE \r\n"); 
   \   0000029E   ........           ADR.W    R1,`?<Constant "GPS NO RESPONSE \\r\\n">`
   \   000002A2   ....               LDR.N    R0,??DataTable12_31
   \   000002A4   ........           BL       sprintf
    422                         Write_Log(Buffer, FAIL_LOG);
   \   000002A8   0221               MOVS     R1,#+2
   \   000002AA   ....               LDR.N    R0,??DataTable12_31
   \   000002AC   ........           BL       Write_Log
    423                    }            
    424                    // -------------------------------------------------------------------
    425               }
    426               Flag.GPS_IsRoute = 0;     
   \                     ??GPS_Process_4:
   \   000002B0   ....               LDR.N    R0,??DataTable12_8
   \   000002B2   0021               MOVS     R1,#+0
   \   000002B4   0173               STRB     R1,[R0, #+12]
    427               Flag.GPS_IsHome = 0;
   \   000002B6   ....               LDR.N    R0,??DataTable12_8
   \   000002B8   0021               MOVS     R1,#+0
   \   000002BA   C172               STRB     R1,[R0, #+11]
    428               if(SFLASH_Memory.GPS_EMS_Use == 1)          // 차고지 동작
   \   000002BC   ....               LDR.N    R0,??DataTable12_3
   \   000002BE   90F88900           LDRB     R0,[R0, #+137]
   \   000002C2   0128               CMP      R0,#+1
   \   000002C4   12D1               BNE.N    ??GPS_Process_5
    429               {
    430                    if ( isInsideArea(&SFLASH_Memory.Home, GPSInfo.Conv.nLongitude,GPSInfo.Conv.nLatitude) == 1)
   \   000002C6   ....               LDR.N    R0,??DataTable12_2
   \   000002C8   D0F8EC20           LDR      R2,[R0, #+236]
   \   000002CC   ....               LDR.N    R0,??DataTable12_2
   \   000002CE   D0F8E810           LDR      R1,[R0, #+232]
   \   000002D2   ....               LDR.N    R0,??DataTable12_4
   \   000002D4   ........           BL       isInsideArea
   \   000002D8   0128               CMP      R0,#+1
   \   000002DA   40F0B380           BNE.W    ??GPS_Process_6
    431                    {
    432                         Flag.GPS_IsHome = 1;
   \   000002DE   ....               LDR.N    R0,??DataTable12_8
   \   000002E0   0121               MOVS     R1,#+1
   \   000002E2   C172               STRB     R1,[R0, #+11]
    433                         Flag.GPS_IsRoute = 1;               
   \   000002E4   ....               LDR.N    R0,??DataTable12_8
   \   000002E6   0121               MOVS     R1,#+1
   \   000002E8   0173               STRB     R1,[R0, #+12]
   \   000002EA   ABE0               B.N      ??GPS_Process_6
    434                    }          
    435               }else if(SFLASH_Memory.GPS_EMS_Use == 2)
   \                     ??GPS_Process_5:
   \   000002EC   ....               LDR.N    R0,??DataTable12_3
   \   000002EE   90F88900           LDRB     R0,[R0, #+137]
   \   000002F2   0228               CMP      R0,#+2
   \   000002F4   40F0A680           BNE.W    ??GPS_Process_6
    436               {
    437                    if ( isInsideArea(&SFLASH_Memory.Home, GPSInfo.Conv.nLongitude,GPSInfo.Conv.nLatitude) == 1)
   \   000002F8   ....               LDR.N    R0,??DataTable12_2
   \   000002FA   D0F8EC20           LDR      R2,[R0, #+236]
   \   000002FE   ....               LDR.N    R0,??DataTable12_2
   \   00000300   D0F8E810           LDR      R1,[R0, #+232]
   \   00000304   ....               LDR.N    R0,??DataTable12_4
   \   00000306   ........           BL       isInsideArea
   \   0000030A   0128               CMP      R0,#+1
   \   0000030C   05D1               BNE.N    ??GPS_Process_7
    438                    {
    439                         Flag.GPS_IsHome = 0;
   \   0000030E   ....               LDR.N    R0,??DataTable12_8
   \   00000310   0021               MOVS     R1,#+0
   \   00000312   C172               STRB     R1,[R0, #+11]
    440                         Flag.GPS_IsRoute = 1;               
   \   00000314   ....               LDR.N    R0,??DataTable12_8
   \   00000316   0121               MOVS     R1,#+1
   \   00000318   0173               STRB     R1,[R0, #+12]
    441                    }          
    442                    if(GPS_RouteCheck.GPS_RouteEnable == 1)
   \                     ??GPS_Process_7:
   \   0000031A   ....               LDR.N    R0,??DataTable12_39
   \   0000031C   0078               LDRB     R0,[R0, #+0]
   \   0000031E   0128               CMP      R0,#+1
   \   00000320   40F09080           BNE.W    ??GPS_Process_6
    443                    {
    444                         if( (GPS_RouteCheck.GPS_RouteSection & 0x01 ) == 0x01)
   \   00000324   ....               LDR.N    R0,??DataTable12_39
   \   00000326   4078               LDRB     R0,[R0, #+1]
   \   00000328   C007               LSLS     R0,R0,#+31
   \   0000032A   0DD5               BPL.N    ??GPS_Process_8
    445                         {
    446                               if ( isInsideArea( &GPS_RouteCheck.Route[0],GPSInfo.Conv.nLongitude,GPSInfo.Conv.nLatitude ) == 1)
   \   0000032C   ....               LDR.N    R0,??DataTable12_2
   \   0000032E   D0F8EC20           LDR      R2,[R0, #+236]
   \   00000332   ....               LDR.N    R0,??DataTable12_2
   \   00000334   D0F8E810           LDR      R1,[R0, #+232]
   \   00000338   ....               LDR.N    R0,??DataTable12_40
   \   0000033A   ........           BL       isInsideArea
   \   0000033E   0128               CMP      R0,#+1
   \   00000340   02D1               BNE.N    ??GPS_Process_8
    447                                   Flag.GPS_IsRoute = 1;
   \   00000342   ....               LDR.N    R0,??DataTable12_8
   \   00000344   0121               MOVS     R1,#+1
   \   00000346   0173               STRB     R1,[R0, #+12]
    448                         }
    449                         if( (GPS_RouteCheck.GPS_RouteSection & 0x02 ) == 0x02)
   \                     ??GPS_Process_8:
   \   00000348   ....               LDR.N    R0,??DataTable12_39
   \   0000034A   4078               LDRB     R0,[R0, #+1]
   \   0000034C   8007               LSLS     R0,R0,#+30
   \   0000034E   0DD5               BPL.N    ??GPS_Process_9
    450                         {
    451                               if ( isInsideArea( &GPS_RouteCheck.Route[1],GPSInfo.Conv.nLongitude,GPSInfo.Conv.nLatitude ) == 1)
   \   00000350   ....               LDR.N    R0,??DataTable12_2
   \   00000352   D0F8EC20           LDR      R2,[R0, #+236]
   \   00000356   ....               LDR.N    R0,??DataTable12_2
   \   00000358   D0F8E810           LDR      R1,[R0, #+232]
   \   0000035C   ....               LDR.N    R0,??DataTable12_41
   \   0000035E   ........           BL       isInsideArea
   \   00000362   0128               CMP      R0,#+1
   \   00000364   02D1               BNE.N    ??GPS_Process_9
    452                                   Flag.GPS_IsRoute = 1;
   \   00000366   ....               LDR.N    R0,??DataTable12_8
   \   00000368   0121               MOVS     R1,#+1
   \   0000036A   0173               STRB     R1,[R0, #+12]
    453                         }      
    454                         if( (GPS_RouteCheck.GPS_RouteSection & 0x04 ) == 0x04)
   \                     ??GPS_Process_9:
   \   0000036C   ....               LDR.N    R0,??DataTable12_39
   \   0000036E   4078               LDRB     R0,[R0, #+1]
   \   00000370   4007               LSLS     R0,R0,#+29
   \   00000372   0DD5               BPL.N    ??GPS_Process_10
    455                         {
    456                               if ( isInsideArea( &GPS_RouteCheck.Route[2],GPSInfo.Conv.nLongitude,GPSInfo.Conv.nLatitude ) == 1)
   \   00000374   ....               LDR.N    R0,??DataTable12_2
   \   00000376   D0F8EC20           LDR      R2,[R0, #+236]
   \   0000037A   ....               LDR.N    R0,??DataTable12_2
   \   0000037C   D0F8E810           LDR      R1,[R0, #+232]
   \   00000380   ....               LDR.N    R0,??DataTable12_42
   \   00000382   ........           BL       isInsideArea
   \   00000386   0128               CMP      R0,#+1
   \   00000388   02D1               BNE.N    ??GPS_Process_10
    457                                   Flag.GPS_IsRoute = 1;
   \   0000038A   ....               LDR.N    R0,??DataTable12_8
   \   0000038C   0121               MOVS     R1,#+1
   \   0000038E   0173               STRB     R1,[R0, #+12]
    458                         }        
    459                         if( (GPS_RouteCheck.GPS_RouteSection & 0x08 ) == 0x08)
   \                     ??GPS_Process_10:
   \   00000390   ....               LDR.N    R0,??DataTable12_39
   \   00000392   4078               LDRB     R0,[R0, #+1]
   \   00000394   0007               LSLS     R0,R0,#+28
   \   00000396   0DD5               BPL.N    ??GPS_Process_11
    460                         {
    461                               if ( isInsideArea( &GPS_RouteCheck.Route[3],GPSInfo.Conv.nLongitude,GPSInfo.Conv.nLatitude ) == 1)
   \   00000398   ....               LDR.N    R0,??DataTable12_2
   \   0000039A   D0F8EC20           LDR      R2,[R0, #+236]
   \   0000039E   ....               LDR.N    R0,??DataTable12_2
   \   000003A0   D0F8E810           LDR      R1,[R0, #+232]
   \   000003A4   ....               LDR.N    R0,??DataTable12_43
   \   000003A6   ........           BL       isInsideArea
   \   000003AA   0128               CMP      R0,#+1
   \   000003AC   02D1               BNE.N    ??GPS_Process_11
    462                                   Flag.GPS_IsRoute = 1;
   \   000003AE   ....               LDR.N    R0,??DataTable12_8
   \   000003B0   0121               MOVS     R1,#+1
   \   000003B2   0173               STRB     R1,[R0, #+12]
    463                         }           
    464                         if( (GPS_RouteCheck.GPS_RouteSection & 0x10 ) == 0x10)
   \                     ??GPS_Process_11:
   \   000003B4   ....               LDR.N    R0,??DataTable12_39
   \   000003B6   4078               LDRB     R0,[R0, #+1]
   \   000003B8   C006               LSLS     R0,R0,#+27
   \   000003BA   0DD5               BPL.N    ??GPS_Process_12
    465                         {
    466                               if ( isInsideArea( &GPS_RouteCheck.Route[4],GPSInfo.Conv.nLongitude,GPSInfo.Conv.nLatitude ) == 1)
   \   000003BC   ....               LDR.N    R0,??DataTable12_2
   \   000003BE   D0F8EC20           LDR      R2,[R0, #+236]
   \   000003C2   ....               LDR.N    R0,??DataTable12_2
   \   000003C4   D0F8E810           LDR      R1,[R0, #+232]
   \   000003C8   ....               LDR.N    R0,??DataTable12_44
   \   000003CA   ........           BL       isInsideArea
   \   000003CE   0128               CMP      R0,#+1
   \   000003D0   02D1               BNE.N    ??GPS_Process_12
    467                                   Flag.GPS_IsRoute = 1;
   \   000003D2   ....               LDR.N    R0,??DataTable12_8
   \   000003D4   0121               MOVS     R1,#+1
   \   000003D6   0173               STRB     R1,[R0, #+12]
    468                         }
    469                         if( (GPS_RouteCheck.GPS_RouteSection & 0x20 ) == 0x20)
   \                     ??GPS_Process_12:
   \   000003D8   ....               LDR.N    R0,??DataTable12_39
   \   000003DA   4078               LDRB     R0,[R0, #+1]
   \   000003DC   8006               LSLS     R0,R0,#+26
   \   000003DE   0DD5               BPL.N    ??GPS_Process_13
    470                         {
    471                               if ( isInsideArea( &GPS_RouteCheck.Route[5],GPSInfo.Conv.nLongitude,GPSInfo.Conv.nLatitude ) == 1)
   \   000003E0   ....               LDR.N    R0,??DataTable12_2
   \   000003E2   D0F8EC20           LDR      R2,[R0, #+236]
   \   000003E6   ....               LDR.N    R0,??DataTable12_2
   \   000003E8   D0F8E810           LDR      R1,[R0, #+232]
   \   000003EC   ....               LDR.N    R0,??DataTable12_45
   \   000003EE   ........           BL       isInsideArea
   \   000003F2   0128               CMP      R0,#+1
   \   000003F4   02D1               BNE.N    ??GPS_Process_13
    472                                   Flag.GPS_IsRoute = 1;
   \   000003F6   ....               LDR.N    R0,??DataTable12_8
   \   000003F8   0121               MOVS     R1,#+1
   \   000003FA   0173               STRB     R1,[R0, #+12]
    473                         }      
    474                         if( (GPS_RouteCheck.GPS_RouteSection & 0x40 ) == 0x40)
   \                     ??GPS_Process_13:
   \   000003FC   ....               LDR.N    R0,??DataTable12_39
   \   000003FE   4078               LDRB     R0,[R0, #+1]
   \   00000400   4006               LSLS     R0,R0,#+25
   \   00000402   0DD5               BPL.N    ??GPS_Process_14
    475                         {
    476                               if ( isInsideArea( &GPS_RouteCheck.Route[6],GPSInfo.Conv.nLongitude,GPSInfo.Conv.nLatitude ) == 1)
   \   00000404   ....               LDR.N    R0,??DataTable12_2
   \   00000406   D0F8EC20           LDR      R2,[R0, #+236]
   \   0000040A   ....               LDR.N    R0,??DataTable12_2
   \   0000040C   D0F8E810           LDR      R1,[R0, #+232]
   \   00000410   ....               LDR.N    R0,??DataTable12_46
   \   00000412   ........           BL       isInsideArea
   \   00000416   0128               CMP      R0,#+1
   \   00000418   02D1               BNE.N    ??GPS_Process_14
    477                                   Flag.GPS_IsRoute = 1;
   \   0000041A   ....               LDR.N    R0,??DataTable12_8
   \   0000041C   0121               MOVS     R1,#+1
   \   0000041E   0173               STRB     R1,[R0, #+12]
    478                         }        
    479                         if( (GPS_RouteCheck.GPS_RouteSection & 0x80 ) == 0x80)
   \                     ??GPS_Process_14:
   \   00000420   ....               LDR.N    R0,??DataTable12_39
   \   00000422   4078               LDRB     R0,[R0, #+1]
   \   00000424   0006               LSLS     R0,R0,#+24
   \   00000426   0DD5               BPL.N    ??GPS_Process_6
    480                         {
    481                               if ( isInsideArea( &GPS_RouteCheck.Route[7],GPSInfo.Conv.nLongitude,GPSInfo.Conv.nLatitude ) == 1)
   \   00000428   ....               LDR.N    R0,??DataTable12_2
   \   0000042A   D0F8EC20           LDR      R2,[R0, #+236]
   \   0000042E   ....               LDR.N    R0,??DataTable12_2
   \   00000430   D0F8E810           LDR      R1,[R0, #+232]
   \   00000434   ....               LDR.N    R0,??DataTable12_47
   \   00000436   ........           BL       isInsideArea
   \   0000043A   0128               CMP      R0,#+1
   \   0000043C   02D1               BNE.N    ??GPS_Process_6
    482                                   Flag.GPS_IsRoute = 1;
   \   0000043E   ....               LDR.N    R0,??DataTable12_8
   \   00000440   0121               MOVS     R1,#+1
   \   00000442   0173               STRB     R1,[R0, #+12]
    483                         }                     
    484                    }              
    485               }
    486          }
   \                     ??GPS_Process_6:
   \   00000444   12B0               ADD      SP,SP,#+72
   \   00000446   10BD               POP      {R4,PC}          ;; return

   \                                 In section .bss, align 1
   \                     ??StartTimeCheck:
   \   00000000                      DS8 1

   \                                 In section .bss, align 2
   \                     ??GpsTimeOver:
   \   00000000                      DS8 2

   \                                 In section .text, align 4, keep-with-next
   \                     ??DataTable12:
   \   00000000   ........           DC32     ??GPS_RouteTimer

   \                                 In section .text, align 4, keep-with-next
   \                     ??DataTable12_1:
   \   00000000   000C0040           DC32     0x40000c00

   \                                 In section .text, align 4, keep-with-next
   \                     ??DataTable12_2:
   \   00000000   ........           DC32     GPSInfo

   \                                 In section .text, align 4, keep-with-next
   \                     ??DataTable12_3:
   \   00000000   ........           DC32     SFLASH_Memory

   \                                 In section .text, align 4, keep-with-next
   \                     ??DataTable12_4:
   \   00000000   ........           DC32     SFLASH_Memory+0x81

   \                                 In section .text, align 4, keep-with-next
   \                     ??DataTable12_5:
   \   00000000   ........           DC32     DrivePositionInfo

   \                                 In section .text, align 4, keep-with-next
   \                     ??DataTable12_6:
   \   00000000   ........           DC32     GPSInfoTemp

   \                                 In section .text, align 4, keep-with-next
   \                     ??DataTable12_7:
   \   00000000   ........           DC32     ??HDOP

   \                                 In section .text, align 4, keep-with-next
   \                     ??DataTable12_8:
   \   00000000   ........           DC32     Flag

   \                                 In section .text, align 4, keep-with-next
   \                     ??DataTable12_9:
   \   00000000   ........           DC32     GPSInfoTemp+0xC8

   \                                 In section .text, align 4, keep-with-next
   \                     ??DataTable12_10:
   \   00000000   6F1283C0           DC32     0xc083126f

   \                                 In section .text, align 4, keep-with-next
   \                     ??DataTable12_11:
   \   00000000   CAA1FD3F           DC32     0x3ffda1ca

   \                                 In section .text, align 4, keep-with-next
   \                     ??DataTable12_12:
   \   00000000   ........           DC32     RTX_GPS

   \                                 In section .text, align 4, keep-with-next
   \                     ??DataTable12_13:
   \   00000000   40420F00           DC32     0xf4240

   \                                 In section .text, align 4, keep-with-next
   \                     ??DataTable12_14:
   \   00000000   00004E40           DC32     0x404e0000

   \                                 In section .text, align 4, keep-with-next
   \                     ??DataTable12_15:
   \   00000000   0000C842           DC32     0x42c80000

   \                                 In section .text, align 4, keep-with-next
   \                     ??DataTable12_16:
   \   00000000   ........           DC32     ??GpsTimeOver

   \                                 In section .text, align 4, keep-with-next
   \                     ??DataTable12_17:
   \   00000000   ........           DC32     GPSInfo+0x8B

   \                                 In section .text, align 4, keep-with-next
   \                     ??DataTable12_18:
   \   00000000   0088C340           DC32     0x40c38800

   \                                 In section .text, align 4, keep-with-next
   \                     ??DataTable12_19:
   \   00000000   ........           DC32     GPSInfo+0xB4

   \                                 In section .text, align 4, keep-with-next
   \                     ??DataTable12_20:
   \   00000000   ........           DC32     GPSInfo+0x68

   \                                 In section .text, align 4, keep-with-next
   \                     ??DataTable12_21:
   \   00000000   ........           DC32     GPSInfo+0xC8

   \                                 In section .text, align 4, keep-with-next
   \                     ??DataTable12_22:
   \   00000000   00005940           DC32     0x40590000

   \                                 In section .text, align 4, keep-with-next
   \                     ??DataTable12_23:
   \   00000000   ........           DC32     GPSInfo+0xA0

   \                                 In section .text, align 4, keep-with-next
   \                     ??DataTable12_24:
   \   00000000   ........           DC32     GPSInfo+0xA2

   \                                 In section .text, align 4, keep-with-next
   \                     ??DataTable12_25:
   \   00000000   ........           DC32     GPSInfo+0xA4

   \                                 In section .text, align 4, keep-with-next
   \                     ??DataTable12_26:
   \   00000000   ........           DC32     GPSInfo+0x77

   \                                 In section .text, align 4, keep-with-next
   \                     ??DataTable12_27:
   \   00000000   ........           DC32     GPSInfo+0x79

   \                                 In section .text, align 4, keep-with-next
   \                     ??DataTable12_28:
   \   00000000   ........           DC32     GPSInfo+0x7B

   \                                 In section .text, align 4, keep-with-next
   \                     ??DataTable12_29:
   \   00000000   ........           DC32     LOGWRITE

   \                                 In section .text, align 4, keep-with-next
   \                     ??DataTable12_30:
   \   00000000   ........           DC32     GPSSinsitivity

   \                                 In section .text, align 4, keep-with-next
   \                     ??DataTable12_31:
   \   00000000   ........           DC32     Buffer

   \                                 In section .text, align 4, keep-with-next
   \                     ??DataTable12_32:
   \   00000000   ........           DC32     ??StartTimeCheck

   \                                 In section .text, align 4, keep-with-next
   \                     ??DataTable12_33:
   \   00000000   ........           DC32     RTC_DateStructure

   \                                 In section .text, align 4, keep-with-next
   \                     ??DataTable12_34:
   \   00000000   ........           DC32     RTC_TimeStructure

   \                                 In section .text, align 4, keep-with-next
   \                     ??DataTable12_35:
   \   00000000   ........           DC32     GPSInfoTemp+0x72

   \                                 In section .text, align 4, keep-with-next
   \                     ??DataTable12_36:
   \   00000000   00002440           DC32     0x40240000

   \                                 In section .text, align 4, keep-with-next
   \                     ??DataTable12_37:
   \   00000000   ........           DC32     GPSInfo+0xDC

   \                                 In section .text, align 4, keep-with-next
   \                     ??DataTable12_38:
   \   00000000   ........           DC32     GPSInfo+0xE8

   \                                 In section .text, align 4, keep-with-next
   \                     ??DataTable12_39:
   \   00000000   ........           DC32     GPS_RouteCheck

   \                                 In section .text, align 4, keep-with-next
   \                     ??DataTable12_40:
   \   00000000   ........           DC32     GPS_RouteCheck+0x2

   \                                 In section .text, align 4, keep-with-next
   \                     ??DataTable12_41:
   \   00000000   ........           DC32     GPS_RouteCheck+0xA

   \                                 In section .text, align 4, keep-with-next
   \                     ??DataTable12_42:
   \   00000000   ........           DC32     GPS_RouteCheck+0x12

   \                                 In section .text, align 4, keep-with-next
   \                     ??DataTable12_43:
   \   00000000   ........           DC32     GPS_RouteCheck+0x1A

   \                                 In section .text, align 4, keep-with-next
   \                     ??DataTable12_44:
   \   00000000   ........           DC32     GPS_RouteCheck+0x22

   \                                 In section .text, align 4, keep-with-next
   \                     ??DataTable12_45:
   \   00000000   ........           DC32     GPS_RouteCheck+0x2A

   \                                 In section .text, align 4, keep-with-next
   \                     ??DataTable12_46:
   \   00000000   ........           DC32     GPS_RouteCheck+0x32

   \                                 In section .text, align 4, keep-with-next
   \                     ??DataTable12_47:
   \   00000000   ........           DC32     GPS_RouteCheck+0x3A

   \                                 In section .text, align 4, keep-with-next
   \                     `?<Constant "$GPRMC">`:
   \   00000000                      ; Initializer data, 8 bytes
   \   00000000   244750524D43       DC8 36, 71, 80, 82, 77, 67, 0, 0
   \              0000        

   \                                 In section .text, align 4, keep-with-next
   \                     `?<Constant "$GPGGA">`:
   \   00000000                      ; Initializer data, 8 bytes
   \   00000000   244750474741       DC8 36, 71, 80, 71, 71, 65, 0, 0
   \              0000        

   \                                 In section .text, align 4, keep-with-next
   \                     `?<Constant "%0.02f">`:
   \   00000000                      ; Initializer data, 8 bytes
   \   00000000   25302E303266       DC8 37, 48, 46, 48, 50, 102, 0, 0
   \              0000        

   \                                 In section .text, align 4, keep-with-next
   \                     `?<Constant "%02X">`:
   \   00000000                      ; Initializer data, 8 bytes
   \   00000000   253032580000       DC8 37, 48, 50, 88, 0, 0, 0, 0
   \              0000        

   \                                 In section .text, align 4, keep-with-next
   \                     `?<Constant "GPS_RECEIVE [ %d,%d,%...">`:
   \   00000000                      ; Initializer data, 76 bytes
   \   00000000   4750535F5245       DC8 71, 80, 83, 95, 82, 69, 67, 69, 73, 86
   \              43454956    
   \   0000000A   45205B202564       DC8 69, 32, 91, 32, 37, 100, 44, 37, 100, 44
   \              2C25642C    
   \   00000014   253033642C25       DC8 37, 48, 51, 100, 44, 37, 48, 53, 100, 44
   \              3035642C    
   \   0000001E   25303264205D       DC8 37, 48, 50, 100, 32, 93, 91, 32, 37, 48
   \              5B202530    
   \   00000028   32642F253032       DC8 50, 100, 47, 37, 48, 50, 100, 47, 37, 48
   \              642F2530    
   \   00000032   32642D253032       DC8 50, 100, 45, 37, 48, 50, 100, 58, 37, 48
   \              643A2530    
   \   0000003C   32643A253032       DC8 50, 100, 58, 37, 48, 50, 100, 32, 93, 32
   \              64205D20    
   \   00000046   0D0A00000000       DC8 13, 10, 0, 0, 0, 0

   \                                 In section .text, align 4, keep-with-next
   \                     `?<Constant "GPS_TIME_CHANGE [ %02...">`:
   \   00000000                      ; Initializer data, 56 bytes
   \   00000000   4750535F5449       DC8 71, 80, 83, 95, 84, 73, 77, 69, 95, 67
   \              4D455F43    
   \   0000000A   48414E474520       DC8 72, 65, 78, 71, 69, 32, 91, 32, 37, 48
   \              5B202530    
   \   00000014   32642F253032       DC8 50, 100, 47, 37, 48, 50, 100, 47, 37, 48
   \              642F2530    
   \   0000001E   32642D253032       DC8 50, 100, 45, 37, 48, 50, 100, 58, 37, 48
   \              643A2530    
   \   00000028   32643A253032       DC8 50, 100, 58, 37, 48, 50, 100, 32, 93, 32
   \              64205D20    
   \   00000032   0D0A00000000       DC8 13, 10, 0, 0, 0, 0

   \                                 In section .text, align 4, keep-with-next
   \                     `?<Constant "GPS NO RESPONSE \\r\\n">`:
   \   00000000                      ; Initializer data, 20 bytes
   \   00000000   475053204E4F       DC8 71, 80, 83, 32, 78, 79, 32, 82, 69, 83
   \              20524553    
   \   0000000A   504F4E534520       DC8 80, 79, 78, 83, 69, 32, 13, 10, 0, 0
   \              0D0A0000    

   Maximum stack usage in bytes:

     Function     .cstack
     --------     -------
     Catoi            24
     ConvRawData      12
     GPS_Process      80
     GetGpsInfo       16
     HomeCheck         0
     ReceiveGPS       24
     RouteCheck        8
     isInsideArea      0
     memcpy            8
     memset            8


   Section sizes:

     Function/Label                         Bytes
     --------------                         -----
     memcpy                                   14
     memset                                   20
     GPSInfoTemp                             248
     GPSInfo                                 248
     GPSSinsitivity                            2
     isInsideArea                             72
     RouteCheck                               96
     GPS_RouteTimer                            2
     Catoi                                    42
     GetGpsInfo                              562
     HDOP                                      1
     ReceiveGPS                              306
     ConvRawData                              92
     HomeCheck                                68
     GPS_Process                            1096
     StartTimeCheck                            1
     GpsTimeOver                               2
     ??DataTable12                             4
     ??DataTable12_1                           4
     ??DataTable12_2                           4
     ??DataTable12_3                           4
     ??DataTable12_4                           4
     ??DataTable12_5                           4
     ??DataTable12_6                           4
     ??DataTable12_7                           4
     ??DataTable12_8                           4
     ??DataTable12_9                           4
     ??DataTable12_10                          4
     ??DataTable12_11                          4
     ??DataTable12_12                          4
     ??DataTable12_13                          4
     ??DataTable12_14                          4
     ??DataTable12_15                          4
     ??DataTable12_16                          4
     ??DataTable12_17                          4
     ??DataTable12_18                          4
     ??DataTable12_19                          4
     ??DataTable12_20                          4
     ??DataTable12_21                          4
     ??DataTable12_22                          4
     ??DataTable12_23                          4
     ??DataTable12_24                          4
     ??DataTable12_25                          4
     ??DataTable12_26                          4
     ??DataTable12_27                          4
     ??DataTable12_28                          4
     ??DataTable12_29                          4
     ??DataTable12_30                          4
     ??DataTable12_31                          4
     ??DataTable12_32                          4
     ??DataTable12_33                          4
     ??DataTable12_34                          4
     ??DataTable12_35                          4
     ??DataTable12_36                          4
     ??DataTable12_37                          4
     ??DataTable12_38                          4
     ??DataTable12_39                          4
     ??DataTable12_40                          4
     ??DataTable12_41                          4
     ??DataTable12_42                          4
     ??DataTable12_43                          4
     ??DataTable12_44                          4
     ??DataTable12_45                          4
     ??DataTable12_46                          4
     ??DataTable12_47                          4
     ?<Constant "$GPRMC">                      8
     ?<Constant "$GPGGA">                      8
     ?<Constant "%0.02f">                      8
     ?<Constant "%02X">                        8
     ?<Constant "GPS_RECEIVE [ %d,%d,%...">   76
     ?<Constant "GPS_TIME_CHANGE [ %02...">   56
     ?<Constant "GPS NO RESPONSE \r\n">       20

 
   504 bytes in section .bss
 2 744 bytes in section .text
 
 2 710 bytes of CODE memory (+ 34 bytes shared)
   504 bytes of DATA memory

Errors: none
Warnings: none
