///////////////////////////////////////////////////////////////////////////////
//                                                                            /
// IAR ANSI C/C++ Compiler V6.10.1.52143/W32 for ARM    19/Jan/2012  11:09:04 /
// Copyright 1999-2010 IAR Systems AB.                                        /
//                                                                            /
//    Cpu mode     =  thumb                                                   /
//    Endian       =  little                                                  /
//    Source file  =  F:\Work\S&G2000\Firmware\DTG_EMS_SYSTEM\Project\Graphic /
//                    Lcd.c                                                   /
//    Command line =  F:\Work\S&G2000\Firmware\DTG_EMS_SYSTEM\Project\Graphic /
//                    Lcd.c -D USE_STDPERIPH_DRIVER -D STM32F2XX -D           /
//                    USE_STM3220F_EVAL -D USE_USB_OTG_FS -D                  /
//                    RTC_CLOCK_SOURCE_LSE -lC F:\Work\S&G2000\Firmware\DTG_E /
//                    MS_SYSTEM\Project\EWARM\STM3220F_EVAL\List\ -lA         /
//                    F:\Work\S&G2000\Firmware\DTG_EMS_SYSTEM\Project\EWARM\S /
//                    TM3220F_EVAL\List\ -o F:\Work\S&G2000\Firmware\DTG_EMS_ /
//                    SYSTEM\Project\EWARM\STM3220F_EVAL\Obj\ --no_cse        /
//                    --no_unroll --no_inline --no_code_motion --no_tbaa      /
//                    --no_clustering --no_scheduling --debug                 /
//                    --endian=little --cpu=Cortex-M3 -e --fpu=None           /
//                    --dlib_config "C:\Program Files\IAR Systems\Embedded    /
//                    Workbench 6.0\arm\INC\c\DLib_Config_Full.h" -I          /
//                    F:\Work\S&G2000\Firmware\DTG_EMS_SYSTEM\Project\EWARM\. /
//                    .\ -I F:\Work\S&G2000\Firmware\DTG_EMS_SYSTEM\Project\E /
//                    WARM\..\..\Libraries\CMSIS\CM3\CoreSupport\ -I          /
//                    F:\Work\S&G2000\Firmware\DTG_EMS_SYSTEM\Project\EWARM\. /
//                    .\..\Libraries\CMSIS\CM3\DeviceSupport\ST\STM32F2xx\    /
//                    -I F:\Work\S&G2000\Firmware\DTG_EMS_SYSTEM\Project\EWAR /
//                    M\..\..\Libraries\STM32F2xx_StdPeriph_Driver\inc\ -I    /
//                    F:\Work\S&G2000\Firmware\DTG_EMS_SYSTEM\Project\EWARM\. /
//                    .\..\Utilities\STM32_EVAL\ -I                           /
//                    F:\Work\S&G2000\Firmware\DTG_EMS_SYSTEM\Project\EWARM\. /
//                    .\..\Utilities\STM32_EVAL\Common\ -I                    /
//                    F:\Work\S&G2000\Firmware\DTG_EMS_SYSTEM\Project\EWARM\. /
//                    .\..\Utilities\STM32_EVAL\STM3220F_EVAL\ -I             /
//                    F:\Work\S&G2000\Firmware\DTG_EMS_SYSTEM\Project\EWARM\. /
//                    .\..\Libraries\STM32_USB_OTG_Driver\inc\ -I             /
//                    F:\Work\S&G2000\Firmware\DTG_EMS_SYSTEM\Project\EWARM\. /
//                    .\..\Libraries\STM32_USB_Device_Library\Core\inc\ -I    /
//                    F:\Work\S&G2000\Firmware\DTG_EMS_SYSTEM\Project\EWARM\. /
//                    .\..\Libraries\STM32_USB_Device_Library\Class\msc\inc\  /
//                    -I F:\Work\S&G2000\Firmware\DTG_EMS_SYSTEM\Project\EWAR /
//                    M\..\Usb\ -I F:\Work\S&G2000\Firmware\DTG_EMS_SYSTEM\Pr /
//                    oject\EWARM\..\Usb\Inc\ -I                              /
//                    F:\Work\S&G2000\Firmware\DTG_EMS_SYSTEM\Project\EWARM\. /
//                    .\Usb\src\ -I F:\Work\S&G2000\Firmware\DTG_EMS_SYSTEM\P /
//                    roject\EWARM\..\..\Libraries\STM32_USB_HOST_Library\Cor /
//                    e\inc\ -I F:\Work\S&G2000\Firmware\DTG_EMS_SYSTEM\Proje /
//                    ct\EWARM\..\..\Libraries\STM32_USB_HOST_Library\Class\M /
//                    SC\inc\ -I F:\Work\S&G2000\Firmware\DTG_EMS_SYSTEM\Proj /
//                    ect\EWARM\..\..\Libraries\STM32_USB_Device_Library\Clas /
//                    s\cdc\inc\ -Ol --use_c++_inline                         /
//    List file    =  F:\Work\S&G2000\Firmware\DTG_EMS_SYSTEM\Project\EWARM\S /
//                    TM3220F_EVAL\List\GraphicLcd.s                          /
//                                                                            /
//                                                                            /
///////////////////////////////////////////////////////////////////////////////

        NAME GraphicLcd

        RTMODEL "__SystemLibrary", "DLib"
        RTMODEL "__dlib_file_descriptor", "1"
        RTMODEL "__dlib_full_locale_support", "1"

        EXTERN CheckTimeOver
        EXTERN Delay
        EXTERN GLCD_Refresh_Flag
        EXTERN GPIO_Init
        EXTERN GPIO_ResetBits
        EXTERN GPIO_SetBits
        EXTERN RCC_AHB1PeriphClockCmd
        EXTERN TIM_GetCounter
        EXTERN Toogle_Cursor
        EXTERN __aeabi_memset

        PUBLIC Convert
        PUBLIC Cursor_View
        PUBLIC Cursor_X
        PUBLIC Cursor_Y
        PUBLIC Disp_black
        PUBLIC ECO0
        PUBLIC ECO1
        PUBLIC ECO_BASE
        PUBLIC E_font
        PUBLIC Font5x7
        PUBLIC GLCD_Buffer
        PUBLIC GLCD_Buffer_Cnt
        PUBLIC GLCD_Data
        PUBLIC GLCD_OUT_Flag
        PUBLIC GLcd_Clear
        PUBLIC GLcd_Config
        PUBLIC GLcd_DC_Input
        PUBLIC GLcd_HW_Reset
        PUBLIC GLcd_Init
        PUBLIC GLcd_PutChar
        PUBLIC GLcd_PutChar2
        PUBLIC GLcd_PutString
        PUBLIC GLcd_PutString2
        PUBLIC GLcd_RC_Input
        PUBLIC GLcd_Send_Cmd
        PUBLIC GLcd_Send_Cmd2
        PUBLIC GLcd_Send_Data
        PUBLIC GLcd_Send_Data2
        PUBLIC GLcd_SmallPutString
        PUBLIC GLcd_SmallPutchar
        PUBLIC GLcd_XY
        PUBLIC Glcd_GetKorFont
        PUBLIC GraphicOUT_Process
        PUBLIC Gui_PutKorChar
        PUBLIC Input_BASE
        PUBLIC KSTable
        PUBLIC K_font
        PUBLIC Output_BASE
        PUBLIC SetCursor
        PUBLIC bul_cho1
        PUBLIC bul_cho2
        PUBLIC bul_jong
        PUBLIC memset
        PUBLIC table_cho
        PUBLIC table_jong
        PUBLIC table_joong
        
        CFI Names cfiNames0
        CFI StackFrame CFA R13 DATA
        CFI Resource R0:32, R1:32, R2:32, R3:32, R4:32, R5:32, R6:32, R7:32
        CFI Resource R8:32, R9:32, R10:32, R11:32, R12:32, R13:32, R14:32
        CFI EndNames cfiNames0
        
        CFI Common cfiCommon0 Using cfiNames0
        CFI CodeAlign 2
        CFI DataAlign 4
        CFI ReturnAddress R14 CODE
        CFI CFA R13+0
        CFI R0 Undefined
        CFI R1 Undefined
        CFI R2 Undefined
        CFI R3 Undefined
        CFI R4 SameValue
        CFI R5 SameValue
        CFI R6 SameValue
        CFI R7 SameValue
        CFI R8 SameValue
        CFI R9 SameValue
        CFI R10 SameValue
        CFI R11 SameValue
        CFI R12 Undefined
        CFI R14 SameValue
        CFI EndCommon cfiCommon0
        
// F:\Work\S&G2000\Firmware\DTG_EMS_SYSTEM\Project\GraphicLcd.c
//    1 #include "GraphicLcd.h"

        SECTION `.text`:CODE:NOROOT(1)
        CFI Block cfiBlock0 Using cfiCommon0
        CFI Function Lcd_Backlight_OFF
        THUMB
// static __interwork __softfp void Lcd_Backlight_OFF(void)
Lcd_Backlight_OFF:
        PUSH     {R7,LR}
        CFI R14 Frame(CFA, -4)
        CFI CFA R13+8
        MOV      R1,#+2048
        LDR.W    R0,??DataTable24  ;; 0x40021400
        BL       GPIO_ResetBits
        POP      {R0,PC}          ;; return
        CFI EndBlock cfiBlock0
//    2 #include "main.h"
//    3 #include "font.h"

        SECTION `.data`:DATA:REORDER:NOROOT(2)
// __absolute unsigned char ECO0[1536]
ECO0:
        DATA
        DC8 0, 0, 0, 0, 0, 0, 0, 0, 0, 0, 0, 0, 0, 0, 0, 0, 31, 255, 255, 255
        DC8 255, 255, 255, 248, 63, 255, 255, 255, 255, 255, 255, 252, 63, 255
        DC8 255, 255, 255, 255, 255, 252, 63, 255, 255, 255, 255, 255, 255, 252
        DC8 63, 255, 255, 255, 255, 255, 255, 252, 63, 255, 255, 255, 255, 255
        DC8 255, 252, 63, 255, 255, 223, 0, 0, 255, 252, 63, 255, 255, 222, 0
        DC8 0, 63, 252, 63, 255, 255, 220, 0, 0, 31, 252, 63, 255, 255, 216, 0
        DC8 0, 31, 252, 63, 255, 255, 216, 0, 0, 15, 252, 63, 255, 255, 208, 0
        DC8 0, 15, 252, 63, 255, 255, 208, 0, 0, 15, 252, 63, 255, 255, 208, 28
        DC8 24, 15, 252, 63, 255, 255, 208, 28, 24, 15, 252, 63, 255, 255, 208
        DC8 28, 24, 15, 252, 63, 255, 255, 208, 28, 24, 15, 252, 63, 255, 255
        DC8 208, 28, 24, 15, 252, 63, 255, 255, 208, 28, 24, 15, 252, 63, 255
        DC8 255, 208, 31, 248, 15, 252, 63, 255, 255, 223, 255, 255, 255, 252
        DC8 63, 255, 255, 223, 255, 255, 255, 252, 63, 255, 255, 223, 240, 31
        DC8 255, 252, 63, 255, 255, 223, 192, 3, 255, 252, 63, 255, 255, 223
        DC8 128, 1, 255, 252, 63, 255, 255, 223, 0, 0, 255, 252, 63, 255, 255
        DC8 222, 0, 0, 127, 252, 63, 255, 255, 220, 0, 0, 63, 252, 63, 255, 255
        DC8 216, 0, 0, 31, 252, 63, 255, 255, 216, 3, 192, 31, 252, 63, 255
        DC8 255, 216, 15, 240, 31, 252, 63, 255, 255, 208, 15, 240, 15, 252, 63
        DC8 255, 255, 208, 31, 248, 15, 252, 63, 255, 255, 208, 31, 248, 15
        DC8 252, 63, 255, 255, 208, 31, 248, 15, 252, 63, 255, 255, 208, 31
        DC8 248, 15, 252, 63, 255, 255, 208, 31, 248, 15, 252, 63, 255, 255
        DC8 208, 15, 240, 15, 252, 63, 255, 255, 216, 7, 224, 15, 252, 63, 255
        DC8 255, 216, 1, 192, 31, 252, 63, 255, 255, 216, 0, 192, 31, 252, 63
        DC8 255, 255, 220, 0, 192, 63, 252, 63, 255, 255, 222, 0, 192, 63, 252
        DC8 63, 255, 255, 222, 0, 192, 127, 252, 63, 255, 255, 223, 128, 192
        DC8 255, 252, 63, 255, 255, 223, 192, 195, 255, 252, 63, 255, 255, 223
        DC8 248, 207, 255, 252, 63, 255, 255, 223, 255, 255, 255, 252, 63, 255
        DC8 255, 223, 255, 255, 255, 252, 63, 255, 255, 223, 248, 15, 255, 252
        DC8 63, 255, 255, 223, 192, 3, 255, 252, 63, 255, 255, 223, 128, 1, 255
        DC8 252, 63, 255, 255, 223, 0, 0, 255, 252, 63, 255, 255, 222, 0, 0
        DC8 127, 252, 63, 255, 255, 220, 0, 0, 63, 252, 63, 255, 255, 216, 0, 0
        DC8 31, 252, 63, 255, 255, 216, 3, 192, 31, 252, 63, 255, 255, 216, 7
        DC8 224, 31, 252, 63, 255, 255, 208, 15, 240, 15, 252, 63, 255, 255
        DC8 208, 31, 248, 15, 252, 63, 255, 255, 208, 31, 248, 15, 252, 63, 255
        DC8 255, 208, 31, 248, 15, 252, 63, 255, 255, 208, 31, 248, 15, 252, 63
        DC8 255, 255, 208, 31, 248, 15, 252, 63, 255, 255, 208, 15, 240, 15
        DC8 252, 63, 255, 255, 216, 7, 224, 31, 252, 63, 255, 255, 216, 3, 192
        DC8 31, 252, 63, 255, 255, 216, 0, 0, 31, 252, 63, 255, 255, 220, 0, 0
        DC8 63, 252, 63, 255, 255, 222, 0, 0, 127, 252, 63, 255, 255, 223, 0, 0
        DC8 255, 252, 63, 255, 255, 223, 128, 1, 255, 252, 63, 255, 255, 223
        DC8 192, 3, 255, 252, 63, 255, 255, 223, 248, 31, 255, 252, 63, 255
        DC8 255, 223, 255, 255, 255, 252, 63, 255, 255, 223, 255, 255, 255, 252
        DC8 63, 255, 255, 223, 255, 255, 255, 252, 63, 255, 255, 223, 255, 255
        DC8 255, 252, 63, 255, 255, 223, 255, 255, 255, 252, 63, 255, 255, 223
        DC8 255, 255, 255, 252, 63, 255, 255, 223, 255, 255, 255, 252, 63, 255
        DC8 255, 223, 255, 255, 255, 252, 63, 255, 255, 223, 255, 255, 255, 252
        DC8 63, 255, 255, 223, 255, 255, 255, 252, 63, 255, 255, 223, 255, 255
        DC8 255, 252, 63, 255, 255, 223, 255, 255, 255, 252, 63, 255, 255, 208
        DC8 0, 0, 15, 252, 63, 255, 255, 208, 0, 0, 15, 252, 63, 192, 15, 208
        DC8 0, 0, 15, 252, 63, 128, 7, 208, 0, 0, 15, 252, 63, 128, 7, 208, 0
        DC8 0, 15, 252, 63, 136, 199, 208, 0, 0, 15, 252, 63, 136, 199, 208, 0
        DC8 0, 15, 252, 63, 136, 199, 223, 255, 248, 15, 252, 63, 136, 199, 223
        DC8 255, 248, 15, 252, 63, 255, 255, 208, 31, 248, 15, 252, 63, 255
        DC8 255, 208, 31, 248, 15, 252, 63, 128, 15, 208, 31, 248, 15, 252, 63
        DC8 128, 15, 208, 31, 248, 15, 252, 63, 128, 7, 208, 31, 248, 15, 252
        DC8 63, 255, 199, 208, 15, 240, 15, 252, 63, 255, 199, 216, 15, 240, 31
        DC8 252, 63, 128, 7, 216, 3, 192, 31, 252, 63, 128, 15, 216, 0, 0, 31
        DC8 252, 63, 128, 7, 220, 0, 0, 63, 252, 63, 255, 199, 222, 0, 0, 127
        DC8 252, 63, 255, 199, 223, 0, 0, 127, 252, 63, 128, 7, 223, 128, 0
        DC8 255, 252, 63, 128, 7, 223, 192, 3, 255, 252, 63, 128, 15, 223, 248
        DC8 15, 255, 252, 63, 255, 255, 223, 255, 255, 255, 252, 63, 255, 255
        DC8 223, 255, 255, 255, 252, 63, 135, 255, 208, 0, 0, 15, 252, 63, 142
        DC8 31, 208, 0, 0, 15, 252, 63, 140, 15, 208, 0, 0, 15, 252, 63, 128, 7
        DC8 208, 0, 0, 15, 252, 63, 192, 199, 208, 0, 0, 15, 252, 63, 225, 199
        DC8 208, 0, 0, 15, 252, 63, 255, 255, 208, 0, 0, 15, 252, 63, 255, 255
        DC8 223, 255, 248, 15, 252, 63, 255, 255, 223, 255, 248, 15, 252, 63
        DC8 255, 255, 223, 224, 56, 15, 252, 63, 255, 255, 223, 0, 56, 15, 252
        DC8 63, 255, 255, 220, 0, 56, 15, 252, 63, 128, 7, 208, 0, 0, 15, 252
        DC8 63, 128, 7, 208, 0, 0, 15, 252, 63, 128, 7, 208, 0, 0, 31, 252, 63
        DC8 255, 255, 208, 0, 0, 31, 252, 63, 255, 255, 208, 14, 0, 63, 252, 63
        DC8 255, 255, 208, 63, 0, 127, 252, 63, 128, 7, 208, 255, 129, 255, 252
        DC8 63, 128, 7, 215, 255, 255, 255, 252, 63, 128, 7, 223, 255, 255, 255
        DC8 252, 63, 255, 199, 223, 255, 255, 255, 252, 63, 143, 199, 208, 0, 0
        DC8 15, 252, 63, 143, 199, 208, 0, 0, 15, 252, 63, 143, 199, 208, 0, 0
        DC8 15, 252, 63, 135, 135, 208, 0, 0, 15, 252, 63, 192, 15, 208, 0, 0
        DC8 15, 252, 63, 224, 31, 208, 0, 0, 15, 252, 63, 240, 63, 208, 0, 0
        DC8 15, 252, 63, 255, 255, 223, 255, 255, 255, 252, 63, 255, 255, 223
        DC8 255, 255, 255, 252, 63, 128, 7, 223, 255, 255, 207, 252, 63, 128, 7
        DC8 223, 255, 255, 15, 252, 63, 128, 7, 223, 255, 248, 15, 252, 63, 255
        DC8 199, 223, 255, 224, 15, 252, 63, 136, 71, 223, 255, 128, 15, 252
        DC8 63, 136, 7, 223, 252, 0, 15, 252, 63, 128, 7, 223, 240, 0, 15, 252
        DC8 63, 193, 15, 223, 128, 0, 15, 252, 63, 227, 255, 222, 0, 0, 31, 252
        DC8 63, 249, 255, 208, 0, 1, 255, 252, 63, 249, 255, 208, 0, 3, 255
        DC8 252, 63, 249, 255, 220, 0, 0, 127, 252, 63, 255, 255, 223, 0, 0, 31
        DC8 252, 63, 255, 255, 223, 224, 0, 15, 252, 63, 188, 31, 223, 248, 0
        DC8 15, 252, 63, 152, 15, 223, 255, 0, 15, 252, 63, 134, 7, 223, 255
        DC8 192, 15, 252, 63, 131, 199, 223, 255, 240, 15, 252, 63, 128, 199
        DC8 223, 255, 254, 15, 252, 63, 128, 7, 223, 255, 255, 143, 252, 63
        DC8 136, 15, 223, 255, 255, 239, 252, 63, 142, 31, 223, 255, 255, 255
        DC8 252, 63, 255, 255, 223, 0, 0, 255, 252, 63, 255, 255, 222, 0, 0, 63
        DC8 252, 63, 224, 31, 220, 0, 0, 31, 252, 63, 192, 15, 216, 0, 0, 31
        DC8 252, 63, 128, 7, 216, 0, 0, 15, 252, 63, 143, 199, 208, 0, 0, 15
        DC8 252, 63, 143, 199, 208, 0, 0, 15, 252, 63, 128, 7, 208, 28, 24, 15
        DC8 252, 63, 192, 15, 208, 28, 24, 15, 252, 63, 224, 31, 208, 28, 24
        DC8 15, 252, 63, 255, 255, 208, 28, 24, 15, 252, 63, 255, 255, 208, 28
        DC8 24, 15, 252, 63, 255, 255, 208, 28, 24, 15, 252, 63, 255, 255, 208
        DC8 31, 248, 15, 252, 63, 255, 255, 255, 255, 255, 255, 252, 63, 255
        DC8 255, 255, 255, 255, 255, 252, 63, 255, 255, 255, 255, 255, 255, 252
        DC8 63, 255, 255, 255, 255, 255, 255, 252, 63, 255, 255, 255, 255, 255
        DC8 255, 252, 63, 255, 255, 255, 255, 255, 255, 252, 63, 255, 255, 255
        DC8 255, 255, 255, 252, 63, 255, 255, 255, 255, 255, 255, 252, 31, 255
        DC8 255, 255, 255, 255, 255, 248, 0, 0, 0, 0, 0, 0, 0, 0, 0, 0, 0, 0, 0
        DC8 0, 0, 0

        SECTION `.data`:DATA:REORDER:NOROOT(2)
// __absolute unsigned char ECO1[1536]
ECO1:
        DATA
        DC8 0, 0, 0, 0, 0, 0, 0, 0, 0, 0, 0, 0, 0, 0, 0, 0, 31, 255, 255, 255
        DC8 255, 255, 255, 248, 63, 255, 255, 255, 255, 255, 255, 252, 63, 255
        DC8 255, 255, 255, 255, 255, 252, 63, 255, 255, 255, 255, 255, 255, 252
        DC8 63, 255, 255, 255, 255, 255, 255, 252, 63, 255, 255, 255, 255, 255
        DC8 255, 252, 63, 255, 255, 223, 255, 255, 255, 252, 63, 255, 255, 223
        DC8 255, 255, 255, 252, 63, 255, 255, 223, 255, 255, 255, 252, 63, 255
        DC8 255, 223, 255, 255, 255, 252, 63, 255, 255, 223, 255, 255, 255, 252
        DC8 63, 255, 255, 223, 255, 255, 255, 252, 63, 255, 255, 223, 255, 255
        DC8 255, 252, 63, 255, 255, 223, 255, 255, 255, 252, 63, 255, 255, 223
        DC8 255, 255, 255, 252, 63, 255, 255, 223, 255, 255, 255, 252, 63, 255
        DC8 255, 223, 255, 255, 255, 252, 63, 255, 255, 223, 255, 255, 255, 252
        DC8 63, 255, 255, 223, 255, 255, 255, 252, 63, 255, 255, 223, 255, 255
        DC8 255, 252, 63, 255, 255, 223, 255, 255, 255, 252, 63, 255, 255, 223
        DC8 255, 255, 255, 252, 63, 255, 255, 223, 255, 255, 255, 252, 63, 255
        DC8 255, 223, 255, 255, 255, 252, 63, 255, 255, 223, 255, 255, 255, 252
        DC8 63, 255, 255, 223, 255, 255, 255, 252, 63, 255, 255, 223, 255, 255
        DC8 255, 252, 63, 255, 255, 223, 255, 255, 255, 252, 63, 255, 255, 223
        DC8 255, 255, 255, 252, 63, 255, 255, 223, 255, 255, 255, 252, 63, 255
        DC8 255, 223, 255, 255, 255, 252, 63, 255, 255, 223, 255, 255, 255, 252
        DC8 63, 255, 255, 223, 255, 255, 255, 252, 63, 255, 255, 223, 255, 255
        DC8 255, 252, 63, 255, 255, 223, 255, 255, 255, 252, 63, 255, 255, 223
        DC8 255, 255, 255, 252, 63, 255, 255, 223, 255, 255, 255, 252, 63, 255
        DC8 255, 223, 255, 255, 255, 252, 63, 255, 255, 223, 255, 255, 255, 252
        DC8 63, 255, 255, 223, 255, 255, 255, 252, 63, 255, 255, 223, 255, 255
        DC8 255, 252, 63, 255, 255, 223, 255, 255, 255, 252, 63, 255, 255, 223
        DC8 255, 255, 255, 252, 63, 255, 255, 223, 255, 255, 255, 252, 63, 255
        DC8 255, 223, 255, 255, 255, 252, 63, 255, 255, 223, 255, 255, 255, 252
        DC8 63, 255, 255, 223, 255, 255, 255, 252, 63, 255, 255, 223, 255, 255
        DC8 255, 252, 63, 255, 255, 223, 255, 255, 255, 252, 63, 255, 255, 223
        DC8 255, 255, 255, 252, 63, 255, 255, 223, 255, 255, 255, 252, 63, 255
        DC8 255, 223, 255, 255, 255, 252, 63, 255, 255, 223, 255, 255, 255, 252
        DC8 63, 255, 255, 223, 255, 255, 255, 252, 63, 255, 255, 223, 255, 255
        DC8 255, 252, 63, 255, 255, 223, 255, 255, 255, 252, 63, 255, 255, 223
        DC8 255, 255, 255, 252, 63, 255, 255, 223, 255, 255, 255, 252, 63, 255
        DC8 255, 223, 255, 255, 255, 252, 63, 255, 255, 223, 255, 255, 255, 252
        DC8 63, 255, 255, 223, 255, 255, 255, 252, 63, 255, 255, 223, 255, 255
        DC8 255, 252, 63, 255, 255, 223, 255, 255, 255, 252, 63, 255, 255, 223
        DC8 255, 255, 255, 252, 63, 255, 255, 223, 255, 255, 255, 252, 63, 255
        DC8 255, 223, 255, 255, 255, 252, 63, 255, 255, 223, 255, 255, 255, 252
        DC8 63, 255, 255, 223, 255, 255, 255, 252, 63, 255, 255, 223, 255, 255
        DC8 255, 252, 63, 255, 255, 223, 255, 255, 255, 252, 63, 255, 255, 223
        DC8 255, 255, 255, 252, 63, 255, 255, 223, 255, 255, 255, 252, 63, 255
        DC8 255, 223, 255, 255, 255, 252, 63, 255, 255, 223, 255, 255, 255, 252
        DC8 63, 255, 255, 223, 255, 255, 255, 252, 63, 255, 255, 223, 255, 255
        DC8 255, 252, 63, 255, 255, 223, 255, 255, 255, 252, 63, 255, 255, 223
        DC8 255, 255, 255, 252, 63, 255, 255, 223, 255, 255, 255, 252, 63, 255
        DC8 255, 223, 255, 255, 255, 252, 63, 255, 255, 223, 255, 255, 255, 252
        DC8 63, 255, 255, 223, 255, 255, 255, 252, 63, 255, 255, 223, 255, 255
        DC8 255, 252, 63, 255, 255, 223, 255, 255, 255, 252, 63, 255, 255, 223
        DC8 255, 255, 255, 252, 63, 255, 255, 223, 255, 255, 255, 252, 63, 255
        DC8 255, 223, 255, 255, 255, 252, 63, 255, 255, 223, 255, 255, 255, 252
        DC8 63, 192, 15, 223, 255, 255, 255, 252, 63, 128, 7, 223, 255, 255
        DC8 255, 252, 63, 128, 7, 223, 255, 255, 255, 252, 63, 136, 199, 223
        DC8 255, 255, 255, 252, 63, 136, 199, 223, 255, 255, 255, 252, 63, 136
        DC8 199, 223, 255, 255, 255, 252, 63, 136, 199, 223, 255, 255, 255, 252
        DC8 63, 255, 255, 223, 255, 255, 255, 252, 63, 255, 255, 223, 255, 255
        DC8 255, 252, 63, 128, 15, 223, 255, 255, 255, 252, 63, 128, 15, 223
        DC8 255, 255, 255, 252, 63, 128, 7, 223, 255, 255, 255, 252, 63, 255
        DC8 199, 223, 255, 255, 255, 252, 63, 255, 199, 223, 255, 255, 255, 252
        DC8 63, 128, 7, 223, 255, 255, 255, 252, 63, 128, 15, 223, 255, 255
        DC8 255, 252, 63, 128, 7, 223, 255, 255, 255, 252, 63, 255, 199, 223
        DC8 255, 255, 255, 252, 63, 255, 199, 223, 255, 255, 255, 252, 63, 128
        DC8 7, 223, 255, 255, 255, 252, 63, 128, 7, 223, 255, 255, 255, 252, 63
        DC8 128, 15, 223, 255, 255, 255, 252, 63, 255, 255, 223, 255, 255, 255
        DC8 252, 63, 255, 255, 223, 255, 255, 255, 252, 63, 135, 255, 223, 255
        DC8 255, 255, 252, 63, 142, 31, 223, 255, 255, 255, 252, 63, 140, 15
        DC8 223, 255, 255, 255, 252, 63, 128, 7, 223, 255, 255, 255, 252, 63
        DC8 192, 199, 223, 255, 255, 255, 252, 63, 225, 199, 223, 255, 255, 255
        DC8 252, 63, 255, 255, 223, 255, 255, 255, 252, 63, 255, 255, 223, 255
        DC8 255, 255, 252, 63, 255, 255, 223, 255, 255, 255, 252, 63, 255, 255
        DC8 223, 255, 255, 255, 252, 63, 255, 255, 223, 255, 255, 255, 252, 63
        DC8 255, 255, 223, 255, 255, 255, 252, 63, 128, 7, 223, 255, 255, 255
        DC8 252, 63, 128, 7, 223, 255, 255, 255, 252, 63, 128, 7, 223, 255, 255
        DC8 255, 252, 63, 255, 255, 223, 255, 255, 255, 252, 63, 255, 255, 223
        DC8 255, 255, 255, 252, 63, 255, 255, 223, 255, 255, 255, 252, 63, 128
        DC8 7, 223, 255, 255, 255, 252, 63, 128, 7, 223, 255, 255, 255, 252, 63
        DC8 128, 7, 223, 255, 255, 255, 252, 63, 255, 199, 223, 255, 255, 255
        DC8 252, 63, 143, 199, 223, 255, 255, 255, 252, 63, 143, 199, 223, 255
        DC8 255, 255, 252, 63, 143, 199, 223, 255, 255, 255, 252, 63, 135, 135
        DC8 223, 255, 255, 255, 252, 63, 192, 15, 223, 255, 255, 255, 252, 63
        DC8 224, 31, 223, 255, 255, 255, 252, 63, 240, 63, 223, 255, 255, 255
        DC8 252, 63, 255, 255, 223, 255, 255, 255, 252, 63, 255, 255, 223, 255
        DC8 255, 255, 252, 63, 128, 7, 223, 255, 255, 255, 252, 63, 128, 7, 223
        DC8 255, 255, 255, 252, 63, 128, 7, 223, 255, 255, 255, 252, 63, 255
        DC8 199, 223, 255, 255, 255, 252, 63, 136, 71, 223, 255, 255, 255, 252
        DC8 63, 136, 7, 223, 255, 255, 255, 252, 63, 128, 7, 223, 255, 255, 255
        DC8 252, 63, 193, 15, 223, 255, 255, 255, 252, 63, 227, 255, 223, 255
        DC8 255, 255, 252, 63, 249, 255, 223, 255, 255, 255, 252, 63, 249, 255
        DC8 223, 255, 255, 255, 252, 63, 249, 255, 223, 255, 255, 255, 252, 63
        DC8 255, 255, 223, 255, 255, 255, 252, 63, 255, 255, 223, 255, 255, 255
        DC8 252, 63, 188, 31, 223, 255, 255, 255, 252, 63, 152, 15, 223, 255
        DC8 255, 255, 252, 63, 134, 7, 223, 255, 255, 255, 252, 63, 131, 199
        DC8 223, 255, 255, 255, 252, 63, 128, 199, 223, 255, 255, 255, 252, 63
        DC8 128, 7, 223, 255, 255, 255, 252, 63, 136, 15, 223, 255, 255, 255
        DC8 252, 63, 142, 31, 223, 255, 255, 255, 252, 63, 255, 255, 223, 255
        DC8 255, 255, 252, 63, 255, 255, 223, 255, 255, 255, 252, 63, 224, 31
        DC8 223, 255, 255, 255, 252, 63, 192, 15, 223, 255, 255, 255, 252, 63
        DC8 128, 7, 223, 255, 255, 255, 252, 63, 143, 199, 223, 255, 255, 255
        DC8 252, 63, 143, 199, 223, 255, 255, 255, 252, 63, 128, 7, 223, 255
        DC8 255, 255, 252, 63, 192, 15, 223, 255, 255, 255, 252, 63, 224, 31
        DC8 223, 255, 255, 255, 252, 63, 255, 255, 223, 255, 255, 255, 252, 63
        DC8 255, 255, 223, 255, 255, 255, 252, 63, 255, 255, 223, 255, 255, 255
        DC8 252, 63, 255, 255, 223, 255, 255, 255, 252, 63, 255, 255, 255, 255
        DC8 255, 255, 252, 63, 255, 255, 255, 255, 255, 255, 252, 63, 255, 255
        DC8 255, 255, 255, 255, 252, 63, 255, 255, 255, 255, 255, 255, 252, 63
        DC8 255, 255, 255, 255, 255, 255, 252, 63, 255, 255, 255, 255, 255, 255
        DC8 252, 63, 255, 255, 255, 255, 255, 255, 252, 63, 255, 255, 255, 255
        DC8 255, 255, 252, 31, 255, 255, 255, 255, 255, 255, 248, 0, 0, 0, 0, 0
        DC8 0, 0, 0, 0, 0, 0, 0, 0, 0, 0, 0

        SECTION `.data`:DATA:REORDER:NOROOT(2)
// __absolute unsigned char ECO_BASE[1536]
ECO_BASE:
        DATA
        DC8 0, 0, 0, 0, 127, 255, 255, 255, 0, 0, 0, 0, 127, 255, 255, 255, 0
        DC8 0, 0, 0, 127, 255, 255, 255, 0, 0, 0, 0, 127, 255, 255, 255, 0, 0
        DC8 0, 0, 127, 255, 255, 255, 0, 0, 0, 0, 127, 252, 0, 63, 0, 0, 0, 0
        DC8 127, 248, 0, 31, 0, 0, 0, 0, 127, 240, 0, 15, 0, 0, 0, 0, 127, 240
        DC8 0, 15, 0, 0, 0, 0, 127, 240, 195, 15, 0, 0, 0, 0, 127, 240, 195, 15
        DC8 0, 0, 0, 0, 127, 240, 195, 15, 0, 0, 0, 0, 127, 240, 195, 15, 0, 0
        DC8 0, 0, 127, 240, 195, 15, 0, 0, 0, 0, 127, 255, 255, 255, 0, 0, 0, 0
        DC8 127, 255, 255, 255, 0, 0, 0, 0, 127, 255, 255, 255, 0, 0, 0, 0, 127
        DC8 255, 129, 255, 0, 0, 0, 0, 127, 254, 0, 127, 0, 0, 0, 0, 127, 252
        DC8 0, 63, 0, 0, 0, 0, 127, 248, 0, 31, 0, 0, 0, 0, 127, 248, 60, 31, 0
        DC8 0, 0, 0, 127, 240, 126, 15, 0, 0, 0, 0, 127, 240, 255, 15, 0, 0, 0
        DC8 0, 127, 240, 255, 15, 0, 0, 0, 0, 127, 240, 255, 15, 0, 0, 0, 0
        DC8 127, 240, 255, 15, 0, 0, 0, 0, 127, 240, 126, 15, 0, 0, 0, 0, 127
        DC8 248, 8, 31, 0, 0, 0, 0, 127, 248, 8, 31, 0, 0, 0, 0, 127, 252, 8
        DC8 63, 0, 0, 0, 0, 127, 254, 12, 127, 0, 0, 0, 0, 127, 255, 140, 255
        DC8 0, 0, 0, 0, 127, 255, 255, 255, 0, 0, 0, 0, 127, 255, 255, 255, 0
        DC8 0, 0, 0, 127, 255, 129, 255, 0, 0, 0, 0, 127, 254, 0, 127, 0, 0, 0
        DC8 0, 127, 252, 0, 63, 0, 0, 0, 0, 127, 248, 0, 31, 0, 0, 0, 0, 127
        DC8 248, 60, 31, 0, 0, 0, 0, 127, 240, 126, 15, 0, 0, 0, 0, 127, 240
        DC8 255, 15, 0, 0, 0, 0, 127, 240, 255, 15, 0, 0, 0, 0, 127, 240, 255
        DC8 15, 0, 0, 0, 0, 127, 240, 255, 15, 0, 0, 0, 0, 127, 240, 126, 15, 0
        DC8 0, 0, 0, 127, 248, 60, 31, 0, 0, 0, 0, 127, 248, 0, 31, 0, 0, 0, 0
        DC8 127, 252, 0, 63, 0, 0, 0, 0, 127, 254, 0, 127, 0, 0, 0, 0, 127, 255
        DC8 129, 255, 0, 0, 0, 0, 127, 255, 255, 255, 0, 0, 0, 0, 127, 255, 255
        DC8 255, 0, 0, 0, 0, 127, 255, 223, 255, 0, 0, 0, 0, 127, 255, 207, 255
        DC8 0, 0, 0, 0, 127, 255, 207, 255, 0, 0, 0, 0, 127, 255, 239, 255, 0
        DC8 0, 0, 0, 127, 255, 239, 255, 0, 0, 0, 0, 127, 255, 239, 255, 0, 0
        DC8 0, 0, 127, 255, 239, 255, 0, 0, 0, 0, 127, 255, 231, 255, 0, 0, 0
        DC8 0, 127, 255, 193, 255, 0, 0, 0, 0, 127, 255, 140, 127, 0, 0, 0, 0
        DC8 127, 255, 175, 63, 0, 0, 0, 0, 127, 255, 167, 143, 0, 0, 0, 0, 127
        DC8 255, 176, 111, 0, 0, 0, 0, 127, 255, 55, 55, 0, 0, 0, 0, 127, 255
        DC8 115, 135, 0, 0, 0, 0, 127, 255, 123, 247, 0, 0, 0, 0, 127, 255, 123
        DC8 247, 0, 0, 0, 0, 127, 255, 97, 243, 0, 0, 0, 0, 127, 255, 109, 251
        DC8 0, 0, 0, 0, 127, 255, 77, 251, 0, 0, 0, 0, 127, 255, 92, 59, 0, 0
        DC8 0, 0, 127, 255, 30, 139, 0, 0, 0, 0, 127, 255, 190, 227, 0, 0, 0, 0
        DC8 127, 255, 156, 123, 0, 0, 0, 0, 127, 255, 205, 123, 0, 0, 0, 0, 127
        DC8 255, 233, 51, 0, 0, 0, 0, 127, 255, 243, 183, 0, 0, 0, 0, 127, 255
        DC8 249, 215, 0, 0, 0, 0, 127, 255, 252, 71, 0, 0, 0, 0, 127, 255, 255
        DC8 143, 0, 0, 0, 0, 127, 255, 255, 239, 0, 0, 0, 0, 127, 255, 255, 255
        DC8 0, 0, 0, 0, 127, 255, 255, 255, 0, 0, 0, 0, 127, 255, 255, 255, 0
        DC8 0, 0, 0, 127, 255, 255, 255, 0, 0, 0, 0, 127, 255, 255, 255, 0, 0
        DC8 0, 0, 127, 255, 255, 255, 0, 0, 0, 0, 127, 255, 255, 255, 0, 0, 0
        DC8 0, 127, 255, 255, 255, 0, 0, 0, 0, 127, 255, 255, 255, 0, 0, 0, 0
        DC8 127, 255, 255, 255, 0, 0, 0, 0, 127, 255, 255, 255, 0, 0, 0, 0, 127
        DC8 255, 255, 255, 0, 0, 0, 0, 127, 255, 255, 255, 0, 0, 0, 0, 127, 255
        DC8 255, 255, 0, 0, 0, 0, 127, 255, 255, 255, 0, 0, 0, 0, 127, 255, 255
        DC8 255, 0, 0, 0, 0, 127, 255, 255, 255, 0, 0, 0, 0, 127, 255, 255, 255
        DC8 0, 0, 0, 0, 127, 255, 255, 255, 0, 0, 0, 0, 127, 255, 255, 255, 0
        DC8 0, 0, 0, 127, 255, 255, 255, 0, 0, 0, 0, 127, 255, 255, 255, 0, 0
        DC8 0, 0, 127, 255, 255, 255, 0, 0, 0, 0, 127, 255, 255, 255, 0, 0, 0
        DC8 0, 127, 255, 255, 255, 0, 0, 0, 0, 127, 255, 255, 255, 0, 0, 0, 0
        DC8 127, 255, 255, 255, 0, 0, 0, 0, 127, 255, 255, 255, 0, 0, 0, 0, 127
        DC8 255, 255, 255, 0, 0, 0, 0, 127, 255, 255, 255, 0, 0, 0, 0, 127, 255
        DC8 255, 255, 0, 0, 0, 0, 127, 255, 255, 255, 0, 0, 0, 0, 127, 255, 255
        DC8 255, 0, 0, 0, 0, 127, 255, 255, 255, 0, 0, 0, 0, 127, 255, 255, 255
        DC8 0, 0, 0, 0, 127, 255, 255, 255, 0, 0, 0, 0, 127, 255, 255, 255, 0
        DC8 0, 0, 0, 127, 255, 255, 255, 0, 0, 0, 0, 127, 255, 255, 255, 0, 0
        DC8 0, 0, 127, 255, 255, 255, 0, 0, 0, 0, 127, 255, 255, 255, 0, 0, 0
        DC8 0, 127, 255, 255, 255, 0, 0, 0, 0, 127, 255, 255, 255, 0, 0, 0, 0
        DC8 127, 255, 255, 255, 0, 0, 0, 0, 127, 255, 255, 255, 0, 0, 0, 0, 127
        DC8 255, 255, 255, 0, 0, 0, 0, 127, 255, 255, 255, 0, 0, 0, 0, 127, 255
        DC8 255, 255, 0, 0, 0, 0, 127, 255, 255, 255, 0, 0, 0, 0, 127, 255, 255
        DC8 255, 0, 0, 0, 0, 127, 255, 255, 255, 0, 0, 0, 0, 127, 255, 255, 255
        DC8 0, 0, 0, 0, 127, 255, 255, 255, 0, 0, 0, 0, 127, 255, 255, 255, 0
        DC8 0, 0, 0, 127, 255, 255, 255, 0, 0, 0, 0, 127, 255, 255, 255, 0, 0
        DC8 0, 0, 127, 255, 255, 255, 0, 0, 0, 0, 127, 255, 255, 255, 0, 0, 0
        DC8 0, 127, 255, 255, 255, 0, 0, 0, 0, 127, 255, 255, 255, 0, 0, 0, 0
        DC8 127, 255, 255, 255, 0, 0, 0, 0, 127, 255, 255, 255, 0, 0, 0, 0, 127
        DC8 255, 255, 255, 0, 0, 0, 0, 127, 255, 255, 255, 0, 0, 0, 0, 127, 255
        DC8 255, 255, 0, 0, 0, 0, 127, 255, 255, 255, 0, 0, 0, 0, 127, 255, 255
        DC8 255, 0, 0, 0, 0, 127, 255, 255, 255, 0, 0, 0, 0, 127, 255, 255, 255
        DC8 0, 0, 0, 0, 127, 255, 255, 255, 0, 0, 0, 0, 127, 255, 255, 255, 0
        DC8 0, 0, 0, 127, 255, 255, 255, 0, 0, 0, 0, 127, 255, 255, 255, 0, 0
        DC8 0, 0, 127, 255, 255, 255, 0, 0, 0, 0, 127, 255, 255, 255, 0, 0, 0
        DC8 0, 127, 255, 255, 255, 0, 0, 0, 0, 127, 255, 255, 255, 0, 0, 0, 0
        DC8 127, 255, 255, 255, 0, 0, 0, 0, 127, 255, 255, 255, 0, 0, 0, 0, 127
        DC8 255, 255, 255, 0, 0, 0, 0, 127, 255, 255, 255, 0, 0, 0, 0, 127, 255
        DC8 255, 255, 0, 0, 0, 0, 127, 255, 255, 255, 0, 0, 0, 0, 127, 255, 255
        DC8 255, 0, 0, 0, 0, 127, 255, 255, 255, 0, 0, 0, 0, 127, 255, 255, 255
        DC8 0, 0, 0, 0, 127, 255, 255, 255, 0, 0, 0, 0, 127, 255, 255, 255, 0
        DC8 0, 0, 0, 127, 255, 255, 255, 0, 0, 0, 0, 127, 255, 255, 255, 0, 0
        DC8 0, 0, 127, 255, 255, 255, 0, 0, 0, 0, 127, 255, 255, 255, 0, 0, 0
        DC8 0, 127, 255, 255, 255, 0, 0, 0, 0, 127, 255, 255, 255, 0, 0, 0, 0
        DC8 127, 255, 255, 255, 0, 0, 0, 0, 127, 255, 255, 255, 0, 0, 0, 0, 127
        DC8 255, 255, 255, 0, 0, 0, 0, 127, 255, 255, 255, 0, 0, 0, 0, 127, 255
        DC8 255, 255, 0, 0, 0, 0, 127, 255, 255, 255, 0, 0, 0, 0, 127, 255, 159
        DC8 253, 0, 0, 0, 0, 127, 255, 255, 249, 0, 0, 0, 0, 127, 255, 135, 245
        DC8 0, 0, 0, 0, 127, 255, 255, 1, 0, 0, 0, 0, 127, 255, 129, 245, 0, 0
        DC8 0, 0, 127, 255, 255, 249, 0, 0, 0, 0, 127, 255, 128, 125, 0, 0, 0
        DC8 0, 127, 255, 255, 255

        SECTION `.data`:DATA:REORDER:NOROOT(2)
// __absolute unsigned char Input_BASE[1536]
Input_BASE:
        DATA
        DC8 255, 255, 255, 255, 255, 255, 255, 255, 128, 0, 0, 0, 0, 0, 0, 1
        DC8 128, 0, 0, 0, 0, 0, 0, 1, 128, 0, 0, 0, 0, 0, 0, 1, 128, 0, 0, 0, 0
        DC8 0, 0, 1, 128, 0, 0, 0, 0, 0, 0, 1, 128, 0, 0, 0, 0, 0, 0, 1, 128, 0
        DC8 0, 0, 0, 0, 0, 1, 128, 0, 0, 0, 0, 0, 0, 1, 128, 0, 0, 0, 0, 0, 0
        DC8 1, 128, 0, 0, 0, 0, 0, 0, 1, 128, 0, 0, 0, 0, 0, 0, 1, 128, 0, 0, 0
        DC8 0, 0, 0, 1, 128, 0, 0, 0, 0, 0, 0, 1, 128, 0, 0, 0, 0, 0, 0, 1, 152
        DC8 7, 241, 128, 96, 31, 199, 241, 135, 4, 144, 112, 28, 16, 0, 129
        DC8 132, 196, 144, 76, 19, 16, 1, 65, 132, 196, 144, 76, 19, 16, 2, 33
        DC8 135, 4, 144, 112, 28, 0, 4, 17, 152, 3, 97, 128, 96, 31, 64, 1, 128
        DC8 0, 0, 0, 0, 0, 3, 129, 159, 71, 193, 244, 125, 78, 5, 65, 128, 0
        DC8 64, 0, 0, 81, 5, 65, 159, 0, 1, 240, 124, 81, 1, 129, 129, 3, 128
        DC8 16, 4, 63, 0, 1, 128, 5, 64, 0, 0, 0, 19, 193, 128, 5, 64, 224, 56
        DC8 31, 212, 1, 128, 1, 129, 16, 68, 2, 15, 193, 159, 192, 1, 16, 68, 1
        DC8 0, 1, 130, 66, 0, 160, 40, 30, 0, 1, 130, 69, 64, 0, 0, 0, 0, 1
        DC8 130, 69, 64, 224, 56, 15, 131, 225, 130, 71, 129, 16, 68, 17, 4, 17
        DC8 129, 128, 1, 16, 68, 0, 4, 17, 128, 7, 241, 16, 68, 0, 4, 17, 159
        DC8 1, 128, 224, 56, 0, 4, 17, 129, 2, 64, 0, 0, 0, 3, 225, 128, 4, 1
        DC8 240, 124, 0, 0, 1, 142, 0, 0, 16, 4, 0, 7, 193, 149, 0, 0, 16, 4, 0
        DC8 0, 65, 149, 0, 1, 224, 120, 0, 0, 65, 134, 0, 0, 0, 0, 0, 7, 129
        DC8 128, 0, 0, 0, 0, 0, 0, 1, 146, 0, 0, 0, 0, 0, 0, 1, 149, 0, 1, 252
        DC8 127, 0, 0, 1, 149, 0, 0, 36, 9, 0, 0, 1, 137, 0, 0, 36, 9, 0, 0, 1
        DC8 128, 0, 0, 36, 9, 0, 0, 1, 146, 0, 0, 36, 1, 0, 0, 1, 149, 0, 0, 24
        DC8 0, 0, 0, 1, 149, 0, 0, 0, 32, 0, 0, 1, 137, 0, 0, 112, 84, 0, 0, 1
        DC8 128, 0, 1, 128, 84, 0, 0, 1, 132, 0, 0, 96, 120, 0, 0, 1, 132, 0, 1
        DC8 128, 0, 0, 0, 1, 128, 0, 0, 112, 124, 0, 0, 1, 128, 128, 0, 0, 4, 0
        DC8 0, 1, 159, 192, 1, 240, 4, 0, 0, 1, 128, 0, 0, 16, 120, 0, 0, 1
        DC8 128, 0, 0, 0, 0, 0, 0, 1, 128, 0, 0, 0, 0, 0, 0, 1, 128, 0, 0, 0, 0
        DC8 0, 0, 1, 128, 0, 0, 0, 0, 0, 0, 1, 128, 0, 0, 0, 0, 0, 0, 1, 128, 0
        DC8 0, 0, 0, 0, 0, 1, 255, 255, 255, 255, 255, 255, 255, 255, 128, 0, 0
        DC8 0, 0, 0, 0, 1, 128, 0, 0, 0, 0, 0, 0, 1, 128, 0, 0, 0, 0, 0, 0, 1
        DC8 128, 0, 0, 0, 0, 0, 0, 1, 128, 0, 0, 0, 0, 0, 0, 1, 128, 0, 0, 0, 0
        DC8 0, 0, 1, 128, 0, 0, 0, 0, 0, 0, 1, 128, 0, 0, 0, 0, 0, 0, 1, 128, 0
        DC8 0, 0, 0, 0, 0, 1, 128, 0, 0, 0, 0, 0, 0, 1, 128, 0, 0, 0, 0, 0, 0
        DC8 1, 128, 0, 0, 0, 0, 0, 0, 1, 159, 195, 225, 128, 96, 31, 195, 225
        DC8 130, 68, 16, 112, 28, 2, 68, 17, 130, 68, 16, 76, 19, 2, 68, 17
        DC8 130, 68, 16, 76, 19, 2, 68, 145, 128, 68, 16, 112, 28, 2, 66, 145
        DC8 128, 2, 33, 128, 96, 1, 135, 161, 159, 0, 0, 0, 0, 0, 0, 1, 129, 3
        DC8 128, 240, 60, 8, 3, 129, 128, 4, 65, 0, 64, 21, 5, 65, 142, 4, 65
        DC8 0, 64, 21, 5, 65, 145, 4, 65, 240, 124, 30, 1, 129, 145, 3, 128, 0
        DC8 0, 0, 0, 1, 145, 0, 0, 248, 62, 31, 2, 1, 142, 3, 129, 16, 68, 1, 5
        DC8 65, 128, 4, 64, 0, 0, 0, 5, 65, 159, 4, 64, 224, 56, 31, 199, 129
        DC8 129, 4, 65, 16, 68, 6, 0, 1, 129, 3, 129, 16, 68, 9, 7, 193, 158, 0
        DC8 1, 16, 68, 16, 0, 65, 128, 7, 240, 224, 56, 0, 0, 1, 143, 128, 0, 0
        DC8 0, 31, 64, 1, 145, 0, 0, 0, 0, 0, 0, 1, 128, 0, 0, 0, 0, 31, 2, 97
        DC8 128, 0, 49, 252, 127, 1, 4, 145, 128, 1, 192, 12, 65, 1, 4, 145
        DC8 159, 198, 0, 48, 65, 30, 4, 145, 144, 65, 128, 192, 65, 0, 3, 33
        DC8 144, 70, 1, 0, 65, 78, 0, 1, 144, 65, 193, 252, 62, 81, 3, 225, 144
        DC8 64, 48, 0, 0, 81, 4, 65, 143, 128, 0, 0, 0, 63, 0, 1, 128, 2, 0, 0
        DC8 0, 0, 4, 129, 142, 5, 64, 0, 0, 0, 5, 65, 145, 5, 64, 0, 0, 0, 5
        DC8 65, 145, 7, 128, 0, 0, 0, 2, 65, 145, 0, 0, 0, 0, 0, 0, 1, 142, 3
        DC8 224, 0, 0, 0, 0, 1, 128, 4, 64, 0, 0, 0, 0, 1, 142, 0, 0, 0, 0, 0
        DC8 0, 1, 145, 3, 128, 0, 0, 0, 0, 1, 145, 5, 64, 0, 0, 0, 0, 1, 145, 5
        DC8 64, 0, 0, 0, 0, 1, 142, 1, 128, 0, 0, 0, 0, 1, 128, 0, 0, 0, 0, 0
        DC8 0, 1, 159, 7, 192, 0, 0, 0, 0, 1, 129, 0, 64, 0, 0, 0, 0, 1, 128, 0
        DC8 0, 0, 0, 0, 0, 1, 128, 0, 0, 0, 0, 0, 0, 1, 128, 0, 0, 0, 0, 0, 0
        DC8 1, 255, 255, 255, 255, 255, 255, 255, 255, 128, 0, 0, 0, 0, 0, 0, 1
        DC8 128, 0, 0, 0, 0, 0, 0, 1, 128, 0, 0, 0, 0, 0, 0, 1, 128, 0, 0, 0, 0
        DC8 0, 0, 1, 128, 0, 0, 0, 0, 0, 0, 1, 128, 0, 0, 0, 0, 0, 0, 1, 128, 0
        DC8 0, 0, 0, 0, 0, 1, 128, 0, 0, 0, 0, 0, 0, 1, 128, 0, 0, 0, 0, 0, 0
        DC8 1, 128, 0, 0, 0, 0, 0, 0, 1, 128, 0, 0, 0, 0, 0, 0, 1, 128, 0, 0, 0
        DC8 0, 0, 0, 1, 128, 0, 0, 0, 0, 0, 0, 1, 128, 0, 0, 0, 0, 0, 0, 1, 159
        DC8 199, 240, 152, 62, 31, 198, 1, 130, 64, 145, 36, 65, 2, 65, 193
        DC8 130, 64, 145, 36, 65, 2, 65, 49, 130, 64, 145, 36, 65, 2, 65, 49
        DC8 130, 64, 144, 200, 65, 2, 65, 193, 157, 135, 96, 0, 34, 1, 134, 1
        DC8 128, 0, 0, 248, 0, 0, 0, 1, 142, 3, 129, 16, 127, 0, 71, 209, 149
        DC8 5, 64, 0, 0, 0, 64, 1, 149, 5, 64, 128, 60, 31, 199, 193, 134, 1
        DC8 129, 80, 64, 0, 64, 65, 128, 0, 1, 80, 64, 0, 64, 1, 136, 4, 129
        DC8 224, 124, 0, 1, 1, 149, 5, 64, 0, 0, 15, 193, 1, 149, 5, 65, 240
        DC8 56, 16, 0, 1, 158, 2, 64, 16, 68, 16, 31, 193, 128, 0, 0, 0, 68, 16
        DC8 4, 65, 159, 3, 128, 248, 40, 15, 196, 65, 129, 5, 65, 16, 0, 0, 3
        DC8 129, 128, 5, 64, 0, 127, 0, 0, 1, 128, 1, 128, 0, 8, 0, 0, 1, 128
        DC8 0, 0, 0, 4, 0, 0, 1, 159, 199, 193, 252, 120, 0, 6, 1, 144, 64, 64
        DC8 32, 0, 0, 1, 193, 144, 64, 0, 80, 0, 0, 1, 49, 144, 65, 192, 136, 0
        DC8 0, 1, 49, 144, 70, 1, 4, 0, 0, 1, 193, 143, 134, 0, 0, 0, 0, 6, 1
        DC8 128, 1, 192, 224, 0, 0, 0, 1, 142, 0, 1, 80, 0, 0, 3, 129, 145, 3
        DC8 129, 80, 0, 0, 4, 65, 145, 5, 64, 96, 0, 0, 4, 65, 145, 5, 64, 0, 0
        DC8 0, 2, 129, 142, 1, 132, 240, 0, 0, 0, 1, 128, 0, 5, 0, 0, 0, 3, 129
        DC8 142, 0, 3, 240, 0, 0, 4, 65, 145, 0, 0, 0, 0, 0, 4, 65, 145, 0, 0
        DC8 0, 0, 0, 2, 129, 145, 0, 0, 0, 0, 0, 0, 1, 142, 0, 0, 0, 0, 0, 0, 1
        DC8 128, 0, 0, 0, 0, 0, 0, 1, 159, 0, 0, 0, 0, 0, 0, 1, 129, 0, 0, 0, 0
        DC8 0, 0, 1, 128, 0, 0, 0, 0, 0, 0, 1, 128, 0, 0, 0, 0, 0, 0, 1, 128, 0
        DC8 0, 0, 0, 0, 0, 1, 128, 0, 0, 0, 0, 0, 0, 1, 128, 0, 0, 0, 0, 0, 0
        DC8 1, 255, 255, 255, 255, 255, 255, 255, 255

        SECTION `.data`:DATA:REORDER:NOROOT(2)
// __absolute unsigned char Output_BASE[1536]
Output_BASE:
        DATA
        DC8 255, 255, 255, 255, 255, 255, 255, 255, 128, 0, 0, 0, 0, 0, 0, 1
        DC8 128, 0, 0, 0, 0, 0, 0, 1, 128, 0, 0, 0, 0, 0, 0, 1, 128, 0, 0, 0, 0
        DC8 0, 0, 1, 128, 0, 0, 0, 0, 0, 0, 1, 128, 0, 0, 0, 0, 0, 0, 1, 128, 0
        DC8 0, 0, 0, 0, 0, 1, 128, 0, 0, 0, 0, 0, 0, 1, 128, 0, 0, 0, 0, 0, 0
        DC8 1, 128, 0, 0, 0, 0, 0, 0, 1, 128, 0, 0, 0, 0, 0, 0, 1, 128, 0, 0, 0
        DC8 0, 0, 0, 1, 128, 0, 0, 0, 0, 0, 0, 1, 128, 96, 0, 7, 240, 0, 127, 1
        DC8 128, 28, 0, 4, 144, 0, 73, 1, 128, 19, 0, 4, 144, 0, 73, 1, 128, 19
        DC8 0, 4, 144, 0, 73, 1, 128, 28, 0, 4, 16, 0, 73, 1, 128, 96, 0, 0, 0
        DC8 0, 54, 1, 128, 0, 0, 7, 192, 0, 0, 1, 128, 125, 0, 0, 64, 0, 60, 1
        DC8 128, 0, 0, 0, 64, 0, 64, 1, 128, 124, 0, 7, 128, 0, 64, 1, 128, 4
        DC8 0, 0, 0, 0, 124, 1, 128, 0, 0, 19, 128, 0, 0, 1, 128, 56, 0, 20, 64
        DC8 0, 100, 1, 128, 68, 0, 20, 64, 0, 84, 1, 128, 68, 0, 15, 192, 0, 76
        DC8 1, 128, 40, 0, 0, 0, 0, 0, 1, 128, 0, 0, 7, 208, 0, 100, 1, 128, 56
        DC8 0, 0, 0, 0, 84, 1, 128, 68, 0, 7, 192, 0, 76, 1, 128, 68, 0, 0, 64
        DC8 0, 0, 1, 128, 68, 0, 0, 64, 0, 56, 1, 128, 56, 0, 7, 128, 0, 84, 1
        DC8 128, 0, 0, 0, 0, 0, 84, 1, 128, 124, 0, 3, 128, 0, 24, 1, 128, 4, 0
        DC8 5, 64, 0, 0, 1, 128, 4, 0, 5, 64, 0, 124, 1, 128, 120, 0, 1, 128, 0
        DC8 4, 1, 128, 0, 0, 0, 0, 0, 0, 1, 128, 0, 0, 0, 0, 0, 0, 1, 128, 0, 0
        DC8 0, 0, 0, 0, 1, 128, 127, 0, 0, 0, 0, 0, 1, 128, 9, 0, 0, 0, 0, 0, 1
        DC8 128, 9, 0, 0, 0, 0, 0, 1, 128, 9, 0, 0, 0, 0, 0, 1, 128, 1, 0, 0, 0
        DC8 0, 0, 1, 128, 0, 0, 0, 0, 0, 0, 1, 128, 32, 0, 0, 0, 0, 0, 1, 128
        DC8 84, 0, 0, 0, 0, 0, 1, 128, 84, 0, 0, 0, 0, 0, 1, 128, 120, 0, 0, 0
        DC8 0, 0, 1, 128, 0, 0, 0, 0, 0, 0, 1, 128, 124, 0, 0, 0, 0, 0, 1, 128
        DC8 4, 0, 0, 0, 0, 0, 1, 128, 4, 0, 0, 0, 0, 0, 1, 128, 120, 0, 0, 0, 0
        DC8 0, 1, 128, 0, 0, 0, 0, 0, 0, 1, 128, 0, 0, 0, 0, 0, 0, 1, 128, 0, 0
        DC8 0, 0, 0, 0, 1, 128, 0, 0, 0, 0, 0, 0, 1, 128, 0, 0, 0, 0, 0, 0, 1
        DC8 128, 0, 0, 0, 0, 0, 0, 1, 128, 0, 0, 0, 0, 0, 0, 1, 255, 255, 255
        DC8 255, 255, 255, 255, 255, 128, 0, 0, 0, 0, 0, 0, 1, 128, 0, 0, 0, 0
        DC8 0, 0, 1, 128, 0, 0, 0, 0, 0, 0, 1, 128, 0, 0, 0, 0, 0, 0, 1, 128, 0
        DC8 0, 0, 0, 0, 0, 1, 128, 0, 0, 0, 0, 0, 0, 1, 128, 0, 0, 0, 0, 0, 0
        DC8 1, 128, 0, 0, 0, 0, 0, 0, 1, 128, 0, 0, 0, 0, 0, 0, 1, 128, 0, 0, 0
        DC8 0, 0, 0, 1, 128, 0, 0, 0, 0, 0, 0, 1, 128, 0, 0, 0, 0, 0, 0, 1, 128
        DC8 0, 0, 0, 0, 0, 0, 1, 128, 127, 0, 7, 240, 0, 96, 1, 128, 64, 0, 0
        DC8 128, 0, 28, 1, 128, 64, 0, 1, 64, 0, 19, 1, 128, 64, 0, 2, 32, 0
        DC8 19, 1, 128, 0, 0, 4, 16, 0, 28, 1, 128, 125, 0, 0, 0, 0, 96, 1, 128
        DC8 0, 0, 3, 128, 0, 0, 1, 129, 56, 0, 5, 64, 0, 125, 1, 129, 68, 0, 5
        DC8 64, 0, 0, 1, 129, 68, 0, 1, 128, 0, 124, 1, 128, 252, 0, 0, 0, 0, 4
        DC8 1, 128, 0, 0, 19, 192, 0, 0, 1, 128, 127, 0, 20, 0, 0, 56, 1, 128
        DC8 8, 0, 15, 192, 0, 68, 1, 128, 4, 0, 0, 0, 0, 68, 1, 128, 120, 0, 0
        DC8 0, 0, 40, 1, 128, 0, 0, 0, 0, 0, 0, 1, 128, 62, 0, 3, 224, 0, 56, 1
        DC8 128, 68, 0, 4, 16, 0, 68, 1, 128, 0, 0, 4, 16, 0, 68, 1, 128, 0, 0
        DC8 4, 16, 0, 68, 1, 128, 0, 0, 4, 16, 0, 56, 1, 128, 0, 0, 3, 224, 0
        DC8 0, 1, 128, 0, 0, 0, 0, 0, 124, 1, 128, 0, 0, 7, 192, 0, 4, 1, 128
        DC8 0, 0, 0, 64, 0, 4, 1, 128, 0, 0, 0, 64, 0, 120, 1, 128, 0, 0, 7
        DC8 128, 0, 0, 1, 128, 0, 0, 0, 0, 0, 0, 1, 128, 0, 0, 0, 0, 0, 0, 1
        DC8 128, 0, 0, 0, 0, 0, 38, 1, 128, 0, 0, 0, 0, 0, 73, 1, 128, 0, 0, 0
        DC8 0, 0, 73, 1, 128, 0, 0, 0, 0, 0, 73, 1, 128, 0, 0, 0, 0, 0, 50, 1
        DC8 128, 0, 0, 0, 0, 0, 0, 1, 128, 0, 0, 0, 0, 0, 3, 1, 128, 0, 0, 0, 0
        DC8 0, 28, 1, 128, 0, 0, 0, 0, 0, 96, 1, 128, 0, 0, 0, 0, 0, 24, 1, 128
        DC8 0, 0, 0, 0, 0, 96, 1, 128, 0, 0, 0, 0, 0, 28, 1, 128, 0, 0, 0, 0, 0
        DC8 3, 1, 128, 0, 0, 0, 0, 0, 0, 1, 128, 0, 0, 0, 0, 0, 0, 1, 128, 0, 0
        DC8 0, 0, 0, 0, 1, 128, 0, 0, 0, 0, 0, 0, 1, 128, 0, 0, 0, 0, 0, 0, 1
        DC8 255, 255, 255, 255, 255, 255, 255, 255, 128, 0, 0, 0, 0, 0, 0, 1
        DC8 128, 0, 0, 0, 0, 0, 0, 1, 128, 0, 0, 0, 0, 0, 0, 1, 128, 0, 0, 0, 0
        DC8 0, 0, 1, 128, 0, 0, 0, 0, 0, 0, 1, 128, 0, 0, 0, 0, 0, 0, 1, 128, 0
        DC8 0, 0, 0, 0, 0, 1, 128, 0, 0, 0, 0, 0, 0, 1, 128, 0, 0, 0, 0, 0, 0
        DC8 1, 128, 0, 0, 0, 0, 0, 0, 1, 128, 0, 0, 0, 0, 0, 0, 1, 128, 0, 0, 0
        DC8 0, 0, 0, 1, 128, 1, 1, 128, 15, 224, 127, 1, 128, 1, 0, 112, 1, 0
        DC8 8, 1, 128, 127, 0, 76, 1, 0, 8, 1, 128, 1, 0, 76, 1, 0, 8, 1, 128
        DC8 1, 0, 112, 1, 0, 8, 1, 128, 0, 1, 128, 15, 224, 127, 1, 128, 60, 0
        DC8 0, 0, 0, 0, 1, 128, 64, 1, 244, 7, 0, 56, 1, 128, 64, 0, 0, 8, 128
        DC8 84, 1, 128, 124, 1, 240, 8, 128, 84, 1, 128, 0, 0, 16, 8, 128, 24
        DC8 1, 128, 124, 0, 0, 7, 0, 0, 1, 128, 4, 0, 224, 0, 0, 32, 1, 128, 0
        DC8 1, 16, 15, 128, 84, 1, 128, 124, 1, 16, 0, 128, 84, 1, 128, 4, 0
        DC8 160, 0, 0, 120, 1, 128, 4, 0, 0, 15, 128, 0, 1, 128, 120, 0, 224, 0
        DC8 128, 62, 1, 128, 0, 1, 16, 0, 128, 68, 1, 128, 0, 1, 16, 15, 0, 0
        DC8 1, 128, 0, 1, 16, 0, 0, 56, 1, 128, 62, 0, 224, 0, 0, 84, 1, 128
        DC8 65, 0, 0, 0, 0, 84, 1, 128, 65, 1, 240, 0, 0, 24, 1, 128, 65, 0, 16
        DC8 0, 0, 0, 1, 128, 65, 0, 16, 0, 0, 124, 1, 128, 62, 1, 224, 0, 0, 4
        DC8 1, 128, 0, 0, 0, 0, 0, 0, 1, 128, 62, 0, 0, 0, 0, 0, 1, 128, 65, 0
        DC8 0, 0, 0, 0, 1, 128, 65, 1, 252, 0, 0, 0, 1, 128, 65, 0, 36, 0, 0, 0
        DC8 1, 128, 65, 0, 36, 0, 0, 0, 1, 128, 34, 0, 36, 0, 0, 0, 1, 128, 0
        DC8 0, 36, 0, 0, 0, 1, 128, 0, 0, 24, 0, 0, 0, 1, 128, 0, 0, 0, 0, 0, 0
        DC8 1, 128, 0, 0, 112, 0, 0, 0, 1, 128, 0, 1, 128, 0, 0, 0, 1, 128, 0
        DC8 0, 96, 0, 0, 0, 1, 128, 0, 1, 128, 0, 0, 0, 1, 128, 0, 0, 112, 0, 0
        DC8 0, 1, 128, 0, 0, 0, 0, 0, 0, 1, 128, 0, 1, 240, 0, 0, 0, 1, 128, 0
        DC8 0, 16, 0, 0, 0, 1, 128, 0, 0, 0, 0, 0, 0, 1, 128, 0, 0, 0, 0, 0, 0
        DC8 1, 128, 0, 0, 0, 0, 0, 0, 1, 128, 0, 0, 0, 0, 0, 0, 1, 128, 0, 0, 0
        DC8 0, 0, 0, 1, 255, 255, 255, 255, 255, 255, 255, 255
//    4 #include "display.h"
//    5 #include "History.h"
//    6 

        SECTION `.bss`:DATA:REORDER:NOROOT(0)
//    7 u8 Cursor_X;
Cursor_X:
        DS8 1

        SECTION `.bss`:DATA:REORDER:NOROOT(0)
//    8 u8 Cursor_Y;
Cursor_Y:
        DS8 1

        SECTION `.bss`:DATA:REORDER:NOROOT(0)
//    9 u8 Cursor_View;
Cursor_View:
        DS8 1
//   10 

        SECTION `.bss`:DATA:REORDER:NOROOT(2)
//   11 u8 GLCD_Buffer[2000];
GLCD_Buffer:
        DS8 2000

        SECTION `.bss`:DATA:REORDER:NOROOT(2)
//   12 u8 GLCD_Data[2000];
GLCD_Data:
        DS8 2000

        SECTION `.bss`:DATA:REORDER:NOROOT(1)
//   13 u16 GLCD_Buffer_Cnt;
GLCD_Buffer_Cnt:
        DS8 2

        SECTION `.bss`:DATA:REORDER:NOROOT(0)
//   14 u8 GLCD_OUT_Flag;
GLCD_OUT_Flag:
        DS8 1
//   15 

        SECTION `.text`:CODE:NOROOT(1)
        CFI Block cfiBlock1 Using cfiCommon0
        CFI Function SetCursor
        THUMB
//   16 void SetCursor(unsigned char x,unsigned char y, unsigned char View)
//   17 {
//   18      Cursor_X = x;
SetCursor:
        LDR.W    R3,??DataTable24_1
        STRB     R0,[R3, #+0]
//   19      Cursor_Y = y;
        LDR.W    R0,??DataTable24_2
        STRB     R1,[R0, #+0]
//   20      Cursor_View = View;     
        LDR.W    R0,??DataTable24_3
        STRB     R2,[R0, #+0]
//   21 }
        BX       LR               ;; return
        CFI EndBlock cfiBlock1
//   22 

        SECTION `.text`:CODE:NOROOT(1)
        CFI Block cfiBlock2 Using cfiCommon0
        CFI Function GLcd_Config
        THUMB
//   23 void GLcd_Config(void)   // LCD 초기화
//   24 {
GLcd_Config:
        PUSH     {LR}
        CFI R14 Frame(CFA, -4)
        CFI CFA R13+4
        SUB      SP,SP,#+12
        CFI CFA R13+16
//   25   
//   26     GPIO_InitTypeDef GPIO_InitStructure;
//   27     RCC_AHB1PeriphClockCmd(RCC_AHB1Periph_GPIOF, ENABLE);    // 컨트롤 비트
        MOVS     R1,#+1
        MOVS     R0,#+32
        BL       RCC_AHB1PeriphClockCmd
//   28     RCC_AHB1PeriphClockCmd(RCC_AHB1Periph_GPIOD, ENABLE);    // 컨트롤 비트
        MOVS     R1,#+1
        MOVS     R0,#+8
        BL       RCC_AHB1PeriphClockCmd
//   29     RCC_AHB1PeriphClockCmd(RCC_AHB1Periph_GPIOC, ENABLE);    // 백라이트
        MOVS     R1,#+1
        MOVS     R0,#+4
        BL       RCC_AHB1PeriphClockCmd
//   30 
//   31     GPIO_InitStructure.GPIO_Pin =  LCD_DC_PIN | LCD_RC_PIN;
        MOVS     R0,#+3
        STR      R0,[SP, #+0]
//   32     GPIO_InitStructure.GPIO_Mode = GPIO_Mode_OUT;
        MOVS     R0,#+1
        STRB     R0,[SP, #+4]
//   33     GPIO_InitStructure.GPIO_Speed = GPIO_Speed_50MHz;
        MOVS     R0,#+2
        STRB     R0,[SP, #+5]
//   34     GPIO_InitStructure.GPIO_OType = GPIO_OType_PP;
        MOVS     R0,#+0
        STRB     R0,[SP, #+6]
//   35     GPIO_InitStructure.GPIO_PuPd = GPIO_PuPd_UP;
        MOVS     R0,#+1
        STRB     R0,[SP, #+7]
//   36     GPIO_Init(LCD_CONTROL_PORT, &GPIO_InitStructure);  
        ADD      R1,SP,#+0
        LDR.W    R0,??DataTable24_4  ;; 0x40020800
        BL       GPIO_Init
//   37 
//   38     GPIO_InitStructure.GPIO_Pin = GPIO_Pin_0 | GPIO_Pin_1 | GPIO_Pin_2 | GPIO_Pin_3 | GPIO_Pin_4 | GPIO_Pin_5;	
        MOVS     R0,#+63
        STR      R0,[SP, #+0]
//   39     GPIO_Init(LCD_DATA_LINE_PORT1, &GPIO_InitStructure);   
        ADD      R1,SP,#+0
        LDR.W    R0,??DataTable24  ;; 0x40021400
        BL       GPIO_Init
//   40     
//   41     GPIO_InitStructure.GPIO_Pin = GPIO_Pin_2 | GPIO_Pin_3;
        MOVS     R0,#+12
        STR      R0,[SP, #+0]
//   42     GPIO_Init(LCD_DATA_LINE_PORT2, &GPIO_InitStructure);             
        ADD      R1,SP,#+0
        LDR.W    R0,??DataTable24_4  ;; 0x40020800
        BL       GPIO_Init
//   43     
//   44     GPIO_InitStructure.GPIO_Pin =  LCD_BACKLIGHT;
        MOV      R0,#+2048
        STR      R0,[SP, #+0]
//   45     GPIO_Init(LCD_BACKLIGHT_PORT, &GPIO_InitStructure);  
        ADD      R1,SP,#+0
        LDR.W    R0,??DataTable24  ;; 0x40021400
        BL       GPIO_Init
//   46     
//   47 }
        POP      {R0-R2,PC}       ;; return
        CFI EndBlock cfiBlock2

        SECTION `.text`:CODE:NOROOT(1)
        CFI Block cfiBlock3 Using cfiCommon0
        CFI Function GLcd_HW_Reset
        THUMB
//   48 void GLcd_HW_Reset(void)
//   49 {
GLcd_HW_Reset:
        PUSH     {R4,LR}
        CFI R14 Frame(CFA, -4)
        CFI R4 Frame(CFA, -8)
        CFI CFA R13+8
//   50     u16 ResetTime = 0;
        MOVS     R4,#+0
//   51 
//   52     GPIO_ResetBits(LCD_CONTROL_PORT,LCD_RC_PIN);  
        MOVS     R1,#+1
        LDR.W    R0,??DataTable24_4  ;; 0x40020800
        BL       GPIO_ResetBits
//   53     GPIO_ResetBits(LCD_CONTROL_PORT,LCD_DC_PIN);  
        MOVS     R1,#+2
        LDR.W    R0,??DataTable24_4  ;; 0x40020800
        BL       GPIO_ResetBits
//   54     ResetTime = MS_TIMER;
        LDR.W    R0,??DataTable24_5  ;; 0x40000c00
        BL       TIM_GetCounter
        MOVS     R4,R0
//   55     GLcd_RC_Input( 0 ); // 리셋
        MOVS     R0,#+0
        BL       GLcd_RC_Input
//   56 
//   57     while(!CheckTimeOver(100,ResetTime));
??GLcd_HW_Reset_0:
        MOVS     R1,R4
        UXTH     R1,R1            ;; ZeroExt  R1,R1,#+16,#+16
        MOVS     R0,#+100
        BL       CheckTimeOver
        CMP      R0,#+0
        BEQ.N    ??GLcd_HW_Reset_0
//   58     GLcd_RC_Input( LCD_RESET ); // 클리어
        MOVS     R0,#+8
        BL       GLcd_RC_Input
//   59 
//   60 }
        POP      {R4,PC}          ;; return
        CFI EndBlock cfiBlock3
//   61 
//   62 

        SECTION `.text`:CODE:NOROOT(1)
        CFI Block cfiBlock4 Using cfiCommon0
        CFI Function Disp_black
        THUMB
//   63 void Disp_black(void){     
Disp_black:
        PUSH     {R3-R5,LR}
        CFI R14 Frame(CFA, -4)
        CFI R5 Frame(CFA, -8)
        CFI R4 Frame(CFA, -12)
        CFI CFA R13+16
//   64     unsigned char i,j;   
//   65     GLcd_Send_Cmd(0x36); //暠近렘駕    
        MOVS     R0,#+54
        BL       GLcd_Send_Cmd
//   66     for(i=0;i<32;i++){    
        MOVS     R4,#+0
        B.N      ??Disp_black_0
//   67         GLcd_Send_Cmd(0x80+i);   // X를 세팅
//   68         GLcd_Send_Cmd(0x80);   // Y를 세팅
//   69         for(j=0;j<20;j++) {   
//   70             GLcd_Send_Data(0xff);   
??Disp_black_1:
        MOVS     R0,#+255
        BL       GLcd_Send_Data
//   71         }   
        ADDS     R5,R5,#+1
??Disp_black_2:
        UXTB     R5,R5            ;; ZeroExt  R5,R5,#+24,#+24
        CMP      R5,#+20
        BCC.N    ??Disp_black_1
        ADDS     R4,R4,#+1
??Disp_black_0:
        UXTB     R4,R4            ;; ZeroExt  R4,R4,#+24,#+24
        CMP      R4,#+32
        BCS.N    ??Disp_black_3
        SUBS     R0,R4,#+128
        UXTB     R0,R0            ;; ZeroExt  R0,R0,#+24,#+24
        BL       GLcd_Send_Cmd
        MOVS     R0,#+128
        BL       GLcd_Send_Cmd
        MOVS     R5,#+0
        B.N      ??Disp_black_2
//   72     }   
//   73 }   
??Disp_black_3:
        POP      {R0,R4,R5,PC}    ;; return
        CFI EndBlock cfiBlock4

        SECTION `.text`:CODE:NOROOT(1)
        CFI Block cfiBlock5 Using cfiCommon0
        CFI Function GLcd_Clear
        THUMB
//   74 void GLcd_Clear(void)
//   75 {
GLcd_Clear:
        PUSH     {R3-R5,LR}
        CFI R14 Frame(CFA, -4)
        CFI R5 Frame(CFA, -8)
        CFI R4 Frame(CFA, -12)
        CFI CFA R13+16
//   76     unsigned char i,j;   
//   77     GLcd_Send_Cmd2(0x36); //暠近렘駕    
        MOVS     R0,#+54
        BL       GLcd_Send_Cmd2
//   78     for(i=0;i<32;i++){    
        MOVS     R4,#+0
        B.N      ??GLcd_Clear_0
//   79 	    
//   80         GLcd_Send_Cmd2(0x80+i);   // Y를 세팅
//   81         GLcd_Send_Cmd2(0x80);   // X를 세팅
//   82         for(j=0;j<20;j++) {   
//   83             GLcd_Send_Data2(0);   
??GLcd_Clear_1:
        MOVS     R0,#+0
        BL       GLcd_Send_Data2
//   84         }   
        ADDS     R5,R5,#+1
??GLcd_Clear_2:
        UXTB     R5,R5            ;; ZeroExt  R5,R5,#+24,#+24
        CMP      R5,#+20
        BCC.N    ??GLcd_Clear_1
        ADDS     R4,R4,#+1
??GLcd_Clear_0:
        UXTB     R4,R4            ;; ZeroExt  R4,R4,#+24,#+24
        CMP      R4,#+32
        BCS.N    ??GLcd_Clear_3
        SUBS     R0,R4,#+128
        UXTB     R0,R0            ;; ZeroExt  R0,R0,#+24,#+24
        BL       GLcd_Send_Cmd2
        MOVS     R0,#+128
        BL       GLcd_Send_Cmd2
        MOVS     R5,#+0
        B.N      ??GLcd_Clear_2
//   85     }     
//   86     GLCD_Refresh_Flag = 1;     
??GLcd_Clear_3:
        LDR.W    R0,??DataTable24_6
        MOVS     R1,#+1
        STRB     R1,[R0, #+0]
//   87 }
        POP      {R0,R4,R5,PC}    ;; return
        CFI EndBlock cfiBlock5

        SECTION `.text`:CODE:NOROOT(1)
        CFI Block cfiBlock6 Using cfiCommon0
        CFI Function GraphicOUT_Process
        THUMB
//   88 void GraphicOUT_Process(void)
//   89 {
GraphicOUT_Process:
        PUSH     {R7,LR}
        CFI R14 Frame(CFA, -4)
        CFI CFA R13+8
//   90      static u16 Count = 0;
//   91      u16 i ;
//   92      if( GLCD_OUT_Flag == 1 )
        LDR.W    R0,??DataTable24_7
        LDRB     R0,[R0, #+0]
        CMP      R0,#+1
        BNE.N    ??GraphicOUT_Process_0
//   93      {
//   94           if( GLCD_Buffer_Cnt > Count )
        LDR.W    R0,??DataTable24_8
        LDRH     R0,[R0, #+0]
        LDR.W    R1,??DataTable24_9
        LDRH     R1,[R1, #+0]
        CMP      R0,R1
        BCS.N    ??GraphicOUT_Process_1
//   95           {
//   96                if( GLCD_Data[Count] == COMMAND )
        LDR.W    R0,??DataTable24_8
        LDRH     R0,[R0, #+0]
        LDR.W    R1,??DataTable24_10
        LDRB     R0,[R0, R1]
        CMP      R0,#+0
        BNE.N    ??GraphicOUT_Process_2
//   97                {
//   98                     GLcd_RC_Input( LCD_RESET );
        MOVS     R0,#+8
        BL       GLcd_RC_Input
//   99                     GLcd_DC_Input( GLCD_Buffer[Count] );
        LDR.W    R0,??DataTable24_8
        LDRH     R0,[R0, #+0]
        LDR.W    R1,??DataTable24_11
        LDRB     R0,[R0, R1]
        BL       GLcd_DC_Input
//  100                     GLcd_RC_Input( LCD_E | LCD_RESET );
        MOVS     R0,#+12
        BL       GLcd_RC_Input
//  101                     for(i = 0 ; i < 100 ; i++);
        MOVS     R0,#+0
        B.N      ??GraphicOUT_Process_3
??GraphicOUT_Process_4:
        ADDS     R0,R0,#+1
??GraphicOUT_Process_3:
        UXTH     R0,R0            ;; ZeroExt  R0,R0,#+16,#+16
        CMP      R0,#+100
        BCC.N    ??GraphicOUT_Process_4
//  102                     GLcd_RC_Input( LCD_RESET);
        MOVS     R0,#+8
        BL       GLcd_RC_Input
        B.N      ??GraphicOUT_Process_5
//  103                }else if( GLCD_Data[Count] == DATA )
??GraphicOUT_Process_2:
        LDR.W    R0,??DataTable24_8
        LDRH     R0,[R0, #+0]
        LDR.W    R1,??DataTable24_10
        LDRB     R0,[R0, R1]
        CMP      R0,#+1
        BNE.N    ??GraphicOUT_Process_5
//  104                {
//  105                     GLcd_RC_Input( LCD_RESET );
        MOVS     R0,#+8
        BL       GLcd_RC_Input
//  106                     GLcd_DC_Input( GLCD_Buffer[Count] );
        LDR.W    R0,??DataTable24_8
        LDRH     R0,[R0, #+0]
        LDR.W    R1,??DataTable24_11
        LDRB     R0,[R0, R1]
        BL       GLcd_DC_Input
//  107                     GLcd_RC_Input( LCD_E | LCD_RS | LCD_RESET );
        MOVS     R0,#+13
        BL       GLcd_RC_Input
//  108                     for(i = 0 ; i < 100 ; i++);
        MOVS     R0,#+0
        B.N      ??GraphicOUT_Process_6
??GraphicOUT_Process_7:
        ADDS     R0,R0,#+1
??GraphicOUT_Process_6:
        UXTH     R0,R0            ;; ZeroExt  R0,R0,#+16,#+16
        CMP      R0,#+100
        BCC.N    ??GraphicOUT_Process_7
//  109                     GLcd_RC_Input( LCD_RS | LCD_RESET );                    
        MOVS     R0,#+9
        BL       GLcd_RC_Input
//  110                }    
//  111                Count ++;     
??GraphicOUT_Process_5:
        LDR.W    R0,??DataTable24_8
        LDRH     R0,[R0, #+0]
        ADDS     R0,R0,#+1
        LDR.W    R1,??DataTable24_8
        STRH     R0,[R1, #+0]
        B.N      ??GraphicOUT_Process_0
//  112           }
//  113           else  
//  114           {
//  115                Count = 0;
??GraphicOUT_Process_1:
        LDR.W    R0,??DataTable24_8
        MOVS     R1,#+0
        STRH     R1,[R0, #+0]
//  116                GLCD_OUT_Flag = 0;
        LDR.W    R0,??DataTable24_7
        MOVS     R1,#+0
        STRB     R1,[R0, #+0]
//  117                GLCD_Buffer_Cnt = 0;
        LDR.W    R0,??DataTable24_9
        MOVS     R1,#+0
        STRH     R1,[R0, #+0]
//  118           }
//  119      }
//  120 }
??GraphicOUT_Process_0:
        POP      {R0,PC}          ;; return
        CFI EndBlock cfiBlock6

        SECTION `.bss`:DATA:REORDER:NOROOT(1)
??Count:
        DS8 2

        SECTION `.text`:CODE:NOROOT(1)
        CFI Block cfiBlock7 Using cfiCommon0
        CFI Function GLcd_Send_Cmd2
        THUMB
//  121 void GLcd_Send_Cmd2(unsigned char Byte)
//  122 {
GLcd_Send_Cmd2:
        PUSH     {R4,LR}
        CFI R14 Frame(CFA, -4)
        CFI R4 Frame(CFA, -8)
        CFI CFA R13+8
        MOVS     R4,R0
//  123      u16 i;
//  124 	GLcd_RC_Input ( LCD_RESET ); // 리셋    
        MOVS     R0,#+8
        BL       GLcd_RC_Input
//  125 
//  126 	GLcd_DC_Input ( Byte);
        MOVS     R0,R4
        UXTB     R0,R0            ;; ZeroExt  R0,R0,#+24,#+24
        BL       GLcd_DC_Input
//  127 	
//  128 	GLcd_RC_Input ( LCD_E | LCD_RESET  ); // LCD_EANABLE
        MOVS     R0,#+12
        BL       GLcd_RC_Input
//  129     	
//  130 	for(i = 0 ; i < 350 ; i++);
        MOVS     R0,#+0
        B.N      ??GLcd_Send_Cmd2_0
??GLcd_Send_Cmd2_1:
        ADDS     R0,R0,#+1
??GLcd_Send_Cmd2_0:
        UXTH     R0,R0            ;; ZeroExt  R0,R0,#+16,#+16
        CMP      R0,#+350
        BCC.N    ??GLcd_Send_Cmd2_1
//  131 	//Delay(1);
//  132 	GLcd_RC_Input ( LCD_RESET ); // 리셋        
        MOVS     R0,#+8
        BL       GLcd_RC_Input
//  133 }
        POP      {R4,PC}          ;; return
        CFI EndBlock cfiBlock7
//  134 

        SECTION `.text`:CODE:NOROOT(1)
        CFI Block cfiBlock8 Using cfiCommon0
        CFI Function GLcd_Send_Cmd
        THUMB
//  135 void GLcd_Send_Cmd(unsigned char Byte)
//  136 {
//  137 
//  138 	GLCD_Buffer[GLCD_Buffer_Cnt] = Byte;
GLcd_Send_Cmd:
        LDR.W    R1,??DataTable25
        LDRH     R1,[R1, #+0]
        LDR.W    R2,??DataTable24_11
        STRB     R0,[R1, R2]
//  139 	GLCD_Data[GLCD_Buffer_Cnt++] = COMMAND;  
        LDR.W    R0,??DataTable25
        LDRH     R0,[R0, #+0]
        LDR.W    R1,??DataTable24_10
        MOVS     R2,#+0
        STRB     R2,[R0, R1]
        LDR.W    R0,??DataTable25
        LDRH     R0,[R0, #+0]
        ADDS     R0,R0,#+1
        LDR.W    R1,??DataTable25
        STRH     R0,[R1, #+0]
//  140   
//  141 }
        BX       LR               ;; return
        CFI EndBlock cfiBlock8

        SECTION `.text`:CODE:NOROOT(1)
        CFI Block cfiBlock9 Using cfiCommon0
        CFI Function GLcd_Send_Data2
        THUMB
//  142 void GLcd_Send_Data2(unsigned char Byte)
//  143 {
GLcd_Send_Data2:
        PUSH     {R4,LR}
        CFI R14 Frame(CFA, -4)
        CFI R4 Frame(CFA, -8)
        CFI CFA R13+8
        MOVS     R4,R0
//  144 
//  145 	GLcd_RC_Input ( LCD_RESET ); // 리셋      	
        MOVS     R0,#+8
        BL       GLcd_RC_Input
//  146 	GLcd_DC_Input ( Byte ) ;    
        MOVS     R0,R4
        UXTB     R0,R0            ;; ZeroExt  R0,R0,#+24,#+24
        BL       GLcd_DC_Input
//  147 
//  148 	GLcd_RC_Input ( LCD_E | LCD_RS | LCD_RESET ); // 리셋  	
        MOVS     R0,#+13
        BL       GLcd_RC_Input
//  149      Delay(1);     
        MOVS     R0,#+1
        BL       Delay
//  150 //	for(i = 0 ; i < 350 ; i++);
//  151 	GLcd_RC_Input ( LCD_RS | LCD_RESET);     
        MOVS     R0,#+9
        BL       GLcd_RC_Input
//  152 }
        POP      {R4,PC}          ;; return
        CFI EndBlock cfiBlock9

        SECTION `.text`:CODE:NOROOT(1)
        CFI Block cfiBlock10 Using cfiCommon0
        CFI Function GLcd_Send_Data
        THUMB
//  153 void GLcd_Send_Data(unsigned char Byte)
//  154 {
//  155 	GLCD_Buffer[GLCD_Buffer_Cnt] = Byte;
GLcd_Send_Data:
        LDR.W    R1,??DataTable25
        LDRH     R1,[R1, #+0]
        LDR.W    R2,??DataTable24_11
        STRB     R0,[R1, R2]
//  156 	GLCD_Data[GLCD_Buffer_Cnt++] = DATA; 
        LDR.W    R0,??DataTable25
        LDRH     R0,[R0, #+0]
        LDR.W    R1,??DataTable24_10
        MOVS     R2,#+1
        STRB     R2,[R0, R1]
        LDR.W    R0,??DataTable25
        LDRH     R0,[R0, #+0]
        ADDS     R0,R0,#+1
        LDR.W    R1,??DataTable25
        STRH     R0,[R1, #+0]
//  157 }
        BX       LR               ;; return
        CFI EndBlock cfiBlock10
//  158 

        SECTION `.text`:CODE:NOROOT(1)
        CFI Block cfiBlock11 Using cfiCommon0
        CFI Function GLcd_Init
        THUMB
//  159 void GLcd_Init(void)
//  160 {
GLcd_Init:
        PUSH     {R7,LR}
        CFI R14 Frame(CFA, -4)
        CFI CFA R13+8
//  161     Lcd_Backlight_OFF();    
        BL       Lcd_Backlight_OFF
//  162     GLcd_HW_Reset();
        BL       GLcd_HW_Reset
//  163 	Delay(10);
        MOVS     R0,#+10
        BL       Delay
//  164     GLCD_Buffer_Cnt = 0;
        LDR.W    R0,??DataTable24_9
        MOVS     R1,#+0
        STRH     R1,[R0, #+0]
//  165     GLCD_OUT_Flag = 0;
        LDR.W    R0,??DataTable24_7
        MOVS     R1,#+0
        STRB     R1,[R0, #+0]
//  166     memset( GLCD_Buffer, 0, sizeof( GLCD_Buffer ) ) ;
        MOV      R2,#+2000
        MOVS     R1,#+0
        LDR.W    R0,??DataTable24_11
        BL       memset
//  167     
//  168     GLcd_Send_Cmd2(0x38);
        MOVS     R0,#+56
        BL       GLcd_Send_Cmd2
//  169     Delay(6);
        MOVS     R0,#+6
        BL       Delay
//  170     GLcd_Send_Cmd2(0x38);   
        MOVS     R0,#+56
        BL       GLcd_Send_Cmd2
//  171     Delay(6);
        MOVS     R0,#+6
        BL       Delay
//  172     GLcd_Send_Cmd2(0x0C);    
        MOVS     R0,#+12
        BL       GLcd_Send_Cmd2
//  173     Delay(6);        
        MOVS     R0,#+6
        BL       Delay
//  174     GLcd_Send_Cmd2(0x01);
        MOVS     R0,#+1
        BL       GLcd_Send_Cmd2
//  175     Delay(2);        
        MOVS     R0,#+2
        BL       Delay
//  176     GLcd_Send_Cmd2(0x06);
        MOVS     R0,#+6
        BL       GLcd_Send_Cmd2
//  177     Delay(6);    
        MOVS     R0,#+6
        BL       Delay
//  178     GLcd_Send_Cmd2(0x3C);
        MOVS     R0,#+60
        BL       GLcd_Send_Cmd2
//  179     Delay(6);    
        MOVS     R0,#+6
        BL       Delay
//  180     GLcd_Send_Cmd2(0x03);
        MOVS     R0,#+3
        BL       GLcd_Send_Cmd2
//  181     Delay(6);    
        MOVS     R0,#+6
        BL       Delay
//  182     GLcd_Send_Cmd2(0x36);
        MOVS     R0,#+54
        BL       GLcd_Send_Cmd2
//  183     Delay(6);        
        MOVS     R0,#+6
        BL       Delay
//  184     Lcd_Backlight_OFF();    
        BL       Lcd_Backlight_OFF
//  185 //    Lcd_Backlight_ON();        
//  186 
//  187     Cursor_X = 0;
        LDR.W    R0,??DataTable24_1
        MOVS     R1,#+0
        STRB     R1,[R0, #+0]
//  188     Cursor_Y = 0;
        LDR.W    R0,??DataTable24_2
        MOVS     R1,#+0
        STRB     R1,[R0, #+0]
//  189     Cursor_View = 0;      // 커서 뷰/감추기
        LDR.W    R0,??DataTable24_3
        MOVS     R1,#+0
        STRB     R1,[R0, #+0]
//  190     
//  191     GLcd_Clear();
        BL       GLcd_Clear
//  192     // 화면 초기화 표시
//  193 
//  194     GLcd_PutString2(0,0,Title1 ,1);
        MOVS     R3,#+1
        ADR.W    R2,`?<Constant "   - TEAHO TECH -   ">`
        MOVS     R1,#+0
        MOVS     R0,#+0
        BL       GLcd_PutString2
//  195         
//  196     GLcd_PutString2(0,16,Title2,1);    
        MOVS     R3,#+1
        ADR.W    R2,`?<Constant " EMS_SYSTEM V000032 ">`
        MOVS     R1,#+16
        MOVS     R0,#+0
        BL       GLcd_PutString2
//  197     
//  198 }
        POP      {R0,PC}          ;; return
        CFI EndBlock cfiBlock11
//  199 

        SECTION `.text`:CODE:NOROOT(1)
        CFI Block cfiBlock12 Using cfiCommon0
        CFI Function GLcd_SmallPutString
        THUMB
//  200 void GLcd_SmallPutString(unsigned char x, unsigned char y, unsigned char *str, unsigned char attr)
//  201 {
GLcd_SmallPutString:
        PUSH     {R4-R8,LR}
        CFI R14 Frame(CFA, -4)
        CFI R8 Frame(CFA, -8)
        CFI R7 Frame(CFA, -12)
        CFI R6 Frame(CFA, -16)
        CFI R5 Frame(CFA, -20)
        CFI R4 Frame(CFA, -24)
        CFI CFA R13+24
        SUB      SP,SP,#+8
        CFI CFA R13+32
        MOVS     R4,R0
        MOVS     R5,R1
        MOVS     R6,R2
        MOVS     R7,R3
//  202 	unsigned char ch1;
//  203 	unsigned char ch2;
//  204 	unsigned char x_pos = 0;
        MOVS     R8,#+0
        B.N      ??GLcd_SmallPutString_0
//  205         
//  206 	while(*str)
//  207 	{
//  208 		ch1 = *str;
//  209 		str++;
//  210 		if(*str)
//  211 		{		
//  212 			ch2 = *str;
??GLcd_SmallPutString_1:
        LDRB     R3,[R6, #+0]
//  213 			str++;
        ADDS     R6,R6,#+1
//  214 			GLcd_SmallPutchar(x+x_pos,y,ch1,ch2,attr);	
        UXTB     R7,R7            ;; ZeroExt  R7,R7,#+24,#+24
        STR      R7,[SP, #+0]
        UXTB     R3,R3            ;; ZeroExt  R3,R3,#+24,#+24
        UXTB     R2,R2            ;; ZeroExt  R2,R2,#+24,#+24
        MOVS     R1,R5
        UXTB     R1,R1            ;; ZeroExt  R1,R1,#+24,#+24
        ADDS     R0,R8,R4
        UXTB     R0,R0            ;; ZeroExt  R0,R0,#+24,#+24
        BL       GLcd_SmallPutchar
//  215 			x_pos++;
        ADDS     R8,R8,#+1
//  216 		}
??GLcd_SmallPutString_0:
        LDRB     R0,[R6, #+0]
        CMP      R0,#+0
        BEQ.N    ??GLcd_SmallPutString_2
        LDRB     R2,[R6, #+0]
        ADDS     R6,R6,#+1
        LDRB     R0,[R6, #+0]
        CMP      R0,#+0
        BNE.N    ??GLcd_SmallPutString_1
//  217 		else
//  218 		{
//  219 			GLcd_SmallPutchar(x+x_pos,y,ch1,0,attr);				
        UXTB     R7,R7            ;; ZeroExt  R7,R7,#+24,#+24
        STR      R7,[SP, #+0]
        MOVS     R3,#+0
        UXTB     R2,R2            ;; ZeroExt  R2,R2,#+24,#+24
        MOVS     R1,R5
        UXTB     R1,R1            ;; ZeroExt  R1,R1,#+24,#+24
        ADDS     R0,R8,R4
        UXTB     R0,R0            ;; ZeroExt  R0,R0,#+24,#+24
        BL       GLcd_SmallPutchar
//  220 			break;
//  221 		}
//  222 	}     
//  223 }
??GLcd_SmallPutString_2:
        POP      {R0,R1,R4-R8,PC}  ;; return
        CFI EndBlock cfiBlock12

        SECTION `.text`:CODE:NOROOT(1)
        CFI Block cfiBlock13 Using cfiCommon0
        CFI Function GLcd_SmallPutchar
        THUMB
//  224 void GLcd_SmallPutchar(unsigned char x, unsigned char y, unsigned char c1,unsigned char c2, unsigned char attr)
//  225 {
GLcd_SmallPutchar:
        PUSH     {R4-R7,LR}
        CFI R14 Frame(CFA, -4)
        CFI R7 Frame(CFA, -8)
        CFI R6 Frame(CFA, -12)
        CFI R5 Frame(CFA, -16)
        CFI R4 Frame(CFA, -20)
        CFI CFA R13+20
        SUB      SP,SP,#+28
        CFI CFA R13+48
        MOVS     R5,R0
        MOVS     R6,R1
        LDR      R4,[SP, #+48]
//  226      unsigned char i , j;
//  227 	unsigned char Character;
//  228 	unsigned char Font1[5];
//  229 	unsigned char Font2[8];	
//  230 	unsigned char Font3[8];	
//  231 
//  232 	
//  233 	// 폰트가 엎퍼져 있어서 방향 바꾸기
//  234 	if(c1 >= 0x20)
        UXTB     R2,R2            ;; ZeroExt  R2,R2,#+24,#+24
        CMP      R2,#+32
        BCC.N    ??GLcd_SmallPutchar_0
//  235 		c1 -= 0x20;
        SUBS     R2,R2,#+32
//  236 	if(c2 >= 0x20)	
??GLcd_SmallPutchar_0:
        UXTB     R3,R3            ;; ZeroExt  R3,R3,#+24,#+24
        CMP      R3,#+32
        BCC.N    ??GLcd_SmallPutchar_1
//  237 		c2 -= 0x20;
        SUBS     R3,R3,#+32
//  238 
//  239 	for ( i = 0 ; i < 5 ; i++ )
??GLcd_SmallPutchar_1:
        MOVS     R7,#+0
        B.N      ??GLcd_SmallPutchar_2
//  240 	{
//  241 		Font1[i] =  (Font5x7[c1*5+i] );
??GLcd_SmallPutchar_3:
        UXTB     R2,R2            ;; ZeroExt  R2,R2,#+24,#+24
        MOVS     R0,#+5
        UXTB     R7,R7            ;; ZeroExt  R7,R7,#+24,#+24
        MLA      R0,R0,R2,R7
        LDR.W    R1,??DataTable26
        LDRB     R0,[R0, R1]
        UXTB     R7,R7            ;; ZeroExt  R7,R7,#+24,#+24
        ADD      R1,SP,#+16
        STRB     R0,[R7, R1]
//  242 	}
        ADDS     R7,R7,#+1
??GLcd_SmallPutchar_2:
        UXTB     R7,R7            ;; ZeroExt  R7,R7,#+24,#+24
        CMP      R7,#+5
        BCC.N    ??GLcd_SmallPutchar_3
//  243 	for( i = 0 ; i < 8 ; i++ )
        MOVS     R7,#+0
        B.N      ??GLcd_SmallPutchar_4
//  244 	{
//  245 		Font2[i] = 0 ;
//  246 		for( j = 0 ; j < 5 ; j++)
//  247 		{
//  248 			Font2[i] |= ( ( ( Font1[j] >> i )& 0x01 ) << ( j ) );
??GLcd_SmallPutchar_5:
        UXTB     R7,R7            ;; ZeroExt  R7,R7,#+24,#+24
        ADD      R1,SP,#+8
        LDRB     R1,[R7, R1]
        UXTB     R0,R0            ;; ZeroExt  R0,R0,#+24,#+24
        ADD      R2,SP,#+16
        LDRB     R2,[R0, R2]
        ASRS     R2,R2,R7
        ANDS     R2,R2,#0x1
        LSLS     R2,R2,R0
        ORRS     R1,R2,R1
        UXTB     R7,R7            ;; ZeroExt  R7,R7,#+24,#+24
        ADD      R2,SP,#+8
        STRB     R1,[R7, R2]
//  249 		}
        ADDS     R0,R0,#+1
??GLcd_SmallPutchar_6:
        UXTB     R0,R0            ;; ZeroExt  R0,R0,#+24,#+24
        CMP      R0,#+5
        BCC.N    ??GLcd_SmallPutchar_5
        ADDS     R7,R7,#+1
??GLcd_SmallPutchar_4:
        UXTB     R7,R7            ;; ZeroExt  R7,R7,#+24,#+24
        CMP      R7,#+8
        BCS.N    ??GLcd_SmallPutchar_7
        UXTB     R7,R7            ;; ZeroExt  R7,R7,#+24,#+24
        ADD      R0,SP,#+8
        MOVS     R1,#+0
        STRB     R1,[R7, R0]
        MOVS     R0,#+0
        B.N      ??GLcd_SmallPutchar_6
//  250 	}
//  251 	for ( i = 0 ; i < 5 ; i++ )
??GLcd_SmallPutchar_7:
        MOVS     R7,#+0
        B.N      ??GLcd_SmallPutchar_8
//  252 	{
//  253 		Font1[i] =  (Font5x7[c2*5+i] );
??GLcd_SmallPutchar_9:
        UXTB     R3,R3            ;; ZeroExt  R3,R3,#+24,#+24
        MOVS     R0,#+5
        UXTB     R7,R7            ;; ZeroExt  R7,R7,#+24,#+24
        MLA      R0,R0,R3,R7
        LDR.W    R1,??DataTable26
        LDRB     R0,[R0, R1]
        UXTB     R7,R7            ;; ZeroExt  R7,R7,#+24,#+24
        ADD      R1,SP,#+16
        STRB     R0,[R7, R1]
//  254 	}
        ADDS     R7,R7,#+1
??GLcd_SmallPutchar_8:
        UXTB     R7,R7            ;; ZeroExt  R7,R7,#+24,#+24
        CMP      R7,#+5
        BCC.N    ??GLcd_SmallPutchar_9
//  255 	for( i = 0 ; i < 8 ; i++ )
        MOVS     R7,#+0
        B.N      ??GLcd_SmallPutchar_10
//  256 	{
//  257 		Font3[i] = 0 ;
//  258 		for( j = 0 ; j < 5 ; j++)
//  259 		{
//  260 			Font3[i] |= ( ( ( Font1[j] >> i )& 0x01 ) << ( j ) );
??GLcd_SmallPutchar_11:
        UXTB     R7,R7            ;; ZeroExt  R7,R7,#+24,#+24
        ADD      R1,SP,#+0
        LDRB     R1,[R7, R1]
        UXTB     R0,R0            ;; ZeroExt  R0,R0,#+24,#+24
        ADD      R2,SP,#+16
        LDRB     R2,[R0, R2]
        ASRS     R2,R2,R7
        ANDS     R2,R2,#0x1
        LSLS     R2,R2,R0
        ORRS     R1,R2,R1
        UXTB     R7,R7            ;; ZeroExt  R7,R7,#+24,#+24
        ADD      R2,SP,#+0
        STRB     R1,[R7, R2]
//  261 		}
        ADDS     R0,R0,#+1
??GLcd_SmallPutchar_12:
        UXTB     R0,R0            ;; ZeroExt  R0,R0,#+24,#+24
        CMP      R0,#+5
        BCC.N    ??GLcd_SmallPutchar_11
        ADDS     R7,R7,#+1
??GLcd_SmallPutchar_10:
        UXTB     R7,R7            ;; ZeroExt  R7,R7,#+24,#+24
        CMP      R7,#+8
        BCS.N    ??GLcd_SmallPutchar_13
        UXTB     R7,R7            ;; ZeroExt  R7,R7,#+24,#+24
        ADD      R0,SP,#+0
        MOVS     R1,#+0
        STRB     R1,[R7, R0]
        MOVS     R0,#+0
        B.N      ??GLcd_SmallPutchar_12
//  262 	}
//  263      
//  264 	
//  265 	for(i=0; i<8; i++)	// display upper row
??GLcd_SmallPutchar_13:
        MOVS     R7,#+0
        B.N      ??GLcd_SmallPutchar_14
//  266 	{
//  267 		GLcd_XY(x, y+i); 
//  268 		Character = ( Font3[i] );
//  269 
//  270 		if(attr == LCD_NORMAL)
//  271 			GLcd_Send_Data( Character );
//  272 		else
//  273 			GLcd_Send_Data( ~Character );
//  274           
//  275 		Character = (Font2[i] );
//  276 
//  277 		if(attr == LCD_NORMAL)   
//  278 			GLcd_Send_Data( Character );
//  279 		else
//  280 			GLcd_Send_Data( ~Character );
??GLcd_SmallPutchar_15:
        UXTB     R0,R0            ;; ZeroExt  R0,R0,#+24,#+24
        MVNS     R0,R0
        UXTB     R0,R0            ;; ZeroExt  R0,R0,#+24,#+24
        BL       GLcd_Send_Data
??GLcd_SmallPutchar_16:
        ADDS     R7,R7,#+1
??GLcd_SmallPutchar_14:
        UXTB     R7,R7            ;; ZeroExt  R7,R7,#+24,#+24
        CMP      R7,#+8
        BCS.N    ??GLcd_SmallPutchar_17
        ADDS     R1,R7,R6
        UXTB     R1,R1            ;; ZeroExt  R1,R1,#+24,#+24
        MOVS     R0,R5
        UXTB     R0,R0            ;; ZeroExt  R0,R0,#+24,#+24
        BL       GLcd_XY
        UXTB     R7,R7            ;; ZeroExt  R7,R7,#+24,#+24
        ADD      R0,SP,#+0
        LDRB     R0,[R7, R0]
        UXTB     R4,R4            ;; ZeroExt  R4,R4,#+24,#+24
        CMP      R4,#+1
        BNE.N    ??GLcd_SmallPutchar_18
        UXTB     R0,R0            ;; ZeroExt  R0,R0,#+24,#+24
        BL       GLcd_Send_Data
        B.N      ??GLcd_SmallPutchar_19
??GLcd_SmallPutchar_18:
        UXTB     R0,R0            ;; ZeroExt  R0,R0,#+24,#+24
        MVNS     R0,R0
        UXTB     R0,R0            ;; ZeroExt  R0,R0,#+24,#+24
        BL       GLcd_Send_Data
??GLcd_SmallPutchar_19:
        UXTB     R7,R7            ;; ZeroExt  R7,R7,#+24,#+24
        ADD      R0,SP,#+8
        LDRB     R0,[R7, R0]
        UXTB     R4,R4            ;; ZeroExt  R4,R4,#+24,#+24
        CMP      R4,#+1
        BNE.N    ??GLcd_SmallPutchar_15
        UXTB     R0,R0            ;; ZeroExt  R0,R0,#+24,#+24
        BL       GLcd_Send_Data
        B.N      ??GLcd_SmallPutchar_16
//  281 
//  282 	}
//  283 }
??GLcd_SmallPutchar_17:
        ADD      SP,SP,#+28
        CFI CFA R13+20
        POP      {R4-R7,PC}       ;; return
        CFI EndBlock cfiBlock13

        SECTION `.text`:CODE:NOROOT(1)
        CFI Block cfiBlock14 Using cfiCommon0
        CFI Function GLcd_PutString2
        THUMB
//  284 void GLcd_PutString2(unsigned char x, unsigned char y, const unsigned char *str, unsigned char attr)
//  285 {
GLcd_PutString2:
        PUSH     {R4-R8,LR}
        CFI R14 Frame(CFA, -4)
        CFI R8 Frame(CFA, -8)
        CFI R7 Frame(CFA, -12)
        CFI R6 Frame(CFA, -16)
        CFI R5 Frame(CFA, -20)
        CFI R4 Frame(CFA, -24)
        CFI CFA R13+24
        SUB      SP,SP,#+8
        CFI CFA R13+32
        MOVS     R4,R0
        MOVS     R5,R1
        MOVS     R6,R2
        MOVS     R7,R3
//  286 	unsigned char ch1;
//  287 	unsigned int ch2;
//  288 
//  289 	unsigned char x_pos = 0;
        MOVS     R8,#+0
        B.N      ??GLcd_PutString2_0
//  290 
//  291 	while(*str)
//  292 	{
//  293 		ch1 = *str;
//  294 		str++;
//  295 
//  296 		if (x + x_pos > 10)
//  297 			break;
//  298 
//  299 		if(ch1 < 0x80)
??GLcd_PutString2_1:
        UXTB     R2,R2            ;; ZeroExt  R2,R2,#+24,#+24
        CMP      R2,#+128
        BCS.N    ??GLcd_PutString2_0
//  300 		{
//  301 			ch2 = *str;
        LDRB     R3,[R6, #+0]
//  302 			str++;
        ADDS     R6,R6,#+1
//  303                   GLcd_PutChar2(x+x_pos,y,ch1,ch2,attr);
        UXTB     R7,R7            ;; ZeroExt  R7,R7,#+24,#+24
        STR      R7,[SP, #+0]
        UXTB     R3,R3            ;; ZeroExt  R3,R3,#+24,#+24
        UXTB     R2,R2            ;; ZeroExt  R2,R2,#+24,#+24
        MOVS     R1,R5
        UXTB     R1,R1            ;; ZeroExt  R1,R1,#+24,#+24
        ADDS     R0,R8,R4
        UXTB     R0,R0            ;; ZeroExt  R0,R0,#+24,#+24
        BL       GLcd_PutChar2
//  304 			x_pos++;
        ADDS     R8,R8,#+1
//  305 		}
??GLcd_PutString2_0:
        LDRB     R0,[R6, #+0]
        CMP      R0,#+0
        BEQ.N    ??GLcd_PutString2_2
        LDRB     R2,[R6, #+0]
        ADDS     R6,R6,#+1
        UXTB     R4,R4            ;; ZeroExt  R4,R4,#+24,#+24
        UXTB     R8,R8            ;; ZeroExt  R8,R8,#+24,#+24
        ADDS     R0,R8,R4
        UXTH     R0,R0            ;; ZeroExt  R0,R0,#+16,#+16
        CMP      R0,#+11
        BCC.N    ??GLcd_PutString2_1
//  306      }
//  307 }
??GLcd_PutString2_2:
        POP      {R0,R1,R4-R8,PC}  ;; return
        CFI EndBlock cfiBlock14

        SECTION `.text`:CODE:NOROOT(1)
        CFI Block cfiBlock15 Using cfiCommon0
        CFI Function GLcd_PutChar2
        THUMB
//  308 void GLcd_PutChar2(unsigned char x, unsigned char y, unsigned char c, unsigned char c2, unsigned char attr)
//  309 {
GLcd_PutChar2:
        PUSH     {R4-R8,LR}
        CFI R14 Frame(CFA, -4)
        CFI R8 Frame(CFA, -8)
        CFI R7 Frame(CFA, -12)
        CFI R6 Frame(CFA, -16)
        CFI R5 Frame(CFA, -20)
        CFI R4 Frame(CFA, -24)
        CFI CFA R13+24
        SUB      SP,SP,#+48
        CFI CFA R13+72
        MOVS     R5,R0
        MOVS     R6,R1
        LDR      R4,[SP, #+72]
//  310 	unsigned char i , j;
//  311      short o;
//  312 	unsigned char Character;
//  313 
//  314 	unsigned char Font1[16];
//  315 	unsigned char Font2[16];
//  316 	unsigned char Font3[16];	
//  317 	// 폰트가 엎퍼져 있어서 방향 바꾸기
//  318 	for ( i = 0 ; i < 16 ; i++ )
        MOVS     R7,#+0
        B.N      ??GLcd_PutChar2_0
//  319 	{
//  320 		Font1[i] = (E_font[c][i]);
??GLcd_PutChar2_1:
        UXTB     R7,R7            ;; ZeroExt  R7,R7,#+24,#+24
        UXTB     R2,R2            ;; ZeroExt  R2,R2,#+24,#+24
        ADR.W    R0,E_font
        ADDS     R0,R0,R2, LSL #+4
        LDRB     R0,[R7, R0]
        UXTB     R7,R7            ;; ZeroExt  R7,R7,#+24,#+24
        ADD      R1,SP,#+32
        STRB     R0,[R7, R1]
//  321 	}	
        ADDS     R7,R7,#+1
??GLcd_PutChar2_0:
        UXTB     R7,R7            ;; ZeroExt  R7,R7,#+24,#+24
        CMP      R7,#+16
        BCC.N    ??GLcd_PutChar2_1
//  322 	
//  323 	for( i = 0 ; i < 8 ; i++ )
        MOVS     R7,#+0
        B.N      ??GLcd_PutChar2_2
//  324 	{
//  325 		Font2[i] = 0 ;
//  326 		for( j = 0 ; j < 8 ; j++)
//  327 		{
//  328 			Font2[i] |= ( ( ( Font1[j] >> i )& 0x01 ) << ( j ) );
??GLcd_PutChar2_3:
        UXTB     R7,R7            ;; ZeroExt  R7,R7,#+24,#+24
        ADD      R1,SP,#+16
        LDRB     R1,[R7, R1]
        UXTB     R0,R0            ;; ZeroExt  R0,R0,#+24,#+24
        ADD      R2,SP,#+32
        LDRB     R2,[R0, R2]
        ASRS     R2,R2,R7
        ANDS     R2,R2,#0x1
        LSLS     R2,R2,R0
        ORRS     R1,R2,R1
        UXTB     R7,R7            ;; ZeroExt  R7,R7,#+24,#+24
        ADD      R2,SP,#+16
        STRB     R1,[R7, R2]
//  329 		}
        ADDS     R0,R0,#+1
??GLcd_PutChar2_4:
        UXTB     R0,R0            ;; ZeroExt  R0,R0,#+24,#+24
        CMP      R0,#+8
        BCC.N    ??GLcd_PutChar2_3
        ADDS     R7,R7,#+1
??GLcd_PutChar2_2:
        UXTB     R7,R7            ;; ZeroExt  R7,R7,#+24,#+24
        CMP      R7,#+8
        BCS.N    ??GLcd_PutChar2_5
        UXTB     R7,R7            ;; ZeroExt  R7,R7,#+24,#+24
        ADD      R0,SP,#+16
        MOVS     R1,#+0
        STRB     R1,[R7, R0]
        MOVS     R0,#+0
        B.N      ??GLcd_PutChar2_4
//  330 	}
//  331 	for( i = 0 ; i < 8 ; i++ )
??GLcd_PutChar2_5:
        MOVS     R7,#+0
        B.N      ??GLcd_PutChar2_6
//  332 	{
//  333 		Font2[i + 8] = 0 ;
//  334 		for( j = 0 ; j < 8 ; j++)
//  335 		{
//  336 			Font2[i + 8] |= ( ( ( Font1[j + 8] >> i )& 0x01 ) << (  j ) );
??GLcd_PutChar2_7:
        UXTB     R7,R7            ;; ZeroExt  R7,R7,#+24,#+24
        ADD      R1,SP,#+16
        ADDS     R1,R7,R1
        LDRB     R1,[R1, #+8]
        UXTB     R0,R0            ;; ZeroExt  R0,R0,#+24,#+24
        ADD      R2,SP,#+32
        ADDS     R2,R0,R2
        LDRB     R2,[R2, #+8]
        ASRS     R2,R2,R7
        ANDS     R2,R2,#0x1
        LSLS     R2,R2,R0
        ORRS     R1,R2,R1
        UXTB     R7,R7            ;; ZeroExt  R7,R7,#+24,#+24
        ADD      R2,SP,#+16
        ADDS     R2,R7,R2
        STRB     R1,[R2, #+8]
//  337 		}
        ADDS     R0,R0,#+1
??GLcd_PutChar2_8:
        UXTB     R0,R0            ;; ZeroExt  R0,R0,#+24,#+24
        CMP      R0,#+8
        BCC.N    ??GLcd_PutChar2_7
        ADDS     R7,R7,#+1
??GLcd_PutChar2_6:
        UXTB     R7,R7            ;; ZeroExt  R7,R7,#+24,#+24
        CMP      R7,#+8
        BCS.N    ??GLcd_PutChar2_9
        UXTB     R7,R7            ;; ZeroExt  R7,R7,#+24,#+24
        ADD      R0,SP,#+16
        ADDS     R0,R7,R0
        MOVS     R1,#+0
        STRB     R1,[R0, #+8]
        MOVS     R0,#+0
        B.N      ??GLcd_PutChar2_8
//  338 	}
//  339 	
//  340 	for ( i = 0 ; i < 16 ; i++ )
??GLcd_PutChar2_9:
        MOVS     R7,#+0
        B.N      ??GLcd_PutChar2_10
//  341 	{
//  342 		Font1[i] = (E_font[c2][i]);
??GLcd_PutChar2_11:
        UXTB     R7,R7            ;; ZeroExt  R7,R7,#+24,#+24
        UXTB     R3,R3            ;; ZeroExt  R3,R3,#+24,#+24
        ADR.W    R0,E_font
        ADDS     R0,R0,R3, LSL #+4
        LDRB     R0,[R7, R0]
        UXTB     R7,R7            ;; ZeroExt  R7,R7,#+24,#+24
        ADD      R1,SP,#+32
        STRB     R0,[R7, R1]
//  343 	}	
        ADDS     R7,R7,#+1
??GLcd_PutChar2_10:
        UXTB     R7,R7            ;; ZeroExt  R7,R7,#+24,#+24
        CMP      R7,#+16
        BCC.N    ??GLcd_PutChar2_11
//  344 	
//  345 	for( i = 0 ; i < 8 ; i++ )
        MOVS     R7,#+0
        B.N      ??GLcd_PutChar2_12
//  346 	{
//  347 		Font3[i] = 0 ;
//  348 		for( j = 0 ; j < 8 ; j++)
//  349 		{
//  350 			Font3[i] |= ( ( ( Font1[j] >> i )& 0x01 ) << (  j ) );
??GLcd_PutChar2_13:
        UXTB     R7,R7            ;; ZeroExt  R7,R7,#+24,#+24
        ADD      R1,SP,#+0
        LDRB     R1,[R7, R1]
        UXTB     R0,R0            ;; ZeroExt  R0,R0,#+24,#+24
        ADD      R2,SP,#+32
        LDRB     R2,[R0, R2]
        ASRS     R2,R2,R7
        ANDS     R2,R2,#0x1
        LSLS     R2,R2,R0
        ORRS     R1,R2,R1
        UXTB     R7,R7            ;; ZeroExt  R7,R7,#+24,#+24
        ADD      R2,SP,#+0
        STRB     R1,[R7, R2]
//  351 		}
        ADDS     R0,R0,#+1
??GLcd_PutChar2_14:
        UXTB     R0,R0            ;; ZeroExt  R0,R0,#+24,#+24
        CMP      R0,#+8
        BCC.N    ??GLcd_PutChar2_13
        ADDS     R7,R7,#+1
??GLcd_PutChar2_12:
        UXTB     R7,R7            ;; ZeroExt  R7,R7,#+24,#+24
        CMP      R7,#+8
        BCS.N    ??GLcd_PutChar2_15
        UXTB     R7,R7            ;; ZeroExt  R7,R7,#+24,#+24
        ADD      R0,SP,#+0
        MOVS     R1,#+0
        STRB     R1,[R7, R0]
        MOVS     R0,#+0
        B.N      ??GLcd_PutChar2_14
//  352 	}
//  353 	for( i = 0 ; i < 8 ; i++ )
??GLcd_PutChar2_15:
        MOVS     R7,#+0
        B.N      ??GLcd_PutChar2_16
//  354 	{
//  355 		Font3[i + 8] = 0 ;
//  356 		for( j = 0 ; j < 8 ; j++)
//  357 		{
//  358 			Font3[i + 8] |= ( ( ( Font1[j + 8] >> i )& 0x01 ) << ( j ) );
??GLcd_PutChar2_17:
        UXTB     R7,R7            ;; ZeroExt  R7,R7,#+24,#+24
        ADD      R1,SP,#+0
        ADDS     R1,R7,R1
        LDRB     R1,[R1, #+8]
        UXTB     R0,R0            ;; ZeroExt  R0,R0,#+24,#+24
        ADD      R2,SP,#+32
        ADDS     R2,R0,R2
        LDRB     R2,[R2, #+8]
        ASRS     R2,R2,R7
        ANDS     R2,R2,#0x1
        LSLS     R2,R2,R0
        ORRS     R1,R2,R1
        UXTB     R7,R7            ;; ZeroExt  R7,R7,#+24,#+24
        ADD      R2,SP,#+0
        ADDS     R2,R7,R2
        STRB     R1,[R2, #+8]
//  359 		}
        ADDS     R0,R0,#+1
??GLcd_PutChar2_18:
        UXTB     R0,R0            ;; ZeroExt  R0,R0,#+24,#+24
        CMP      R0,#+8
        BCC.N    ??GLcd_PutChar2_17
        ADDS     R7,R7,#+1
??GLcd_PutChar2_16:
        UXTB     R7,R7            ;; ZeroExt  R7,R7,#+24,#+24
        CMP      R7,#+8
        BCS.N    ??GLcd_PutChar2_19
        UXTB     R7,R7            ;; ZeroExt  R7,R7,#+24,#+24
        ADD      R0,SP,#+0
        ADDS     R0,R7,R0
        MOVS     R1,#+0
        STRB     R1,[R0, #+8]
        MOVS     R0,#+0
        B.N      ??GLcd_PutChar2_18
//  360 	}		
//  361 
//  362 	for( i =0 , o = 15; o >= 0 ; o --)	// display upper row//글씨 쓰기        
??GLcd_PutChar2_19:
        MOVS     R7,#+0
        MOVS     R8,#+15
        B.N      ??GLcd_PutChar2_20
//  363 	{
//  364           
//  365           GLcd_Send_Cmd2(0x80+( 16 - y + o ));    // Y를 세팅
//  366           GLcd_Send_Cmd2(0x80+( 9 - x ));         // X를 세팅 
//  367           Character = (Font3[ i ]);
//  368           
//  369           if(attr == LCD_NORMAL)
//  370                GLcd_Send_Data2(  Character );
//  371           else
//  372                GLcd_Send_Data2(  ~Character );
//  373           
//  374           Character = (Font2[ i ]);
//  375           
//  376           if(attr == LCD_NORMAL)
//  377                GLcd_Send_Data2(  Character );
//  378           else
//  379                GLcd_Send_Data2(  ~Character );		
??GLcd_PutChar2_21:
        UXTB     R0,R0            ;; ZeroExt  R0,R0,#+24,#+24
        MVNS     R0,R0
        UXTB     R0,R0            ;; ZeroExt  R0,R0,#+24,#+24
        BL       GLcd_Send_Data2
//  380           i++;
??GLcd_PutChar2_22:
        ADDS     R7,R7,#+1
        SUBS     R8,R8,#+1
??GLcd_PutChar2_20:
        SXTH     R8,R8            ;; SignExt  R8,R8,#+16,#+16
        CMP      R8,#+0
        BMI.N    ??GLcd_PutChar2_23
        RSBS     R0,R6,#+0
        ADDS     R0,R8,R0
        SUBS     R0,R0,#+112
        UXTB     R0,R0            ;; ZeroExt  R0,R0,#+24,#+24
        BL       GLcd_Send_Cmd2
        RSBS     R0,R5,#+137
        UXTB     R0,R0            ;; ZeroExt  R0,R0,#+24,#+24
        BL       GLcd_Send_Cmd2
        UXTB     R7,R7            ;; ZeroExt  R7,R7,#+24,#+24
        ADD      R0,SP,#+0
        LDRB     R0,[R7, R0]
        UXTB     R4,R4            ;; ZeroExt  R4,R4,#+24,#+24
        CMP      R4,#+1
        BNE.N    ??GLcd_PutChar2_24
        UXTB     R0,R0            ;; ZeroExt  R0,R0,#+24,#+24
        BL       GLcd_Send_Data2
        B.N      ??GLcd_PutChar2_25
??GLcd_PutChar2_24:
        UXTB     R0,R0            ;; ZeroExt  R0,R0,#+24,#+24
        MVNS     R0,R0
        UXTB     R0,R0            ;; ZeroExt  R0,R0,#+24,#+24
        BL       GLcd_Send_Data2
??GLcd_PutChar2_25:
        UXTB     R7,R7            ;; ZeroExt  R7,R7,#+24,#+24
        ADD      R0,SP,#+16
        LDRB     R0,[R7, R0]
        UXTB     R4,R4            ;; ZeroExt  R4,R4,#+24,#+24
        CMP      R4,#+1
        BNE.N    ??GLcd_PutChar2_21
        UXTB     R0,R0            ;; ZeroExt  R0,R0,#+24,#+24
        BL       GLcd_Send_Data2
        B.N      ??GLcd_PutChar2_22
//  381 	}
//  382 }
??GLcd_PutChar2_23:
        ADD      SP,SP,#+48
        CFI CFA R13+24
        POP      {R4-R8,PC}       ;; return
        CFI EndBlock cfiBlock15
//  383 

        SECTION `.text`:CODE:NOROOT(1)
        CFI Block cfiBlock16 Using cfiCommon0
        CFI Function GLcd_PutChar
        THUMB
//  384 void GLcd_PutChar(unsigned char x, unsigned char y, unsigned char c, unsigned char c2, unsigned char attr)
//  385 {
GLcd_PutChar:
        PUSH     {R4-R8,LR}
        CFI R14 Frame(CFA, -4)
        CFI R8 Frame(CFA, -8)
        CFI R7 Frame(CFA, -12)
        CFI R6 Frame(CFA, -16)
        CFI R5 Frame(CFA, -20)
        CFI R4 Frame(CFA, -24)
        CFI CFA R13+24
        SUB      SP,SP,#+48
        CFI CFA R13+72
        MOVS     R5,R0
        MOVS     R6,R1
        LDR      R4,[SP, #+72]
//  386 	unsigned char i , j;
//  387 
//  388 	unsigned char Character;
//  389      signed char o;
//  390 	unsigned char Font1[16];
//  391 	unsigned char Font2[16];
//  392 	unsigned char Font3[16];	
//  393 	// 폰트가 엎퍼져 있어서 방향 바꾸기
//  394 	for ( i = 0 ; i < 16 ; i++ )
        MOVS     R7,#+0
        B.N      ??GLcd_PutChar_0
//  395 	{
//  396 		Font1[i] = (E_font[c][i]);
??GLcd_PutChar_1:
        UXTB     R7,R7            ;; ZeroExt  R7,R7,#+24,#+24
        UXTB     R2,R2            ;; ZeroExt  R2,R2,#+24,#+24
        ADR.W    R0,E_font
        ADDS     R0,R0,R2, LSL #+4
        LDRB     R0,[R7, R0]
        UXTB     R7,R7            ;; ZeroExt  R7,R7,#+24,#+24
        ADD      R1,SP,#+32
        STRB     R0,[R7, R1]
//  397 	}	
        ADDS     R7,R7,#+1
??GLcd_PutChar_0:
        UXTB     R7,R7            ;; ZeroExt  R7,R7,#+24,#+24
        CMP      R7,#+16
        BCC.N    ??GLcd_PutChar_1
//  398 	
//  399 	for( i = 0 ; i < 8 ; i++ )
        MOVS     R7,#+0
        B.N      ??GLcd_PutChar_2
//  400 	{
//  401 		Font2[i] = 0 ;
//  402 		for( j = 0 ; j < 8 ; j++)
//  403 		{
//  404 			Font2[i] |= ( ( ( Font1[j] >> i )& 0x01 ) << ( j ) );
??GLcd_PutChar_3:
        UXTB     R7,R7            ;; ZeroExt  R7,R7,#+24,#+24
        ADD      R1,SP,#+16
        LDRB     R1,[R7, R1]
        UXTB     R0,R0            ;; ZeroExt  R0,R0,#+24,#+24
        ADD      R2,SP,#+32
        LDRB     R2,[R0, R2]
        ASRS     R2,R2,R7
        ANDS     R2,R2,#0x1
        LSLS     R2,R2,R0
        ORRS     R1,R2,R1
        UXTB     R7,R7            ;; ZeroExt  R7,R7,#+24,#+24
        ADD      R2,SP,#+16
        STRB     R1,[R7, R2]
//  405 		}
        ADDS     R0,R0,#+1
??GLcd_PutChar_4:
        UXTB     R0,R0            ;; ZeroExt  R0,R0,#+24,#+24
        CMP      R0,#+8
        BCC.N    ??GLcd_PutChar_3
        ADDS     R7,R7,#+1
??GLcd_PutChar_2:
        UXTB     R7,R7            ;; ZeroExt  R7,R7,#+24,#+24
        CMP      R7,#+8
        BCS.N    ??GLcd_PutChar_5
        UXTB     R7,R7            ;; ZeroExt  R7,R7,#+24,#+24
        ADD      R0,SP,#+16
        MOVS     R1,#+0
        STRB     R1,[R7, R0]
        MOVS     R0,#+0
        B.N      ??GLcd_PutChar_4
//  406 	}
//  407 	for( i = 0 ; i < 8 ; i++ )
??GLcd_PutChar_5:
        MOVS     R7,#+0
        B.N      ??GLcd_PutChar_6
//  408 	{
//  409 		Font2[i + 8] = 0 ;
//  410 		for( j = 0 ; j < 8 ; j++)
//  411 		{
//  412 			Font2[i + 8] |= ( ( ( Font1[j + 8] >> i )& 0x01 ) << ( j ) );
??GLcd_PutChar_7:
        UXTB     R7,R7            ;; ZeroExt  R7,R7,#+24,#+24
        ADD      R1,SP,#+16
        ADDS     R1,R7,R1
        LDRB     R1,[R1, #+8]
        UXTB     R0,R0            ;; ZeroExt  R0,R0,#+24,#+24
        ADD      R2,SP,#+32
        ADDS     R2,R0,R2
        LDRB     R2,[R2, #+8]
        ASRS     R2,R2,R7
        ANDS     R2,R2,#0x1
        LSLS     R2,R2,R0
        ORRS     R1,R2,R1
        UXTB     R7,R7            ;; ZeroExt  R7,R7,#+24,#+24
        ADD      R2,SP,#+16
        ADDS     R2,R7,R2
        STRB     R1,[R2, #+8]
//  413 		}
        ADDS     R0,R0,#+1
??GLcd_PutChar_8:
        UXTB     R0,R0            ;; ZeroExt  R0,R0,#+24,#+24
        CMP      R0,#+8
        BCC.N    ??GLcd_PutChar_7
        ADDS     R7,R7,#+1
??GLcd_PutChar_6:
        UXTB     R7,R7            ;; ZeroExt  R7,R7,#+24,#+24
        CMP      R7,#+8
        BCS.N    ??GLcd_PutChar_9
        UXTB     R7,R7            ;; ZeroExt  R7,R7,#+24,#+24
        ADD      R0,SP,#+16
        ADDS     R0,R7,R0
        MOVS     R1,#+0
        STRB     R1,[R0, #+8]
        MOVS     R0,#+0
        B.N      ??GLcd_PutChar_8
//  414 	}
//  415 	
//  416 	for ( i = 0 ; i < 16 ; i++ )
??GLcd_PutChar_9:
        MOVS     R7,#+0
        B.N      ??GLcd_PutChar_10
//  417 	{
//  418 		Font1[i] = (E_font[c2][i]);
??GLcd_PutChar_11:
        UXTB     R7,R7            ;; ZeroExt  R7,R7,#+24,#+24
        UXTB     R3,R3            ;; ZeroExt  R3,R3,#+24,#+24
        ADR.W    R0,E_font
        ADDS     R0,R0,R3, LSL #+4
        LDRB     R0,[R7, R0]
        UXTB     R7,R7            ;; ZeroExt  R7,R7,#+24,#+24
        ADD      R1,SP,#+32
        STRB     R0,[R7, R1]
//  419 	}	
        ADDS     R7,R7,#+1
??GLcd_PutChar_10:
        UXTB     R7,R7            ;; ZeroExt  R7,R7,#+24,#+24
        CMP      R7,#+16
        BCC.N    ??GLcd_PutChar_11
//  420 	
//  421 	for( i = 0 ; i < 8 ; i++ )
        MOVS     R7,#+0
        B.N      ??GLcd_PutChar_12
//  422 	{
//  423 		Font3[i] = 0 ;
//  424 		for( j = 0 ; j < 8 ; j++)
//  425 		{
//  426 			Font3[i] |= ( ( ( Font1[j] >> i )& 0x01 ) << ( j ) );
??GLcd_PutChar_13:
        UXTB     R7,R7            ;; ZeroExt  R7,R7,#+24,#+24
        ADD      R1,SP,#+0
        LDRB     R1,[R7, R1]
        UXTB     R0,R0            ;; ZeroExt  R0,R0,#+24,#+24
        ADD      R2,SP,#+32
        LDRB     R2,[R0, R2]
        ASRS     R2,R2,R7
        ANDS     R2,R2,#0x1
        LSLS     R2,R2,R0
        ORRS     R1,R2,R1
        UXTB     R7,R7            ;; ZeroExt  R7,R7,#+24,#+24
        ADD      R2,SP,#+0
        STRB     R1,[R7, R2]
//  427 		}
        ADDS     R0,R0,#+1
??GLcd_PutChar_14:
        UXTB     R0,R0            ;; ZeroExt  R0,R0,#+24,#+24
        CMP      R0,#+8
        BCC.N    ??GLcd_PutChar_13
        ADDS     R7,R7,#+1
??GLcd_PutChar_12:
        UXTB     R7,R7            ;; ZeroExt  R7,R7,#+24,#+24
        CMP      R7,#+8
        BCS.N    ??GLcd_PutChar_15
        UXTB     R7,R7            ;; ZeroExt  R7,R7,#+24,#+24
        ADD      R0,SP,#+0
        MOVS     R1,#+0
        STRB     R1,[R7, R0]
        MOVS     R0,#+0
        B.N      ??GLcd_PutChar_14
//  428 	}
//  429 	for( i = 0 ; i < 8 ; i++ )
??GLcd_PutChar_15:
        MOVS     R7,#+0
        B.N      ??GLcd_PutChar_16
//  430 	{
//  431 		Font3[i + 8] = 0 ;
//  432 		for( j = 0 ; j < 8 ; j++)
//  433 		{
//  434 			Font3[i + 8] |= ( ( ( Font1[j + 8] >> i )& 0x01 ) << ( j ) );
??GLcd_PutChar_17:
        UXTB     R7,R7            ;; ZeroExt  R7,R7,#+24,#+24
        ADD      R1,SP,#+0
        ADDS     R1,R7,R1
        LDRB     R1,[R1, #+8]
        UXTB     R0,R0            ;; ZeroExt  R0,R0,#+24,#+24
        ADD      R2,SP,#+32
        ADDS     R2,R0,R2
        LDRB     R2,[R2, #+8]
        ASRS     R2,R2,R7
        ANDS     R2,R2,#0x1
        LSLS     R2,R2,R0
        ORRS     R1,R2,R1
        UXTB     R7,R7            ;; ZeroExt  R7,R7,#+24,#+24
        ADD      R2,SP,#+0
        ADDS     R2,R7,R2
        STRB     R1,[R2, #+8]
//  435 		}
        ADDS     R0,R0,#+1
??GLcd_PutChar_18:
        UXTB     R0,R0            ;; ZeroExt  R0,R0,#+24,#+24
        CMP      R0,#+8
        BCC.N    ??GLcd_PutChar_17
        ADDS     R7,R7,#+1
??GLcd_PutChar_16:
        UXTB     R7,R7            ;; ZeroExt  R7,R7,#+24,#+24
        CMP      R7,#+8
        BCS.N    ??GLcd_PutChar_19
        UXTB     R7,R7            ;; ZeroExt  R7,R7,#+24,#+24
        ADD      R0,SP,#+0
        ADDS     R0,R7,R0
        MOVS     R1,#+0
        STRB     R1,[R0, #+8]
        MOVS     R0,#+0
        B.N      ??GLcd_PutChar_18
//  436 	}		
//  437 
//  438 	for( i =0 , o = 15; o >= 0 ; o --)	// display upper row//글씨 쓰기        
??GLcd_PutChar_19:
        MOVS     R7,#+0
        MOVS     R8,#+15
        B.N      ??GLcd_PutChar_20
//  439 	{
//  440           
//  441           GLcd_Send_Cmd2(0x80+( 16 - y + o ));    // Y를 세팅
//  442           GLcd_Send_Cmd2(0x80+( 9 - x ));         // X를 세팅 
//  443           Character = (Font3[ i ]);
//  444           
//  445           if(attr == LCD_NORMAL)
//  446                GLcd_Send_Data2(  Character );
//  447           else
//  448                GLcd_Send_Data2(  ~Character );
//  449           
//  450           Character = (Font2[ i ]);
//  451           
//  452           if(attr == LCD_NORMAL)
//  453                GLcd_Send_Data2(  Character );
//  454           else
//  455                GLcd_Send_Data2(  ~Character );		
??GLcd_PutChar_21:
        UXTB     R0,R0            ;; ZeroExt  R0,R0,#+24,#+24
        MVNS     R0,R0
        UXTB     R0,R0            ;; ZeroExt  R0,R0,#+24,#+24
        BL       GLcd_Send_Data2
//  456           i++;
??GLcd_PutChar_22:
        ADDS     R7,R7,#+1
        SUBS     R8,R8,#+1
??GLcd_PutChar_20:
        SXTB     R8,R8            ;; SignExt  R8,R8,#+24,#+24
        CMP      R8,#+0
        BMI.N    ??GLcd_PutChar_23
        RSBS     R0,R6,#+0
        ADDS     R0,R8,R0
        SUBS     R0,R0,#+112
        UXTB     R0,R0            ;; ZeroExt  R0,R0,#+24,#+24
        BL       GLcd_Send_Cmd2
        RSBS     R0,R5,#+137
        UXTB     R0,R0            ;; ZeroExt  R0,R0,#+24,#+24
        BL       GLcd_Send_Cmd2
        UXTB     R7,R7            ;; ZeroExt  R7,R7,#+24,#+24
        ADD      R0,SP,#+0
        LDRB     R0,[R7, R0]
        UXTB     R4,R4            ;; ZeroExt  R4,R4,#+24,#+24
        CMP      R4,#+1
        BNE.N    ??GLcd_PutChar_24
        UXTB     R0,R0            ;; ZeroExt  R0,R0,#+24,#+24
        BL       GLcd_Send_Data2
        B.N      ??GLcd_PutChar_25
??GLcd_PutChar_24:
        UXTB     R0,R0            ;; ZeroExt  R0,R0,#+24,#+24
        MVNS     R0,R0
        UXTB     R0,R0            ;; ZeroExt  R0,R0,#+24,#+24
        BL       GLcd_Send_Data2
??GLcd_PutChar_25:
        UXTB     R7,R7            ;; ZeroExt  R7,R7,#+24,#+24
        ADD      R0,SP,#+16
        LDRB     R0,[R7, R0]
        UXTB     R4,R4            ;; ZeroExt  R4,R4,#+24,#+24
        CMP      R4,#+1
        BNE.N    ??GLcd_PutChar_21
        UXTB     R0,R0            ;; ZeroExt  R0,R0,#+24,#+24
        BL       GLcd_Send_Data2
        B.N      ??GLcd_PutChar_22
//  457 	}
//  458 
//  459      if(Cursor_View == 1)
??GLcd_PutChar_23:
        LDR.W    R0,??DataTable24_3
        LDRB     R0,[R0, #+0]
        CMP      R0,#+1
        BNE.N    ??GLcd_PutChar_26
//  460      {              		
//  461           GLcd_XY(Cursor_X / 2, Cursor_Y); 
        LDR.W    R0,??DataTable24_2
        LDRB     R1,[R0, #+0]
        LDR.W    R0,??DataTable24_1
        LDRB     R0,[R0, #+0]
        MOVS     R2,#+2
        SDIV     R0,R0,R2
        UXTB     R0,R0            ;; ZeroExt  R0,R0,#+24,#+24
        BL       GLcd_XY
//  462           if( Toogle_Cursor == 0)
        LDR.W    R0,??DataTable26_1
        LDRB     R0,[R0, #+0]
        CMP      R0,#+0
        BNE.N    ??GLcd_PutChar_27
//  463           {    
//  464                if( Cursor_X % 2 == 0 )
        LDR.W    R0,??DataTable24_1
        LDRB     R0,[R0, #+0]
        MOVS     R1,#+2
        SDIV     R2,R0,R1
        MLS      R2,R2,R1,R0
        CMP      R2,#+0
        BNE.N    ??GLcd_PutChar_28
//  465                {
//  466                     GLcd_Send_Data( 0 );                         
        MOVS     R0,#+0
        BL       GLcd_Send_Data
//  467                     GLcd_Send_Data(  0xff );            
        MOVS     R0,#+255
        BL       GLcd_Send_Data
//  468 
//  469                     GLcd_XY(Cursor_X/2, Cursor_Y-1);               
        LDR.W    R0,??DataTable24_2
        LDRB     R0,[R0, #+0]
        SUBS     R1,R0,#+1
        UXTB     R1,R1            ;; ZeroExt  R1,R1,#+24,#+24
        LDR.W    R0,??DataTable24_1
        LDRB     R0,[R0, #+0]
        MOVS     R2,#+2
        SDIV     R0,R0,R2
        UXTB     R0,R0            ;; ZeroExt  R0,R0,#+24,#+24
        BL       GLcd_XY
//  470                     GLcd_Send_Data( 0 );
        MOVS     R0,#+0
        BL       GLcd_Send_Data
//  471                     GLcd_Send_Data(  0xff );                    
        MOVS     R0,#+255
        BL       GLcd_Send_Data
        B.N      ??GLcd_PutChar_26
//  472                }
//  473                else
//  474                {
//  475                     GLcd_Send_Data(  0xff );
??GLcd_PutChar_28:
        MOVS     R0,#+255
        BL       GLcd_Send_Data
//  476                     GLcd_Send_Data( 0 );          
        MOVS     R0,#+0
        BL       GLcd_Send_Data
//  477 
//  478                     GLcd_XY(Cursor_X/2, Cursor_Y-1);                    
        LDR.N    R0,??DataTable24_2
        LDRB     R0,[R0, #+0]
        SUBS     R1,R0,#+1
        UXTB     R1,R1            ;; ZeroExt  R1,R1,#+24,#+24
        LDR.N    R0,??DataTable24_1
        LDRB     R0,[R0, #+0]
        MOVS     R2,#+2
        SDIV     R0,R0,R2
        UXTB     R0,R0            ;; ZeroExt  R0,R0,#+24,#+24
        BL       GLcd_XY
//  479                     GLcd_Send_Data(  0xff );
        MOVS     R0,#+255
        BL       GLcd_Send_Data
//  480                     GLcd_Send_Data( 0 );
        MOVS     R0,#+0
        BL       GLcd_Send_Data
        B.N      ??GLcd_PutChar_26
//  481 
//  482                }               
//  483           }
//  484           else
//  485           {
//  486                GLcd_Send_Data( 0 ); 
??GLcd_PutChar_27:
        MOVS     R0,#+0
        BL       GLcd_Send_Data
//  487                GLcd_Send_Data( 0 );
        MOVS     R0,#+0
        BL       GLcd_Send_Data
//  488           }
//  489      }
//  490      if(Cursor_View == 2)
??GLcd_PutChar_26:
        LDR.N    R0,??DataTable24_3
        LDRB     R0,[R0, #+0]
        CMP      R0,#+2
        BNE.N    ??GLcd_PutChar_29
//  491      {         
//  492           if( Toogle_Cursor == 0)
        LDR.W    R0,??DataTable26_1
        LDRB     R0,[R0, #+0]
        CMP      R0,#+0
        BNE.N    ??GLcd_PutChar_30
//  493           {
//  494                GLcd_XY(Cursor_X, Cursor_Y); 
        LDR.N    R0,??DataTable24_2
        LDRB     R1,[R0, #+0]
        LDR.N    R0,??DataTable24_1
        LDRB     R0,[R0, #+0]
        BL       GLcd_XY
//  495                GLcd_Send_Data(  0xff );
        MOVS     R0,#+255
        BL       GLcd_Send_Data
//  496                GLcd_Send_Data(  0xff );
        MOVS     R0,#+255
        BL       GLcd_Send_Data
//  497                
//  498                GLcd_XY(Cursor_X, Cursor_Y-1);          
        LDR.N    R0,??DataTable24_2
        LDRB     R0,[R0, #+0]
        SUBS     R1,R0,#+1
        UXTB     R1,R1            ;; ZeroExt  R1,R1,#+24,#+24
        LDR.N    R0,??DataTable24_1
        LDRB     R0,[R0, #+0]
        BL       GLcd_XY
//  499                GLcd_Send_Data(  0xff );      
        MOVS     R0,#+255
        BL       GLcd_Send_Data
//  500                GLcd_Send_Data(  0xff );
        MOVS     R0,#+255
        BL       GLcd_Send_Data
        B.N      ??GLcd_PutChar_29
//  501                
//  502           }
//  503           else
//  504           {
//  505                GLcd_XY(Cursor_X, Cursor_Y); 
??GLcd_PutChar_30:
        LDR.N    R0,??DataTable24_2
        LDRB     R1,[R0, #+0]
        LDR.N    R0,??DataTable24_1
        LDRB     R0,[R0, #+0]
        BL       GLcd_XY
//  506                GLcd_Send_Data(  0 );
        MOVS     R0,#+0
        BL       GLcd_Send_Data
//  507                GLcd_Send_Data(  0 );
        MOVS     R0,#+0
        BL       GLcd_Send_Data
//  508                
//  509                GLcd_XY(Cursor_X, Cursor_Y-1);                
        LDR.N    R0,??DataTable24_2
        LDRB     R0,[R0, #+0]
        SUBS     R1,R0,#+1
        UXTB     R1,R1            ;; ZeroExt  R1,R1,#+24,#+24
        LDR.N    R0,??DataTable24_1
        LDRB     R0,[R0, #+0]
        BL       GLcd_XY
//  510                GLcd_Send_Data(  0 );            
        MOVS     R0,#+0
        BL       GLcd_Send_Data
//  511                GLcd_Send_Data(  0 );
        MOVS     R0,#+0
        BL       GLcd_Send_Data
//  512              
//  513           }
//  514      }
//  515      if(Cursor_View == 3)
??GLcd_PutChar_29:
        LDR.N    R0,??DataTable24_3
        LDRB     R0,[R0, #+0]
        CMP      R0,#+3
        BNE.N    ??GLcd_PutChar_31
//  516      {         
//  517           if( Toogle_Cursor == 0)
        LDR.W    R0,??DataTable26_1
        LDRB     R0,[R0, #+0]
        CMP      R0,#+0
        BNE.N    ??GLcd_PutChar_32
//  518           {
//  519                GLcd_XY(Cursor_X, Cursor_Y); 
        LDR.N    R0,??DataTable24_2
        LDRB     R1,[R0, #+0]
        LDR.N    R0,??DataTable24_1
        LDRB     R0,[R0, #+0]
        BL       GLcd_XY
//  520                GLcd_Send_Data(  0x02 );
        MOVS     R0,#+2
        BL       GLcd_Send_Data
//  521                GLcd_Send_Data(  0x00 );
        MOVS     R0,#+0
        BL       GLcd_Send_Data
//  522                
//  523                GLcd_XY(Cursor_X, Cursor_Y - 1);
        LDR.N    R0,??DataTable24_2
        LDRB     R0,[R0, #+0]
        SUBS     R1,R0,#+1
        UXTB     R1,R1            ;; ZeroExt  R1,R1,#+24,#+24
        LDR.N    R0,??DataTable24_1
        LDRB     R0,[R0, #+0]
        BL       GLcd_XY
//  524                GLcd_Send_Data(  0x06 );
        MOVS     R0,#+6
        BL       GLcd_Send_Data
//  525                GLcd_Send_Data(  0x00 );
        MOVS     R0,#+0
        BL       GLcd_Send_Data
//  526                
//  527                GLcd_XY(Cursor_X, Cursor_Y - 2);
        LDR.N    R0,??DataTable24_2
        LDRB     R0,[R0, #+0]
        SUBS     R1,R0,#+2
        UXTB     R1,R1            ;; ZeroExt  R1,R1,#+24,#+24
        LDR.N    R0,??DataTable24_1
        LDRB     R0,[R0, #+0]
        BL       GLcd_XY
//  528                GLcd_Send_Data(  0x0F );
        MOVS     R0,#+15
        BL       GLcd_Send_Data
//  529                GLcd_Send_Data(  0xFC );
        MOVS     R0,#+252
        BL       GLcd_Send_Data
//  530                
//  531                GLcd_XY(Cursor_X, Cursor_Y - 3);
        LDR.N    R0,??DataTable24_2
        LDRB     R0,[R0, #+0]
        SUBS     R1,R0,#+3
        UXTB     R1,R1            ;; ZeroExt  R1,R1,#+24,#+24
        LDR.N    R0,??DataTable24_1
        LDRB     R0,[R0, #+0]
        BL       GLcd_XY
//  532 
//  533                GLcd_Send_Data(  0x1F );
        MOVS     R0,#+31
        BL       GLcd_Send_Data
//  534                GLcd_Send_Data(  0xFC );
        MOVS     R0,#+252
        BL       GLcd_Send_Data
//  535                
//  536                GLcd_XY(Cursor_X, Cursor_Y - 4);
        LDR.N    R0,??DataTable24_2
        LDRB     R0,[R0, #+0]
        SUBS     R1,R0,#+4
        UXTB     R1,R1            ;; ZeroExt  R1,R1,#+24,#+24
        LDR.N    R0,??DataTable24_1
        LDRB     R0,[R0, #+0]
        BL       GLcd_XY
//  537 
//  538                GLcd_Send_Data(  0x0F );
        MOVS     R0,#+15
        BL       GLcd_Send_Data
//  539                GLcd_Send_Data(  0xFC );      
        MOVS     R0,#+252
        BL       GLcd_Send_Data
//  540                
//  541                GLcd_XY(Cursor_X, Cursor_Y - 5);          
        LDR.N    R0,??DataTable24_2
        LDRB     R0,[R0, #+0]
        SUBS     R1,R0,#+5
        UXTB     R1,R1            ;; ZeroExt  R1,R1,#+24,#+24
        LDR.N    R0,??DataTable24_1
        LDRB     R0,[R0, #+0]
        BL       GLcd_XY
//  542 
//  543                GLcd_Send_Data(  0x06 );        
        MOVS     R0,#+6
        BL       GLcd_Send_Data
//  544                GLcd_Send_Data(  0x00 );                     
        MOVS     R0,#+0
        BL       GLcd_Send_Data
//  545                GLcd_XY(Cursor_X, Cursor_Y - 6); 
        LDR.N    R0,??DataTable24_2
        LDRB     R0,[R0, #+0]
        SUBS     R1,R0,#+6
        UXTB     R1,R1            ;; ZeroExt  R1,R1,#+24,#+24
        LDR.N    R0,??DataTable24_1
        LDRB     R0,[R0, #+0]
        BL       GLcd_XY
//  546 
//  547                GLcd_Send_Data(  0x02 );
        MOVS     R0,#+2
        BL       GLcd_Send_Data
//  548                GLcd_Send_Data(  0x00 );               
        MOVS     R0,#+0
        BL       GLcd_Send_Data
        B.N      ??GLcd_PutChar_31
//  549           }
//  550           else
//  551           {
//  552                 GLcd_XY(Cursor_X, Cursor_Y); 
??GLcd_PutChar_32:
        LDR.N    R0,??DataTable24_2
        LDRB     R1,[R0, #+0]
        LDR.N    R0,??DataTable24_1
        LDRB     R0,[R0, #+0]
        BL       GLcd_XY
//  553                 GLcd_Send_Data( 0 );
        MOVS     R0,#+0
        BL       GLcd_Send_Data
//  554                 GLcd_Send_Data( 0 );
        MOVS     R0,#+0
        BL       GLcd_Send_Data
//  555           }
//  556      }       
//  557 }
??GLcd_PutChar_31:
        ADD      SP,SP,#+48
        CFI CFA R13+24
        POP      {R4-R8,PC}       ;; return
        CFI EndBlock cfiBlock16
//  558 

        SECTION `.text`:CODE:NOROOT(1)
        CFI Block cfiBlock17 Using cfiCommon0
        CFI Function GLcd_PutString
        THUMB
//  559 void GLcd_PutString(unsigned char x, unsigned char y, unsigned char *str, unsigned char attr)
//  560 {
GLcd_PutString:
        PUSH     {R4-R8,LR}
        CFI R14 Frame(CFA, -4)
        CFI R8 Frame(CFA, -8)
        CFI R7 Frame(CFA, -12)
        CFI R6 Frame(CFA, -16)
        CFI R5 Frame(CFA, -20)
        CFI R4 Frame(CFA, -24)
        CFI CFA R13+24
        SUB      SP,SP,#+8
        CFI CFA R13+32
        MOVS     R4,R0
        MOVS     R5,R1
        MOVS     R6,R2
        MOVS     R7,R3
//  561 	unsigned char ch1;
//  562 	unsigned int ch2;
//  563 
//  564 	unsigned char x_pos = 0;
        MOVS     R8,#+0
        B.N      ??GLcd_PutString_0
//  565 
//  566 	while(*str)
//  567 	{
//  568 		ch1 = *str;
//  569 		str++;
//  570 
//  571 		if (x + x_pos > 10)
//  572 			break;
//  573 
//  574 		if(ch1 < 0x80)
//  575 		{
//  576 			ch2 = *str;
??GLcd_PutString_1:
        LDRB     R0,[R6, #+0]
//  577 			str++;
        ADDS     R6,R6,#+1
//  578                   GLcd_PutChar(x+x_pos,y,ch1,ch2,attr);
        UXTB     R7,R7            ;; ZeroExt  R7,R7,#+24,#+24
        STR      R7,[SP, #+0]
        MOVS     R3,R0
        UXTB     R3,R3            ;; ZeroExt  R3,R3,#+24,#+24
        UXTB     R2,R2            ;; ZeroExt  R2,R2,#+24,#+24
        MOVS     R1,R5
        UXTB     R1,R1            ;; ZeroExt  R1,R1,#+24,#+24
        ADDS     R0,R8,R4
        UXTB     R0,R0            ;; ZeroExt  R0,R0,#+24,#+24
        BL       GLcd_PutChar
//  579 			x_pos++;
        ADDS     R8,R8,#+1
//  580 		}
??GLcd_PutString_0:
        LDRB     R0,[R6, #+0]
        CMP      R0,#+0
        BEQ.N    ??GLcd_PutString_2
        LDRB     R2,[R6, #+0]
        ADDS     R6,R6,#+1
        UXTB     R4,R4            ;; ZeroExt  R4,R4,#+24,#+24
        UXTB     R8,R8            ;; ZeroExt  R8,R8,#+24,#+24
        ADDS     R0,R8,R4
        UXTH     R0,R0            ;; ZeroExt  R0,R0,#+16,#+16
        CMP      R0,#+11
        BCC.N    ??GLcd_PutString_3
//  581 		else
//  582 		{
//  583 			ch2 = 256*ch1 + (*str & 0xFF);
//  584 			str++;
//  585                   ch2 = Convert(ch2);
//  586 			Gui_PutKorChar(x+x_pos, y, ch2, attr); // 조합형 한글 출력
//  587 			x_pos += 1;
//  588 		}
//  589 	}
//  590 }
??GLcd_PutString_2:
        POP      {R0,R1,R4-R8,PC}  ;; return
??GLcd_PutString_3:
        UXTB     R2,R2            ;; ZeroExt  R2,R2,#+24,#+24
        CMP      R2,#+128
        BCC.N    ??GLcd_PutString_1
        UXTB     R2,R2            ;; ZeroExt  R2,R2,#+24,#+24
        MOV      R0,#+256
        LDRB     R1,[R6, #+0]
        MLA      R0,R0,R2,R1
        ADDS     R6,R6,#+1
        UXTH     R0,R0            ;; ZeroExt  R0,R0,#+16,#+16
        BL       Convert
        MOVS     R3,R7
        UXTB     R3,R3            ;; ZeroExt  R3,R3,#+24,#+24
        MOVS     R2,R0
        UXTH     R2,R2            ;; ZeroExt  R2,R2,#+16,#+16
        MOVS     R1,R5
        UXTB     R1,R1            ;; ZeroExt  R1,R1,#+24,#+24
        ADDS     R0,R8,R4
        UXTB     R0,R0            ;; ZeroExt  R0,R0,#+24,#+24
        BL       Gui_PutKorChar
        ADDS     R8,R8,#+1
        B.N      ??GLcd_PutString_0
        CFI EndBlock cfiBlock17
//  591 // 폰트테이블을 참조하여 16x16 한글 1자를 만들어 냄
//  592 

        SECTION `.text`:CODE:NOROOT(1)
        CFI Block cfiBlock18 Using cfiCommon0
        CFI Function Glcd_GetKorFont
        THUMB
//  593 void Glcd_GetKorFont(u16 c,u8 *fontBuffer)
//  594 {
Glcd_GetKorFont:
        PUSH     {R4-R7}
        CFI R7 Frame(CFA, -4)
        CFI R6 Frame(CFA, -8)
        CFI R5 Frame(CFA, -12)
        CFI R4 Frame(CFA, -16)
        CFI CFA R13+16
//  595   u8 i;
//  596   u8 cho_5bit, joong_5bit, jong_5bit;
//  597   u8 cho_bul, joong_bul, jong_bul, jong_flag;
//  598   u16 ch;
//  599 
//  600   jong_bul=0;
        MOVS     R2,#+0
//  601 
//  602   cho_5bit = (table_cho[(c >> 10) & 0x001F]);	// 초성: 14-10 5bit를 추출
        UBFX     R3,R0,#+10,#+5
        UXTH     R3,R3            ;; ZeroExt  R3,R3,#+16,#+16
        ADR.W    R4,table_cho
        LDRB     R3,[R3, R4]
//  603   joong_5bit = (table_joong[(c >> 5) & 0x001F]);// 중성: 09-05 5bit를 추출
        UBFX     R4,R0,#+5,#+5
        UXTH     R4,R4            ;; ZeroExt  R4,R4,#+16,#+16
        LDR.W    R5,??DataTable26_2
        LDRB     R4,[R4, R5]
//  604   jong_5bit = (table_jong[c & 0x001F]);		// 종성: 04-00 5bit를 추출
        UXTH     R0,R0            ;; ZeroExt  R0,R0,#+16,#+16
        ANDS     R0,R0,#0x1F
        LDR.W    R5,??DataTable26_3
        LDRB     R0,[R0, R5]
//  605 
//  606   if(jong_5bit == 0)	// 종성이 없으면
        UXTB     R0,R0            ;; ZeroExt  R0,R0,#+24,#+24
        CMP      R0,#+0
        BNE.N    ??Glcd_GetKorFont_0
//  607   {
//  608     jong_flag = 0;
        MOVS     R5,#+0
//  609     cho_bul = (bul_cho1[joong_5bit]);
        UXTB     R4,R4            ;; ZeroExt  R4,R4,#+24,#+24
        LDR.W    R6,??DataTable26_4
        LDRB     R7,[R4, R6]
//  610 
//  611     if((cho_5bit == 1) || (cho_5bit == 16)) joong_bul = 0;// 1: Fill Code, 16: ㅊ
        UXTB     R3,R3            ;; ZeroExt  R3,R3,#+24,#+24
        CMP      R3,#+1
        BEQ.N    ??Glcd_GetKorFont_1
        UXTB     R3,R3            ;; ZeroExt  R3,R3,#+24,#+24
        CMP      R3,#+16
        BNE.N    ??Glcd_GetKorFont_2
??Glcd_GetKorFont_1:
        MOVS     R6,#+0
        B.N      ??Glcd_GetKorFont_3
//  612     else  joong_bul = 1;
??Glcd_GetKorFont_2:
        MOVS     R6,#+1
        B.N      ??Glcd_GetKorFont_3
//  613   }
//  614   else			// 종성이 있으면
//  615   {
//  616     jong_flag = 1;
??Glcd_GetKorFont_0:
        MOVS     R5,#+1
//  617     cho_bul = (bul_cho2[joong_5bit]);
        UXTB     R4,R4            ;; ZeroExt  R4,R4,#+24,#+24
        LDR.W    R2,??DataTable26_5
        LDRB     R7,[R4, R2]
//  618 
//  619     if((cho_5bit == 1) || (cho_5bit == 16)) joong_bul = 2;// 1: Fill Code, 16: ㅊ
        UXTB     R3,R3            ;; ZeroExt  R3,R3,#+24,#+24
        CMP      R3,#+1
        BEQ.N    ??Glcd_GetKorFont_4
        UXTB     R3,R3            ;; ZeroExt  R3,R3,#+24,#+24
        CMP      R3,#+16
        BNE.N    ??Glcd_GetKorFont_5
??Glcd_GetKorFont_4:
        MOVS     R6,#+2
        B.N      ??Glcd_GetKorFont_6
//  620     else  joong_bul = 3;
??Glcd_GetKorFont_5:
        MOVS     R6,#+3
//  621 
//  622     jong_bul = (bul_jong[joong_5bit]);
??Glcd_GetKorFont_6:
        UXTB     R4,R4            ;; ZeroExt  R4,R4,#+24,#+24
        LDR.W    R2,??DataTable26_6
        LDRB     R2,[R4, R2]
//  623   }
//  624 
//  625 // 폰트를 버퍼로 복사
//  626   ch = cho_bul*20 + cho_5bit;			// 초성 폰트 복사
??Glcd_GetKorFont_3:
        UXTB     R7,R7            ;; ZeroExt  R7,R7,#+24,#+24
        MOVS     R12,#+20
        UXTB     R3,R3            ;; ZeroExt  R3,R3,#+24,#+24
        MLA      R3,R12,R7,R3
//  627   for(i = 0; i < 32; i++)
        MOVS     R7,#+0
        B.N      ??Glcd_GetKorFont_7
//  628   {
//  629     fontBuffer[i] = (K_font[ch][i]);
??Glcd_GetKorFont_8:
        UXTB     R7,R7            ;; ZeroExt  R7,R7,#+24,#+24
        UXTH     R3,R3            ;; ZeroExt  R3,R3,#+16,#+16
        LDR.W    R12,??DataTable26_7
        ADDS     R12,R12,R3, LSL #+5
        LDRB     R12,[R7, R12]
        UXTB     R7,R7            ;; ZeroExt  R7,R7,#+24,#+24
        STRB     R12,[R7, R1]
//  630   }
        ADDS     R7,R7,#+1
??Glcd_GetKorFont_7:
        UXTB     R7,R7            ;; ZeroExt  R7,R7,#+24,#+24
        CMP      R7,#+32
        BCC.N    ??Glcd_GetKorFont_8
//  631   
//  632   ch = 8*20 + joong_bul*22 + joong_5bit;	// 중성 폰트를 OR
        UXTB     R6,R6            ;; ZeroExt  R6,R6,#+24,#+24
        MOVS     R3,#+22
        UXTB     R4,R4            ;; ZeroExt  R4,R4,#+24,#+24
        MLA      R3,R3,R6,R4
        ADDS     R3,R3,#+160
//  633   for(i = 0; i < 32; i++)
        MOVS     R7,#+0
        B.N      ??Glcd_GetKorFont_9
//  634   {
//  635     fontBuffer[i] |= (K_font[ch][i]);
??Glcd_GetKorFont_10:
        UXTB     R7,R7            ;; ZeroExt  R7,R7,#+24,#+24
        LDRB     R4,[R7, R1]
        UXTB     R7,R7            ;; ZeroExt  R7,R7,#+24,#+24
        UXTH     R3,R3            ;; ZeroExt  R3,R3,#+16,#+16
        ADR.W    R6,K_font
        ADDS     R6,R6,R3, LSL #+5
        LDRB     R6,[R7, R6]
        ORRS     R4,R6,R4
        UXTB     R7,R7            ;; ZeroExt  R7,R7,#+24,#+24
        STRB     R4,[R7, R1]
//  636   }
        ADDS     R7,R7,#+1
??Glcd_GetKorFont_9:
        UXTB     R7,R7            ;; ZeroExt  R7,R7,#+24,#+24
        CMP      R7,#+32
        BCC.N    ??Glcd_GetKorFont_10
//  637 	
//  638   if(jong_flag)					// 종성이 존재하면 OR
        UXTB     R5,R5            ;; ZeroExt  R5,R5,#+24,#+24
        CMP      R5,#+0
        BEQ.N    ??Glcd_GetKorFont_11
//  639   {
//  640     ch = 8*20 + 4*22 + jong_bul*28 + jong_5bit;
        UXTB     R2,R2            ;; ZeroExt  R2,R2,#+24,#+24
        MOVS     R3,#+28
        UXTB     R0,R0            ;; ZeroExt  R0,R0,#+24,#+24
        MLA      R0,R3,R2,R0
        ADDS     R3,R0,#+248
//  641     for(i = 0; i < 32; i++)
        MOVS     R7,#+0
        B.N      ??Glcd_GetKorFont_12
//  642     {
//  643       fontBuffer[i] |= (K_font[ch][i]);
??Glcd_GetKorFont_13:
        UXTB     R7,R7            ;; ZeroExt  R7,R7,#+24,#+24
        LDRB     R0,[R7, R1]
        UXTB     R7,R7            ;; ZeroExt  R7,R7,#+24,#+24
        UXTH     R3,R3            ;; ZeroExt  R3,R3,#+16,#+16
        ADR.W    R2,K_font
        ADDS     R2,R2,R3, LSL #+5
        LDRB     R2,[R7, R2]
        ORRS     R0,R2,R0
        UXTB     R7,R7            ;; ZeroExt  R7,R7,#+24,#+24
        STRB     R0,[R7, R1]
//  644     }
        ADDS     R7,R7,#+1
??Glcd_GetKorFont_12:
        UXTB     R7,R7            ;; ZeroExt  R7,R7,#+24,#+24
        CMP      R7,#+32
        BCC.N    ??Glcd_GetKorFont_13
//  645   }
//  646 }
??Glcd_GetKorFont_11:
        POP      {R4-R7}
        CFI R4 SameValue
        CFI R5 SameValue
        CFI R6 SameValue
        CFI R7 SameValue
        CFI CFA R13+0
        BX       LR               ;; return
        CFI EndBlock cfiBlock18
//  647 

        SECTION `.text`:CODE:NOROOT(1)
        CFI Block cfiBlock19 Using cfiCommon0
        CFI Function Convert
        THUMB
//  648 u16 Convert(u16 kssm)
//  649 {
//  650   u8 high,low;
//  651   u16 index;
//  652   u16 result;
//  653 
//  654   high = (kssm >> 8) & 0xFF;
Convert:
        UXTH     R0,R0            ;; ZeroExt  R0,R0,#+16,#+16
        LSRS     R1,R0,#+8
//  655   low  =  kssm & 0xFF;
//  656 
//  657 
//  658   index = (high - 0xB0) * 94 + low - 0xA1;
        UXTB     R1,R1            ;; ZeroExt  R1,R1,#+24,#+24
        MOVS     R2,#+94
        UXTB     R0,R0            ;; ZeroExt  R0,R0,#+24,#+24
        MLA      R0,R2,R1,R0
        MOVW     R1,#+16705
        SUBS     R0,R0,R1
//  659   result =  KSTable[index][0] * 256 + KSTable[index][1];
        UXTH     R0,R0            ;; ZeroExt  R0,R0,#+16,#+16
        LDR.W    R1,??DataTable26_8
        LDRB     R1,[R1, R0, LSL #+1]
        MOV      R2,#+256
        UXTH     R0,R0            ;; ZeroExt  R0,R0,#+16,#+16
        LDR.W    R3,??DataTable26_8
        ADDS     R0,R3,R0, LSL #+1
        LDRB     R0,[R0, #+1]
        MLA      R0,R2,R1,R0
//  660 
//  661   return result;
        UXTH     R0,R0            ;; ZeroExt  R0,R0,#+16,#+16
        BX       LR               ;; return
        CFI EndBlock cfiBlock19
//  662 }

        SECTION `.text`:CODE:NOROOT(2)
        DATA
??DataTable24:
        DC32     0x40021400

        SECTION `.text`:CODE:NOROOT(2)
        DATA
??DataTable24_1:
        DC32     Cursor_X

        SECTION `.text`:CODE:NOROOT(2)
        DATA
??DataTable24_2:
        DC32     Cursor_Y

        SECTION `.text`:CODE:NOROOT(2)
        DATA
??DataTable24_3:
        DC32     Cursor_View

        SECTION `.text`:CODE:NOROOT(2)
        DATA
??DataTable24_4:
        DC32     0x40020800

        SECTION `.text`:CODE:NOROOT(2)
        DATA
??DataTable24_5:
        DC32     0x40000c00

        SECTION `.text`:CODE:NOROOT(2)
        DATA
??DataTable24_6:
        DC32     GLCD_Refresh_Flag

        SECTION `.text`:CODE:NOROOT(2)
        DATA
??DataTable24_7:
        DC32     GLCD_OUT_Flag

        SECTION `.text`:CODE:NOROOT(2)
        DATA
??DataTable24_8:
        DC32     ??Count

        SECTION `.text`:CODE:NOROOT(2)
        DATA
??DataTable24_9:
        DC32     GLCD_Buffer_Cnt

        SECTION `.text`:CODE:NOROOT(2)
        DATA
??DataTable24_10:
        DC32     GLCD_Data

        SECTION `.text`:CODE:NOROOT(2)
        DATA
??DataTable24_11:
        DC32     GLCD_Buffer
//  663 

        SECTION `.text`:CODE:NOROOT(1)
        CFI Block cfiBlock20 Using cfiCommon0
        CFI Function Gui_PutKorChar
        THUMB
//  664 void Gui_PutKorChar(u8 x, u8 y, u16 c, unsigned char attr)
//  665 {
Gui_PutKorChar:
        PUSH     {R4-R8,LR}
        CFI R14 Frame(CFA, -4)
        CFI R8 Frame(CFA, -8)
        CFI R7 Frame(CFA, -12)
        CFI R6 Frame(CFA, -16)
        CFI R5 Frame(CFA, -20)
        CFI R4 Frame(CFA, -24)
        CFI CFA R13+24
        SUB      SP,SP,#+64
        CFI CFA R13+88
        MOVS     R4,R0
        MOVS     R5,R1
        MOVS     R6,R3
//  666   
//  667      unsigned char i , j;
//  668      signed char o;
//  669      unsigned char ch1;
//  670      u8 fontBuffer[32];	// 32Byte 한글폰트 버퍼
//  671       unsigned char Font[32];
//  672 	
//  673      Glcd_GetKorFont(c, fontBuffer);   // 폰트를 얻어와서 버퍼에 저장한다.
        ADD      R1,SP,#+32
        MOVS     R0,R2
        UXTH     R0,R0            ;; ZeroExt  R0,R0,#+16,#+16
        BL       Glcd_GetKorFont
//  674   
//  675 
//  676 	for( i = 0 ; i < 8 ; i++ )
        MOVS     R7,#+0
        B.N      ??Gui_PutKorChar_0
//  677 	{
//  678 		Font[i] = 0 ;
//  679 		for( j = 0 ; j < 8 ; j++)
//  680 		{
//  681 			Font[i] |= ( ( ( fontBuffer[j] >> i )& 0x01 ) << ( j ) );
??Gui_PutKorChar_1:
        UXTB     R7,R7            ;; ZeroExt  R7,R7,#+24,#+24
        ADD      R1,SP,#+0
        LDRB     R1,[R7, R1]
        UXTB     R0,R0            ;; ZeroExt  R0,R0,#+24,#+24
        ADD      R2,SP,#+32
        LDRB     R2,[R0, R2]
        ASRS     R2,R2,R7
        ANDS     R2,R2,#0x1
        LSLS     R2,R2,R0
        ORRS     R1,R2,R1
        UXTB     R7,R7            ;; ZeroExt  R7,R7,#+24,#+24
        ADD      R2,SP,#+0
        STRB     R1,[R7, R2]
//  682 		}
        ADDS     R0,R0,#+1
??Gui_PutKorChar_2:
        UXTB     R0,R0            ;; ZeroExt  R0,R0,#+24,#+24
        CMP      R0,#+8
        BCC.N    ??Gui_PutKorChar_1
        ADDS     R7,R7,#+1
??Gui_PutKorChar_0:
        UXTB     R7,R7            ;; ZeroExt  R7,R7,#+24,#+24
        CMP      R7,#+8
        BCS.N    ??Gui_PutKorChar_3
        UXTB     R7,R7            ;; ZeroExt  R7,R7,#+24,#+24
        ADD      R0,SP,#+0
        MOVS     R1,#+0
        STRB     R1,[R7, R0]
        MOVS     R0,#+0
        B.N      ??Gui_PutKorChar_2
//  683 	}
//  684 	for( i = 0 ; i < 8 ; i++ )
??Gui_PutKorChar_3:
        MOVS     R7,#+0
        B.N      ??Gui_PutKorChar_4
//  685 	{
//  686 		Font[i + 8] = 0 ;
//  687 		for( j = 0 ; j < 8 ; j++)
//  688 		{
//  689 			Font[i + 8] |= ( ( ( fontBuffer[j + 8] >> i )& 0x01 ) << ( j ) );
??Gui_PutKorChar_5:
        UXTB     R7,R7            ;; ZeroExt  R7,R7,#+24,#+24
        ADD      R1,SP,#+0
        ADDS     R1,R7,R1
        LDRB     R1,[R1, #+8]
        UXTB     R0,R0            ;; ZeroExt  R0,R0,#+24,#+24
        ADD      R2,SP,#+32
        ADDS     R2,R0,R2
        LDRB     R2,[R2, #+8]
        ASRS     R2,R2,R7
        ANDS     R2,R2,#0x1
        LSLS     R2,R2,R0
        ORRS     R1,R2,R1
        UXTB     R7,R7            ;; ZeroExt  R7,R7,#+24,#+24
        ADD      R2,SP,#+0
        ADDS     R2,R7,R2
        STRB     R1,[R2, #+8]
//  690 		}
        ADDS     R0,R0,#+1
??Gui_PutKorChar_6:
        UXTB     R0,R0            ;; ZeroExt  R0,R0,#+24,#+24
        CMP      R0,#+8
        BCC.N    ??Gui_PutKorChar_5
        ADDS     R7,R7,#+1
??Gui_PutKorChar_4:
        UXTB     R7,R7            ;; ZeroExt  R7,R7,#+24,#+24
        CMP      R7,#+8
        BCS.N    ??Gui_PutKorChar_7
        UXTB     R7,R7            ;; ZeroExt  R7,R7,#+24,#+24
        ADD      R0,SP,#+0
        ADDS     R0,R7,R0
        MOVS     R1,#+0
        STRB     R1,[R0, #+8]
        MOVS     R0,#+0
        B.N      ??Gui_PutKorChar_6
//  691 	}	     
//  692 	for( i = 0 ; i < 8 ; i++ )
??Gui_PutKorChar_7:
        MOVS     R7,#+0
        B.N      ??Gui_PutKorChar_8
//  693 	{
//  694 		Font[i+16] = 0 ;
//  695 		for( j = 0 ; j < 8 ; j++)
//  696 		{
//  697 			Font[i + 16 ] |= ( ( ( fontBuffer[j + 16] >> i )& 0x01 ) << ( j ) );
??Gui_PutKorChar_9:
        UXTB     R7,R7            ;; ZeroExt  R7,R7,#+24,#+24
        ADD      R1,SP,#+0
        ADDS     R1,R7,R1
        LDRB     R1,[R1, #+16]
        UXTB     R0,R0            ;; ZeroExt  R0,R0,#+24,#+24
        ADD      R2,SP,#+32
        ADDS     R2,R0,R2
        LDRB     R2,[R2, #+16]
        ASRS     R2,R2,R7
        ANDS     R2,R2,#0x1
        LSLS     R2,R2,R0
        ORRS     R1,R2,R1
        UXTB     R7,R7            ;; ZeroExt  R7,R7,#+24,#+24
        ADD      R2,SP,#+0
        ADDS     R2,R7,R2
        STRB     R1,[R2, #+16]
//  698 		}
        ADDS     R0,R0,#+1
??Gui_PutKorChar_10:
        UXTB     R0,R0            ;; ZeroExt  R0,R0,#+24,#+24
        CMP      R0,#+8
        BCC.N    ??Gui_PutKorChar_9
        ADDS     R7,R7,#+1
??Gui_PutKorChar_8:
        UXTB     R7,R7            ;; ZeroExt  R7,R7,#+24,#+24
        CMP      R7,#+8
        BCS.N    ??Gui_PutKorChar_11
        UXTB     R7,R7            ;; ZeroExt  R7,R7,#+24,#+24
        ADD      R0,SP,#+0
        ADDS     R0,R7,R0
        MOVS     R1,#+0
        STRB     R1,[R0, #+16]
        MOVS     R0,#+0
        B.N      ??Gui_PutKorChar_10
//  699 	}
//  700 	for( i = 0 ; i < 8 ; i++ )
??Gui_PutKorChar_11:
        MOVS     R7,#+0
        B.N      ??Gui_PutKorChar_12
//  701 	{
//  702 		Font[i + 24] = 0 ;
//  703 		for( j = 0 ; j < 8 ; j++)
//  704 		{
//  705 			Font[i + 24] |= ( ( ( fontBuffer[j + 24] >> i )& 0x01 ) << ( j ) );
??Gui_PutKorChar_13:
        UXTB     R7,R7            ;; ZeroExt  R7,R7,#+24,#+24
        ADD      R1,SP,#+0
        ADDS     R1,R7,R1
        LDRB     R1,[R1, #+24]
        UXTB     R0,R0            ;; ZeroExt  R0,R0,#+24,#+24
        ADD      R2,SP,#+32
        ADDS     R2,R0,R2
        LDRB     R2,[R2, #+24]
        ASRS     R2,R2,R7
        ANDS     R2,R2,#0x1
        LSLS     R2,R2,R0
        ORRS     R1,R2,R1
        UXTB     R7,R7            ;; ZeroExt  R7,R7,#+24,#+24
        ADD      R2,SP,#+0
        ADDS     R2,R7,R2
        STRB     R1,[R2, #+24]
//  706 		}
        ADDS     R0,R0,#+1
??Gui_PutKorChar_14:
        UXTB     R0,R0            ;; ZeroExt  R0,R0,#+24,#+24
        CMP      R0,#+8
        BCC.N    ??Gui_PutKorChar_13
        ADDS     R7,R7,#+1
??Gui_PutKorChar_12:
        UXTB     R7,R7            ;; ZeroExt  R7,R7,#+24,#+24
        CMP      R7,#+8
        BCS.N    ??Gui_PutKorChar_15
        UXTB     R7,R7            ;; ZeroExt  R7,R7,#+24,#+24
        ADD      R0,SP,#+0
        ADDS     R0,R7,R0
        MOVS     R1,#+0
        STRB     R1,[R0, #+24]
        MOVS     R0,#+0
        B.N      ??Gui_PutKorChar_14
//  707 	}	      
//  708      for(i=0,o = 7 ;o >= 0 ; o-- ,i++)
??Gui_PutKorChar_15:
        MOVS     R7,#+0
        MOVS     R8,#+7
        B.N      ??Gui_PutKorChar_16
//  709      {   
//  710           
//  711 	     GLcd_XY(x, y+o); 	     
//  712           
//  713 	     ch1 = Font[o+ 8];
//  714 	     if(attr == LCD_NORMAL)
//  715 		     
//  716                GLcd_Send_Data( ch1 );
//  717           else
//  718                GLcd_Send_Data( ~ch1 );
//  719           
//  720 	     ch1 = Font[o];
//  721 	     if(attr == LCD_NORMAL)
//  722 		     
//  723                GLcd_Send_Data( ch1 );
//  724           else
//  725                GLcd_Send_Data( ~ch1 );	    
??Gui_PutKorChar_17:
        UXTB     R0,R0            ;; ZeroExt  R0,R0,#+24,#+24
        MVNS     R0,R0
        UXTB     R0,R0            ;; ZeroExt  R0,R0,#+24,#+24
        BL       GLcd_Send_Data
??Gui_PutKorChar_18:
        SUBS     R8,R8,#+1
        ADDS     R7,R7,#+1
??Gui_PutKorChar_16:
        SXTB     R8,R8            ;; SignExt  R8,R8,#+24,#+24
        CMP      R8,#+0
        BMI.N    ??Gui_PutKorChar_19
        ADDS     R1,R8,R5
        UXTB     R1,R1            ;; ZeroExt  R1,R1,#+24,#+24
        MOVS     R0,R4
        UXTB     R0,R0            ;; ZeroExt  R0,R0,#+24,#+24
        BL       GLcd_XY
        SXTB     R8,R8            ;; SignExt  R8,R8,#+24,#+24
        ADD      R0,SP,#+0
        ADDS     R0,R8,R0
        LDRB     R0,[R0, #+8]
        UXTB     R6,R6            ;; ZeroExt  R6,R6,#+24,#+24
        CMP      R6,#+1
        BNE.N    ??Gui_PutKorChar_20
        UXTB     R0,R0            ;; ZeroExt  R0,R0,#+24,#+24
        BL       GLcd_Send_Data
        B.N      ??Gui_PutKorChar_21
??Gui_PutKorChar_20:
        UXTB     R0,R0            ;; ZeroExt  R0,R0,#+24,#+24
        MVNS     R0,R0
        UXTB     R0,R0            ;; ZeroExt  R0,R0,#+24,#+24
        BL       GLcd_Send_Data
??Gui_PutKorChar_21:
        SXTB     R8,R8            ;; SignExt  R8,R8,#+24,#+24
        ADD      R0,SP,#+0
        LDRB     R0,[R8, R0]
        UXTB     R6,R6            ;; ZeroExt  R6,R6,#+24,#+24
        CMP      R6,#+1
        BNE.N    ??Gui_PutKorChar_17
        UXTB     R0,R0            ;; ZeroExt  R0,R0,#+24,#+24
        BL       GLcd_Send_Data
        B.N      ??Gui_PutKorChar_18
//  726      }
//  727      
//  728      for(i=0,o = 7 ;o >= 0 ; o-- ,i++)
??Gui_PutKorChar_19:
        MOVS     R7,#+0
        MOVS     R8,#+7
        B.N      ??Gui_PutKorChar_22
//  729      {   
//  730           
//  731 //	     GLcd_XY(x, y+o); 	
//  732 	     GLcd_XY(x, y + o + 8); 
//  733           ch1 = Font[o+24];
//  734           if(attr == LCD_NORMAL)
//  735                
//  736                GLcd_Send_Data( ch1 );
//  737           else
//  738                GLcd_Send_Data( ~ch1 );
//  739           ch1 = Font[o+16];
//  740           if(attr == LCD_NORMAL)
//  741                
//  742                GLcd_Send_Data( ch1 );
//  743           else
//  744                GLcd_Send_Data( ~ch1 );	    
??Gui_PutKorChar_23:
        UXTB     R0,R0            ;; ZeroExt  R0,R0,#+24,#+24
        MVNS     R0,R0
        UXTB     R0,R0            ;; ZeroExt  R0,R0,#+24,#+24
        BL       GLcd_Send_Data
??Gui_PutKorChar_24:
        SUBS     R8,R8,#+1
        ADDS     R7,R7,#+1
??Gui_PutKorChar_22:
        SXTB     R8,R8            ;; SignExt  R8,R8,#+24,#+24
        CMP      R8,#+0
        BMI.N    ??Gui_PutKorChar_25
        ADDS     R0,R8,R5
        ADDS     R1,R0,#+8
        UXTB     R1,R1            ;; ZeroExt  R1,R1,#+24,#+24
        MOVS     R0,R4
        UXTB     R0,R0            ;; ZeroExt  R0,R0,#+24,#+24
        BL       GLcd_XY
        SXTB     R8,R8            ;; SignExt  R8,R8,#+24,#+24
        ADD      R0,SP,#+0
        ADDS     R0,R8,R0
        LDRB     R0,[R0, #+24]
        UXTB     R6,R6            ;; ZeroExt  R6,R6,#+24,#+24
        CMP      R6,#+1
        BNE.N    ??Gui_PutKorChar_26
        UXTB     R0,R0            ;; ZeroExt  R0,R0,#+24,#+24
        BL       GLcd_Send_Data
        B.N      ??Gui_PutKorChar_27
??Gui_PutKorChar_26:
        UXTB     R0,R0            ;; ZeroExt  R0,R0,#+24,#+24
        MVNS     R0,R0
        UXTB     R0,R0            ;; ZeroExt  R0,R0,#+24,#+24
        BL       GLcd_Send_Data
??Gui_PutKorChar_27:
        SXTB     R8,R8            ;; SignExt  R8,R8,#+24,#+24
        ADD      R0,SP,#+0
        ADDS     R0,R8,R0
        LDRB     R0,[R0, #+16]
        UXTB     R6,R6            ;; ZeroExt  R6,R6,#+24,#+24
        CMP      R6,#+1
        BNE.N    ??Gui_PutKorChar_23
        UXTB     R0,R0            ;; ZeroExt  R0,R0,#+24,#+24
        BL       GLcd_Send_Data
        B.N      ??Gui_PutKorChar_24
//  745      }        
//  746 }
??Gui_PutKorChar_25:
        ADD      SP,SP,#+64
        CFI CFA R13+24
        POP      {R4-R8,PC}       ;; return
        CFI EndBlock cfiBlock20
//  747 

        SECTION `.text`:CODE:NOROOT(1)
        CFI Block cfiBlock21 Using cfiCommon0
        CFI Function GLcd_XY
        THUMB
//  748 void GLcd_XY(unsigned char X,unsigned char Y)
//  749 {
GLcd_XY:
        PUSH     {R4,LR}
        CFI R14 Frame(CFA, -4)
        CFI R4 Frame(CFA, -8)
        CFI CFA R13+8
        MOVS     R4,R0
//  750 	GLcd_Send_Cmd( 0x80 + ( 31 - Y ) );   // X를 세팅
        RSBS     R0,R1,#+159
        UXTB     R0,R0            ;; ZeroExt  R0,R0,#+24,#+24
        BL       GLcd_Send_Cmd
//  751 	GLcd_Send_Cmd( 0x80 + ( 9 - X ) );   // Y를 세팅
        RSBS     R0,R4,#+137
        UXTB     R0,R0            ;; ZeroExt  R0,R0,#+24,#+24
        BL       GLcd_Send_Cmd
//  752 }
        POP      {R4,PC}          ;; return
        CFI EndBlock cfiBlock21
//  753 
//  754 
//  755 /*=============================================================================
//  756 
//  757 - 74hc574 제어
//  758 - 라이징 엑티브인데 FSMC로 데이터를 읽고 쓰는데 타이밍 문제가 있음
//  759 - 
//  760 
//  761 =============================================================================*/

        SECTION `.text`:CODE:NOROOT(1)
        CFI Block cfiBlock22 Using cfiCommon0
        CFI Function GLcd_RC_Input
        THUMB
//  762 void GLcd_RC_Input(unsigned char Byte)
//  763 {
GLcd_RC_Input:
        PUSH     {R4,LR}
        CFI R14 Frame(CFA, -4)
        CFI R4 Frame(CFA, -8)
        CFI CFA R13+8
        MOVS     R4,R0
//  764     u8 i;
//  765     GPIO_ResetBits(LCD_CONTROL_PORT,LCD_RC_PIN);  
        MOVS     R1,#+1
        LDR.N    R0,??DataTable26_9  ;; 0x40020800
        BL       GPIO_ResetBits
//  766      
//  767 ///////////////////////////////////////////////////////////////////////////
//  768 //#ifdef 1		// LGM12232A
//  769 	if( Byte & 0x01 )
        LSLS     R0,R4,#+31
        BPL.N    ??GLcd_RC_Input_0
//  770 		GPIO_SetBits(LCD_DATA_LINE_PORT1,GPIO_Pin_0);
        MOVS     R1,#+1
        LDR.N    R0,??DataTable26_10  ;; 0x40021400
        BL       GPIO_SetBits
        B.N      ??GLcd_RC_Input_1
//  771 	else
//  772 		GPIO_ResetBits(LCD_DATA_LINE_PORT1,GPIO_Pin_0);
??GLcd_RC_Input_0:
        MOVS     R1,#+1
        LDR.N    R0,??DataTable26_10  ;; 0x40021400
        BL       GPIO_ResetBits
//  773 	if( Byte & 0x02 )
??GLcd_RC_Input_1:
        LSLS     R0,R4,#+30
        BPL.N    ??GLcd_RC_Input_2
//  774 		GPIO_SetBits(LCD_DATA_LINE_PORT1,GPIO_Pin_1);
        MOVS     R1,#+2
        LDR.N    R0,??DataTable26_10  ;; 0x40021400
        BL       GPIO_SetBits
        B.N      ??GLcd_RC_Input_3
//  775 	else
//  776 		GPIO_ResetBits(LCD_DATA_LINE_PORT1,GPIO_Pin_1);
??GLcd_RC_Input_2:
        MOVS     R1,#+2
        LDR.N    R0,??DataTable26_10  ;; 0x40021400
        BL       GPIO_ResetBits
//  777 	if( Byte & 0x04 )
??GLcd_RC_Input_3:
        LSLS     R0,R4,#+29
        BPL.N    ??GLcd_RC_Input_4
//  778 		GPIO_SetBits(LCD_DATA_LINE_PORT1,GPIO_Pin_2);
        MOVS     R1,#+4
        LDR.N    R0,??DataTable26_10  ;; 0x40021400
        BL       GPIO_SetBits
        B.N      ??GLcd_RC_Input_5
//  779 	else
//  780 		GPIO_ResetBits(LCD_DATA_LINE_PORT1,GPIO_Pin_2);
??GLcd_RC_Input_4:
        MOVS     R1,#+4
        LDR.N    R0,??DataTable26_10  ;; 0x40021400
        BL       GPIO_ResetBits
//  781 	if( Byte & 0x08 )
??GLcd_RC_Input_5:
        LSLS     R0,R4,#+28
        BPL.N    ??GLcd_RC_Input_6
//  782 		GPIO_SetBits(LCD_DATA_LINE_PORT1,GPIO_Pin_3);
        MOVS     R1,#+8
        LDR.N    R0,??DataTable26_10  ;; 0x40021400
        BL       GPIO_SetBits
        B.N      ??GLcd_RC_Input_7
//  783 	else
//  784 		GPIO_ResetBits(LCD_DATA_LINE_PORT1,GPIO_Pin_3);
??GLcd_RC_Input_6:
        MOVS     R1,#+8
        LDR.N    R0,??DataTable26_10  ;; 0x40021400
        BL       GPIO_ResetBits
//  785 	if( Byte & 0x10 )
??GLcd_RC_Input_7:
        LSLS     R0,R4,#+27
        BPL.N    ??GLcd_RC_Input_8
//  786 		GPIO_SetBits(LCD_DATA_LINE_PORT1,GPIO_Pin_4);
        MOVS     R1,#+16
        LDR.N    R0,??DataTable26_10  ;; 0x40021400
        BL       GPIO_SetBits
        B.N      ??GLcd_RC_Input_9
//  787 	else
//  788 		GPIO_ResetBits(LCD_DATA_LINE_PORT1,GPIO_Pin_4);
??GLcd_RC_Input_8:
        MOVS     R1,#+16
        LDR.N    R0,??DataTable26_10  ;; 0x40021400
        BL       GPIO_ResetBits
//  789 	if( Byte & 0x20 )
??GLcd_RC_Input_9:
        LSLS     R0,R4,#+26
        BPL.N    ??GLcd_RC_Input_10
//  790 		GPIO_SetBits(LCD_DATA_LINE_PORT1,GPIO_Pin_5);
        MOVS     R1,#+32
        LDR.N    R0,??DataTable26_10  ;; 0x40021400
        BL       GPIO_SetBits
        B.N      ??GLcd_RC_Input_11
//  791 	else
//  792 		GPIO_ResetBits(LCD_DATA_LINE_PORT1,GPIO_Pin_5);
??GLcd_RC_Input_10:
        MOVS     R1,#+32
        LDR.N    R0,??DataTable26_10  ;; 0x40021400
        BL       GPIO_ResetBits
//  793 	if( Byte & 0x40 )
??GLcd_RC_Input_11:
        LSLS     R0,R4,#+25
        BPL.N    ??GLcd_RC_Input_12
//  794 		GPIO_SetBits(LCD_DATA_LINE_PORT2,GPIO_Pin_2);
        MOVS     R1,#+4
        LDR.N    R0,??DataTable26_9  ;; 0x40020800
        BL       GPIO_SetBits
        B.N      ??GLcd_RC_Input_13
//  795 	else
//  796 		GPIO_ResetBits(LCD_DATA_LINE_PORT2,GPIO_Pin_2);
??GLcd_RC_Input_12:
        MOVS     R1,#+4
        LDR.N    R0,??DataTable26_9  ;; 0x40020800
        BL       GPIO_ResetBits
//  797 	if( Byte & 0x80 )
??GLcd_RC_Input_13:
        LSLS     R0,R4,#+24
        BPL.N    ??GLcd_RC_Input_14
//  798 		GPIO_SetBits(LCD_DATA_LINE_PORT2,GPIO_Pin_3);
        MOVS     R1,#+8
        LDR.N    R0,??DataTable26_9  ;; 0x40020800
        BL       GPIO_SetBits
        B.N      ??GLcd_RC_Input_15
//  799 	else
//  800 		GPIO_ResetBits(LCD_DATA_LINE_PORT2,GPIO_Pin_3);
??GLcd_RC_Input_14:
        MOVS     R1,#+8
        LDR.N    R0,??DataTable26_9  ;; 0x40020800
        BL       GPIO_ResetBits
//  801 /*#else		// ABG160032
//  802 	if( Byte & 0x01 )
//  803 		GPIO_SetBits(LCD_DATA_LINE_PORT2,GPIO_Pin_2);
//  804 	else
//  805 		GPIO_ResetBits(LCD_DATA_LINE_PORT2,GPIO_Pin_2);
//  806 	if( Byte & 0x02 )
//  807 		GPIO_SetBits(LCD_DATA_LINE_PORT2,GPIO_Pin_3);
//  808 	else
//  809 		GPIO_ResetBits(LCD_DATA_LINE_PORT2,GPIO_Pin_3);		
//  810 	if( Byte & 0x04 )
//  811 		GPIO_SetBits(LCD_DATA_LINE_PORT1,GPIO_Pin_0);
//  812 	else
//  813 		GPIO_ResetBits(LCD_DATA_LINE_PORT1,GPIO_Pin_0);
//  814 	if( Byte & 0x08 )
//  815 		GPIO_SetBits(LCD_DATA_LINE_PORT1,GPIO_Pin_1);
//  816 	else
//  817 		GPIO_ResetBits(LCD_DATA_LINE_PORT1,GPIO_Pin_1);
//  818 	if( Byte & 0x10 )
//  819 		GPIO_SetBits(LCD_DATA_LINE_PORT1,GPIO_Pin_2);
//  820 	else
//  821 		GPIO_ResetBits(LCD_DATA_LINE_PORT1,GPIO_Pin_2);
//  822 	if( Byte & 0x20 )
//  823 		GPIO_SetBits(LCD_DATA_LINE_PORT1,GPIO_Pin_3);
//  824 	else
//  825 		GPIO_ResetBits(LCD_DATA_LINE_PORT1,GPIO_Pin_3);
//  826 	if( Byte & 0x40 )
//  827 		GPIO_SetBits(LCD_DATA_LINE_PORT1,GPIO_Pin_4);
//  828 	else
//  829 		GPIO_ResetBits(LCD_DATA_LINE_PORT1,GPIO_Pin_4);
//  830 	if( Byte & 0x80 )
//  831 		GPIO_SetBits(LCD_DATA_LINE_PORT1,GPIO_Pin_5);
//  832 	else
//  833 		GPIO_ResetBits(LCD_DATA_LINE_PORT1,GPIO_Pin_5);
//  834 
//  835 	
//  836 #endif*/
//  837 ///////////////////////////////////////////////////////////////////////////////	
//  838 	GPIO_SetBits(LCD_CONTROL_PORT,LCD_RC_PIN);  
??GLcd_RC_Input_15:
        MOVS     R1,#+1
        LDR.N    R0,??DataTable26_9  ;; 0x40020800
        BL       GPIO_SetBits
//  839 	for( i = 0 ; i < 40 ; i++);
        MOVS     R0,#+0
        B.N      ??GLcd_RC_Input_16
??GLcd_RC_Input_17:
        ADDS     R0,R0,#+1
??GLcd_RC_Input_16:
        UXTB     R0,R0            ;; ZeroExt  R0,R0,#+24,#+24
        CMP      R0,#+40
        BCC.N    ??GLcd_RC_Input_17
//  840 	GPIO_ResetBits(LCD_CONTROL_PORT,LCD_RC_PIN);  
        MOVS     R1,#+1
        LDR.N    R0,??DataTable26_9  ;; 0x40020800
        BL       GPIO_ResetBits
//  841   
//  842 }
        POP      {R4,PC}          ;; return
        CFI EndBlock cfiBlock22

        SECTION `.text`:CODE:NOROOT(2)
        DATA
??DataTable25:
        DC32     GLCD_Buffer_Cnt

        SECTION `.text`:CODE:NOROOT(2)
        DATA
`?<Constant "   - TEAHO TECH -   ">`:
        ; Initializer data, 24 bytes
        DC8 32, 32, 32, 45, 32, 84, 69, 65, 72, 79
        DC8 32, 84, 69, 67, 72, 32, 45, 32, 32, 32
        DC8 0, 0, 0, 0

        SECTION `.text`:CODE:NOROOT(2)
        DATA
`?<Constant " EMS_SYSTEM V000032 ">`:
        ; Initializer data, 24 bytes
        DC8 32, 69, 77, 83, 95, 83, 89, 83, 84, 69
        DC8 77, 32, 86, 48, 48, 48, 48, 51, 50, 32
        DC8 0, 0, 0, 0

        SECTION `.text`:CODE:NOROOT(1)
        CFI Block cfiBlock23 Using cfiCommon0
        CFI Function GLcd_DC_Input
        THUMB
GLcd_DC_Input:
        PUSH     {R4,LR}
        CFI R14 Frame(CFA, -4)
        CFI R4 Frame(CFA, -8)
        CFI CFA R13+8
        MOVS     R4,R0
        MOVS     R1,#+2
        LDR.N    R0,??DataTable26_9  ;; 0x40020800
        BL       GPIO_ResetBits
        LSLS     R0,R4,#+31
        BPL.N    ??GLcd_DC_Input_0
        MOVS     R1,#+4
        LDR.N    R0,??DataTable26_9  ;; 0x40020800
        BL       GPIO_SetBits
        B.N      ??GLcd_DC_Input_1
??GLcd_DC_Input_0:
        MOVS     R1,#+4
        LDR.N    R0,??DataTable26_9  ;; 0x40020800
        BL       GPIO_ResetBits
??GLcd_DC_Input_1:
        LSLS     R0,R4,#+30
        BPL.N    ??GLcd_DC_Input_2
        MOVS     R1,#+8
        LDR.N    R0,??DataTable26_9  ;; 0x40020800
        BL       GPIO_SetBits
        B.N      ??GLcd_DC_Input_3
??GLcd_DC_Input_2:
        MOVS     R1,#+8
        LDR.N    R0,??DataTable26_9  ;; 0x40020800
        BL       GPIO_ResetBits
??GLcd_DC_Input_3:
        LSLS     R0,R4,#+29
        BPL.N    ??GLcd_DC_Input_4
        MOVS     R1,#+1
        LDR.N    R0,??DataTable26_10  ;; 0x40021400
        BL       GPIO_SetBits
        B.N      ??GLcd_DC_Input_5
??GLcd_DC_Input_4:
        MOVS     R1,#+1
        LDR.N    R0,??DataTable26_10  ;; 0x40021400
        BL       GPIO_ResetBits
??GLcd_DC_Input_5:
        LSLS     R0,R4,#+28
        BPL.N    ??GLcd_DC_Input_6
        MOVS     R1,#+2
        LDR.N    R0,??DataTable26_10  ;; 0x40021400
        BL       GPIO_SetBits
        B.N      ??GLcd_DC_Input_7
??GLcd_DC_Input_6:
        MOVS     R1,#+2
        LDR.N    R0,??DataTable26_10  ;; 0x40021400
        BL       GPIO_ResetBits
??GLcd_DC_Input_7:
        LSLS     R0,R4,#+27
        BPL.N    ??GLcd_DC_Input_8
        MOVS     R1,#+4
        LDR.N    R0,??DataTable26_10  ;; 0x40021400
        BL       GPIO_SetBits
        B.N      ??GLcd_DC_Input_9
??GLcd_DC_Input_8:
        MOVS     R1,#+4
        LDR.N    R0,??DataTable26_10  ;; 0x40021400
        BL       GPIO_ResetBits
??GLcd_DC_Input_9:
        LSLS     R0,R4,#+26
        BPL.N    ??GLcd_DC_Input_10
        MOVS     R1,#+8
        LDR.N    R0,??DataTable26_10  ;; 0x40021400
        BL       GPIO_SetBits
        B.N      ??GLcd_DC_Input_11
??GLcd_DC_Input_10:
        MOVS     R1,#+8
        LDR.N    R0,??DataTable26_10  ;; 0x40021400
        BL       GPIO_ResetBits
??GLcd_DC_Input_11:
        LSLS     R0,R4,#+25
        BPL.N    ??GLcd_DC_Input_12
        MOVS     R1,#+16
        LDR.N    R0,??DataTable26_10  ;; 0x40021400
        BL       GPIO_SetBits
        B.N      ??GLcd_DC_Input_13
??GLcd_DC_Input_12:
        MOVS     R1,#+16
        LDR.N    R0,??DataTable26_10  ;; 0x40021400
        BL       GPIO_ResetBits
??GLcd_DC_Input_13:
        LSLS     R0,R4,#+24
        BPL.N    ??GLcd_DC_Input_14
        MOVS     R1,#+32
        LDR.N    R0,??DataTable26_10  ;; 0x40021400
        BL       GPIO_SetBits
        B.N      ??GLcd_DC_Input_15
??GLcd_DC_Input_14:
        MOVS     R1,#+32
        LDR.N    R0,??DataTable26_10  ;; 0x40021400
        BL       GPIO_ResetBits
??GLcd_DC_Input_15:
        MOVS     R1,#+2
        LDR.N    R0,??DataTable26_9  ;; 0x40020800
        BL       GPIO_SetBits
        MOVS     R0,#+0
        B.N      ??GLcd_DC_Input_16
??GLcd_DC_Input_17:
        ADDS     R0,R0,#+1
??GLcd_DC_Input_16:
        UXTB     R0,R0            ;; ZeroExt  R0,R0,#+24,#+24
        CMP      R0,#+40
        BCC.N    ??GLcd_DC_Input_17
        MOVS     R1,#+2
        LDR.N    R0,??DataTable26_9  ;; 0x40020800
        BL       GPIO_ResetBits
        POP      {R4,PC}          ;; return
        CFI EndBlock cfiBlock23

        SECTION `.text`:CODE:NOROOT(2)
        DATA
??DataTable26:
        DC32     Font5x7

        SECTION `.text`:CODE:NOROOT(2)
        DATA
??DataTable26_1:
        DC32     Toogle_Cursor

        SECTION `.text`:CODE:NOROOT(2)
        DATA
??DataTable26_2:
        DC32     table_joong

        SECTION `.text`:CODE:NOROOT(2)
        DATA
??DataTable26_3:
        DC32     table_jong

        SECTION `.text`:CODE:NOROOT(2)
        DATA
??DataTable26_4:
        DC32     bul_cho1

        SECTION `.text`:CODE:NOROOT(2)
        DATA
??DataTable26_5:
        DC32     bul_cho2

        SECTION `.text`:CODE:NOROOT(2)
        DATA
??DataTable26_6:
        DC32     bul_jong

        SECTION `.text`:CODE:NOROOT(2)
        DATA
??DataTable26_7:
        DC32     K_font

        SECTION `.text`:CODE:NOROOT(2)
        DATA
??DataTable26_8:
        DC32     KSTable

        SECTION `.text`:CODE:NOROOT(2)
        DATA
??DataTable26_9:
        DC32     0x40020800

        SECTION `.text`:CODE:NOROOT(2)
        DATA
??DataTable26_10:
        DC32     0x40021400

        SECTION `.text`:CODE:NOROOT(2)
        DATA
// __absolute unsigned char const E_font[128][16]
E_font:
        ; Initializer data, 2048 bytes
        DC8 0, 0, 0, 0, 0, 0, 0, 0, 0, 0
        DC8 0, 0, 0, 0, 0, 0, 253, 249, 245, 129
        DC8 245, 249, 253, 255, 255, 221, 235, 247, 235, 221
        DC8 255, 255, 253, 249, 245, 129, 245, 249, 253, 255
        DC8 159, 255, 255, 255, 255, 255, 255, 255, 253, 249
        DC8 245, 129, 245, 249, 253, 255, 159, 255, 135, 255
        DC8 255, 255, 255, 255, 253, 249, 245, 129, 245, 249
        DC8 253, 255, 159, 255, 135, 255, 129, 255, 255, 255
        DC8 253, 249, 245, 129, 245, 249, 125, 255, 159, 255
        DC8 135, 255, 129, 255, 128, 255, 0, 192, 224, 240
        DC8 248, 240, 224, 192, 0, 1, 11, 11, 15, 11
        DC8 11, 1, 0, 0, 128, 192, 192, 128, 0, 0
        DC8 0, 0, 1, 3, 3, 1, 0, 0, 254, 254
        DC8 126, 62, 62, 126, 254, 254, 127, 127, 126, 124
        DC8 124, 126, 127, 127, 0, 192, 96, 32, 32, 96
        DC8 192, 0, 0, 3, 6, 4, 4, 6, 3, 0
        DC8 254, 62, 158, 222, 222, 158, 62, 254, 127, 124
        DC8 121, 123, 123, 121, 124, 127, 0, 0, 128, 192
        DC8 232, 184, 24, 120, 0, 7, 15, 8, 8, 15
        DC8 7, 0, 0, 112, 248, 136, 136, 248, 112, 0
        DC8 0, 2, 2, 15, 15, 2, 2, 0, 0, 0
        DC8 0, 248, 248, 48, 96, 192, 0, 6, 15, 15
        DC8 7, 0, 0, 0, 0, 0, 248, 248, 40, 40
        DC8 248, 248, 0, 7, 7, 3, 0, 14, 15, 7
        DC8 0, 16, 192, 224, 40, 224, 192, 16, 0, 4
        DC8 1, 3, 10, 3, 1, 4, 0, 248, 240, 224
        DC8 192, 192, 128, 128, 0, 15, 7, 3, 1, 1
        DC8 0, 0, 0, 128, 128, 192, 192, 224, 240, 248
        DC8 0, 0, 0, 1, 1, 3, 7, 15, 0, 32
        DC8 48, 248, 248, 48, 32, 0, 0, 2, 6, 15
        DC8 15, 6, 2, 0, 0, 112, 248, 248, 0, 248
        DC8 248, 112, 0, 0, 13, 13, 0, 13, 13, 0
        DC8 112, 248, 136, 248, 248, 8, 248, 248, 0, 0
        DC8 0, 15, 15, 0, 15, 15, 0, 216, 252, 36
        DC8 100, 204, 136, 0, 0, 8, 25, 19, 18, 31
        DC8 13, 0, 0, 0, 0, 0, 0, 0, 0, 0
        DC8 0, 15, 15, 15, 15, 15, 15, 15, 0, 32
        DC8 48, 248, 248, 48, 32, 0, 0, 18, 22, 31
        DC8 31, 22, 18, 0, 0, 32, 48, 248, 248, 48
        DC8 32, 0, 0, 0, 0, 15, 15, 0, 0, 0
        DC8 0, 0, 0, 248, 248, 0, 0, 0, 0, 2
        DC8 6, 15, 15, 6, 2, 0, 0, 128, 128, 128
        DC8 128, 224, 192, 128, 0, 0, 0, 0, 0, 3
        DC8 1, 0, 0, 128, 192, 224, 128, 128, 128, 128
        DC8 0, 0, 1, 3, 0, 0, 0, 0, 0, 192
        DC8 192, 0, 0, 0, 0, 0, 0, 3, 3, 2
        DC8 2, 2, 2, 2, 128, 192, 224, 128, 128, 224
        DC8 192, 128, 0, 1, 3, 0, 0, 3, 1, 0
        DC8 0, 0, 0, 192, 248, 192, 0, 0, 0, 12
        DC8 15, 15, 15, 15, 15, 12, 0, 24, 120, 248
        DC8 248, 248, 120, 24, 0, 0, 0, 1, 15, 1
        DC8 0, 0, 0, 0, 0, 0, 0, 0, 0, 0
        DC8 0, 0, 0, 0, 0, 0, 0, 0, 0, 0
        DC8 112, 248, 248, 112, 0, 0, 0, 0, 0, 13
        DC8 13, 0, 0, 0, 0, 32, 56, 24, 32, 56
        DC8 24, 0, 0, 0, 0, 0, 0, 0, 0, 0
        DC8 0, 32, 248, 248, 32, 248, 248, 32, 0, 2
        DC8 15, 15, 2, 15, 15, 2, 0, 96, 240, 156
        DC8 156, 176, 32, 0, 0, 2, 6, 28, 28, 7
        DC8 3, 0, 0, 32, 112, 112, 160, 192, 96, 32
        DC8 0, 4, 6, 3, 5, 14, 14, 4, 0, 0
        DC8 176, 248, 200, 120, 176, 128, 0, 7, 15, 8
        DC8 9, 7, 15, 8, 0, 0, 32, 56, 24, 0
        DC8 0, 0, 0, 0, 0, 0, 0, 0, 0, 0
        DC8 0, 0, 224, 240, 24, 8, 0, 0, 0, 0
        DC8 3, 7, 12, 8, 0, 0, 0, 0, 8, 24
        DC8 240, 224, 0, 0, 0, 0, 8, 12, 7, 3
        DC8 0, 0, 0, 128, 160, 224, 192, 224, 160, 128
        DC8 0, 0, 2, 3, 1, 3, 2, 0, 0, 128
        DC8 128, 224, 224, 128, 128, 0, 0, 0, 0, 3
        DC8 3, 0, 0, 0, 0, 0, 0, 0, 0, 0
        DC8 0, 0, 0, 0, 16, 28, 12, 0, 0, 0
        DC8 0, 128, 128, 128, 128, 128, 128, 0, 0, 0
        DC8 0, 0, 0, 0, 0, 0, 0, 0, 0, 0
        DC8 0, 0, 0, 0, 0, 0, 0, 12, 12, 0
        DC8 0, 0, 0, 0, 0, 0, 128, 192, 96, 48
        DC8 0, 12, 6, 3, 1, 0, 0, 0, 0, 240
        DC8 248, 136, 200, 248, 240, 0, 0, 7, 15, 9
        DC8 8, 15, 7, 0, 0, 0, 16, 248, 248, 0
        DC8 0, 0, 0, 0, 8, 15, 15, 8, 0, 0
        DC8 0, 16, 24, 8, 136, 248, 112, 0, 0, 12
        DC8 14, 11, 9, 8, 8, 0, 0, 8, 8, 72
        DC8 232, 184, 24, 0, 0, 4, 12, 8, 8, 15
        DC8 7, 0, 0, 192, 224, 48, 248, 248, 0, 0
        DC8 0, 3, 3, 2, 15, 15, 2, 0, 0, 120
        DC8 120, 72, 72, 200, 136, 0, 0, 4, 12, 8
        DC8 8, 15, 7, 0, 0, 224, 240, 152, 136, 136
        DC8 0, 0, 0, 7, 15, 8, 8, 15, 7, 0
        DC8 0, 8, 8, 136, 200, 120, 56, 0, 0, 0
        DC8 15, 15, 0, 0, 0, 0, 0, 112, 248, 136
        DC8 136, 248, 112, 0, 0, 7, 15, 8, 8, 15
        DC8 7, 0, 0, 112, 248, 136, 136, 248, 240, 0
        DC8 0, 0, 8, 8, 12, 7, 3, 0, 0, 0
        DC8 0, 48, 48, 0, 0, 0, 0, 0, 0, 6
        DC8 6, 0, 0, 0, 0, 0, 0, 48, 48, 0
        DC8 0, 0, 0, 0, 8, 14, 6, 0, 0, 0
        DC8 0, 128, 192, 96, 48, 24, 8, 0, 0, 0
        DC8 1, 3, 6, 12, 8, 0, 0, 64, 64, 64
        DC8 64, 64, 64, 0, 0, 2, 2, 2, 2, 2
        DC8 2, 0, 0, 8, 24, 48, 96, 192, 128, 0
        DC8 0, 8, 12, 6, 3, 1, 0, 0, 0, 16
        DC8 24, 136, 200, 120, 48, 0, 0, 0, 0, 13
        DC8 13, 0, 0, 0, 0, 240, 248, 8, 200, 248
        DC8 240, 0, 0, 7, 15, 8, 11, 11, 1, 0
        DC8 0, 224, 240, 24, 24, 240, 224, 0, 0, 15
        DC8 15, 1, 1, 15, 15, 0, 0, 248, 248, 136
        DC8 136, 248, 112, 0, 0, 15, 15, 8, 8, 15
        DC8 7, 0, 0, 240, 248, 8, 8, 24, 16, 0
        DC8 0, 7, 15, 8, 8, 12, 4, 0, 0, 248
        DC8 248, 8, 8, 248, 240, 0, 0, 15, 15, 8
        DC8 8, 15, 7, 0, 0, 248, 248, 136, 136, 136
        DC8 8, 0, 0, 15, 15, 8, 8, 8, 8, 0
        DC8 0, 248, 248, 136, 136, 136, 8, 0, 0, 15
        DC8 15, 0, 0, 0, 0, 0, 0, 240, 248, 8
        DC8 8, 8, 8, 0, 0, 7, 15, 8, 9, 15
        DC8 15, 0, 0, 248, 248, 128, 128, 248, 248, 0
        DC8 0, 15, 15, 0, 0, 15, 15, 0, 0, 0
        DC8 8, 248, 248, 8, 0, 0, 0, 0, 8, 15
        DC8 15, 8, 0, 0, 0, 0, 0, 0, 0, 248
        DC8 248, 0, 0, 4, 12, 8, 8, 15, 7, 0
        DC8 0, 248, 248, 128, 224, 120, 24, 0, 0, 15
        DC8 15, 0, 3, 15, 12, 0, 0, 248, 248, 0
        DC8 0, 0, 0, 0, 0, 15, 15, 8, 8, 8
        DC8 8, 0, 0, 248, 248, 48, 224, 48, 248, 248
        DC8 0, 15, 15, 0, 0, 0, 15, 15, 0, 248
        DC8 248, 224, 128, 248, 248, 0, 0, 15, 15, 0
        DC8 3, 15, 15, 0, 0, 240, 248, 8, 8, 248
        DC8 240, 0, 0, 7, 15, 8, 8, 15, 7, 0
        DC8 0, 248, 248, 136, 136, 248, 112, 0, 0, 15
        DC8 15, 0, 0, 0, 0, 0, 0, 240, 248, 8
        DC8 8, 248, 240, 0, 0, 7, 15, 8, 8, 31
        DC8 23, 0, 0, 248, 248, 136, 136, 248, 112, 0
        DC8 0, 15, 15, 1, 3, 14, 12, 0, 0, 112
        DC8 248, 136, 136, 152, 16, 0, 0, 4, 12, 8
        DC8 8, 15, 7, 0, 0, 8, 8, 248, 248, 8
        DC8 8, 0, 0, 0, 0, 15, 15, 0, 0, 0
        DC8 0, 248, 248, 0, 0, 248, 248, 0, 0, 7
        DC8 15, 8, 8, 15, 7, 0, 0, 248, 248, 0
        DC8 0, 248, 248, 0, 0, 3, 7, 12, 12, 7
        DC8 3, 0, 0, 248, 248, 0, 128, 0, 248, 248
        DC8 0, 15, 15, 6, 3, 6, 15, 15, 0, 56
        DC8 120, 192, 192, 120, 56, 0, 0, 14, 15, 1
        DC8 1, 15, 14, 0, 0, 120, 248, 128, 128, 248
        DC8 120, 0, 0, 0, 0, 15, 15, 0, 0, 0
        DC8 0, 8, 8, 136, 200, 120, 56, 0, 0, 14
        DC8 15, 9, 8, 8, 8, 0, 0, 0, 248, 248
        DC8 8, 8, 0, 0, 0, 0, 15, 15, 8, 8
        DC8 0, 0, 0, 48, 96, 192, 128, 0, 0, 0
        DC8 0, 0, 0, 0, 1, 3, 6, 12, 0, 0
        DC8 8, 8, 248, 248, 0, 0, 0, 0, 8, 8
        DC8 15, 15, 0, 0, 0, 16, 24, 12, 12, 24
        DC8 16, 0, 0, 0, 0, 0, 0, 0, 0, 0
        DC8 0, 0, 0, 0, 0, 0, 0, 0, 32, 32
        DC8 32, 32, 32, 32, 32, 32, 0, 0, 0, 24
        DC8 56, 32, 0, 0, 0, 0, 0, 0, 0, 0
        DC8 0, 0, 0, 0, 64, 64, 64, 192, 128, 0
        DC8 0, 6, 15, 9, 9, 15, 15, 0, 0, 248
        DC8 248, 64, 64, 192, 128, 0, 0, 15, 15, 8
        DC8 8, 15, 7, 0, 0, 128, 192, 64, 64, 192
        DC8 128, 0, 0, 7, 15, 8, 8, 12, 4, 0
        DC8 0, 128, 192, 64, 64, 248, 248, 0, 0, 7
        DC8 15, 8, 8, 15, 15, 0, 0, 128, 192, 64
        DC8 64, 192, 128, 0, 0, 7, 15, 10, 10, 11
        DC8 11, 0, 0, 128, 240, 248, 136, 152, 16, 0
        DC8 0, 0, 15, 15, 0, 0, 0, 0, 0, 128
        DC8 192, 64, 64, 192, 128, 0, 0, 7, 79, 72
        DC8 72, 127, 63, 0, 0, 248, 248, 64, 64, 192
        DC8 128, 0, 0, 15, 15, 0, 0, 15, 15, 0
        DC8 0, 0, 64, 216, 216, 0, 0, 0, 0, 0
        DC8 8, 15, 15, 8, 0, 0, 0, 0, 0, 0
        DC8 64, 216, 216, 0, 0, 0, 16, 48, 32, 63
        DC8 31, 0, 0, 248, 248, 0, 128, 192, 64, 0
        DC8 0, 15, 15, 3, 7, 12, 8, 0, 0, 0
        DC8 8, 248, 248, 0, 0, 0, 0, 0, 8, 15
        DC8 15, 8, 0, 0, 0, 192, 192, 192, 128, 192
        DC8 192, 128, 0, 15, 15, 0, 7, 0, 15, 15
        DC8 0, 192, 192, 64, 64, 192, 128, 0, 0, 15
        DC8 15, 0, 0, 15, 15, 0, 0, 128, 192, 64
        DC8 64, 192, 128, 0, 0, 7, 15, 8, 8, 15
        DC8 7, 0, 0, 192, 192, 64, 64, 192, 128, 0
        DC8 0, 127, 127, 8, 8, 15, 7, 0, 0, 128
        DC8 192, 64, 64, 192, 192, 0, 0, 7, 15, 8
        DC8 8, 127, 127, 0, 0, 192, 192, 128, 192, 64
        DC8 64, 0, 0, 15, 15, 1, 0, 0, 0, 0
        DC8 0, 128, 192, 64, 64, 64, 64, 0, 0, 8
        DC8 9, 9, 9, 15, 6, 0, 0, 64, 248, 248
        DC8 64, 64, 0, 0, 0, 0, 7, 15, 8, 12
        DC8 4, 0, 0, 192, 192, 0, 0, 192, 192, 0
        DC8 0, 7, 15, 8, 8, 15, 15, 0, 0, 192
        DC8 192, 0, 0, 192, 192, 0, 0, 3, 7, 12
        DC8 12, 7, 3, 0, 0, 192, 192, 0, 0, 0
        DC8 192, 192, 0, 7, 15, 12, 7, 12, 15, 7
        DC8 0, 64, 192, 128, 0, 128, 192, 64, 0, 8
        DC8 12, 7, 3, 7, 12, 8, 0, 192, 192, 0
        DC8 0, 192, 192, 0, 0, 7, 79, 72, 72, 127
        DC8 63, 0, 0, 64, 64, 64, 192, 192, 64, 0
        DC8 0, 12, 14, 11, 9, 8, 8, 0, 0, 0
        DC8 128, 240, 120, 8, 8, 0, 0, 0, 0, 7
        DC8 15, 8, 8, 0, 0, 0, 0, 120, 120, 0
        DC8 0, 0, 0, 0, 0, 15, 15, 0, 0, 0
        DC8 0, 0, 8, 8, 120, 240, 128, 0, 0, 0
        DC8 8, 8, 15, 7, 0, 0, 0, 16, 24, 8
        DC8 24, 16, 24, 8, 0, 0, 0, 0, 0, 0
        DC8 0, 0, 0, 255, 255, 255, 255, 255, 255, 0
        DC8 0, 255, 255, 255, 255, 255, 255, 0

        SECTION `.text`:CODE:NOROOT(2)
        DATA
// __absolute unsigned char const table_cho[21]
table_cho:
        ; Initializer data, 24 bytes
        DC8 0, 0, 1, 2, 3, 4, 5, 6, 7, 8
        DC8 9, 10, 11, 12, 13, 14, 15, 16, 17, 18
        DC8 19, 0, 0, 0

        SECTION `.text`:CODE:NOROOT(2)
        DATA
// __absolute unsigned char const table_joong[30]
table_joong:
        ; Initializer data, 32 bytes
        DC8 0, 0, 0, 1, 2, 3, 4, 5, 0, 0
        DC8 6, 7, 8, 9, 10, 11, 0, 0, 12, 13
        DC8 14, 15, 16, 17, 0, 0, 18, 19, 20, 21
        DC8 0, 0

        SECTION `.text`:CODE:NOROOT(2)
        DATA
// __absolute unsigned char const table_jong[30]
table_jong:
        ; Initializer data, 32 bytes
        DC8 0, 0, 1, 2, 3, 4, 5, 6, 7, 8
        DC8 9, 10, 11, 12, 13, 14, 15, 16, 0, 17
        DC8 18, 19, 20, 21, 22, 23, 24, 25, 26, 27
        DC8 0, 0

        SECTION `.text`:CODE:NOROOT(2)
        DATA
// __absolute unsigned char const bul_cho1[22]
bul_cho1:
        ; Initializer data, 24 bytes
        DC8 0, 0, 0, 0, 0, 0, 0, 0, 0, 1
        DC8 3, 3, 3, 1, 2, 4, 4, 4, 2, 1
        DC8 3, 0, 0, 0

        SECTION `.text`:CODE:NOROOT(2)
        DATA
// __absolute unsigned char const bul_cho2[22]
bul_cho2:
        ; Initializer data, 24 bytes
        DC8 0, 5, 5, 5, 5, 5, 5, 5, 5, 6
        DC8 7, 7, 7, 6, 6, 7, 7, 7, 6, 6
        DC8 7, 5, 0, 0

        SECTION `.text`:CODE:NOROOT(2)
        DATA
// __absolute unsigned char const bul_jong[22]
bul_jong:
        ; Initializer data, 24 bytes
        DC8 0, 0, 2, 0, 2, 1, 2, 1, 2, 3
        DC8 0, 2, 1, 3, 3, 1, 2, 1, 3, 3
        DC8 1, 1, 0, 0

        SECTION `.text`:CODE:NOROOT(2)
        DATA
// __absolute unsigned char const K_font[360][32]
K_font:
        ; Initializer data, 11520 bytes
        DC8 0, 0, 0, 0, 0, 0, 0, 0, 0, 0
        DC8 0, 0, 0, 0, 0, 0, 0, 0, 0, 0
        DC8 0, 0, 0, 0, 0, 0, 0, 0, 0, 0
        DC8 0, 0, 0, 0, 2, 2, 2, 130, 194, 126
        DC8 62, 0, 0, 0, 0, 0, 0, 0, 0, 0
        DC8 2, 2, 1, 1, 0, 0, 0, 0, 0, 0
        DC8 0, 0, 0, 0, 0, 0, 2, 2, 254, 254
        DC8 2, 254, 254, 0, 0, 0, 0, 0, 0, 0
        DC8 0, 0, 2, 3, 1, 2, 3, 1, 0, 0
        DC8 0, 0, 0, 0, 0, 0, 0, 0, 254, 254
        DC8 0, 0, 0, 0, 0, 0, 0, 0, 0, 0
        DC8 0, 0, 0, 0, 3, 3, 2, 2, 2, 2
        DC8 2, 0, 0, 0, 0, 0, 0, 0, 0, 0
        DC8 254, 254, 2, 2, 2, 2, 2, 0, 0, 0
        DC8 0, 0, 0, 0, 0, 0, 3, 3, 2, 2
        DC8 2, 2, 2, 0, 0, 0, 0, 0, 0, 0
        DC8 0, 0, 254, 254, 2, 254, 254, 2, 2, 0
        DC8 0, 0, 0, 0, 0, 0, 0, 0, 3, 3
        DC8 2, 3, 3, 2, 2, 0, 0, 0, 0, 0
        DC8 0, 0, 0, 0, 226, 226, 34, 34, 34, 62
        DC8 62, 0, 0, 0, 0, 0, 0, 0, 0, 0
        DC8 3, 3, 2, 2, 2, 2, 2, 0, 0, 0
        DC8 0, 0, 0, 0, 0, 0, 254, 254, 2, 2
        DC8 2, 254, 254, 0, 0, 0, 0, 0, 0, 0
        DC8 0, 0, 3, 3, 2, 2, 2, 3, 3, 0
        DC8 0, 0, 0, 0, 0, 0, 0, 0, 254, 254
        DC8 32, 32, 32, 254, 254, 0, 0, 0, 0, 0
        DC8 0, 0, 0, 0, 3, 3, 2, 2, 2, 3
        DC8 3, 0, 0, 0, 0, 0, 0, 0, 0, 254
        DC8 254, 32, 254, 254, 32, 254, 254, 0, 0, 0
        DC8 0, 0, 0, 0, 0, 3, 3, 2, 3, 3
        DC8 2, 3, 3, 0, 0, 0, 0, 0, 0, 0
        DC8 0, 0, 128, 192, 126, 126, 192, 128, 0, 0
        DC8 0, 0, 0, 0, 0, 0, 0, 1, 1, 0
        DC8 0, 0, 0, 1, 1, 0, 0, 0, 0, 0
        DC8 0, 0, 0, 0, 128, 254, 126, 128, 254, 254
        DC8 128, 0, 0, 0, 0, 0, 0, 0, 0, 1
        DC8 1, 0, 1, 1, 0, 0, 1, 1, 0, 0
        DC8 0, 0, 0, 0, 0, 248, 252, 6, 2, 2
        DC8 6, 252, 248, 0, 0, 0, 0, 0, 0, 0
        DC8 0, 0, 1, 3, 2, 2, 3, 1, 0, 0
        DC8 0, 0, 0, 0, 0, 0, 0, 2, 130, 194
        DC8 126, 126, 194, 130, 2, 0, 0, 0, 0, 0
        DC8 0, 0, 0, 1, 1, 0, 0, 0, 0, 1
        DC8 1, 0, 0, 0, 0, 0, 0, 0, 0, 2
        DC8 130, 254, 126, 130, 254, 254, 130, 2, 0, 0
        DC8 0, 0, 0, 0, 0, 1, 1, 0, 1, 1
        DC8 0, 0, 1, 1, 0, 0, 0, 0, 0, 0
        DC8 0, 4, 132, 196, 126, 126, 196, 132, 4, 0
        DC8 0, 0, 0, 0, 0, 0, 0, 1, 1, 0
        DC8 0, 0, 0, 1, 1, 0, 0, 0, 0, 0
        DC8 0, 0, 0, 0, 18, 18, 18, 146, 210, 126
        DC8 62, 0, 0, 0, 0, 0, 0, 0, 0, 0
        DC8 2, 2, 1, 1, 0, 0, 0, 0, 0, 0
        DC8 0, 0, 0, 0, 0, 0, 254, 254, 34, 34
        DC8 34, 2, 2, 0, 0, 0, 0, 0, 0, 0
        DC8 0, 0, 3, 3, 2, 2, 2, 2, 2, 0
        DC8 0, 0, 0, 0, 0, 0, 0, 2, 254, 254
        DC8 2, 2, 254, 254, 2, 0, 0, 0, 0, 0
        DC8 0, 0, 0, 2, 3, 3, 2, 2, 3, 3
        DC8 2, 0, 0, 0, 0, 0, 0, 0, 4, 244
        DC8 252, 14, 14, 14, 252, 244, 4, 0, 0, 0
        DC8 0, 0, 0, 0, 0, 0, 1, 1, 1, 1
        DC8 1, 0, 0, 0, 0, 0, 0, 0, 0, 0
        DC8 0, 0, 0, 0, 0, 0, 0, 0, 0, 0
        DC8 0, 0, 0, 0, 0, 0, 0, 0, 0, 0
        DC8 0, 0, 0, 0, 0, 0, 0, 0, 0, 0
        DC8 0, 0, 0, 0, 0, 2, 2, 2, 2, 2
        DC8 2, 2, 130, 254, 126, 0, 0, 0, 0, 0
        DC8 0, 0, 0, 0, 0, 0, 0, 0, 0, 0
        DC8 0, 0, 0, 0, 0, 0, 0, 2, 2, 130
        DC8 254, 126, 2, 2, 130, 254, 126, 0, 0, 0
        DC8 0, 0, 0, 0, 0, 0, 0, 0, 0, 0
        DC8 0, 0, 0, 0, 0, 0, 0, 0, 0, 254
        DC8 254, 128, 128, 128, 128, 128, 128, 128, 128, 0
        DC8 0, 0, 0, 0, 0, 0, 0, 0, 0, 0
        DC8 0, 0, 0, 0, 0, 0, 0, 0, 0, 0
        DC8 0, 254, 254, 130, 130, 130, 130, 130, 130, 130
        DC8 130, 0, 0, 0, 0, 0, 0, 0, 0, 0
        DC8 0, 0, 0, 0, 0, 0, 0, 0, 0, 0
        DC8 0, 0, 0, 254, 254, 130, 130, 130, 254, 254
        DC8 130, 130, 130, 0, 0, 0, 0, 0, 0, 0
        DC8 0, 0, 0, 0, 0, 0, 0, 0, 0, 0
        DC8 0, 0, 0, 0, 0, 242, 242, 146, 146, 146
        DC8 146, 146, 146, 158, 158, 0, 0, 0, 0, 0
        DC8 0, 0, 0, 0, 0, 0, 0, 0, 0, 0
        DC8 0, 0, 0, 0, 0, 0, 0, 254, 254, 130
        DC8 130, 130, 130, 130, 130, 254, 254, 0, 0, 0
        DC8 0, 0, 0, 0, 0, 0, 0, 0, 0, 0
        DC8 0, 0, 0, 0, 0, 0, 0, 0, 0, 254
        DC8 254, 144, 144, 144, 144, 144, 144, 254, 254, 0
        DC8 0, 0, 0, 0, 0, 0, 0, 0, 0, 0
        DC8 0, 0, 0, 0, 0, 0, 0, 0, 0, 0
        DC8 0, 254, 254, 144, 144, 254, 254, 144, 144, 254
        DC8 254, 0, 0, 0, 0, 0, 0, 0, 0, 0
        DC8 0, 0, 0, 0, 0, 0, 0, 0, 0, 0
        DC8 0, 0, 0, 64, 96, 48, 24, 14, 14, 24
        DC8 48, 96, 64, 0, 0, 0, 0, 0, 0, 0
        DC8 0, 0, 0, 0, 0, 0, 0, 0, 0, 0
        DC8 0, 0, 0, 0, 64, 96, 48, 30, 94, 112
        DC8 48, 30, 30, 48, 96, 64, 0, 0, 0, 0
        DC8 0, 0, 0, 0, 0, 0, 0, 0, 0, 0
        DC8 0, 0, 0, 0, 0, 0, 0, 56, 124, 198
        DC8 130, 130, 130, 130, 198, 124, 56, 0, 0, 0
        DC8 0, 0, 0, 0, 0, 0, 0, 0, 0, 0
        DC8 0, 0, 0, 0, 0, 0, 0, 0, 0, 130
        DC8 194, 98, 50, 30, 30, 50, 98, 194, 130, 0
        DC8 0, 0, 0, 0, 0, 0, 0, 0, 0, 0
        DC8 0, 0, 0, 0, 0, 0, 0, 0, 0, 0
        DC8 66, 98, 50, 30, 94, 114, 50, 30, 30, 50
        DC8 98, 66, 0, 0, 0, 0, 0, 0, 0, 0
        DC8 0, 0, 0, 0, 0, 0, 0, 0, 0, 0
        DC8 0, 0, 0, 132, 196, 100, 52, 30, 30, 52
        DC8 100, 196, 132, 0, 0, 0, 0, 0, 0, 0
        DC8 0, 0, 0, 0, 0, 0, 0, 0, 0, 0
        DC8 0, 0, 0, 0, 0, 18, 18, 18, 18, 18
        DC8 18, 18, 146, 254, 126, 0, 0, 0, 0, 0
        DC8 0, 0, 0, 0, 0, 0, 0, 0, 0, 0
        DC8 0, 0, 0, 0, 0, 0, 0, 254, 254, 146
        DC8 146, 146, 146, 146, 146, 146, 146, 0, 0, 0
        DC8 0, 0, 0, 0, 0, 0, 0, 0, 0, 0
        DC8 0, 0, 0, 0, 0, 0, 0, 0, 0, 130
        DC8 130, 254, 254, 130, 130, 254, 254, 130, 130, 0
        DC8 0, 0, 0, 0, 0, 0, 0, 0, 0, 0
        DC8 0, 0, 0, 0, 0, 0, 0, 0, 0, 0
        DC8 0, 4, 116, 252, 140, 142, 142, 140, 252, 116
        DC8 4, 0, 0, 0, 0, 0, 0, 0, 0, 0
        DC8 0, 0, 0, 0, 0, 0, 0, 0, 0, 0
        DC8 0, 0, 0, 0, 0, 0, 0, 0, 0, 0
        DC8 0, 0, 0, 0, 0, 0, 0, 0, 0, 0
        DC8 0, 0, 0, 0, 0, 0, 0, 0, 0, 0
        DC8 0, 0, 0, 0, 0, 2, 2, 2, 2, 2
        DC8 2, 2, 130, 254, 126, 0, 0, 0, 0, 0
        DC8 0, 0, 0, 0, 0, 0, 0, 0, 0, 0
        DC8 0, 0, 0, 0, 0, 0, 0, 2, 2, 130
        DC8 254, 126, 2, 2, 130, 254, 126, 0, 0, 0
        DC8 0, 0, 0, 0, 0, 0, 0, 0, 0, 0
        DC8 0, 0, 0, 0, 0, 0, 0, 0, 0, 62
        DC8 62, 32, 32, 32, 32, 32, 32, 32, 32, 0
        DC8 0, 0, 0, 0, 0, 0, 0, 0, 0, 0
        DC8 0, 0, 0, 0, 0, 0, 0, 0, 0, 0
        DC8 0, 62, 62, 34, 34, 34, 34, 34, 34, 34
        DC8 34, 0, 0, 0, 0, 0, 0, 0, 0, 0
        DC8 0, 0, 0, 0, 0, 0, 0, 0, 0, 0
        DC8 0, 0, 0, 62, 62, 34, 34, 34, 62, 62
        DC8 34, 34, 34, 0, 0, 0, 0, 0, 0, 0
        DC8 0, 0, 0, 0, 0, 0, 0, 0, 0, 0
        DC8 0, 0, 0, 0, 0, 58, 58, 42, 42, 42
        DC8 42, 42, 42, 46, 46, 0, 0, 0, 0, 0
        DC8 0, 0, 0, 0, 0, 0, 0, 0, 0, 0
        DC8 0, 0, 0, 0, 0, 0, 0, 62, 62, 34
        DC8 34, 34, 34, 34, 34, 62, 62, 0, 0, 0
        DC8 0, 0, 0, 0, 0, 0, 0, 0, 0, 0
        DC8 0, 0, 0, 0, 0, 0, 0, 0, 0, 126
        DC8 126, 72, 72, 72, 72, 72, 72, 126, 126, 0
        DC8 0, 0, 0, 0, 0, 0, 0, 0, 0, 0
        DC8 0, 0, 0, 0, 0, 0, 0, 0, 0, 0
        DC8 0, 126, 126, 72, 72, 126, 126, 72, 72, 126
        DC8 126, 0, 0, 0, 0, 0, 0, 0, 0, 0
        DC8 0, 0, 0, 0, 0, 0, 0, 0, 0, 0
        DC8 0, 0, 0, 32, 48, 24, 12, 6, 6, 12
        DC8 24, 48, 32, 0, 0, 0, 0, 0, 0, 0
        DC8 0, 0, 0, 0, 0, 0, 0, 0, 0, 0
        DC8 0, 0, 0, 0, 32, 48, 24, 14, 46, 56
        DC8 24, 14, 14, 24, 48, 32, 0, 0, 0, 0
        DC8 0, 0, 0, 0, 0, 0, 0, 0, 0, 0
        DC8 0, 0, 0, 0, 0, 0, 0, 24, 60, 102
        DC8 66, 66, 66, 66, 102, 60, 24, 0, 0, 0
        DC8 0, 0, 0, 0, 0, 0, 0, 0, 0, 0
        DC8 0, 0, 0, 0, 0, 0, 0, 0, 0, 66
        DC8 98, 50, 26, 14, 14, 26, 50, 98, 66, 0
        DC8 0, 0, 0, 0, 0, 0, 0, 0, 0, 0
        DC8 0, 0, 0, 0, 0, 0, 0, 0, 0, 0
        DC8 66, 98, 50, 30, 94, 114, 50, 30, 30, 50
        DC8 98, 66, 0, 0, 0, 0, 0, 0, 0, 0
        DC8 0, 0, 0, 0, 0, 0, 0, 0, 0, 0
        DC8 0, 0, 0, 68, 100, 52, 28, 14, 14, 28
        DC8 52, 100, 68, 0, 0, 0, 0, 0, 0, 0
        DC8 0, 0, 0, 0, 0, 0, 0, 0, 0, 0
        DC8 0, 0, 0, 0, 0, 18, 18, 18, 18, 18
        DC8 18, 18, 146, 254, 126, 0, 0, 0, 0, 0
        DC8 0, 0, 0, 0, 0, 0, 0, 0, 0, 0
        DC8 0, 0, 0, 0, 0, 0, 0, 62, 62, 42
        DC8 42, 42, 42, 42, 42, 42, 42, 0, 0, 0
        DC8 0, 0, 0, 0, 0, 0, 0, 0, 0, 0
        DC8 0, 0, 0, 0, 0, 0, 0, 0, 0, 34
        DC8 34, 62, 62, 34, 34, 62, 62, 34, 34, 0
        DC8 0, 0, 0, 0, 0, 0, 0, 0, 0, 0
        DC8 0, 0, 0, 0, 0, 0, 0, 0, 0, 0
        DC8 0, 4, 52, 124, 76, 78, 78, 76, 124, 52
        DC8 4, 0, 0, 0, 0, 0, 0, 0, 0, 0
        DC8 0, 0, 0, 0, 0, 0, 0, 0, 0, 0
        DC8 0, 0, 0, 0, 0, 0, 0, 0, 0, 0
        DC8 0, 0, 0, 0, 0, 0, 0, 0, 0, 0
        DC8 0, 0, 0, 0, 0, 0, 0, 0, 0, 0
        DC8 0, 0, 0, 0, 2, 2, 2, 2, 2, 254
        DC8 254, 0, 0, 0, 0, 0, 0, 0, 0, 0
        DC8 0, 0, 0, 0, 1, 1, 0, 0, 0, 0
        DC8 0, 0, 0, 0, 0, 0, 2, 130, 254, 126
        DC8 130, 254, 126, 0, 0, 0, 0, 0, 0, 0
        DC8 0, 0, 0, 0, 0, 0, 0, 0, 0, 0
        DC8 0, 0, 0, 0, 0, 0, 0, 0, 254, 254
        DC8 128, 128, 128, 128, 128, 0, 0, 0, 0, 0
        DC8 0, 0, 0, 0, 0, 0, 0, 0, 0, 0
        DC8 0, 0, 0, 0, 0, 0, 0, 0, 0, 0
        DC8 254, 254, 130, 130, 130, 130, 130, 0, 0, 0
        DC8 0, 0, 0, 0, 0, 0, 0, 0, 0, 0
        DC8 0, 0, 0, 0, 0, 0, 0, 0, 0, 0
        DC8 0, 0, 254, 254, 130, 254, 254, 130, 130, 0
        DC8 0, 0, 0, 0, 0, 0, 0, 0, 0, 0
        DC8 0, 0, 0, 0, 0, 0, 0, 0, 0, 0
        DC8 0, 0, 0, 0, 242, 242, 146, 146, 146, 158
        DC8 158, 0, 0, 0, 0, 0, 0, 0, 0, 0
        DC8 0, 0, 0, 0, 0, 0, 0, 0, 0, 0
        DC8 0, 0, 0, 0, 0, 0, 254, 254, 130, 130
        DC8 130, 254, 254, 0, 0, 0, 0, 0, 0, 0
        DC8 0, 0, 0, 0, 0, 0, 0, 0, 0, 0
        DC8 0, 0, 0, 0, 0, 0, 0, 0, 254, 254
        DC8 144, 144, 144, 254, 254, 0, 0, 0, 0, 0
        DC8 0, 0, 0, 0, 0, 0, 0, 0, 0, 0
        DC8 0, 0, 0, 0, 0, 0, 0, 0, 0, 254
        DC8 254, 144, 254, 254, 144, 254, 254, 0, 0, 0
        DC8 0, 0, 0, 0, 0, 4, 0, 0, 0, 0
        DC8 0, 0, 0, 0, 0, 0, 0, 0, 0, 0
        DC8 0, 64, 96, 48, 30, 30, 48, 96, 64, 0
        DC8 0, 0, 0, 0, 0, 0, 0, 4, 0, 0
        DC8 0, 0, 0, 0, 0, 0, 0, 0, 0, 0
        DC8 0, 0, 0, 128, 192, 126, 190, 192, 126, 126
        DC8 192, 128, 0, 0, 0, 0, 0, 0, 0, 4
        DC8 0, 0, 0, 0, 0, 0, 0, 0, 0, 0
        DC8 0, 0, 0, 0, 0, 56, 124, 198, 130, 130
        DC8 198, 124, 56, 0, 0, 0, 0, 0, 0, 0
        DC8 0, 4, 0, 0, 0, 0, 0, 0, 0, 0
        DC8 0, 0, 0, 0, 0, 0, 0, 66, 98, 50
        DC8 30, 30, 50, 98, 66, 0, 0, 0, 0, 0
        DC8 0, 0, 0, 4, 0, 0, 0, 0, 0, 0
        DC8 0, 0, 0, 0, 0, 0, 0, 0, 0, 130
        DC8 194, 126, 190, 194, 126, 126, 194, 130, 0, 0
        DC8 0, 0, 0, 0, 0, 4, 0, 0, 0, 0
        DC8 0, 0, 0, 0, 0, 0, 0, 0, 0, 0
        DC8 0, 132, 196, 100, 62, 62, 100, 196, 132, 0
        DC8 0, 0, 0, 0, 0, 0, 0, 4, 0, 0
        DC8 0, 0, 0, 0, 0, 0, 0, 0, 0, 0
        DC8 0, 0, 0, 0, 18, 18, 18, 18, 18, 254
        DC8 254, 0, 0, 0, 0, 0, 0, 0, 0, 0
        DC8 0, 0, 0, 0, 1, 1, 0, 0, 0, 0
        DC8 0, 0, 0, 0, 0, 0, 254, 254, 146, 146
        DC8 146, 146, 146, 0, 0, 0, 0, 0, 0, 0
        DC8 0, 0, 0, 0, 0, 0, 0, 0, 0, 0
        DC8 0, 0, 0, 0, 0, 0, 0, 0, 130, 254
        DC8 254, 130, 254, 254, 130, 0, 0, 0, 0, 0
        DC8 0, 0, 0, 0, 0, 0, 0, 0, 0, 0
        DC8 0, 0, 0, 0, 0, 0, 0, 0, 0, 4
        DC8 116, 252, 142, 142, 252, 116, 4, 0, 0, 0
        DC8 0, 0, 0, 0, 0, 4, 0, 0, 0, 0
        DC8 0, 0, 0, 0, 0, 0, 0, 0, 0, 0
        DC8 0, 0, 0, 0, 0, 0, 0, 0, 0, 0
        DC8 0, 0, 0, 0, 0, 0, 0, 0, 0, 0
        DC8 0, 0, 0, 0, 0, 0, 0, 0, 0, 0
        DC8 0, 0, 0, 0, 2, 2, 2, 2, 66, 126
        DC8 62, 0, 0, 0, 0, 0, 0, 0, 0, 0
        DC8 0, 0, 0, 0, 0, 0, 0, 0, 0, 0
        DC8 0, 0, 0, 0, 0, 0, 2, 66, 126, 62
        DC8 66, 126, 62, 0, 0, 0, 0, 0, 0, 0
        DC8 0, 0, 0, 0, 0, 0, 0, 0, 0, 0
        DC8 0, 0, 0, 0, 0, 0, 0, 0, 62, 62
        DC8 32, 32, 32, 32, 32, 0, 0, 0, 0, 0
        DC8 0, 0, 0, 0, 0, 0, 0, 0, 0, 0
        DC8 0, 0, 0, 0, 0, 0, 0, 0, 0, 0
        DC8 62, 62, 34, 34, 34, 34, 34, 0, 0, 0
        DC8 0, 0, 0, 0, 0, 0, 0, 0, 0, 0
        DC8 0, 0, 0, 0, 0, 0, 0, 0, 0, 0
        DC8 0, 0, 62, 62, 34, 62, 62, 34, 34, 0
        DC8 0, 0, 0, 0, 0, 0, 0, 0, 0, 0
        DC8 0, 0, 0, 0, 0, 0, 0, 0, 0, 0
        DC8 0, 0, 0, 0, 58, 58, 42, 42, 42, 46
        DC8 46, 0, 0, 0, 0, 0, 0, 0, 0, 0
        DC8 0, 0, 0, 0, 0, 0, 0, 0, 0, 0
        DC8 0, 0, 0, 0, 0, 0, 62, 62, 34, 34
        DC8 34, 62, 62, 0, 0, 0, 0, 0, 0, 0
        DC8 0, 0, 0, 0, 0, 0, 0, 0, 0, 0
        DC8 0, 0, 0, 0, 0, 0, 0, 0, 126, 126
        DC8 72, 72, 72, 126, 126, 0, 0, 0, 0, 0
        DC8 0, 0, 0, 0, 0, 0, 0, 0, 0, 0
        DC8 0, 0, 0, 0, 0, 0, 0, 0, 0, 126
        DC8 126, 72, 126, 126, 72, 126, 126, 0, 0, 0
        DC8 0, 0, 0, 0, 0, 1, 0, 0, 0, 0
        DC8 0, 0, 0, 0, 0, 0, 0, 0, 0, 0
        DC8 0, 32, 48, 24, 14, 14, 24, 48, 32, 0
        DC8 0, 0, 0, 0, 0, 0, 0, 1, 0, 0
        DC8 0, 0, 0, 0, 0, 0, 0, 0, 0, 0
        DC8 0, 0, 0, 32, 48, 30, 46, 48, 30, 30
        DC8 48, 32, 0, 0, 0, 0, 0, 0, 0, 1
        DC8 0, 0, 0, 0, 0, 0, 0, 0, 0, 0
        DC8 0, 0, 0, 0, 0, 24, 60, 102, 66, 66
        DC8 102, 60, 24, 0, 0, 0, 0, 0, 0, 0
        DC8 0, 1, 0, 0, 0, 0, 0, 0, 0, 0
        DC8 0, 0, 0, 0, 0, 0, 0, 66, 98, 50
        DC8 30, 30, 50, 98, 66, 0, 0, 0, 0, 0
        DC8 0, 0, 0, 1, 0, 0, 0, 0, 0, 0
        DC8 0, 0, 0, 0, 0, 0, 0, 0, 0, 34
        DC8 50, 30, 46, 50, 30, 30, 50, 34, 0, 0
        DC8 0, 0, 0, 0, 0, 1, 0, 0, 0, 0
        DC8 0, 0, 0, 0, 0, 0, 0, 0, 0, 0
        DC8 0, 68, 100, 52, 30, 30, 52, 100, 68, 0
        DC8 0, 0, 0, 0, 0, 0, 0, 1, 0, 0
        DC8 0, 0, 0, 0, 0, 0, 0, 0, 0, 0
        DC8 0, 0, 0, 0, 18, 18, 18, 18, 82, 126
        DC8 62, 0, 0, 0, 0, 0, 0, 0, 0, 0
        DC8 0, 0, 0, 0, 0, 0, 0, 0, 0, 0
        DC8 0, 0, 0, 0, 0, 0, 62, 62, 42, 42
        DC8 42, 42, 42, 0, 0, 0, 0, 0, 0, 0
        DC8 0, 0, 0, 0, 0, 0, 0, 0, 0, 0
        DC8 0, 0, 0, 0, 0, 0, 0, 0, 34, 62
        DC8 62, 34, 62, 62, 34, 0, 0, 0, 0, 0
        DC8 0, 0, 0, 0, 0, 0, 0, 0, 0, 0
        DC8 0, 0, 0, 0, 0, 0, 0, 0, 0, 4
        DC8 52, 124, 78, 78, 124, 52, 4, 0, 0, 0
        DC8 0, 0, 0, 0, 0, 1, 0, 0, 0, 0
        DC8 0, 0, 0, 0, 0, 0, 0, 0, 0, 0
        DC8 0, 0, 0, 0, 0, 0, 0, 0, 0, 0
        DC8 0, 0, 0, 0, 0, 0, 0, 0, 0, 0
        DC8 0, 0, 0, 0, 0, 0, 0, 0, 0, 0
        DC8 0, 0, 0, 0, 2, 2, 130, 194, 98, 62
        DC8 30, 0, 0, 0, 0, 0, 0, 0, 0, 0
        DC8 1, 1, 0, 0, 0, 0, 0, 0, 0, 0
        DC8 0, 0, 0, 0, 0, 0, 130, 194, 126, 190
        DC8 194, 126, 62, 0, 0, 0, 0, 0, 0, 0
        DC8 0, 0, 0, 0, 0, 0, 0, 0, 0, 0
        DC8 0, 0, 0, 0, 0, 0, 0, 0, 254, 254
        DC8 128, 128, 128, 128, 128, 0, 0, 0, 0, 0
        DC8 0, 0, 0, 0, 0, 0, 0, 0, 0, 0
        DC8 0, 0, 0, 0, 0, 0, 0, 0, 0, 0
        DC8 254, 254, 130, 130, 130, 130, 130, 0, 0, 0
        DC8 0, 0, 0, 0, 0, 0, 0, 0, 0, 0
        DC8 0, 0, 0, 0, 0, 0, 0, 0, 0, 0
        DC8 0, 0, 254, 254, 130, 254, 254, 130, 130, 0
        DC8 0, 0, 0, 0, 0, 0, 0, 0, 0, 0
        DC8 0, 0, 0, 0, 0, 0, 0, 0, 0, 0
        DC8 0, 0, 0, 0, 242, 242, 146, 146, 146, 158
        DC8 158, 0, 0, 0, 0, 0, 0, 0, 0, 0
        DC8 0, 0, 0, 0, 0, 0, 0, 0, 0, 0
        DC8 0, 0, 0, 0, 0, 0, 254, 254, 130, 130
        DC8 130, 254, 254, 0, 0, 0, 0, 0, 0, 0
        DC8 0, 0, 0, 0, 0, 0, 0, 0, 0, 0
        DC8 0, 0, 0, 0, 0, 0, 0, 0, 254, 254
        DC8 144, 144, 144, 254, 254, 0, 0, 0, 0, 0
        DC8 0, 0, 0, 0, 0, 0, 0, 0, 0, 0
        DC8 0, 0, 0, 0, 0, 0, 0, 0, 0, 254
        DC8 254, 144, 254, 254, 144, 254, 254, 0, 0, 0
        DC8 0, 0, 0, 0, 0, 0, 0, 0, 0, 0
        DC8 0, 0, 0, 0, 0, 0, 0, 0, 0, 0
        DC8 0, 128, 192, 96, 62, 62, 96, 192, 128, 0
        DC8 0, 0, 0, 0, 0, 0, 0, 0, 0, 0
        DC8 0, 0, 0, 0, 0, 0, 0, 0, 0, 0
        DC8 0, 0, 0, 64, 96, 62, 94, 96, 62, 62
        DC8 96, 64, 0, 0, 0, 0, 0, 0, 0, 0
        DC8 0, 0, 0, 0, 0, 0, 0, 0, 0, 0
        DC8 0, 0, 0, 0, 0, 56, 124, 198, 130, 130
        DC8 198, 124, 56, 0, 0, 0, 0, 0, 0, 0
        DC8 0, 0, 0, 0, 0, 0, 0, 0, 0, 0
        DC8 0, 0, 0, 0, 0, 0, 0, 130, 194, 98
        DC8 62, 62, 98, 194, 130, 0, 0, 0, 0, 0
        DC8 0, 0, 0, 0, 0, 0, 0, 0, 0, 0
        DC8 0, 0, 0, 0, 0, 0, 0, 0, 0, 130
        DC8 194, 126, 190, 194, 126, 126, 194, 130, 0, 0
        DC8 0, 0, 0, 0, 0, 0, 0, 0, 0, 0
        DC8 0, 0, 0, 0, 0, 0, 0, 0, 0, 0
        DC8 0, 132, 196, 100, 62, 62, 100, 196, 132, 0
        DC8 0, 0, 0, 0, 0, 0, 0, 0, 0, 0
        DC8 0, 0, 0, 0, 0, 0, 0, 0, 0, 0
        DC8 0, 0, 0, 0, 18, 18, 146, 210, 114, 62
        DC8 30, 0, 0, 0, 0, 0, 0, 0, 0, 0
        DC8 1, 1, 0, 0, 0, 0, 0, 0, 0, 0
        DC8 0, 0, 0, 0, 0, 0, 254, 254, 146, 146
        DC8 146, 146, 130, 0, 0, 0, 0, 0, 0, 0
        DC8 0, 0, 0, 0, 0, 0, 0, 0, 0, 0
        DC8 0, 0, 0, 0, 0, 0, 0, 130, 254, 254
        DC8 130, 130, 254, 254, 130, 0, 0, 0, 0, 0
        DC8 0, 0, 0, 0, 0, 0, 0, 0, 0, 0
        DC8 0, 0, 0, 0, 0, 0, 0, 0, 0, 4
        DC8 116, 252, 142, 142, 252, 116, 4, 0, 0, 0
        DC8 0, 0, 0, 0, 0, 0, 0, 0, 0, 0
        DC8 0, 0, 0, 0, 0, 0, 0, 0, 0, 0
        DC8 0, 0, 0, 0, 0, 0, 0, 0, 0, 0
        DC8 0, 0, 0, 0, 0, 0, 0, 0, 0, 0
        DC8 0, 0, 0, 0, 0, 0, 0, 0, 0, 0
        DC8 0, 0, 0, 0, 0, 2, 2, 2, 2, 2
        DC8 2, 2, 34, 62, 30, 0, 0, 0, 0, 0
        DC8 0, 0, 0, 0, 0, 0, 0, 0, 0, 0
        DC8 0, 0, 0, 0, 0, 0, 0, 2, 2, 34
        DC8 62, 30, 2, 2, 34, 62, 30, 0, 0, 0
        DC8 0, 0, 0, 0, 0, 0, 0, 0, 0, 0
        DC8 0, 0, 0, 0, 0, 0, 0, 0, 0, 62
        DC8 62, 32, 32, 32, 32, 32, 32, 32, 32, 0
        DC8 0, 0, 0, 0, 0, 0, 0, 0, 0, 0
        DC8 0, 0, 0, 0, 0, 0, 0, 0, 0, 0
        DC8 0, 62, 62, 34, 34, 34, 34, 34, 34, 34
        DC8 34, 0, 0, 0, 0, 0, 0, 0, 0, 0
        DC8 0, 0, 0, 0, 0, 0, 0, 0, 0, 0
        DC8 0, 0, 0, 62, 62, 34, 34, 34, 62, 62
        DC8 34, 34, 34, 0, 0, 0, 0, 0, 0, 0
        DC8 0, 0, 0, 0, 0, 0, 0, 0, 0, 0
        DC8 0, 0, 0, 0, 0, 58, 58, 42, 42, 42
        DC8 42, 42, 42, 46, 46, 0, 0, 0, 0, 0
        DC8 0, 0, 0, 0, 0, 0, 0, 0, 0, 0
        DC8 0, 0, 0, 0, 0, 0, 0, 62, 62, 34
        DC8 34, 34, 34, 34, 34, 62, 62, 0, 0, 0
        DC8 0, 0, 0, 0, 0, 0, 0, 0, 0, 0
        DC8 0, 0, 0, 0, 0, 0, 0, 0, 0, 62
        DC8 62, 40, 40, 40, 40, 40, 40, 62, 62, 0
        DC8 0, 0, 0, 0, 0, 0, 0, 0, 0, 0
        DC8 0, 0, 0, 0, 0, 0, 0, 0, 0, 0
        DC8 0, 62, 62, 40, 40, 62, 62, 40, 40, 62
        DC8 62, 0, 0, 0, 0, 0, 0, 0, 0, 0
        DC8 0, 0, 0, 0, 0, 0, 0, 0, 0, 0
        DC8 0, 0, 0, 32, 48, 24, 12, 6, 6, 12
        DC8 24, 48, 32, 0, 0, 0, 0, 0, 0, 0
        DC8 0, 0, 0, 0, 0, 0, 0, 0, 0, 0
        DC8 0, 0, 0, 0, 32, 48, 24, 14, 46, 56
        DC8 24, 14, 14, 24, 48, 32, 0, 0, 0, 0
        DC8 0, 0, 0, 0, 0, 0, 0, 0, 0, 0
        DC8 0, 0, 0, 0, 0, 0, 0, 28, 62, 34
        DC8 34, 34, 34, 34, 34, 62, 28, 0, 0, 0
        DC8 0, 0, 0, 0, 0, 0, 0, 0, 0, 0
        DC8 0, 0, 0, 0, 0, 0, 0, 0, 0, 34
        DC8 50, 26, 14, 6, 6, 14, 26, 50, 34, 0
        DC8 0, 0, 0, 0, 0, 0, 0, 0, 0, 0
        DC8 0, 0, 0, 0, 0, 0, 0, 0, 0, 0
        DC8 34, 50, 26, 14, 46, 58, 26, 14, 14, 26
        DC8 50, 34, 0, 0, 0, 0, 0, 0, 0, 0
        DC8 0, 0, 0, 0, 0, 0, 0, 0, 0, 0
        DC8 0, 0, 0, 36, 52, 28, 12, 6, 6, 12
        DC8 28, 52, 36, 0, 0, 0, 0, 0, 0, 0
        DC8 0, 0, 0, 0, 0, 0, 0, 0, 0, 0
        DC8 0, 0, 0, 0, 0, 10, 10, 10, 10, 10
        DC8 10, 10, 42, 62, 30, 0, 0, 0, 0, 0
        DC8 0, 0, 0, 0, 0, 0, 0, 0, 0, 0
        DC8 0, 0, 0, 0, 0, 0, 0, 62, 62, 42
        DC8 42, 42, 42, 42, 42, 42, 42, 0, 0, 0
        DC8 0, 0, 0, 0, 0, 0, 0, 0, 0, 0
        DC8 0, 0, 0, 0, 0, 0, 0, 0, 0, 34
        DC8 34, 62, 62, 34, 34, 62, 62, 34, 34, 0
        DC8 0, 0, 0, 0, 0, 0, 0, 0, 0, 0
        DC8 0, 0, 0, 0, 0, 0, 0, 0, 0, 0
        DC8 0, 20, 60, 44, 44, 46, 46, 44, 44, 60
        DC8 20, 0, 0, 0, 0, 0, 0, 0, 0, 0
        DC8 0, 0, 0, 0, 0, 0, 0, 0, 0, 0
        DC8 0, 0, 0, 0, 0, 0, 0, 0, 0, 0
        DC8 0, 0, 0, 0, 0, 0, 0, 0, 0, 0
        DC8 0, 0, 0, 0, 0, 0, 0, 0, 0, 0
        DC8 0, 0, 0, 0, 2, 2, 2, 2, 34, 62
        DC8 30, 0, 0, 0, 0, 0, 0, 0, 0, 0
        DC8 0, 0, 0, 0, 0, 0, 0, 0, 0, 0
        DC8 0, 0, 0, 0, 0, 0, 2, 34, 62, 30
        DC8 34, 62, 30, 0, 0, 0, 0, 0, 0, 0
        DC8 0, 0, 0, 0, 0, 0, 0, 0, 0, 0
        DC8 0, 0, 0, 0, 0, 0, 0, 0, 62, 62
        DC8 32, 32, 32, 32, 32, 0, 0, 0, 0, 0
        DC8 0, 0, 0, 0, 0, 0, 0, 0, 0, 0
        DC8 0, 0, 0, 0, 0, 0, 0, 0, 0, 0
        DC8 62, 62, 34, 34, 34, 34, 34, 0, 0, 0
        DC8 0, 0, 0, 0, 0, 0, 0, 0, 0, 0
        DC8 0, 0, 0, 0, 0, 0, 0, 0, 0, 0
        DC8 0, 0, 62, 62, 34, 62, 62, 34, 34, 0
        DC8 0, 0, 0, 0, 0, 0, 0, 0, 0, 0
        DC8 0, 0, 0, 0, 0, 0, 0, 0, 0, 0
        DC8 0, 0, 0, 0, 58, 58, 42, 42, 42, 46
        DC8 46, 0, 0, 0, 0, 0, 0, 0, 0, 0
        DC8 0, 0, 0, 0, 0, 0, 0, 0, 0, 0
        DC8 0, 0, 0, 0, 0, 0, 62, 62, 34, 34
        DC8 34, 62, 62, 0, 0, 0, 0, 0, 0, 0
        DC8 0, 0, 0, 0, 0, 0, 0, 0, 0, 0
        DC8 0, 0, 0, 0, 0, 0, 0, 0, 62, 62
        DC8 40, 40, 40, 62, 62, 0, 0, 0, 0, 0
        DC8 0, 0, 0, 0, 0, 0, 0, 0, 0, 0
        DC8 0, 0, 0, 0, 0, 0, 0, 0, 0, 62
        DC8 62, 40, 62, 62, 40, 62, 62, 0, 0, 0
        DC8 0, 0, 0, 0, 0, 0, 0, 0, 0, 0
        DC8 0, 0, 0, 0, 0, 0, 0, 0, 0, 0
        DC8 0, 0, 32, 48, 24, 14, 14, 24, 48, 32
        DC8 0, 0, 0, 0, 0, 0, 0, 0, 0, 0
        DC8 0, 0, 0, 0, 0, 0, 0, 0, 0, 0
        DC8 0, 0, 0, 32, 48, 30, 46, 48, 30, 30
        DC8 48, 32, 0, 0, 0, 0, 0, 0, 0, 0
        DC8 0, 0, 0, 0, 0, 0, 0, 0, 0, 0
        DC8 0, 0, 0, 0, 0, 0, 28, 62, 34, 34
        DC8 34, 62, 28, 0, 0, 0, 0, 0, 0, 0
        DC8 0, 0, 0, 0, 0, 0, 0, 0, 0, 0
        DC8 0, 0, 0, 0, 0, 0, 0, 0, 34, 50
        DC8 26, 14, 14, 26, 50, 34, 0, 0, 0, 0
        DC8 0, 0, 0, 0, 0, 0, 0, 0, 0, 0
        DC8 0, 0, 0, 0, 0, 0, 0, 0, 0, 34
        DC8 50, 30, 46, 50, 30, 30, 50, 34, 0, 0
        DC8 0, 0, 0, 0, 0, 0, 0, 0, 0, 0
        DC8 0, 0, 0, 0, 0, 0, 0, 0, 0, 0
        DC8 0, 0, 36, 52, 28, 14, 14, 28, 52, 36
        DC8 0, 0, 0, 0, 0, 0, 0, 0, 0, 0
        DC8 0, 0, 0, 0, 0, 0, 0, 0, 0, 0
        DC8 0, 0, 0, 0, 10, 10, 10, 10, 42, 62
        DC8 30, 0, 0, 0, 0, 0, 0, 0, 0, 0
        DC8 0, 0, 0, 0, 0, 0, 0, 0, 0, 0
        DC8 0, 0, 0, 0, 0, 0, 62, 62, 42, 42
        DC8 42, 42, 42, 0, 0, 0, 0, 0, 0, 0
        DC8 0, 0, 0, 0, 0, 0, 0, 0, 0, 0
        DC8 0, 0, 0, 0, 0, 0, 0, 0, 34, 62
        DC8 62, 34, 62, 62, 34, 0, 0, 0, 0, 0
        DC8 0, 0, 0, 0, 0, 0, 0, 0, 0, 0
        DC8 0, 0, 0, 0, 0, 0, 0, 0, 0, 0
        DC8 20, 60, 46, 46, 46, 60, 20, 0, 0, 0
        DC8 0, 0, 0, 0, 0, 0, 0, 0, 0, 0
        DC8 0, 0, 0, 0, 0, 0, 0, 0, 0, 0
        DC8 0, 0, 0, 0, 0, 0, 0, 0, 0, 0
        DC8 0, 0, 0, 0, 0, 0, 0, 0, 0, 0
        DC8 0, 0, 0, 0, 0, 0, 0, 0, 0, 0
        DC8 0, 0, 0, 0, 0, 0, 0, 0, 0, 0
        DC8 0, 0, 0, 254, 254, 16, 16, 0, 0, 0
        DC8 0, 0, 0, 0, 0, 0, 0, 0, 0, 63
        DC8 63, 0, 0, 0, 0, 0, 0, 0, 0, 0
        DC8 0, 0, 0, 0, 254, 254, 16, 254, 254, 0
        DC8 0, 0, 0, 0, 0, 0, 0, 0, 0, 0
        DC8 63, 63, 0, 63, 63, 0, 0, 0, 0, 0
        DC8 0, 0, 0, 0, 0, 0, 0, 254, 254, 144
        DC8 144, 0, 0, 0, 0, 0, 0, 0, 0, 0
        DC8 0, 0, 0, 63, 63, 0, 0, 0, 0, 0
        DC8 0, 0, 0, 0, 0, 0, 0, 0, 254, 254
        DC8 144, 254, 254, 0, 0, 0, 0, 0, 0, 0
        DC8 0, 0, 0, 0, 63, 63, 0, 63, 63, 0
        DC8 0, 0, 0, 0, 0, 0, 0, 0, 32, 32
        DC8 32, 254, 254, 0, 0, 0, 0, 0, 0, 0
        DC8 0, 0, 0, 0, 0, 0, 0, 63, 63, 0
        DC8 0, 0, 0, 0, 0, 0, 0, 0, 0, 0
        DC8 32, 32, 254, 254, 0, 254, 254, 0, 0, 0
        DC8 0, 0, 0, 0, 0, 0, 0, 0, 63, 63
        DC8 0, 63, 63, 0, 0, 0, 0, 0, 0, 0
        DC8 0, 128, 128, 144, 144, 254, 254, 0, 0, 0
        DC8 0, 0, 0, 0, 0, 0, 0, 0, 0, 0
        DC8 0, 63, 63, 0, 0, 0, 0, 0, 0, 0
        DC8 0, 0, 0, 128, 128, 144, 254, 254, 0, 254
        DC8 254, 0, 0, 0, 0, 0, 0, 0, 0, 0
        DC8 0, 0, 63, 63, 0, 63, 63, 0, 0, 0
        DC8 0, 0, 0, 0, 128, 128, 0, 0, 0, 0
        DC8 0, 0, 0, 0, 0, 0, 8, 8, 8, 8
        DC8 15, 15, 8, 8, 8, 8, 8, 8, 0, 0
        DC8 0, 0, 0, 0, 192, 192, 0, 0, 0, 0
        DC8 0, 254, 254, 16, 16, 0, 0, 0, 4, 4
        DC8 7, 7, 4, 4, 4, 4, 0, 63, 63, 0
        DC8 0, 0, 0, 0, 0, 0, 192, 192, 0, 0
        DC8 0, 0, 254, 254, 16, 254, 254, 0, 0, 0
        DC8 4, 4, 7, 7, 4, 4, 4, 4, 63, 63
        DC8 0, 63, 63, 0, 0, 0, 0, 0, 192, 192
        DC8 0, 0, 0, 0, 0, 254, 254, 0, 0, 0
        DC8 0, 0, 4, 4, 7, 7, 4, 4, 4, 4
        DC8 0, 63, 63, 0, 0, 0, 0, 0, 0, 0
        DC8 128, 128, 0, 0, 0, 128, 128, 0, 0, 0
        DC8 0, 0, 0, 0, 8, 8, 15, 15, 8, 8
        DC8 8, 15, 15, 8, 8, 8, 0, 0, 0, 0
        DC8 0, 0, 0, 0, 0, 0, 0, 0, 0, 0
        DC8 0, 0, 0, 0, 0, 0, 1, 1, 1, 1
        DC8 1, 63, 63, 1, 1, 1, 1, 1, 0, 0
        DC8 0, 0, 0, 0, 0, 0, 0, 0, 0, 0
        DC8 0, 254, 254, 0, 0, 0, 0, 0, 1, 1
        DC8 31, 31, 1, 1, 5, 5, 4, 63, 63, 0
        DC8 0, 0, 0, 0, 0, 0, 0, 0, 0, 0
        DC8 0, 0, 254, 254, 0, 254, 254, 0, 0, 0
        DC8 1, 1, 31, 31, 1, 5, 5, 5, 63, 63
        DC8 0, 63, 63, 0, 0, 0, 0, 0, 0, 0
        DC8 0, 0, 0, 0, 0, 254, 254, 0, 0, 0
        DC8 0, 0, 1, 1, 31, 31, 1, 1, 1, 1
        DC8 0, 63, 63, 0, 0, 0, 0, 0, 0, 0
        DC8 0, 0, 0, 0, 0, 0, 0, 0, 0, 0
        DC8 0, 0, 0, 0, 1, 1, 1, 63, 63, 1
        DC8 1, 63, 63, 1, 1, 1, 0, 0, 0, 0
        DC8 0, 0, 0, 0, 0, 0, 0, 0, 0, 0
        DC8 0, 0, 0, 0, 0, 0, 8, 8, 8, 8
        DC8 8, 8, 8, 8, 8, 8, 8, 8, 0, 0
        DC8 0, 0, 0, 0, 0, 0, 0, 0, 0, 0
        DC8 0, 254, 254, 0, 0, 0, 0, 0, 4, 4
        DC8 4, 4, 4, 4, 4, 4, 0, 63, 63, 0
        DC8 0, 0, 0, 0, 0, 0, 0, 0, 0, 0
        DC8 0, 0, 0, 254, 254, 0, 0, 0, 0, 0
        DC8 0, 0, 0, 0, 0, 0, 0, 0, 0, 63
        DC8 63, 0, 0, 0, 0, 0, 0, 0, 0, 0
        DC8 0, 0, 0, 0, 0, 0, 0, 0, 0, 0
        DC8 0, 0, 0, 0, 0, 0, 0, 0, 0, 0
        DC8 0, 0, 0, 0, 0, 0, 0, 0, 0, 0
        DC8 0, 0, 0, 0, 0, 0, 0, 254, 254, 16
        DC8 16, 0, 0, 0, 0, 0, 0, 0, 0, 0
        DC8 0, 0, 0, 63, 63, 0, 0, 0, 0, 0
        DC8 0, 0, 0, 0, 0, 0, 0, 0, 254, 254
        DC8 16, 254, 254, 0, 0, 0, 0, 0, 0, 0
        DC8 0, 0, 0, 0, 63, 63, 0, 63, 63, 0
        DC8 0, 0, 0, 0, 0, 0, 0, 0, 0, 0
        DC8 0, 254, 254, 144, 144, 0, 0, 0, 0, 0
        DC8 0, 0, 0, 0, 0, 0, 0, 63, 63, 0
        DC8 0, 0, 0, 0, 0, 0, 0, 0, 0, 0
        DC8 0, 0, 254, 254, 144, 254, 254, 0, 0, 0
        DC8 0, 0, 0, 0, 0, 0, 0, 0, 63, 63
        DC8 0, 63, 63, 0, 0, 0, 0, 0, 0, 0
        DC8 0, 0, 32, 32, 32, 254, 254, 0, 0, 0
        DC8 0, 0, 0, 0, 0, 0, 0, 0, 0, 0
        DC8 0, 63, 63, 0, 0, 0, 0, 0, 0, 0
        DC8 0, 0, 0, 0, 32, 32, 254, 254, 0, 254
        DC8 254, 0, 0, 0, 0, 0, 0, 0, 0, 0
        DC8 0, 0, 63, 63, 0, 63, 63, 0, 0, 0
        DC8 0, 0, 0, 0, 0, 0, 144, 144, 144, 254
        DC8 254, 0, 0, 0, 0, 0, 0, 0, 0, 0
        DC8 0, 0, 0, 0, 0, 63, 63, 0, 0, 0
        DC8 0, 0, 0, 0, 0, 0, 0, 144, 144, 144
        DC8 254, 254, 0, 254, 254, 0, 0, 0, 0, 0
        DC8 0, 0, 0, 0, 0, 0, 63, 63, 0, 63
        DC8 63, 0, 0, 0, 0, 0, 0, 0, 0, 0
        DC8 0, 0, 0, 0, 0, 0, 0, 0, 0, 0
        DC8 8, 8, 8, 8, 8, 15, 15, 8, 8, 8
        DC8 8, 8, 0, 0, 0, 0, 0, 0, 0, 0
        DC8 0, 0, 0, 0, 0, 254, 254, 16, 16, 0
        DC8 0, 0, 4, 4, 7, 7, 4, 4, 4, 4
        DC8 0, 63, 63, 0, 0, 0, 0, 0, 0, 0
        DC8 0, 0, 0, 0, 0, 0, 254, 254, 16, 254
        DC8 254, 0, 0, 0, 4, 4, 7, 7, 4, 4
        DC8 4, 4, 63, 63, 0, 63, 63, 0, 0, 0
        DC8 0, 0, 0, 0, 0, 0, 0, 0, 0, 0
        DC8 254, 254, 0, 0, 0, 0, 4, 4, 7, 7
        DC8 4, 4, 4, 4, 4, 0, 63, 63, 0, 0
        DC8 0, 0, 0, 0, 0, 0, 0, 0, 0, 0
        DC8 0, 0, 0, 0, 0, 0, 0, 0, 8, 8
        DC8 8, 15, 15, 8, 8, 15, 15, 8, 8, 8
        DC8 0, 0, 0, 0, 0, 0, 0, 0, 0, 0
        DC8 0, 0, 0, 0, 0, 0, 0, 0, 0, 0
        DC8 1, 1, 1, 1, 1, 63, 63, 1, 1, 1
        DC8 1, 1, 0, 0, 0, 0, 0, 0, 0, 0
        DC8 0, 0, 0, 0, 0, 254, 254, 0, 0, 0
        DC8 0, 0, 1, 1, 31, 31, 1, 1, 5, 5
        DC8 4, 63, 63, 0, 0, 0, 0, 0, 0, 0
        DC8 0, 0, 0, 0, 0, 0, 254, 254, 0, 254
        DC8 254, 0, 0, 0, 1, 1, 31, 31, 1, 5
        DC8 5, 5, 63, 63, 0, 63, 63, 0, 0, 0
        DC8 0, 0, 0, 0, 0, 0, 0, 0, 0, 254
        DC8 254, 0, 0, 0, 0, 0, 1, 1, 31, 31
        DC8 1, 1, 1, 1, 0, 63, 63, 0, 0, 0
        DC8 0, 0, 0, 0, 0, 0, 0, 0, 0, 0
        DC8 0, 0, 0, 0, 0, 0, 0, 0, 1, 1
        DC8 1, 63, 63, 1, 1, 63, 63, 1, 1, 1
        DC8 0, 0, 0, 0, 0, 0, 0, 0, 0, 0
        DC8 0, 0, 0, 0, 0, 0, 0, 0, 0, 0
        DC8 8, 8, 8, 8, 8, 8, 8, 8, 8, 8
        DC8 8, 8, 0, 0, 0, 0, 0, 0, 0, 0
        DC8 0, 0, 0, 0, 0, 254, 254, 0, 0, 0
        DC8 0, 0, 4, 4, 4, 4, 4, 4, 4, 4
        DC8 0, 63, 63, 0, 0, 0, 0, 0, 0, 0
        DC8 0, 0, 0, 0, 0, 0, 0, 254, 254, 0
        DC8 0, 0, 0, 0, 0, 0, 0, 0, 0, 0
        DC8 0, 0, 0, 63, 63, 0, 0, 0, 0, 0
        DC8 0, 0, 0, 0, 0, 0, 0, 0, 0, 0
        DC8 0, 0, 0, 0, 0, 0, 0, 0, 0, 0
        DC8 0, 0, 0, 0, 0, 0, 0, 0, 0, 0
        DC8 0, 0, 0, 0, 0, 0, 0, 0, 0, 0
        DC8 0, 254, 254, 16, 16, 0, 0, 0, 0, 0
        DC8 0, 0, 0, 0, 0, 0, 0, 1, 1, 0
        DC8 0, 0, 0, 0, 0, 0, 0, 0, 0, 0
        DC8 0, 0, 254, 254, 16, 254, 254, 0, 0, 0
        DC8 0, 0, 0, 0, 0, 0, 0, 0, 1, 1
        DC8 0, 1, 1, 0, 0, 0, 0, 0, 0, 0
        DC8 0, 0, 0, 0, 0, 254, 254, 72, 72, 0
        DC8 0, 0, 0, 0, 0, 0, 0, 0, 0, 0
        DC8 0, 1, 1, 0, 0, 0, 0, 0, 0, 0
        DC8 0, 0, 0, 0, 0, 0, 254, 254, 36, 254
        DC8 254, 0, 0, 0, 0, 0, 0, 0, 0, 0
        DC8 0, 0, 1, 1, 0, 1, 1, 0, 0, 0
        DC8 0, 0, 0, 0, 0, 0, 0, 16, 16, 254
        DC8 254, 0, 0, 0, 0, 0, 0, 0, 0, 0
        DC8 0, 0, 0, 0, 0, 1, 1, 0, 0, 0
        DC8 0, 0, 0, 0, 0, 0, 0, 0, 0, 16
        DC8 254, 254, 0, 254, 254, 0, 0, 0, 0, 0
        DC8 0, 0, 0, 0, 0, 0, 1, 1, 0, 1
        DC8 1, 0, 0, 0, 0, 0, 0, 0, 0, 0
        DC8 32, 40, 40, 254, 254, 0, 0, 0, 0, 0
        DC8 0, 0, 0, 0, 0, 0, 0, 0, 0, 1
        DC8 1, 0, 0, 0, 0, 0, 0, 0, 0, 0
        DC8 0, 0, 32, 40, 254, 254, 0, 254, 254, 0
        DC8 0, 0, 0, 0, 0, 0, 0, 0, 0, 0
        DC8 1, 1, 0, 1, 1, 0, 0, 0, 128, 128
        DC8 128, 128, 224, 224, 128, 128, 128, 128, 128, 128
        DC8 0, 0, 0, 0, 0, 0, 0, 0, 0, 0
        DC8 0, 0, 0, 0, 0, 0, 0, 0, 0, 0
        DC8 128, 128, 224, 224, 128, 128, 128, 128, 0, 254
        DC8 254, 16, 16, 0, 0, 0, 0, 0, 0, 0
        DC8 0, 0, 0, 0, 0, 1, 1, 0, 0, 0
        DC8 0, 0, 128, 128, 224, 224, 128, 128, 128, 128
        DC8 254, 254, 16, 254, 254, 0, 0, 0, 0, 0
        DC8 0, 0, 0, 0, 0, 0, 1, 1, 0, 1
        DC8 1, 0, 0, 0, 128, 128, 224, 224, 128, 128
        DC8 128, 128, 0, 254, 254, 0, 0, 0, 0, 0
        DC8 0, 0, 0, 0, 0, 0, 0, 0, 0, 1
        DC8 1, 0, 0, 0, 0, 0, 128, 128, 224, 224
        DC8 128, 128, 224, 224, 128, 128, 128, 128, 0, 0
        DC8 0, 0, 0, 0, 0, 0, 0, 0, 0, 0
        DC8 0, 0, 0, 0, 0, 0, 0, 0, 128, 128
        DC8 128, 128, 128, 128, 128, 128, 128, 128, 128, 128
        DC8 0, 0, 0, 0, 0, 0, 0, 0, 0, 3
        DC8 3, 0, 0, 0, 0, 0, 0, 0, 0, 0
        DC8 128, 128, 128, 128, 128, 128, 128, 144, 16, 254
        DC8 254, 0, 0, 0, 0, 0, 0, 0, 3, 3
        DC8 0, 0, 0, 0, 0, 1, 1, 0, 0, 0
        DC8 0, 0, 128, 128, 128, 128, 128, 128, 144, 144
        DC8 254, 254, 0, 254, 254, 0, 0, 0, 0, 0
        DC8 3, 3, 0, 0, 0, 0, 1, 1, 0, 1
        DC8 1, 0, 0, 0, 128, 128, 128, 128, 128, 128
        DC8 128, 128, 0, 254, 254, 0, 0, 0, 0, 0
        DC8 0, 0, 3, 3, 0, 0, 0, 0, 0, 1
        DC8 1, 0, 0, 0, 0, 0, 128, 128, 128, 128
        DC8 128, 128, 128, 128, 128, 128, 128, 128, 0, 0
        DC8 0, 0, 0, 0, 0, 3, 3, 0, 0, 3
        DC8 3, 0, 0, 0, 0, 0, 0, 0, 128, 128
        DC8 128, 128, 128, 128, 128, 128, 128, 128, 128, 128
        DC8 0, 0, 0, 0, 0, 0, 0, 0, 0, 0
        DC8 0, 0, 0, 0, 0, 0, 0, 0, 0, 0
        DC8 128, 128, 128, 128, 128, 128, 128, 128, 0, 254
        DC8 254, 0, 0, 0, 0, 0, 0, 0, 0, 0
        DC8 0, 0, 0, 0, 0, 1, 1, 0, 0, 0
        DC8 0, 0, 0, 0, 0, 0, 0, 0, 0, 0
        DC8 0, 254, 254, 0, 0, 0, 0, 0, 0, 0
        DC8 0, 0, 0, 0, 0, 0, 0, 1, 1, 0
        DC8 0, 0, 0, 0, 0, 0, 0, 0, 0, 0
        DC8 0, 0, 0, 0, 0, 0, 0, 0, 0, 0
        DC8 0, 0, 0, 0, 0, 0, 0, 0, 0, 0
        DC8 0, 0, 0, 0, 0, 0, 0, 0, 0, 0
        DC8 0, 0, 0, 0, 0, 254, 254, 16, 16, 0
        DC8 0, 0, 0, 0, 0, 0, 0, 0, 0, 0
        DC8 0, 1, 1, 0, 0, 0, 0, 0, 0, 0
        DC8 0, 0, 0, 0, 0, 0, 254, 254, 16, 254
        DC8 254, 0, 0, 0, 0, 0, 0, 0, 0, 0
        DC8 0, 0, 1, 1, 0, 1, 1, 0, 0, 0
        DC8 0, 0, 0, 0, 0, 0, 0, 0, 0, 254
        DC8 254, 72, 72, 0, 0, 0, 0, 0, 0, 0
        DC8 0, 0, 0, 0, 0, 1, 1, 0, 0, 0
        DC8 0, 0, 0, 0, 0, 0, 0, 0, 0, 0
        DC8 254, 254, 36, 254, 254, 0, 0, 0, 0, 0
        DC8 0, 0, 0, 0, 0, 0, 1, 1, 0, 1
        DC8 1, 0, 0, 0, 0, 0, 0, 0, 0, 0
        DC8 0, 16, 16, 254, 254, 0, 0, 0, 0, 0
        DC8 0, 0, 0, 0, 0, 0, 0, 0, 0, 1
        DC8 1, 0, 0, 0, 0, 0, 0, 0, 0, 0
        DC8 0, 0, 16, 16, 254, 254, 0, 254, 254, 0
        DC8 0, 0, 0, 0, 0, 0, 0, 0, 0, 0
        DC8 1, 1, 0, 1, 1, 0, 0, 0, 0, 0
        DC8 0, 0, 0, 0, 40, 40, 40, 254, 254, 0
        DC8 0, 0, 0, 0, 0, 0, 0, 0, 0, 0
        DC8 0, 0, 0, 1, 1, 0, 0, 0, 0, 0
        DC8 0, 0, 0, 0, 0, 0, 40, 40, 254, 254
        DC8 0, 254, 254, 0, 0, 0, 0, 0, 0, 0
        DC8 0, 0, 0, 0, 1, 1, 0, 1, 1, 0
        DC8 0, 0, 128, 128, 128, 128, 128, 224, 224, 128
        DC8 128, 128, 128, 128, 0, 0, 0, 0, 0, 0
        DC8 0, 0, 0, 0, 0, 0, 0, 0, 0, 0
        DC8 0, 0, 0, 0, 128, 128, 128, 224, 224, 128
        DC8 128, 128, 0, 254, 254, 16, 16, 0, 0, 0
        DC8 0, 0, 0, 0, 0, 0, 0, 0, 0, 1
        DC8 1, 0, 0, 0, 0, 0, 128, 128, 128, 224
        DC8 224, 128, 128, 128, 254, 254, 16, 254, 254, 0
        DC8 0, 0, 0, 0, 0, 0, 0, 0, 0, 0
        DC8 1, 1, 0, 1, 1, 0, 0, 0, 128, 128
        DC8 128, 224, 224, 128, 128, 128, 0, 254, 254, 0
        DC8 0, 0, 0, 0, 0, 0, 0, 0, 0, 0
        DC8 0, 0, 0, 1, 1, 0, 0, 0, 0, 0
        DC8 128, 128, 128, 224, 224, 128, 128, 224, 224, 128
        DC8 128, 128, 0, 0, 0, 0, 0, 0, 0, 0
        DC8 0, 0, 0, 0, 0, 0, 0, 0, 0, 0
        DC8 0, 0, 128, 128, 128, 128, 128, 128, 128, 128
        DC8 128, 128, 128, 128, 0, 0, 0, 0, 0, 0
        DC8 0, 0, 0, 3, 3, 0, 0, 0, 0, 0
        DC8 0, 0, 0, 0, 128, 128, 128, 128, 128, 128
        DC8 128, 144, 16, 254, 254, 0, 0, 0, 0, 0
        DC8 0, 0, 3, 3, 0, 0, 0, 0, 0, 1
        DC8 1, 0, 0, 0, 0, 0, 128, 128, 128, 128
        DC8 128, 128, 144, 144, 254, 254, 0, 254, 254, 0
        DC8 0, 0, 0, 0, 3, 3, 0, 0, 0, 0
        DC8 1, 1, 0, 1, 1, 0, 0, 0, 128, 128
        DC8 128, 128, 128, 128, 128, 128, 0, 254, 254, 0
        DC8 0, 0, 0, 0, 0, 0, 3, 3, 0, 0
        DC8 0, 0, 0, 1, 1, 0, 0, 0, 0, 0
        DC8 128, 128, 128, 128, 128, 128, 128, 128, 128, 128
        DC8 128, 128, 0, 0, 0, 0, 0, 0, 0, 3
        DC8 3, 0, 0, 3, 3, 0, 0, 0, 0, 0
        DC8 0, 0, 128, 128, 128, 128, 128, 128, 128, 128
        DC8 128, 128, 128, 128, 0, 0, 0, 0, 0, 0
        DC8 0, 0, 0, 0, 0, 0, 0, 0, 0, 0
        DC8 0, 0, 0, 0, 128, 128, 128, 128, 128, 128
        DC8 128, 128, 0, 254, 254, 0, 0, 0, 0, 0
        DC8 0, 0, 0, 0, 0, 0, 0, 0, 0, 1
        DC8 1, 0, 0, 0, 0, 0, 0, 0, 0, 0
        DC8 0, 0, 0, 0, 0, 254, 254, 0, 0, 0
        DC8 0, 0, 0, 0, 0, 0, 0, 0, 0, 0
        DC8 0, 1, 1, 0, 0, 0, 0, 0, 0, 0
        DC8 0, 0, 0, 0, 0, 0, 0, 0, 0, 0
        DC8 0, 0, 0, 0, 0, 0, 0, 0, 0, 0
        DC8 0, 0, 0, 0, 0, 0, 0, 0, 0, 0
        DC8 0, 0, 0, 0, 0, 0, 0, 0, 0, 0
        DC8 0, 0, 0, 0, 0, 0, 0, 0, 2, 2
        DC8 2, 2, 2, 2, 2, 62, 62, 0, 0, 0
        DC8 0, 0, 0, 0, 0, 0, 0, 0, 0, 0
        DC8 0, 0, 0, 0, 0, 0, 0, 0, 0, 2
        DC8 2, 2, 62, 62, 2, 2, 2, 62, 62, 0
        DC8 0, 0, 0, 0, 0, 0, 0, 0, 0, 0
        DC8 0, 0, 0, 0, 0, 0, 0, 0, 0, 0
        DC8 0, 2, 2, 2, 62, 30, 32, 48, 30, 30
        DC8 48, 32, 0, 0, 0, 0, 0, 0, 0, 0
        DC8 0, 0, 0, 0, 0, 0, 0, 0, 0, 0
        DC8 0, 0, 0, 0, 62, 62, 32, 32, 32, 32
        DC8 32, 34, 34, 0, 0, 0, 0, 0, 0, 0
        DC8 0, 0, 0, 0, 0, 0, 0, 0, 0, 0
        DC8 0, 0, 0, 0, 0, 62, 62, 32, 32, 0
        DC8 34, 50, 30, 30, 50, 34, 0, 0, 0, 0
        DC8 0, 0, 0, 0, 0, 0, 0, 0, 0, 0
        DC8 0, 0, 0, 0, 0, 0, 0, 62, 62, 32
        DC8 32, 32, 20, 62, 46, 46, 62, 20, 0, 0
        DC8 0, 0, 0, 0, 0, 0, 0, 0, 0, 0
        DC8 0, 0, 0, 0, 0, 0, 0, 0, 0, 0
        DC8 62, 62, 34, 34, 34, 34, 34, 34, 34, 0
        DC8 0, 0, 0, 0, 0, 0, 0, 0, 0, 0
        DC8 0, 0, 0, 0, 0, 0, 0, 0, 0, 0
        DC8 0, 0, 58, 58, 42, 42, 42, 42, 42, 46
        DC8 46, 0, 0, 0, 0, 0, 0, 0, 0, 0
        DC8 0, 0, 0, 0, 0, 0, 0, 0, 0, 0
        DC8 0, 0, 0, 58, 58, 42, 46, 46, 0, 2
        DC8 2, 62, 62, 0, 0, 0, 0, 0, 0, 0
        DC8 0, 0, 0, 0, 0, 0, 0, 0, 0, 0
        DC8 0, 0, 0, 0, 0, 58, 58, 46, 46, 0
        DC8 62, 62, 34, 62, 62, 0, 0, 0, 0, 0
        DC8 0, 0, 0, 0, 0, 0, 0, 0, 0, 0
        DC8 0, 0, 0, 0, 0, 0, 0, 58, 58, 46
        DC8 46, 0, 62, 62, 40, 62, 62, 0, 0, 0
        DC8 0, 0, 0, 0, 0, 0, 0, 0, 0, 0
        DC8 0, 0, 0, 0, 0, 0, 0, 0, 0, 58
        DC8 58, 42, 46, 14, 32, 48, 30, 30, 48, 32
        DC8 0, 0, 0, 0, 0, 0, 0, 0, 0, 0
        DC8 0, 0, 0, 0, 0, 0, 0, 0, 0, 0
        DC8 0, 58, 58, 46, 46, 0, 62, 62, 42, 42
        DC8 42, 0, 0, 0, 0, 0, 0, 0, 0, 0
        DC8 0, 0, 0, 0, 0, 0, 0, 0, 0, 0
        DC8 0, 0, 0, 58, 58, 46, 46, 34, 62, 62
        DC8 34, 62, 62, 34, 0, 0, 0, 0, 0, 0
        DC8 0, 0, 0, 0, 0, 0, 0, 0, 0, 0
        DC8 0, 0, 0, 0, 0, 58, 58, 42, 46, 46
        DC8 20, 62, 46, 46, 62, 20, 0, 0, 0, 0
        DC8 0, 0, 0, 0, 0, 0, 0, 0, 0, 0
        DC8 0, 0, 0, 0, 0, 0, 0, 0, 62, 62
        DC8 34, 34, 34, 34, 34, 62, 62, 0, 0, 0
        DC8 0, 0, 0, 0, 0, 0, 0, 0, 0, 0
        DC8 0, 0, 0, 0, 0, 0, 0, 0, 0, 0
        DC8 62, 62, 40, 40, 40, 40, 40, 62, 62, 0
        DC8 0, 0, 0, 0, 0, 0, 0, 0, 0, 0
        DC8 0, 0, 0, 0, 0, 0, 0, 0, 0, 0
        DC8 0, 62, 62, 40, 62, 30, 32, 48, 30, 30
        DC8 48, 32, 0, 0, 0, 0, 0, 0, 0, 0
        DC8 0, 0, 0, 0, 0, 0, 0, 0, 0, 0
        DC8 0, 0, 0, 0, 32, 48, 24, 12, 6, 12
        DC8 24, 48, 32, 0, 0, 0, 0, 0, 0, 0
        DC8 0, 0, 0, 0, 0, 0, 0, 0, 0, 0
        DC8 0, 0, 0, 0, 0, 32, 48, 24, 46, 62
        DC8 24, 14, 14, 24, 48, 32, 0, 0, 0, 0
        DC8 0, 0, 0, 0, 0, 0, 0, 0, 0, 0
        DC8 0, 0, 0, 0, 0, 0, 0, 0, 28, 62
        DC8 34, 34, 34, 34, 34, 62, 28, 0, 0, 0
        DC8 0, 0, 0, 0, 0, 0, 0, 0, 0, 0
        DC8 0, 0, 0, 0, 0, 0, 0, 0, 0, 0
        DC8 34, 50, 26, 14, 6, 14, 26, 50, 34, 0
        DC8 0, 0, 0, 0, 0, 0, 0, 0, 0, 0
        DC8 0, 0, 0, 0, 0, 0, 0, 0, 0, 0
        DC8 0, 0, 36, 52, 28, 14, 6, 14, 28, 52
        DC8 36, 0, 0, 0, 0, 0, 0, 0, 0, 0
        DC8 0, 0, 0, 0, 0, 0, 0, 0, 0, 0
        DC8 0, 0, 0, 0, 10, 10, 10, 10, 10, 10
        DC8 10, 62, 62, 0, 0, 0, 0, 0, 0, 0
        DC8 0, 0, 0, 0, 0, 0, 0, 0, 0, 0
        DC8 0, 0, 0, 0, 0, 0, 62, 62, 42, 42
        DC8 42, 42, 42, 42, 42, 0, 0, 0, 0, 0
        DC8 0, 0, 0, 0, 0, 0, 0, 0, 0, 0
        DC8 0, 0, 0, 0, 0, 0, 0, 0, 34, 62
        DC8 62, 34, 34, 34, 62, 62, 34, 0, 0, 0
        DC8 0, 0, 0, 0, 0, 0, 0, 0, 0, 0
        DC8 0, 0, 0, 0, 0, 0, 0, 0, 0, 0
        DC8 20, 60, 44, 46, 46, 46, 44, 60, 20, 0
        DC8 0, 0, 0, 0, 0, 0, 0, 0, 0, 0
        DC8 0, 0, 0, 0, 0, 0, 0, 0, 0, 0
        DC8 0, 0, 0, 0, 0, 0, 0, 0, 0, 0
        DC8 0, 0, 0, 0, 0, 0, 0, 0, 0, 0
        DC8 0, 0, 0, 0, 0, 0, 0, 0, 0, 0
        DC8 0, 0, 0, 0, 2, 2, 2, 2, 2, 2
        DC8 2, 62, 62, 0, 0, 0, 0, 0, 0, 0
        DC8 0, 0, 0, 0, 0, 0, 0, 0, 0, 0
        DC8 0, 0, 0, 0, 0, 2, 2, 2, 62, 62
        DC8 2, 2, 2, 62, 62, 0, 0, 0, 0, 0
        DC8 0, 0, 0, 0, 0, 0, 0, 0, 0, 0
        DC8 0, 0, 0, 0, 0, 0, 0, 2, 2, 2
        DC8 62, 30, 32, 48, 30, 30, 48, 32, 0, 0
        DC8 0, 0, 0, 0, 0, 0, 0, 0, 0, 0
        DC8 0, 0, 0, 0, 0, 0, 0, 0, 0, 0
        DC8 62, 62, 32, 32, 32, 32, 32, 34, 34, 0
        DC8 0, 0, 0, 0, 0, 0, 0, 0, 0, 0
        DC8 0, 0, 0, 0, 0, 0, 0, 0, 0, 0
        DC8 0, 62, 62, 32, 32, 0, 34, 50, 30, 30
        DC8 50, 34, 0, 0, 0, 0, 0, 0, 0, 0
        DC8 0, 0, 0, 0, 0, 0, 0, 0, 0, 0
        DC8 0, 0, 0, 62, 62, 32, 32, 32, 20, 62
        DC8 46, 46, 62, 20, 0, 0, 0, 0, 0, 0
        DC8 0, 0, 0, 0, 0, 0, 0, 0, 0, 0
        DC8 0, 0, 0, 0, 0, 0, 62, 62, 34, 34
        DC8 34, 34, 34, 34, 34, 0, 0, 0, 0, 0
        DC8 0, 0, 0, 0, 0, 0, 0, 0, 0, 0
        DC8 0, 0, 0, 0, 0, 0, 0, 0, 58, 58
        DC8 42, 42, 42, 42, 42, 46, 46, 0, 0, 0
        DC8 0, 0, 0, 0, 0, 0, 0, 0, 0, 0
        DC8 0, 0, 0, 0, 0, 0, 0, 0, 0, 58
        DC8 58, 42, 46, 46, 2, 2, 2, 62, 62, 0
        DC8 0, 0, 0, 0, 0, 0, 0, 0, 0, 0
        DC8 0, 0, 0, 0, 0, 0, 0, 0, 0, 0
        DC8 0, 58, 58, 46, 46, 0, 62, 62, 34, 62
        DC8 62, 0, 0, 0, 0, 0, 0, 0, 0, 0
        DC8 0, 0, 0, 0, 0, 0, 0, 0, 0, 0
        DC8 0, 0, 0, 58, 58, 46, 46, 0, 62, 62
        DC8 40, 62, 62, 0, 0, 0, 0, 0, 0, 0
        DC8 0, 0, 0, 0, 0, 0, 0, 0, 0, 0
        DC8 0, 0, 0, 0, 0, 58, 58, 42, 46, 14
        DC8 32, 48, 30, 30, 48, 32, 0, 0, 0, 0
        DC8 0, 0, 0, 0, 0, 0, 0, 0, 0, 0
        DC8 0, 0, 0, 0, 0, 0, 0, 58, 58, 46
        DC8 46, 0, 62, 62, 42, 42, 42, 0, 0, 0
        DC8 0, 0, 0, 0, 0, 0, 0, 0, 0, 0
        DC8 0, 0, 0, 0, 0, 0, 0, 0, 0, 58
        DC8 58, 46, 46, 34, 62, 62, 34, 62, 62, 34
        DC8 0, 0, 0, 0, 0, 0, 0, 0, 0, 0
        DC8 0, 0, 0, 0, 0, 0, 0, 0, 0, 0
        DC8 0, 58, 58, 42, 46, 46, 20, 60, 46, 46
        DC8 60, 20, 0, 0, 0, 0, 0, 0, 0, 0
        DC8 0, 0, 0, 0, 0, 0, 0, 0, 0, 0
        DC8 0, 0, 0, 0, 62, 62, 34, 34, 34, 34
        DC8 34, 62, 62, 0, 0, 0, 0, 0, 0, 0
        DC8 0, 0, 0, 0, 0, 0, 0, 0, 0, 0
        DC8 0, 0, 0, 0, 0, 0, 62, 62, 40, 40
        DC8 40, 40, 40, 62, 62, 0, 0, 0, 0, 0
        DC8 0, 0, 0, 0, 0, 0, 0, 0, 0, 0
        DC8 0, 0, 0, 0, 0, 0, 0, 62, 62, 40
        DC8 62, 30, 32, 48, 30, 30, 48, 32, 0, 0
        DC8 0, 0, 0, 0, 0, 0, 0, 0, 0, 0
        DC8 0, 0, 0, 0, 0, 0, 0, 0, 0, 0
        DC8 32, 48, 24, 12, 6, 12, 24, 48, 32, 0
        DC8 0, 0, 0, 0, 0, 0, 0, 0, 0, 0
        DC8 0, 0, 0, 0, 0, 0, 0, 0, 0, 0
        DC8 0, 32, 48, 24, 46, 62, 24, 14, 14, 24
        DC8 48, 32, 0, 0, 0, 0, 0, 0, 0, 0
        DC8 0, 0, 0, 0, 0, 0, 0, 0, 0, 0
        DC8 0, 0, 0, 0, 28, 62, 34, 34, 34, 34
        DC8 34, 62, 28, 0, 0, 0, 0, 0, 0, 0
        DC8 0, 0, 0, 0, 0, 0, 0, 0, 0, 0
        DC8 0, 0, 0, 0, 0, 0, 34, 50, 26, 14
        DC8 6, 14, 26, 50, 34, 0, 0, 0, 0, 0
        DC8 0, 0, 0, 0, 0, 0, 0, 0, 0, 0
        DC8 0, 0, 0, 0, 0, 0, 0, 0, 36, 52
        DC8 28, 14, 6, 14, 28, 52, 36, 0, 0, 0
        DC8 0, 0, 0, 0, 0, 0, 0, 0, 0, 0
        DC8 0, 0, 0, 0, 0, 0, 0, 0, 0, 0
        DC8 10, 10, 10, 10, 10, 10, 10, 62, 62, 0
        DC8 0, 0, 0, 0, 0, 0, 0, 0, 0, 0
        DC8 0, 0, 0, 0, 0, 0, 0, 0, 0, 0
        DC8 0, 0, 62, 62, 42, 42, 42, 42, 42, 42
        DC8 42, 0, 0, 0, 0, 0, 0, 0, 0, 0
        DC8 0, 0, 0, 0, 0, 0, 0, 0, 0, 0
        DC8 0, 0, 0, 0, 34, 62, 62, 34, 34, 34
        DC8 62, 62, 34, 0, 0, 0, 0, 0, 0, 0
        DC8 0, 0, 0, 0, 0, 0, 0, 0, 0, 0
        DC8 0, 0, 0, 0, 0, 0, 20, 60, 44, 46
        DC8 46, 46, 44, 60, 20, 0, 0, 0, 0, 0
        DC8 0, 0, 0, 0, 0, 0, 0, 0, 0, 0
        DC8 0, 0, 0, 0, 0, 0, 0, 0, 0, 0
        DC8 0, 0, 0, 0, 0, 0, 0, 0, 0, 0
        DC8 0, 0, 0, 0, 0, 0, 0, 0, 0, 0
        DC8 0, 0, 0, 0, 0, 0, 0, 0, 0, 0
        DC8 0, 2, 2, 2, 2, 2, 2, 2, 2, 62
        DC8 62, 0, 0, 0, 0, 0, 0, 0, 0, 0
        DC8 0, 0, 0, 0, 0, 0, 0, 0, 0, 0
        DC8 0, 0, 2, 2, 2, 2, 62, 62, 2, 2
        DC8 2, 62, 62, 0, 0, 0, 0, 0, 0, 0
        DC8 0, 0, 0, 0, 0, 0, 0, 0, 0, 0
        DC8 0, 0, 0, 0, 2, 2, 2, 62, 62, 0
        DC8 32, 48, 30, 30, 48, 32, 0, 0, 0, 0
        DC8 0, 0, 0, 0, 0, 0, 0, 0, 0, 0
        DC8 0, 0, 0, 0, 0, 0, 0, 62, 62, 32
        DC8 32, 32, 34, 34, 32, 34, 34, 0, 0, 0
        DC8 0, 0, 0, 0, 0, 0, 0, 0, 0, 0
        DC8 0, 0, 0, 0, 0, 0, 0, 0, 62, 62
        DC8 32, 32, 0, 34, 50, 30, 30, 50, 34, 0
        DC8 0, 0, 0, 0, 0, 0, 0, 0, 0, 0
        DC8 0, 0, 0, 0, 0, 0, 0, 0, 0, 0
        DC8 62, 62, 32, 32, 32, 20, 62, 46, 46, 62
        DC8 20, 0, 0, 0, 0, 0, 0, 0, 0, 0
        DC8 0, 0, 0, 0, 0, 0, 0, 0, 0, 0
        DC8 0, 0, 0, 62, 62, 34, 34, 34, 34, 34
        DC8 34, 34, 34, 0, 0, 0, 0, 0, 0, 0
        DC8 0, 0, 0, 0, 0, 0, 0, 0, 0, 0
        DC8 0, 0, 0, 0, 0, 58, 58, 42, 42, 42
        DC8 42, 42, 42, 46, 46, 0, 0, 0, 0, 0
        DC8 0, 0, 0, 0, 0, 0, 0, 0, 0, 0
        DC8 0, 0, 0, 0, 0, 0, 58, 58, 42, 46
        DC8 46, 0, 2, 2, 2, 62, 62, 0, 0, 0
        DC8 0, 0, 0, 0, 0, 0, 0, 0, 0, 0
        DC8 0, 0, 0, 0, 0, 0, 0, 0, 58, 58
        DC8 42, 46, 46, 0, 62, 62, 34, 62, 62, 0
        DC8 0, 0, 0, 0, 0, 0, 0, 0, 0, 0
        DC8 0, 0, 0, 0, 0, 0, 0, 0, 0, 0
        DC8 58, 58, 42, 46, 46, 0, 62, 62, 40, 62
        DC8 62, 0, 0, 0, 0, 0, 0, 0, 0, 0
        DC8 0, 0, 0, 0, 0, 0, 0, 0, 0, 0
        DC8 0, 0, 58, 58, 42, 46, 46, 0, 32, 48
        DC8 30, 30, 48, 32, 0, 0, 0, 0, 0, 0
        DC8 0, 0, 0, 0, 0, 0, 0, 0, 0, 0
        DC8 0, 0, 0, 0, 58, 58, 42, 46, 46, 0
        DC8 62, 62, 42, 42, 42, 0, 0, 0, 0, 0
        DC8 0, 0, 0, 0, 0, 0, 0, 0, 0, 0
        DC8 0, 0, 0, 0, 0, 0, 58, 58, 46, 46
        DC8 34, 62, 62, 34, 62, 62, 34, 0, 0, 0
        DC8 0, 0, 0, 0, 0, 0, 0, 0, 0, 0
        DC8 0, 0, 0, 0, 0, 0, 0, 0, 58, 58
        DC8 42, 46, 46, 20, 62, 46, 46, 62, 20, 0
        DC8 0, 0, 0, 0, 0, 0, 0, 0, 0, 0
        DC8 0, 0, 0, 0, 0, 0, 0, 0, 0, 0
        DC8 0, 62, 62, 34, 34, 34, 34, 34, 34, 62
        DC8 62, 0, 0, 0, 0, 0, 0, 0, 0, 0
        DC8 0, 0, 0, 0, 0, 0, 0, 0, 0, 0
        DC8 0, 0, 0, 62, 62, 40, 40, 40, 40, 40
        DC8 40, 62, 62, 0, 0, 0, 0, 0, 0, 0
        DC8 0, 0, 0, 0, 0, 0, 0, 0, 0, 0
        DC8 0, 0, 0, 0, 62, 62, 40, 62, 62, 0
        DC8 32, 48, 30, 30, 48, 32, 0, 0, 0, 0
        DC8 0, 0, 0, 0, 0, 0, 0, 0, 0, 0
        DC8 0, 0, 0, 0, 0, 0, 0, 32, 48, 24
        DC8 12, 6, 6, 12, 24, 48, 32, 0, 0, 0
        DC8 0, 0, 0, 0, 0, 0, 0, 0, 0, 0
        DC8 0, 0, 0, 0, 0, 0, 0, 0, 32, 48
        DC8 24, 14, 46, 56, 24, 14, 14, 24, 48, 32
        DC8 0, 0, 0, 0, 0, 0, 0, 0, 0, 0
        DC8 0, 0, 0, 0, 0, 0, 0, 0, 0, 0
        DC8 0, 28, 62, 34, 34, 34, 34, 34, 34, 62
        DC8 28, 0, 0, 0, 0, 0, 0, 0, 0, 0
        DC8 0, 0, 0, 0, 0, 0, 0, 0, 0, 0
        DC8 0, 0, 0, 34, 50, 26, 14, 6, 6, 14
        DC8 26, 50, 34, 0, 0, 0, 0, 0, 0, 0
        DC8 0, 0, 0, 0, 0, 0, 0, 0, 0, 0
        DC8 0, 0, 0, 0, 0, 36, 52, 28, 12, 6
        DC8 6, 12, 28, 52, 36, 0, 0, 0, 0, 0
        DC8 0, 0, 0, 0, 0, 0, 0, 0, 0, 0
        DC8 0, 0, 0, 0, 0, 0, 0, 10, 10, 10
        DC8 10, 10, 10, 10, 10, 62, 62, 0, 0, 0
        DC8 0, 0, 0, 0, 0, 0, 0, 0, 0, 0
        DC8 0, 0, 0, 0, 0, 0, 0, 0, 0, 62
        DC8 62, 42, 42, 42, 42, 42, 42, 42, 42, 0
        DC8 0, 0, 0, 0, 0, 0, 0, 0, 0, 0
        DC8 0, 0, 0, 0, 0, 0, 0, 0, 0, 0
        DC8 34, 34, 62, 62, 34, 34, 34, 62, 62, 34
        DC8 34, 0, 0, 0, 0, 0, 0, 0, 0, 0
        DC8 0, 0, 0, 0, 0, 0, 0, 0, 0, 0
        DC8 0, 0, 0, 20, 60, 44, 44, 46, 46, 44
        DC8 44, 60, 20, 0, 0, 0, 0, 0, 0, 0
        DC8 0, 0, 0, 0, 0, 0, 0, 0, 0, 0
        DC8 0, 0, 0, 0, 0, 0, 0, 0, 0, 0
        DC8 0, 0, 0, 0, 0, 0, 0, 0, 0, 0
        DC8 0, 0, 0, 0, 0, 0, 0, 0, 0, 0
        DC8 0, 0, 0, 0, 0, 2, 2, 2, 2, 2
        DC8 2, 2, 2, 62, 62, 0, 0, 0, 0, 0
        DC8 0, 0, 0, 0, 0, 0, 0, 0, 0, 0
        DC8 0, 0, 0, 0, 0, 0, 0, 2, 2, 2
        DC8 62, 62, 2, 2, 2, 62, 62, 0, 0, 0
        DC8 0, 0, 0, 0, 0, 0, 0, 0, 0, 0
        DC8 0, 0, 0, 0, 0, 0, 0, 0, 0, 2
        DC8 2, 2, 62, 30, 32, 48, 30, 30, 48, 32
        DC8 0, 0, 0, 0, 0, 0, 0, 0, 0, 0
        DC8 0, 0, 0, 0, 0, 0, 0, 0, 0, 0
        DC8 0, 62, 62, 32, 32, 32, 32, 32, 32, 32
        DC8 32, 0, 0, 0, 0, 0, 0, 0, 0, 0
        DC8 0, 0, 0, 0, 0, 0, 0, 0, 0, 0
        DC8 0, 0, 0, 62, 62, 32, 32, 34, 50, 30
        DC8 30, 50, 34, 0, 0, 0, 0, 0, 0, 0
        DC8 0, 0, 0, 0, 0, 0, 0, 0, 0, 0
        DC8 0, 0, 0, 0, 0, 62, 62, 32, 32, 32
        DC8 20, 62, 46, 46, 62, 20, 0, 0, 0, 0
        DC8 0, 0, 0, 0, 0, 0, 0, 0, 0, 0
        DC8 0, 0, 0, 0, 0, 0, 0, 62, 62, 34
        DC8 34, 34, 34, 34, 34, 34, 34, 0, 0, 0
        DC8 0, 0, 0, 0, 0, 0, 0, 0, 0, 0
        DC8 0, 0, 0, 0, 0, 0, 0, 0, 0, 58
        DC8 58, 42, 42, 42, 42, 42, 42, 46, 46, 0
        DC8 0, 0, 0, 0, 0, 0, 0, 0, 0, 0
        DC8 0, 0, 0, 0, 0, 0, 0, 0, 0, 0
        DC8 0, 58, 58, 42, 46, 46, 2, 2, 2, 62
        DC8 62, 0, 0, 0, 0, 0, 0, 0, 0, 0
        DC8 0, 0, 0, 0, 0, 0, 0, 0, 0, 0
        DC8 0, 0, 0, 58, 58, 46, 46, 0, 62, 62
        DC8 34, 62, 62, 0, 0, 0, 0, 0, 0, 0
        DC8 0, 0, 0, 0, 0, 0, 0, 0, 0, 0
        DC8 0, 0, 0, 0, 0, 58, 58, 46, 46, 0
        DC8 62, 62, 40, 62, 62, 0, 0, 0, 0, 0
        DC8 0, 0, 0, 0, 0, 0, 0, 0, 0, 0
        DC8 0, 0, 0, 0, 0, 0, 0, 58, 58, 42
        DC8 46, 14, 32, 48, 30, 30, 48, 32, 0, 0
        DC8 0, 0, 0, 0, 0, 0, 0, 0, 0, 0
        DC8 0, 0, 0, 0, 0, 0, 0, 0, 0, 58
        DC8 58, 46, 46, 0, 62, 62, 42, 42, 42, 0
        DC8 0, 0, 0, 0, 0, 0, 0, 0, 0, 0
        DC8 0, 0, 0, 0, 0, 0, 0, 0, 0, 0
        DC8 0, 58, 58, 46, 46, 34, 62, 62, 34, 62
        DC8 62, 34, 0, 0, 0, 0, 0, 0, 0, 0
        DC8 0, 0, 0, 0, 0, 0, 0, 0, 0, 0
        DC8 0, 0, 0, 58, 58, 42, 46, 46, 20, 62
        DC8 46, 46, 62, 20, 0, 0, 0, 0, 0, 0
        DC8 0, 0, 0, 0, 0, 0, 0, 0, 0, 0
        DC8 0, 0, 0, 0, 0, 62, 62, 34, 34, 34
        DC8 34, 34, 34, 62, 62, 0, 0, 0, 0, 0
        DC8 0, 0, 0, 0, 0, 0, 0, 0, 0, 0
        DC8 0, 0, 0, 0, 0, 0, 0, 62, 62, 40
        DC8 40, 40, 40, 40, 40, 62, 62, 0, 0, 0
        DC8 0, 0, 0, 0, 0, 0, 0, 0, 0, 0
        DC8 0, 0, 0, 0, 0, 0, 0, 0, 0, 62
        DC8 62, 40, 62, 30, 32, 48, 30, 30, 48, 32
        DC8 0, 0, 0, 0, 0, 0, 0, 0, 0, 0
        DC8 0, 0, 0, 0, 0, 0, 0, 0, 0, 0
        DC8 0, 32, 48, 24, 12, 6, 6, 12, 24, 48
        DC8 32, 0, 0, 0, 0, 0, 0, 0, 0, 0
        DC8 0, 0, 0, 0, 0, 0, 0, 0, 0, 0
        DC8 0, 0, 32, 48, 24, 14, 46, 56, 24, 14
        DC8 14, 24, 48, 32, 0, 0, 0, 0, 0, 0
        DC8 0, 0, 0, 0, 0, 0, 0, 0, 0, 0
        DC8 0, 0, 0, 0, 0, 28, 62, 34, 34, 34
        DC8 34, 34, 34, 62, 28, 0, 0, 0, 0, 0
        DC8 0, 0, 0, 0, 0, 0, 0, 0, 0, 0
        DC8 0, 0, 0, 0, 0, 0, 0, 34, 50, 26
        DC8 14, 6, 6, 14, 26, 50, 34, 0, 0, 0
        DC8 0, 0, 0, 0, 0, 0, 0, 0, 0, 0
        DC8 0, 0, 0, 0, 0, 0, 0, 0, 0, 36
        DC8 52, 28, 12, 6, 6, 12, 28, 52, 36, 0
        DC8 0, 0, 0, 0, 0, 0, 0, 0, 0, 0
        DC8 0, 0, 0, 0, 0, 0, 0, 0, 0, 0
        DC8 0, 10, 10, 10, 10, 10, 10, 10, 10, 62
        DC8 62, 0, 0, 0, 0, 0, 0, 0, 0, 0
        DC8 0, 0, 0, 0, 0, 0, 0, 0, 0, 0
        DC8 0, 0, 0, 62, 62, 42, 42, 42, 42, 42
        DC8 42, 42, 42, 0, 0, 0, 0, 0, 0, 0
        DC8 0, 0, 0, 0, 0, 0, 0, 0, 0, 0
        DC8 0, 0, 0, 0, 0, 34, 34, 62, 62, 34
        DC8 34, 62, 62, 34, 34, 0, 0, 0, 0, 0
        DC8 0, 0, 0, 0, 0, 0, 0, 0, 0, 0
        DC8 0, 0, 0, 0, 0, 0, 0, 20, 60, 44
        DC8 44, 46, 46, 44, 44, 60, 20, 0, 0, 0

        SECTION `.text`:CODE:NOROOT(2)
        DATA
// __absolute unsigned char const KSTable[2350][2]
KSTable:
        ; Initializer data, 4700 bytes
        DC8 136, 97, 136, 98, 136, 101, 136, 104, 136, 105
        DC8 136, 106, 136, 107, 136, 113, 136, 115, 136, 116
        DC8 136, 117, 136, 118, 136, 119, 136, 120, 136, 121
        DC8 136, 123, 136, 124, 136, 125, 136, 129, 136, 130
        DC8 136, 133, 136, 137, 136, 145, 136, 147, 136, 149
        DC8 136, 150, 136, 151, 136, 161, 136, 162, 136, 165
        DC8 136, 169, 136, 181, 136, 183, 136, 193, 136, 197
        DC8 136, 201, 136, 225, 136, 226, 136, 229, 136, 232
        DC8 136, 233, 136, 235, 136, 241, 136, 243, 136, 245
        DC8 136, 246, 136, 247, 136, 248, 136, 251, 136, 252
        DC8 136, 253, 137, 65, 137, 69, 137, 73, 137, 81
        DC8 137, 83, 137, 85, 137, 86, 137, 87, 137, 97
        DC8 137, 98, 137, 99, 137, 101, 137, 104, 137, 105
        DC8 137, 113, 137, 115, 137, 117, 137, 118, 137, 119
        DC8 137, 123, 137, 129, 137, 133, 137, 137, 137, 147
        DC8 137, 149, 137, 161, 137, 162, 137, 165, 137, 168
        DC8 137, 169, 137, 171, 137, 173, 137, 176, 137, 177
        DC8 137, 179, 137, 181, 137, 183, 137, 184, 137, 193
        DC8 137, 194, 137, 197, 137, 201, 137, 203, 137, 209
        DC8 137, 211, 137, 213, 137, 215, 137, 225, 137, 229
        DC8 137, 233, 137, 243, 137, 246, 137, 247, 138, 65
        DC8 138, 66, 138, 69, 138, 73, 138, 81, 138, 83
        DC8 138, 85, 138, 87, 138, 97, 138, 101, 138, 105
        DC8 138, 115, 138, 117, 138, 129, 138, 130, 138, 133
        DC8 138, 136, 138, 137, 138, 138, 138, 139, 138, 144
        DC8 138, 145, 138, 147, 138, 149, 138, 151, 138, 152
        DC8 138, 161, 138, 162, 138, 165, 138, 169, 138, 182
        DC8 138, 183, 138, 193, 138, 213, 138, 225, 138, 226
        DC8 138, 229, 138, 233, 138, 241, 138, 243, 138, 245
        DC8 139, 65, 139, 69, 139, 73, 139, 97, 139, 98
        DC8 139, 101, 139, 104, 139, 105, 139, 106, 139, 113
        DC8 139, 115, 139, 117, 139, 119, 139, 129, 139, 161
        DC8 139, 162, 139, 165, 139, 168, 139, 169, 139, 171
        DC8 139, 177, 139, 179, 139, 181, 139, 183, 139, 184
        DC8 139, 188, 140, 97, 140, 98, 140, 99, 140, 101
        DC8 140, 105, 140, 107, 140, 113, 140, 115, 140, 117
        DC8 140, 118, 140, 119, 140, 123, 140, 129, 140, 130
        DC8 140, 133, 140, 137, 140, 145, 140, 147, 140, 149
        DC8 140, 150, 140, 151, 140, 161, 140, 162, 140, 169
        DC8 140, 225, 140, 226, 140, 227, 140, 229, 140, 233
        DC8 140, 241, 140, 243, 140, 245, 140, 246, 140, 247
        DC8 141, 65, 141, 66, 141, 69, 141, 81, 141, 85
        DC8 141, 87, 141, 97, 141, 101, 141, 105, 141, 117
        DC8 141, 118, 141, 123, 141, 129, 141, 161, 141, 162
        DC8 141, 165, 141, 167, 141, 169, 141, 177, 141, 179
        DC8 141, 181, 141, 183, 141, 184, 141, 185, 141, 193
        DC8 141, 194, 141, 201, 141, 214, 141, 215, 141, 225
        DC8 141, 226, 141, 247, 142, 65, 142, 69, 142, 73
        DC8 142, 81, 142, 83, 142, 87, 142, 97, 142, 129
        DC8 142, 130, 142, 133, 142, 137, 142, 144, 142, 145
        DC8 142, 147, 142, 149, 142, 151, 142, 152, 142, 161
        DC8 142, 169, 142, 182, 142, 183, 142, 193, 142, 194
        DC8 142, 197, 142, 201, 142, 209, 142, 211, 142, 214
        DC8 142, 225, 142, 229, 142, 233, 142, 241, 142, 243
        DC8 143, 65, 143, 97, 143, 98, 143, 101, 143, 103
        DC8 143, 105, 143, 107, 143, 112, 143, 113, 143, 115
        DC8 143, 117, 143, 119, 143, 123, 143, 161, 143, 162
        DC8 143, 165, 143, 169, 143, 177, 143, 179, 143, 181
        DC8 143, 183, 144, 97, 144, 98, 144, 99, 144, 101
        DC8 144, 104, 144, 105, 144, 106, 144, 107, 144, 113
        DC8 144, 115, 144, 117, 144, 118, 144, 119, 144, 120
        DC8 144, 121, 144, 123, 144, 125, 144, 129, 144, 130
        DC8 144, 133, 144, 137, 144, 145, 144, 147, 144, 149
        DC8 144, 150, 144, 151, 144, 161, 144, 162, 144, 165
        DC8 144, 169, 144, 177, 144, 183, 144, 225, 144, 226
        DC8 144, 228, 144, 229, 144, 233, 144, 235, 144, 236
        DC8 144, 241, 144, 243, 144, 245, 144, 246, 144, 247
        DC8 144, 253, 145, 65, 145, 66, 145, 69, 145, 73
        DC8 145, 81, 145, 83, 145, 85, 145, 86, 145, 87
        DC8 145, 97, 145, 98, 145, 101, 145, 105, 145, 113
        DC8 145, 115, 145, 118, 145, 119, 145, 122, 145, 129
        DC8 145, 133, 145, 161, 145, 162, 145, 165, 145, 169
        DC8 145, 171, 145, 177, 145, 179, 145, 181, 145, 183
        DC8 145, 188, 145, 189, 145, 193, 145, 197, 145, 201
        DC8 145, 214, 146, 65, 146, 69, 146, 73, 146, 81
        DC8 146, 83, 146, 85, 146, 97, 146, 98, 146, 101
        DC8 146, 105, 146, 115, 146, 117, 146, 119, 146, 129
        DC8 146, 130, 146, 133, 146, 136, 146, 137, 146, 145
        DC8 146, 147, 146, 149, 146, 151, 146, 161, 146, 182
        DC8 146, 193, 146, 225, 146, 229, 146, 233, 146, 241
        DC8 146, 243, 147, 65, 147, 66, 147, 73, 147, 81
        DC8 147, 83, 147, 87, 147, 97, 147, 98, 147, 101
        DC8 147, 105, 147, 106, 147, 107, 147, 113, 147, 115
        DC8 147, 117, 147, 119, 147, 120, 147, 124, 147, 129
        DC8 147, 133, 147, 137, 147, 161, 147, 162, 147, 165
        DC8 147, 169, 147, 171, 147, 177, 147, 179, 147, 181
        DC8 147, 183, 147, 188, 148, 97, 148, 98, 148, 99
        DC8 148, 101, 148, 104, 148, 105, 148, 106, 148, 107
        DC8 148, 108, 148, 112, 148, 113, 148, 115, 148, 117
        DC8 148, 118, 148, 119, 148, 120, 148, 121, 148, 125
        DC8 148, 129, 148, 130, 148, 133, 148, 137, 148, 145
        DC8 148, 147, 148, 149, 148, 150, 148, 151, 148, 161
        DC8 148, 225, 148, 226, 148, 227, 148, 229, 148, 232
        DC8 148, 233, 148, 235, 148, 236, 148, 241, 148, 243
        DC8 148, 245, 148, 247, 148, 249, 148, 252, 149, 65
        DC8 149, 66, 149, 69, 149, 73, 149, 81, 149, 83
        DC8 149, 85, 149, 86, 149, 87, 149, 97, 149, 101
        DC8 149, 105, 149, 118, 149, 119, 149, 129, 149, 133
        DC8 149, 161, 149, 162, 149, 165, 149, 168, 149, 169
        DC8 149, 171, 149, 173, 149, 177, 149, 179, 149, 181
        DC8 149, 183, 149, 185, 149, 187, 149, 193, 149, 197
        DC8 149, 201, 149, 225, 149, 246, 150, 65, 150, 69
        DC8 150, 73, 150, 81, 150, 83, 150, 85, 150, 97
        DC8 150, 129, 150, 130, 150, 133, 150, 137, 150, 145
        DC8 150, 147, 150, 149, 150, 151, 150, 161, 150, 182
        DC8 150, 193, 150, 215, 150, 225, 150, 229, 150, 233
        DC8 150, 243, 150, 245, 150, 247, 151, 65, 151, 69
        DC8 151, 73, 151, 81, 151, 87, 151, 97, 151, 98
        DC8 151, 101, 151, 104, 151, 105, 151, 107, 151, 113
        DC8 151, 115, 151, 117, 151, 119, 151, 129, 151, 161
        DC8 151, 162, 151, 165, 151, 168, 151, 169, 151, 177
        DC8 151, 179, 151, 181, 151, 182, 151, 183, 151, 184
        DC8 152, 97, 152, 98, 152, 101, 152, 105, 152, 113
        DC8 152, 115, 152, 117, 152, 118, 152, 119, 152, 125
        DC8 152, 129, 152, 130, 152, 133, 152, 137, 152, 145
        DC8 152, 147, 152, 149, 152, 150, 152, 151, 152, 225
        DC8 152, 226, 152, 229, 152, 233, 152, 235, 152, 236
        DC8 152, 241, 152, 243, 152, 245, 152, 246, 152, 247
        DC8 152, 253, 153, 65, 153, 66, 153, 69, 153, 73
        DC8 153, 81, 153, 83, 153, 85, 153, 86, 153, 87
        DC8 153, 97, 153, 118, 153, 161, 153, 162, 153, 165
        DC8 153, 169, 153, 183, 153, 193, 153, 201, 153, 225
        DC8 154, 65, 154, 69, 154, 129, 154, 130, 154, 133
        DC8 154, 137, 154, 144, 154, 145, 154, 151, 154, 193
        DC8 154, 225, 154, 229, 154, 233, 154, 241, 154, 243
        DC8 154, 247, 155, 97, 155, 98, 155, 101, 155, 104
        DC8 155, 105, 155, 113, 155, 115, 155, 117, 155, 129
        DC8 155, 133, 155, 137, 155, 145, 155, 147, 155, 161
        DC8 155, 165, 155, 169, 155, 177, 155, 179, 155, 181
        DC8 155, 183, 156, 97, 156, 98, 156, 101, 156, 105
        DC8 156, 113, 156, 115, 156, 117, 156, 118, 156, 119
        DC8 156, 120, 156, 124, 156, 125, 156, 129, 156, 130
        DC8 156, 133, 156, 137, 156, 145, 156, 147, 156, 149
        DC8 156, 150, 156, 151, 156, 161, 156, 162, 156, 165
        DC8 156, 181, 156, 183, 156, 225, 156, 226, 156, 229
        DC8 156, 233, 156, 241, 156, 243, 156, 245, 156, 246
        DC8 156, 247, 156, 253, 157, 65, 157, 66, 157, 69
        DC8 157, 73, 157, 81, 157, 83, 157, 85, 157, 87
        DC8 157, 97, 157, 98, 157, 101, 157, 105, 157, 113
        DC8 157, 115, 157, 117, 157, 118, 157, 119, 157, 129
        DC8 157, 133, 157, 147, 157, 149, 157, 161, 157, 162
        DC8 157, 165, 157, 169, 157, 177, 157, 179, 157, 181
        DC8 157, 183, 157, 193, 157, 197, 157, 215, 157, 246
        DC8 158, 65, 158, 69, 158, 73, 158, 81, 158, 83
        DC8 158, 85, 158, 87, 158, 97, 158, 101, 158, 105
        DC8 158, 115, 158, 117, 158, 119, 158, 129, 158, 130
        DC8 158, 133, 158, 137, 158, 145, 158, 147, 158, 149
        DC8 158, 151, 158, 161, 158, 182, 158, 193, 158, 225
        DC8 158, 226, 158, 229, 158, 233, 158, 241, 158, 245
        DC8 158, 247, 159, 65, 159, 66, 159, 69, 159, 73
        DC8 159, 81, 159, 83, 159, 85, 159, 87, 159, 97
        DC8 159, 98, 159, 101, 159, 105, 159, 113, 159, 115
        DC8 159, 117, 159, 119, 159, 120, 159, 123, 159, 124
        DC8 159, 161, 159, 162, 159, 165, 159, 169, 159, 177
        DC8 159, 179, 159, 181, 159, 183, 160, 97, 160, 98
        DC8 160, 101, 160, 103, 160, 104, 160, 105, 160, 106
        DC8 160, 107, 160, 113, 160, 115, 160, 117, 160, 119
        DC8 160, 120, 160, 123, 160, 125, 160, 129, 160, 130
        DC8 160, 133, 160, 137, 160, 145, 160, 147, 160, 149
        DC8 160, 150, 160, 151, 160, 152, 160, 161, 160, 162
        DC8 160, 169, 160, 183, 160, 225, 160, 226, 160, 229
        DC8 160, 233, 160, 235, 160, 241, 160, 243, 160, 245
        DC8 160, 247, 160, 248, 160, 253, 161, 65, 161, 66
        DC8 161, 69, 161, 73, 161, 81, 161, 83, 161, 85
        DC8 161, 86, 161, 87, 161, 97, 161, 98, 161, 101
        DC8 161, 105, 161, 117, 161, 118, 161, 119, 161, 121
        DC8 161, 129, 161, 161, 161, 162, 161, 164, 161, 165
        DC8 161, 169, 161, 171, 161, 177, 161, 179, 161, 181
        DC8 161, 183, 161, 193, 161, 197, 161, 214, 161, 215
        DC8 162, 65, 162, 69, 162, 73, 162, 83, 162, 85
        DC8 162, 87, 162, 97, 162, 101, 162, 105, 162, 115
        DC8 162, 117, 162, 129, 162, 130, 162, 131, 162, 133
        DC8 162, 136, 162, 137, 162, 138, 162, 139, 162, 145
        DC8 162, 147, 162, 149, 162, 151, 162, 155, 162, 157
        DC8 162, 161, 162, 165, 162, 169, 162, 179, 162, 181
        DC8 162, 193, 162, 225, 162, 229, 162, 233, 163, 65
        DC8 163, 69, 163, 73, 163, 81, 163, 85, 163, 97
        DC8 163, 101, 163, 105, 163, 113, 163, 117, 163, 161
        DC8 163, 162, 163, 165, 163, 168, 163, 169, 163, 171
        DC8 163, 177, 163, 179, 163, 181, 163, 182, 163, 183
        DC8 163, 185, 163, 187, 164, 97, 164, 98, 164, 99
        DC8 164, 100, 164, 101, 164, 104, 164, 105, 164, 106
        DC8 164, 107, 164, 108, 164, 113, 164, 115, 164, 117
        DC8 164, 119, 164, 123, 164, 129, 164, 130, 164, 133
        DC8 164, 137, 164, 145, 164, 147, 164, 149, 164, 150
        DC8 164, 151, 164, 155, 164, 161, 164, 162, 164, 165
        DC8 164, 179, 164, 225, 164, 226, 164, 229, 164, 232
        DC8 164, 233, 164, 235, 164, 241, 164, 243, 164, 245
        DC8 164, 247, 164, 248, 165, 65, 165, 66, 165, 69
        DC8 165, 72, 165, 73, 165, 81, 165, 83, 165, 85
        DC8 165, 86, 165, 87, 165, 97, 165, 98, 165, 101
        DC8 165, 105, 165, 115, 165, 117, 165, 118, 165, 119
        DC8 165, 123, 165, 129, 165, 133, 165, 161, 165, 162
        DC8 165, 163, 165, 165, 165, 169, 165, 177, 165, 179
        DC8 165, 181, 165, 183, 165, 193, 165, 197, 165, 214
        DC8 165, 225, 165, 246, 166, 65, 166, 66, 166, 69
        DC8 166, 73, 166, 81, 166, 83, 166, 97, 166, 101
        DC8 166, 129, 166, 130, 166, 133, 166, 136, 166, 137
        DC8 166, 138, 166, 139, 166, 145, 166, 147, 166, 149
        DC8 166, 151, 166, 155, 166, 156, 166, 161, 166, 169
        DC8 166, 182, 166, 193, 166, 225, 166, 226, 166, 229
        DC8 166, 233, 166, 247, 167, 65, 167, 69, 167, 73
        DC8 167, 81, 167, 85, 167, 87, 167, 97, 167, 98
        DC8 167, 101, 167, 105, 167, 113, 167, 115, 167, 117
        DC8 167, 161, 167, 162, 167, 165, 167, 169, 167, 171
        DC8 167, 177, 167, 179, 167, 181, 167, 183, 167, 184
        DC8 167, 185, 168, 97, 168, 98, 168, 101, 168, 105
        DC8 168, 107, 168, 113, 168, 115, 168, 117, 168, 118
        DC8 168, 119, 168, 125, 168, 129, 168, 130, 168, 133
        DC8 168, 137, 168, 145, 168, 147, 168, 149, 168, 150
        DC8 168, 151, 168, 161, 168, 162, 168, 177, 168, 225
        DC8 168, 226, 168, 229, 168, 232, 168, 233, 168, 241
        DC8 168, 245, 168, 246, 168, 247, 169, 65, 169, 87
        DC8 169, 97, 169, 98, 169, 113, 169, 115, 169, 117
        DC8 169, 118, 169, 119, 169, 161, 169, 162, 169, 165
        DC8 169, 169, 169, 177, 169, 179, 169, 183, 170, 65
        DC8 170, 97, 170, 119, 170, 129, 170, 130, 170, 133
        DC8 170, 137, 170, 145, 170, 149, 170, 151, 171, 65
        DC8 171, 87, 171, 97, 171, 101, 171, 105, 171, 113
        DC8 171, 115, 171, 161, 171, 162, 171, 165, 171, 169
        DC8 171, 177, 171, 179, 171, 181, 171, 183, 172, 97
        DC8 172, 98, 172, 100, 172, 101, 172, 104, 172, 105
        DC8 172, 106, 172, 107, 172, 113, 172, 115, 172, 117
        DC8 172, 118, 172, 119, 172, 123, 172, 129, 172, 130
        DC8 172, 133, 172, 137, 172, 145, 172, 147, 172, 149
        DC8 172, 150, 172, 151, 172, 161, 172, 162, 172, 165
        DC8 172, 169, 172, 177, 172, 179, 172, 181, 172, 183
        DC8 172, 193, 172, 197, 172, 201, 172, 209, 172, 215
        DC8 172, 225, 172, 226, 172, 227, 172, 228, 172, 229
        DC8 172, 232, 172, 233, 172, 235, 172, 236, 172, 241
        DC8 172, 243, 172, 245, 172, 246, 172, 247, 172, 252
        DC8 173, 65, 173, 66, 173, 69, 173, 73, 173, 81
        DC8 173, 83, 173, 85, 173, 86, 173, 87, 173, 97
        DC8 173, 98, 173, 101, 173, 105, 173, 113, 173, 115
        DC8 173, 117, 173, 118, 173, 119, 173, 129, 173, 133
        DC8 173, 137, 173, 151, 173, 161, 173, 162, 173, 163
        DC8 173, 165, 173, 169, 173, 171, 173, 177, 173, 179
        DC8 173, 181, 173, 183, 173, 187, 173, 193, 173, 194
        DC8 173, 197, 173, 201, 173, 215, 173, 225, 173, 229
        DC8 173, 233, 173, 241, 173, 245, 173, 246, 174, 65
        DC8 174, 69, 174, 73, 174, 81, 174, 83, 174, 85
        DC8 174, 97, 174, 98, 174, 101, 174, 105, 174, 113
        DC8 174, 115, 174, 117, 174, 119, 174, 129, 174, 130
        DC8 174, 133, 174, 136, 174, 137, 174, 145, 174, 147
        DC8 174, 149, 174, 151, 174, 153, 174, 155, 174, 156
        DC8 174, 161, 174, 182, 174, 193, 174, 194, 174, 197
        DC8 174, 201, 174, 209, 174, 215, 174, 225, 174, 226
        DC8 174, 229, 174, 233, 174, 241, 174, 243, 174, 245
        DC8 174, 247, 175, 65, 175, 66, 175, 73, 175, 81
        DC8 175, 85, 175, 87, 175, 97, 175, 98, 175, 101
        DC8 175, 105, 175, 106, 175, 113, 175, 115, 175, 117
        DC8 175, 119, 175, 161, 175, 162, 175, 165, 175, 168
        DC8 175, 169, 175, 176, 175, 177, 175, 179, 175, 181
        DC8 175, 183, 175, 188, 176, 97, 176, 98, 176, 100
        DC8 176, 101, 176, 105, 176, 113, 176, 115, 176, 118
        DC8 176, 119, 176, 125, 176, 129, 176, 130, 176, 133
        DC8 176, 137, 176, 145, 176, 147, 176, 150, 176, 151
        DC8 176, 183, 176, 225, 176, 226, 176, 229, 176, 233
        DC8 176, 235, 176, 241, 176, 243, 176, 246, 176, 247
        DC8 177, 65, 177, 69, 177, 73, 177, 87, 177, 161
        DC8 177, 162, 177, 165, 177, 168, 177, 169, 177, 171
        DC8 177, 177, 177, 179, 177, 183, 177, 193, 177, 194
        DC8 177, 197, 177, 214, 177, 225, 177, 246, 178, 65
        DC8 178, 69, 178, 73, 178, 81, 178, 83, 178, 97
        DC8 178, 129, 178, 130, 178, 133, 178, 137, 178, 145
        DC8 178, 147, 178, 151, 178, 161, 178, 182, 178, 193
        DC8 178, 225, 178, 229, 179, 87, 179, 97, 179, 98
        DC8 179, 101, 179, 105, 179, 107, 179, 112, 179, 113
        DC8 179, 115, 179, 129, 179, 133, 179, 137, 179, 145
        DC8 179, 161, 179, 162, 179, 165, 179, 169, 179, 177
        DC8 179, 179, 179, 181, 179, 183, 180, 97, 180, 98
        DC8 180, 101, 180, 102, 180, 103, 180, 105, 180, 106
        DC8 180, 107, 180, 112, 180, 113, 180, 115, 180, 117
        DC8 180, 118, 180, 119, 180, 123, 180, 124, 180, 129
        DC8 180, 130, 180, 133, 180, 137, 180, 145, 180, 147
        DC8 180, 149, 180, 150, 180, 151, 180, 161, 180, 162
        DC8 180, 165, 180, 169, 180, 172, 180, 177, 180, 179
        DC8 180, 181, 180, 183, 180, 187, 180, 189, 180, 193
        DC8 180, 197, 180, 201, 180, 211, 180, 225, 180, 226
        DC8 180, 229, 180, 230, 180, 232, 180, 233, 180, 234
        DC8 180, 235, 180, 241, 180, 243, 180, 244, 180, 245
        DC8 180, 246, 180, 247, 180, 248, 180, 250, 180, 252
        DC8 181, 65, 181, 66, 181, 69, 181, 73, 181, 81
        DC8 181, 83, 181, 85, 181, 87, 181, 97, 181, 98
        DC8 181, 99, 181, 101, 181, 105, 181, 107, 181, 108
        DC8 181, 113, 181, 115, 181, 116, 181, 117, 181, 118
        DC8 181, 119, 181, 123, 181, 124, 181, 125, 181, 129
        DC8 181, 133, 181, 137, 181, 145, 181, 147, 181, 149
        DC8 181, 150, 181, 161, 181, 162, 181, 165, 181, 169
        DC8 181, 170, 181, 171, 181, 173, 181, 176, 181, 177
        DC8 181, 179, 181, 181, 181, 183, 181, 185, 181, 193
        DC8 181, 194, 181, 197, 181, 201, 181, 209, 181, 211
        DC8 181, 213, 181, 214, 181, 215, 181, 225, 181, 226
        DC8 181, 229, 181, 241, 181, 245, 181, 247, 182, 65
        DC8 182, 66, 182, 69, 182, 73, 182, 81, 182, 83
        DC8 182, 85, 182, 87, 182, 97, 182, 98, 182, 101
        DC8 182, 105, 182, 113, 182, 115, 182, 117, 182, 119
        DC8 182, 129, 182, 130, 182, 133, 182, 137, 182, 138
        DC8 182, 139, 182, 145, 182, 147, 182, 149, 182, 151
        DC8 182, 161, 182, 162, 182, 165, 182, 169, 182, 177
        DC8 182, 179, 182, 182, 182, 183, 182, 193, 182, 194
        DC8 182, 197, 182, 201, 182, 209, 182, 211, 182, 215
        DC8 182, 225, 182, 226, 182, 229, 182, 233, 182, 241
        DC8 182, 243, 182, 245, 182, 247, 183, 65, 183, 66
        DC8 183, 69, 183, 73, 183, 81, 183, 83, 183, 85
        DC8 183, 87, 183, 89, 183, 97, 183, 98, 183, 101
        DC8 183, 105, 183, 111, 183, 113, 183, 115, 183, 117
        DC8 183, 119, 183, 120, 183, 121, 183, 122, 183, 123
        DC8 183, 124, 183, 125, 183, 129, 183, 133, 183, 137
        DC8 183, 145, 183, 149, 183, 161, 183, 162, 183, 165
        DC8 183, 169, 183, 170, 183, 171, 183, 176, 183, 177
        DC8 183, 179, 183, 181, 183, 182, 183, 183, 183, 184
        DC8 183, 188, 184, 97, 184, 98, 184, 101, 184, 103
        DC8 184, 104, 184, 105, 184, 107, 184, 113, 184, 115
        DC8 184, 117, 184, 118, 184, 119, 184, 120, 184, 129
        DC8 184, 130, 184, 133, 184, 137, 184, 145, 184, 147
        DC8 184, 149, 184, 150, 184, 151, 184, 161, 184, 162
        DC8 184, 165, 184, 167, 184, 169, 184, 177, 184, 183
        DC8 184, 193, 184, 197, 184, 201, 184, 225, 184, 226
        DC8 184, 229, 184, 233, 184, 235, 184, 241, 184, 243
        DC8 184, 245, 184, 247, 184, 248, 185, 65, 185, 66
        DC8 185, 69, 185, 73, 185, 81, 185, 83, 185, 85
        DC8 185, 87, 185, 97, 185, 101, 185, 105, 185, 113
        DC8 185, 115, 185, 118, 185, 119, 185, 129, 185, 161
        DC8 185, 162, 185, 165, 185, 169, 185, 171, 185, 177
        DC8 185, 179, 185, 181, 185, 183, 185, 184, 185, 185
        DC8 185, 189, 185, 193, 185, 194, 185, 201, 185, 211
        DC8 185, 213, 185, 215, 185, 225, 185, 246, 185, 247
        DC8 186, 65, 186, 69, 186, 73, 186, 81, 186, 83
        DC8 186, 85, 186, 87, 186, 97, 186, 98, 186, 101
        DC8 186, 119, 186, 129, 186, 130, 186, 133, 186, 137
        DC8 186, 138, 186, 139, 186, 145, 186, 147, 186, 149
        DC8 186, 151, 186, 161, 186, 182, 186, 193, 186, 225
        DC8 186, 226, 186, 229, 186, 233, 186, 241, 186, 243
        DC8 186, 245, 187, 65, 187, 69, 187, 73, 187, 81
        DC8 187, 97, 187, 98, 187, 101, 187, 105, 187, 113
        DC8 187, 115, 187, 117, 187, 119, 187, 161, 187, 162
        DC8 187, 165, 187, 168, 187, 169, 187, 171, 187, 177
        DC8 187, 179, 187, 181, 187, 183, 187, 184, 187, 187
        DC8 187, 188, 188, 97, 188, 98, 188, 101, 188, 103
        DC8 188, 105, 188, 108, 188, 113, 188, 115, 188, 117
        DC8 188, 118, 188, 119, 188, 129, 188, 130, 188, 133
        DC8 188, 137, 188, 145, 188, 147, 188, 149, 188, 150
        DC8 188, 151, 188, 161, 188, 165, 188, 183, 188, 225
        DC8 188, 226, 188, 229, 188, 233, 188, 241, 188, 243
        DC8 188, 245, 188, 246, 188, 247, 189, 65, 189, 87
        DC8 189, 97, 189, 118, 189, 161, 189, 162, 189, 165
        DC8 189, 169, 189, 177, 189, 179, 189, 181, 189, 183
        DC8 189, 185, 189, 193, 189, 194, 189, 201, 189, 214
        DC8 189, 225, 189, 246, 190, 65, 190, 69, 190, 73
        DC8 190, 81, 190, 83, 190, 119, 190, 129, 190, 130
        DC8 190, 133, 190, 137, 190, 145, 190, 147, 190, 151
        DC8 190, 161, 190, 182, 190, 183, 190, 225, 191, 65
        DC8 191, 97, 191, 113, 191, 117, 191, 119, 191, 161
        DC8 191, 162, 191, 165, 191, 169, 191, 177, 191, 179
        DC8 191, 183, 191, 184, 191, 189, 192, 97, 192, 98
        DC8 192, 101, 192, 103, 192, 105, 192, 113, 192, 115
        DC8 192, 117, 192, 118, 192, 119, 192, 120, 192, 129
        DC8 192, 130, 192, 133, 192, 137, 192, 145, 192, 147
        DC8 192, 149, 192, 150, 192, 151, 192, 161, 192, 165
        DC8 192, 167, 192, 169, 192, 177, 192, 183, 192, 225
        DC8 192, 226, 192, 229, 192, 233, 192, 241, 192, 243
        DC8 192, 245, 192, 246, 192, 247, 193, 65, 193, 66
        DC8 193, 69, 193, 73, 193, 81, 193, 83, 193, 85
        DC8 193, 87, 193, 97, 193, 101, 193, 118, 193, 129
        DC8 193, 133, 193, 151, 193, 161, 193, 162, 193, 165
        DC8 193, 169, 193, 177, 193, 179, 193, 181, 193, 183
        DC8 193, 193, 193, 197, 193, 201, 193, 215, 194, 65
        DC8 194, 69, 194, 73, 194, 81, 194, 83, 194, 85
        DC8 194, 87, 194, 97, 194, 113, 194, 129, 194, 130
        DC8 194, 133, 194, 137, 194, 145, 194, 147, 194, 149
        DC8 194, 151, 194, 161, 194, 182, 194, 193, 194, 197
        DC8 194, 225, 194, 229, 194, 233, 194, 241, 194, 243
        DC8 194, 245, 194, 247, 195, 65, 195, 69, 195, 73
        DC8 195, 81, 195, 87, 195, 97, 195, 98, 195, 101
        DC8 195, 105, 195, 113, 195, 115, 195, 117, 195, 119
        DC8 195, 161, 195, 162, 195, 165, 195, 168, 195, 169
        DC8 195, 170, 195, 177, 195, 179, 195, 181, 195, 183
        DC8 196, 97, 196, 98, 196, 101, 196, 105, 196, 113
        DC8 196, 115, 196, 117, 196, 119, 196, 129, 196, 130
        DC8 196, 133, 196, 137, 196, 145, 196, 147, 196, 149
        DC8 196, 150, 196, 151, 196, 161, 196, 162, 196, 183
        DC8 196, 225, 196, 226, 196, 229, 196, 232, 196, 233
        DC8 196, 241, 196, 243, 196, 245, 196, 246, 196, 247
        DC8 197, 65, 197, 66, 197, 69, 197, 73, 197, 81
        DC8 197, 83, 197, 85, 197, 87, 197, 97, 197, 101
        DC8 197, 105, 197, 113, 197, 115, 197, 117, 197, 118
        DC8 197, 119, 197, 129, 197, 161, 197, 162, 197, 165
        DC8 197, 169, 197, 177, 197, 179, 197, 181, 197, 183
        DC8 197, 193, 197, 194, 197, 197, 197, 201, 197, 209
        DC8 197, 215, 197, 225, 197, 247, 198, 65, 198, 73
        DC8 198, 97, 198, 129, 198, 130, 198, 133, 198, 137
        DC8 198, 145, 198, 147, 198, 149, 198, 151, 198, 161
        DC8 198, 165, 198, 169, 198, 183, 198, 193, 198, 215
        DC8 198, 225, 198, 226, 198, 229, 198, 233, 198, 241
        DC8 198, 243, 198, 245, 198, 247, 199, 65, 199, 69
        DC8 199, 73, 199, 81, 199, 97, 199, 98, 199, 101
        DC8 199, 105, 199, 113, 199, 115, 199, 119, 199, 161
        DC8 199, 162, 199, 165, 199, 169, 199, 177, 199, 179
        DC8 199, 181, 199, 183, 200, 97, 200, 98, 200, 101
        DC8 200, 105, 200, 106, 200, 113, 200, 115, 200, 117
        DC8 200, 118, 200, 119, 200, 129, 200, 130, 200, 133
        DC8 200, 137, 200, 145, 200, 147, 200, 149, 200, 150
        DC8 200, 151, 200, 161, 200, 183, 200, 225, 200, 226
        DC8 200, 229, 200, 233, 200, 235, 200, 241, 200, 243
        DC8 200, 245, 200, 246, 200, 247, 201, 65, 201, 66
        DC8 201, 69, 201, 73, 201, 81, 201, 83, 201, 85
        DC8 201, 87, 201, 97, 201, 101, 201, 118, 201, 129
        DC8 201, 133, 201, 161, 201, 162, 201, 165, 201, 169
        DC8 201, 177, 201, 179, 201, 181, 201, 183, 201, 188
        DC8 201, 193, 201, 197, 201, 225, 202, 65, 202, 69
        DC8 202, 85, 202, 87, 202, 97, 202, 129, 202, 130
        DC8 202, 133, 202, 137, 202, 145, 202, 147, 202, 149
        DC8 202, 151, 202, 161, 202, 182, 202, 193, 202, 225
        DC8 202, 226, 202, 229, 202, 233, 202, 241, 202, 243
        DC8 202, 247, 203, 65, 203, 69, 203, 73, 203, 81
        DC8 203, 87, 203, 97, 203, 98, 203, 101, 203, 104
        DC8 203, 105, 203, 107, 203, 113, 203, 115, 203, 117
        DC8 203, 129, 203, 133, 203, 137, 203, 145, 203, 147
        DC8 203, 161, 203, 162, 203, 165, 203, 169, 203, 177
        DC8 203, 179, 203, 181, 203, 183, 204, 97, 204, 98
        DC8 204, 99, 204, 101, 204, 105, 204, 107, 204, 113
        DC8 204, 115, 204, 117, 204, 118, 204, 119, 204, 123
        DC8 204, 129, 204, 130, 204, 133, 204, 137, 204, 145
        DC8 204, 147, 204, 149, 204, 150, 204, 151, 204, 161
        DC8 204, 162, 204, 225, 204, 226, 204, 229, 204, 233
        DC8 204, 241, 204, 243, 204, 245, 204, 246, 204, 247
        DC8 205, 65, 205, 66, 205, 69, 205, 73, 205, 81
        DC8 205, 83, 205, 85, 205, 87, 205, 97, 205, 101
        DC8 205, 105, 205, 113, 205, 115, 205, 118, 205, 119
        DC8 205, 129, 205, 137, 205, 147, 205, 149, 205, 161
        DC8 205, 162, 205, 165, 205, 169, 205, 177, 205, 179
        DC8 205, 181, 205, 183, 205, 193, 205, 215, 206, 65
        DC8 206, 69, 206, 97, 206, 101, 206, 105, 206, 115
        DC8 206, 117, 206, 129, 206, 130, 206, 133, 206, 136
        DC8 206, 137, 206, 139, 206, 145, 206, 147, 206, 149
        DC8 206, 151, 206, 161, 206, 183, 206, 225, 206, 229
        DC8 206, 233, 206, 241, 206, 245, 207, 65, 207, 69
        DC8 207, 73, 207, 81, 207, 85, 207, 87, 207, 97
        DC8 207, 101, 207, 105, 207, 113, 207, 115, 207, 117
        DC8 207, 161, 207, 162, 207, 165, 207, 169, 207, 177
        DC8 207, 179, 207, 181, 207, 183, 208, 97, 208, 98
        DC8 208, 101, 208, 105, 208, 110, 208, 113, 208, 115
        DC8 208, 117, 208, 119, 208, 129, 208, 130, 208, 133
        DC8 208, 137, 208, 145, 208, 147, 208, 149, 208, 150
        DC8 208, 151, 208, 161, 208, 183, 208, 225, 208, 226
        DC8 208, 229, 208, 233, 208, 235, 208, 241, 208, 243
        DC8 208, 245, 208, 247, 209, 65, 209, 66, 209, 69
        DC8 209, 73, 209, 81, 209, 83, 209, 85, 209, 87
        DC8 209, 97, 209, 98, 209, 101, 209, 105, 209, 113
        DC8 209, 115, 209, 117, 209, 118, 209, 119, 209, 129
        DC8 209, 133, 209, 137, 209, 147, 209, 161, 209, 162
        DC8 209, 165, 209, 169, 209, 174, 209, 177, 209, 179
        DC8 209, 181, 209, 183, 209, 187, 209, 193, 209, 194
        DC8 209, 197, 209, 201, 209, 213, 209, 215, 209, 225
        DC8 209, 226, 209, 229, 209, 245, 209, 247, 210, 65
        DC8 210, 66, 210, 69, 210, 73, 210, 83, 210, 85
        DC8 210, 87, 210, 97, 210, 101, 210, 105, 210, 115
        DC8 210, 117, 210, 129, 210, 130, 210, 133, 210, 137
        DC8 210, 142, 210, 145, 210, 149, 210, 151, 210, 161
        DC8 210, 165, 210, 169, 210, 177, 210, 183, 210, 193
        DC8 210, 194, 210, 197, 210, 201, 210, 215, 210, 225
        DC8 210, 226, 210, 229, 210, 233, 210, 241, 210, 243
        DC8 210, 245, 210, 247, 211, 65, 211, 66, 211, 69
        DC8 211, 73, 211, 81, 211, 85, 211, 87, 211, 97
        DC8 211, 98, 211, 101, 211, 103, 211, 104, 211, 105
        DC8 211, 106, 211, 113, 211, 115, 211, 117, 211, 119
        DC8 211, 123, 211, 129, 211, 133, 211, 137, 211, 145
        DC8 211, 147, 211, 151, 211, 161, 211, 162, 211, 165
        DC8 211, 169, 211, 177, 211, 179, 211, 181, 211, 183

        SECTION `.text`:CODE:NOROOT(2)
        DATA
// __absolute unsigned char const Font5x7[480]
Font5x7:
        ; Initializer data, 480 bytes
        DC8 0, 0, 0, 0, 0, 127, 65, 65, 65, 127
        DC8 127, 127, 127, 127, 127, 20, 127, 20, 127, 20
        DC8 36, 42, 127, 42, 18, 35, 19, 8, 100, 98
        DC8 54, 73, 85, 34, 80, 0, 5, 3, 0, 0
        DC8 0, 28, 34, 65, 0, 0, 65, 34, 28, 0
        DC8 8, 42, 28, 42, 8, 8, 8, 62, 8, 8
        DC8 0, 80, 48, 0, 0, 8, 8, 8, 8, 8
        DC8 0, 96, 96, 0, 0, 32, 16, 8, 4, 2
        DC8 62, 81, 73, 69, 62, 0, 66, 127, 64, 0
        DC8 66, 97, 81, 73, 70, 33, 65, 69, 75, 49
        DC8 24, 20, 18, 127, 16, 39, 69, 69, 69, 57
        DC8 60, 74, 73, 73, 48, 1, 113, 9, 5, 3
        DC8 54, 73, 73, 73, 54, 6, 73, 73, 41, 30
        DC8 0, 54, 54, 0, 0, 0, 86, 54, 0, 0
        DC8 0, 8, 20, 34, 65, 20, 20, 20, 20, 20
        DC8 65, 34, 20, 8, 0, 2, 1, 81, 9, 6
        DC8 50, 73, 121, 65, 62, 126, 17, 17, 17, 126
        DC8 127, 73, 73, 73, 54, 62, 65, 65, 65, 34
        DC8 127, 65, 65, 34, 28, 127, 73, 73, 73, 65
        DC8 127, 9, 9, 1, 1, 62, 65, 65, 81, 50
        DC8 127, 8, 8, 8, 127, 0, 65, 127, 65, 0
        DC8 32, 64, 65, 63, 1, 127, 8, 20, 34, 65
        DC8 127, 64, 64, 64, 64, 127, 2, 4, 2, 127
        DC8 127, 4, 8, 16, 127, 62, 65, 65, 65, 62
        DC8 127, 9, 9, 9, 6, 62, 65, 81, 33, 94
        DC8 127, 9, 25, 41, 70, 70, 73, 73, 73, 49
        DC8 1, 1, 127, 1, 1, 63, 64, 64, 64, 63
        DC8 31, 32, 64, 32, 31, 127, 32, 24, 32, 127
        DC8 99, 20, 8, 20, 99, 3, 4, 120, 4, 3
        DC8 97, 81, 73, 69, 67, 0, 0, 127, 65, 65
        DC8 2, 4, 8, 16, 32, 65, 65, 127, 0, 0
        DC8 4, 2, 1, 2, 4, 64, 64, 64, 64, 64
        DC8 0, 1, 2, 4, 0, 32, 84, 84, 84, 120
        DC8 127, 72, 68, 68, 56, 56, 68, 68, 68, 32
        DC8 56, 68, 68, 72, 127, 56, 84, 84, 84, 24
        DC8 8, 126, 9, 1, 2, 8, 20, 84, 84, 60
        DC8 127, 8, 4, 4, 120, 0, 68, 125, 64, 0
        DC8 32, 64, 68, 61, 0, 0, 127, 16, 40, 68
        DC8 0, 65, 127, 64, 0, 124, 4, 24, 4, 120
        DC8 124, 8, 4, 4, 120, 56, 68, 68, 68, 56
        DC8 124, 20, 20, 20, 8, 8, 20, 20, 24, 124
        DC8 124, 8, 4, 4, 8, 72, 84, 84, 84, 32
        DC8 4, 63, 68, 64, 32, 60, 64, 64, 32, 124
        DC8 28, 32, 64, 32, 28, 60, 64, 48, 64, 60
        DC8 68, 40, 16, 40, 68, 12, 80, 80, 80, 60
        DC8 68, 100, 84, 76, 68, 0, 8, 54, 65, 0
        DC8 0, 0, 127, 0, 0, 0, 65, 54, 8, 0
        DC8 8, 8, 42, 28, 8, 8, 28, 42, 8, 8

        SECTION `.text`:CODE:REORDER:NOROOT(1)
        SECTION_GROUP memset
        CFI Block cfiBlock24 Using cfiCommon0
        CFI Function memset
        THUMB
// __intrinsic __interwork __softfp void *memset(void *, int, size_t)
memset:
        PUSH     {R4,LR}
        CFI R14 Frame(CFA, -4)
        CFI R4 Frame(CFA, -8)
        CFI CFA R13+8
        MOVS     R4,R0
        MOVS     R0,R2
        MOVS     R2,R1
        MOVS     R1,R0
        MOVS     R0,R4
        BL       __aeabi_memset
        MOVS     R0,R4
        POP      {R4,PC}          ;; return
        CFI EndBlock cfiBlock24

        SECTION __DLIB_PERTHREAD:DATA:REORDER:NOROOT(0)

        SECTION __DLIB_PERTHREAD_init:DATA:REORDER:NOROOT(0)

        END
//  843 void GLcd_DC_Input(unsigned char Byte)
//  844 {
//  845     u8 i;    
//  846     GPIO_ResetBits(LCD_CONTROL_PORT,LCD_DC_PIN);  
//  847 ///////////////////////////////////////////////////////////////////////////
//  848 /*#ifdef 0		// LGM12232A
//  849 	if( Byte & 0x01 )
//  850 		GPIO_SetBits(LCD_DATA_LINE_PORT1,GPIO_Pin_0);
//  851 	else
//  852 		GPIO_ResetBits(LCD_DATA_LINE_PORT1,GPIO_Pin_0);
//  853 	if( Byte & 0x02 )
//  854 		GPIO_SetBits(LCD_DATA_LINE_PORT1,GPIO_Pin_1);
//  855 	else
//  856 		GPIO_ResetBits(LCD_DATA_LINE_PORT1,GPIO_Pin_1);
//  857 	if( Byte & 0x04 )
//  858 		GPIO_SetBits(LCD_DATA_LINE_PORT1,GPIO_Pin_2);
//  859 	else
//  860 		GPIO_ResetBits(LCD_DATA_LINE_PORT1,GPIO_Pin_2);
//  861 	if( Byte & 0x08 )
//  862 		GPIO_SetBits(LCD_DATA_LINE_PORT1,GPIO_Pin_3);
//  863 	else
//  864 		GPIO_ResetBits(LCD_DATA_LINE_PORT1,GPIO_Pin_3);
//  865 	if( Byte & 0x10 )
//  866 		GPIO_SetBits(LCD_DATA_LINE_PORT1,GPIO_Pin_4);
//  867 	else
//  868 		GPIO_ResetBits(LCD_DATA_LINE_PORT1,GPIO_Pin_4);
//  869 	if( Byte & 0x20 )
//  870 		GPIO_SetBits(LCD_DATA_LINE_PORT1,GPIO_Pin_5);
//  871 	else
//  872 		GPIO_ResetBits(LCD_DATA_LINE_PORT1,GPIO_Pin_5);
//  873 	if( Byte & 0x40 )
//  874 		GPIO_SetBits(LCD_DATA_LINE_PORT2,GPIO_Pin_2);
//  875 	else
//  876 		GPIO_ResetBits(LCD_DATA_LINE_PORT2,GPIO_Pin_2);
//  877 	if( Byte & 0x80 )
//  878 		GPIO_SetBits(LCD_DATA_LINE_PORT2,GPIO_Pin_3);
//  879 	else
//  880 		GPIO_ResetBits(LCD_DATA_LINE_PORT2,GPIO_Pin_3);
//  881 #else		// ABG160032*/
//  882 	if( Byte & 0x01 )
//  883 		GPIO_SetBits(LCD_DATA_LINE_PORT2,GPIO_Pin_2);
//  884 	else
//  885 		GPIO_ResetBits(LCD_DATA_LINE_PORT2,GPIO_Pin_2);
//  886 	if( Byte & 0x02 )
//  887 		GPIO_SetBits(LCD_DATA_LINE_PORT2,GPIO_Pin_3);
//  888 	else
//  889 		GPIO_ResetBits(LCD_DATA_LINE_PORT2,GPIO_Pin_3);		
//  890 	if( Byte & 0x04 )
//  891 		GPIO_SetBits(LCD_DATA_LINE_PORT1,GPIO_Pin_0);
//  892 	else
//  893 		GPIO_ResetBits(LCD_DATA_LINE_PORT1,GPIO_Pin_0);
//  894 	if( Byte & 0x08 )
//  895 		GPIO_SetBits(LCD_DATA_LINE_PORT1,GPIO_Pin_1);
//  896 	else
//  897 		GPIO_ResetBits(LCD_DATA_LINE_PORT1,GPIO_Pin_1);
//  898 	if( Byte & 0x10 )
//  899 		GPIO_SetBits(LCD_DATA_LINE_PORT1,GPIO_Pin_2);
//  900 	else
//  901 		GPIO_ResetBits(LCD_DATA_LINE_PORT1,GPIO_Pin_2);
//  902 	if( Byte & 0x20 )
//  903 		GPIO_SetBits(LCD_DATA_LINE_PORT1,GPIO_Pin_3);
//  904 	else
//  905 		GPIO_ResetBits(LCD_DATA_LINE_PORT1,GPIO_Pin_3);
//  906 	if( Byte & 0x40 )
//  907 		GPIO_SetBits(LCD_DATA_LINE_PORT1,GPIO_Pin_4);
//  908 	else
//  909 		GPIO_ResetBits(LCD_DATA_LINE_PORT1,GPIO_Pin_4);
//  910 	if( Byte & 0x80 )
//  911 		GPIO_SetBits(LCD_DATA_LINE_PORT1,GPIO_Pin_5);
//  912 	else
//  913 		GPIO_ResetBits(LCD_DATA_LINE_PORT1,GPIO_Pin_5);
//  914 
//  915 	
//  916 //#endif
//  917 ///////////////////////////////////////////////////////////////////////////////	
//  918 
//  919     GPIO_SetBits(LCD_CONTROL_PORT,LCD_DC_PIN);  
//  920 	for( i = 0 ; i < 40 ; i++);
//  921     GPIO_ResetBits(LCD_CONTROL_PORT,LCD_DC_PIN);  
//  922 
//  923     
//  924 }
// 
//  4 008 bytes in section .bss
//  7 680 bytes in section .data
// 23 314 bytes in section .text
// 
// 23 294 bytes of CODE memory (+ 20 bytes shared)
// 11 688 bytes of DATA memory
//
//Errors: none
//Warnings: none
