###############################################################################
#                                                                             #
# IAR ANSI C/C++ Compiler V6.10.1.52143/W32 for ARM     19/Jan/2012  11:08:58 #
# Copyright 1999-2010 IAR Systems AB.                                         #
#                                                                             #
#    Cpu mode     =  thumb                                                    #
#    Endian       =  little                                                   #
#    Source file  =  F:\Work\S&G2000\Firmware\DTG_EMS_SYSTEM\Project\Key_Proc #
#                    ess.c                                                    #
#    Command line =  F:\Work\S&G2000\Firmware\DTG_EMS_SYSTEM\Project\Key_Proc #
#                    ess.c -D USE_STDPERIPH_DRIVER -D STM32F2XX -D            #
#                    USE_STM3220F_EVAL -D USE_USB_OTG_FS -D                   #
#                    RTC_CLOCK_SOURCE_LSE -lC F:\Work\S&G2000\Firmware\DTG_EM #
#                    S_SYSTEM\Project\EWARM\STM3220F_EVAL\List\ -lA           #
#                    F:\Work\S&G2000\Firmware\DTG_EMS_SYSTEM\Project\EWARM\ST #
#                    M3220F_EVAL\List\ -o F:\Work\S&G2000\Firmware\DTG_EMS_SY #
#                    STEM\Project\EWARM\STM3220F_EVAL\Obj\ --no_cse           #
#                    --no_unroll --no_inline --no_code_motion --no_tbaa       #
#                    --no_clustering --no_scheduling --debug --endian=little  #
#                    --cpu=Cortex-M3 -e --fpu=None --dlib_config "C:\Program  #
#                    Files\IAR Systems\Embedded Workbench                     #
#                    6.0\arm\INC\c\DLib_Config_Full.h" -I                     #
#                    F:\Work\S&G2000\Firmware\DTG_EMS_SYSTEM\Project\EWARM\.. #
#                    \ -I F:\Work\S&G2000\Firmware\DTG_EMS_SYSTEM\Project\EWA #
#                    RM\..\..\Libraries\CMSIS\CM3\CoreSupport\ -I             #
#                    F:\Work\S&G2000\Firmware\DTG_EMS_SYSTEM\Project\EWARM\.. #
#                    \..\Libraries\CMSIS\CM3\DeviceSupport\ST\STM32F2xx\ -I   #
#                    F:\Work\S&G2000\Firmware\DTG_EMS_SYSTEM\Project\EWARM\.. #
#                    \..\Libraries\STM32F2xx_StdPeriph_Driver\inc\ -I         #
#                    F:\Work\S&G2000\Firmware\DTG_EMS_SYSTEM\Project\EWARM\.. #
#                    \..\Utilities\STM32_EVAL\ -I                             #
#                    F:\Work\S&G2000\Firmware\DTG_EMS_SYSTEM\Project\EWARM\.. #
#                    \..\Utilities\STM32_EVAL\Common\ -I                      #
#                    F:\Work\S&G2000\Firmware\DTG_EMS_SYSTEM\Project\EWARM\.. #
#                    \..\Utilities\STM32_EVAL\STM3220F_EVAL\ -I               #
#                    F:\Work\S&G2000\Firmware\DTG_EMS_SYSTEM\Project\EWARM\.. #
#                    \..\Libraries\STM32_USB_OTG_Driver\inc\ -I               #
#                    F:\Work\S&G2000\Firmware\DTG_EMS_SYSTEM\Project\EWARM\.. #
#                    \..\Libraries\STM32_USB_Device_Library\Core\inc\ -I      #
#                    F:\Work\S&G2000\Firmware\DTG_EMS_SYSTEM\Project\EWARM\.. #
#                    \..\Libraries\STM32_USB_Device_Library\Class\msc\inc\    #
#                    -I F:\Work\S&G2000\Firmware\DTG_EMS_SYSTEM\Project\EWARM #
#                    \..\Usb\ -I F:\Work\S&G2000\Firmware\DTG_EMS_SYSTEM\Proj #
#                    ect\EWARM\..\Usb\Inc\ -I F:\Work\S&G2000\Firmware\DTG_EM #
#                    S_SYSTEM\Project\EWARM\..\Usb\src\ -I                    #
#                    F:\Work\S&G2000\Firmware\DTG_EMS_SYSTEM\Project\EWARM\.. #
#                    \..\Libraries\STM32_USB_HOST_Library\Core\inc\ -I        #
#                    F:\Work\S&G2000\Firmware\DTG_EMS_SYSTEM\Project\EWARM\.. #
#                    \..\Libraries\STM32_USB_HOST_Library\Class\MSC\inc\ -I   #
#                    F:\Work\S&G2000\Firmware\DTG_EMS_SYSTEM\Project\EWARM\.. #
#                    \..\Libraries\STM32_USB_Device_Library\Class\cdc\inc\    #
#                    -Ol --use_c++_inline                                     #
#    List file    =  F:\Work\S&G2000\Firmware\DTG_EMS_SYSTEM\Project\EWARM\ST #
#                    M3220F_EVAL\List\Key_Process.lst                         #
#    Object file  =  F:\Work\S&G2000\Firmware\DTG_EMS_SYSTEM\Project\EWARM\ST #
#                    M3220F_EVAL\Obj\Key_Process.o                            #
#                                                                             #
#                                                                             #
###############################################################################

F:\Work\S&G2000\Firmware\DTG_EMS_SYSTEM\Project\Key_Process.c
      1          
      2          //////////////////////////////////////////////////////////////////////////////
      3          //
      4          #include "Key_Process.h"

   \                                 In section .text, align 2, keep-with-next
   \   static __interwork __softfp void NVIC_SystemReset(void)
   \                     NVIC_SystemReset:
   \   00000000   ....               LDR.N    R0,??DataTable25  ;; 0xe000ed0c
   \   00000002   0068               LDR      R0,[R0, #+0]
   \   00000004   10F4E060           ANDS     R0,R0,#0x700
   \   00000008   ....               LDR.N    R1,??DataTable25_1  ;; 0x5fa0004
   \   0000000A   0843               ORRS     R0,R1,R0
   \   0000000C   ....               LDR.N    R1,??DataTable25  ;; 0xe000ed0c
   \   0000000E   0860               STR      R0,[R1, #+0]
   \   00000010   BFF34F8F           DSB      
   \                     ??NVIC_SystemReset_0:
   \   00000014   FEE7               B.N      ??NVIC_SystemReset_0

   \                                 In section .text, align 2, keep-with-next
   \   static __interwork __softfp uint8_t IsKey_ECO(void)
   \                     IsKey_ECO:
   \   00000000   80B5               PUSH     {R7,LR}
   \   00000002   0421               MOVS     R1,#+4
   \   00000004   ....               LDR.N    R0,??DataTable25_2  ;; 0x40021000
   \   00000006   ........           BL       GPIO_ReadInputDataBit
   \   0000000A   0128               CMP      R0,#+1
   \   0000000C   01D1               BNE.N    ??IsKey_ECO_0
   \   0000000E   0020               MOVS     R0,#+0
   \   00000010   00E0               B.N      ??IsKey_ECO_1
   \                     ??IsKey_ECO_0:
   \   00000012   0120               MOVS     R0,#+1
   \                     ??IsKey_ECO_1:
   \   00000014   02BD               POP      {R1,PC}          ;; return

   \                                 In section .text, align 2, keep-with-next
   \   static __interwork __softfp uint8_t IsKey_MODE(void)
   \                     IsKey_MODE:
   \   00000000   80B5               PUSH     {R7,LR}
   \   00000002   0821               MOVS     R1,#+8
   \   00000004   ....               LDR.N    R0,??DataTable25_2  ;; 0x40021000
   \   00000006   ........           BL       GPIO_ReadInputDataBit
   \   0000000A   0128               CMP      R0,#+1
   \   0000000C   01D1               BNE.N    ??IsKey_MODE_0
   \   0000000E   0020               MOVS     R0,#+0
   \   00000010   00E0               B.N      ??IsKey_MODE_1
   \                     ??IsKey_MODE_0:
   \   00000012   0120               MOVS     R0,#+1
   \                     ??IsKey_MODE_1:
   \   00000014   02BD               POP      {R1,PC}          ;; return

   \                                 In section .text, align 2, keep-with-next
   \   static __interwork __softfp uint8_t IsKey_UP(void)
   \                     IsKey_UP:
   \   00000000   80B5               PUSH     {R7,LR}
   \   00000002   1021               MOVS     R1,#+16
   \   00000004   ....               LDR.N    R0,??DataTable25_2  ;; 0x40021000
   \   00000006   ........           BL       GPIO_ReadInputDataBit
   \   0000000A   0128               CMP      R0,#+1
   \   0000000C   01D1               BNE.N    ??IsKey_UP_0
   \   0000000E   0020               MOVS     R0,#+0
   \   00000010   00E0               B.N      ??IsKey_UP_1
   \                     ??IsKey_UP_0:
   \   00000012   0120               MOVS     R0,#+1
   \                     ??IsKey_UP_1:
   \   00000014   02BD               POP      {R1,PC}          ;; return

   \                                 In section .text, align 2, keep-with-next
   \   static __interwork __softfp uint8_t IsKey_DOWN(void)
   \                     IsKey_DOWN:
   \   00000000   80B5               PUSH     {R7,LR}
   \   00000002   2021               MOVS     R1,#+32
   \   00000004   ....               LDR.N    R0,??DataTable25_2  ;; 0x40021000
   \   00000006   ........           BL       GPIO_ReadInputDataBit
   \   0000000A   0128               CMP      R0,#+1
   \   0000000C   01D1               BNE.N    ??IsKey_DOWN_0
   \   0000000E   0020               MOVS     R0,#+0
   \   00000010   00E0               B.N      ??IsKey_DOWN_1
   \                     ??IsKey_DOWN_0:
   \   00000012   0120               MOVS     R0,#+1
   \                     ??IsKey_DOWN_1:
   \   00000014   02BD               POP      {R1,PC}          ;; return

   \                                 In section .text, align 2, keep-with-next
   \   static __interwork __softfp uint8_t IsKey_OK(void)
   \                     IsKey_OK:
   \   00000000   80B5               PUSH     {R7,LR}
   \   00000002   4021               MOVS     R1,#+64
   \   00000004   ....               LDR.N    R0,??DataTable25_2  ;; 0x40021000
   \   00000006   ........           BL       GPIO_ReadInputDataBit
   \   0000000A   0128               CMP      R0,#+1
   \   0000000C   01D1               BNE.N    ??IsKey_OK_0
   \   0000000E   0020               MOVS     R0,#+0
   \   00000010   00E0               B.N      ??IsKey_OK_1
   \                     ??IsKey_OK_0:
   \   00000012   0120               MOVS     R0,#+1
   \                     ??IsKey_OK_1:
   \   00000014   02BD               POP      {R1,PC}          ;; return

   \                                 In section .text, align 2, keep-with-next
   \   static __interwork __softfp uint8_t IsKey_ESC(void)
   \                     IsKey_ESC:
   \   00000000   80B5               PUSH     {R7,LR}
   \   00000002   4FF40051           MOV      R1,#+8192
   \   00000006   ....               LDR.N    R0,??DataTable25_3  ;; 0x40020800
   \   00000008   ........           BL       GPIO_ReadInputDataBit
   \   0000000C   0128               CMP      R0,#+1
   \   0000000E   01D1               BNE.N    ??IsKey_ESC_0
   \   00000010   0020               MOVS     R0,#+0
   \   00000012   00E0               B.N      ??IsKey_ESC_1
   \                     ??IsKey_ESC_0:
   \   00000014   0120               MOVS     R0,#+1
   \                     ??IsKey_ESC_1:
   \   00000016   02BD               POP      {R1,PC}          ;; return
      5          #include "Display.h"
      6          #include "GraphicLcd.h"
      7          #include "main.h"

   \                                 In section .text, align 2
   \   __intrinsic __interwork __softfp void *memcpy(void *, void const *, size_t)
   \                     memcpy:
   \   00000000   10B5               PUSH     {R4,LR}
   \   00000002   0400               MOVS     R4,R0
   \   00000004   2000               MOVS     R0,R4
   \   00000006   ........           BL       __aeabi_memcpy
   \   0000000A   2000               MOVS     R0,R4
   \   0000000C   10BD               POP      {R4,PC}          ;; return

   \                                 In section .text, align 2
   \   __intrinsic __interwork __softfp void *memset(void *, int, size_t)
   \                     memset:
   \   00000000   10B5               PUSH     {R4,LR}
   \   00000002   0400               MOVS     R4,R0
   \   00000004   1000               MOVS     R0,R2
   \   00000006   0A00               MOVS     R2,R1
   \   00000008   0100               MOVS     R1,R0
   \   0000000A   2000               MOVS     R0,R4
   \   0000000C   ........           BL       __aeabi_memset
   \   00000010   2000               MOVS     R0,R4
   \   00000012   10BD               POP      {R4,PC}          ;; return

   \                                 In section .text, align 2, keep-with-next
   \   static __interwork __softfp void LED1_OFF(void)
   \                     LED1_OFF:
   \   00000000   80B5               PUSH     {R7,LR}
   \   00000002   4FF40051           MOV      R1,#+8192
   \   00000006   ....               LDR.N    R0,??DataTable25_4  ;; 0x40021800
   \   00000008   ........           BL       GPIO_SetBits
   \   0000000C   4FF48041           MOV      R1,#+16384
   \   00000010   ....               LDR.N    R0,??DataTable25_4  ;; 0x40021800
   \   00000012   ........           BL       GPIO_SetBits
   \   00000016   01BD               POP      {R0,PC}          ;; return

   \                                 In section .text, align 2, keep-with-next
   \   static __interwork __softfp void LED1_RED(void)
   \                     LED1_RED:
   \   00000000   80B5               PUSH     {R7,LR}
   \   00000002   4FF40051           MOV      R1,#+8192
   \   00000006   ....               LDR.N    R0,??DataTable25_4  ;; 0x40021800
   \   00000008   ........           BL       GPIO_ResetBits
   \   0000000C   4FF48041           MOV      R1,#+16384
   \   00000010   ....               LDR.N    R0,??DataTable25_4  ;; 0x40021800
   \   00000012   ........           BL       GPIO_SetBits
   \   00000016   01BD               POP      {R0,PC}          ;; return
      8          #include "Log.h"
      9          #include "Tilt.h"
     10          #include "Memory.h"
     11          #include "Serial.h"
     12          #include "usbh_usr.h"
     13          #include "rtc.h"
     14          #include "Ems_System.h"
     15          #include "Eeprom.h"
     16          #include "Voice.h"
     17          #include "GPSLIB.h"
     18          
     19          #include "usbd_cdc_core.h"
     20          
     21          //
     22          //////////////////////////////////////////////////////////////////////////////
     23          
     24          
     25          #include "DAC_Control.h"
     26          

   \                                 In section .bss, align 1
     27          u8 Input_Mode ;
   \                     Input_Mode:
   \   00000000                      DS8 1
     28          

   \                                 In section .bss, align 4
     29          u8 Input_Word[20];
   \                     Input_Word:
   \   00000000                      DS8 20

   \                                 In section .bss, align 1
     30          u8 Input_Index_1;
   \                     Input_Index_1:
   \   00000000                      DS8 1

   \                                 In section .bss, align 1
     31          u8 Input_Index_2;
   \                     Input_Index_2:
   \   00000000                      DS8 1
     32          

   \                                 In section .bss, align 1
     33          u8 Pass_Index;
   \                     Pass_Index:
   \   00000000                      DS8 1

   \                                 In section .text, align 2, keep-with-next
     34          void Key_Config(void)
     35          {
   \                     Key_Config:
   \   00000000   00B5               PUSH     {LR}
   \   00000002   83B0               SUB      SP,SP,#+12
     36          	
     37          	GPIO_InitTypeDef GPIO_InitStructure;
     38          	
     39          	RCC_AHB1PeriphClockCmd(RCC_AHB1Periph_GPIOC| RCC_AHB1Periph_GPIOE, ENABLE);
   \   00000004   0121               MOVS     R1,#+1
   \   00000006   1420               MOVS     R0,#+20
   \   00000008   ........           BL       RCC_AHB1PeriphClockCmd
     40          	//  RCC_AHB1PeriphClockCmd(RCC_AHB1Periph_GPIOG, ENABLE);  
     41               
     42          	//  키입력 초기화
     43          	GPIO_InitStructure.GPIO_Pin = GPIO_Pin_2 | GPIO_Pin_3 | GPIO_Pin_4 | GPIO_Pin_5 | GPIO_Pin_6;
   \   0000000C   7C20               MOVS     R0,#+124
   \   0000000E   0090               STR      R0,[SP, #+0]
     44          	GPIO_InitStructure.GPIO_Speed = GPIO_Speed_2MHz;
   \   00000010   0020               MOVS     R0,#+0
   \   00000012   8DF80500           STRB     R0,[SP, #+5]
     45          	GPIO_InitStructure.GPIO_Mode = GPIO_Mode_IN;
   \   00000016   0020               MOVS     R0,#+0
   \   00000018   8DF80400           STRB     R0,[SP, #+4]
     46          	GPIO_InitStructure.GPIO_OType = GPIO_OType_PP;        
   \   0000001C   0020               MOVS     R0,#+0
   \   0000001E   8DF80600           STRB     R0,[SP, #+6]
     47          	GPIO_InitStructure.GPIO_PuPd  = GPIO_PuPd_UP;        
   \   00000022   0120               MOVS     R0,#+1
   \   00000024   8DF80700           STRB     R0,[SP, #+7]
     48          	GPIO_Init(GPIOE, &GPIO_InitStructure);
   \   00000028   00A9               ADD      R1,SP,#+0
   \   0000002A   ....               LDR.N    R0,??DataTable25_2  ;; 0x40021000
   \   0000002C   ........           BL       GPIO_Init
     49          	
     50          	GPIO_InitStructure.GPIO_Pin = GPIO_Pin_13;		// ECO 
   \   00000030   4FF40050           MOV      R0,#+8192
   \   00000034   0090               STR      R0,[SP, #+0]
     51          	GPIO_Init(GPIOC, &GPIO_InitStructure);		
   \   00000036   00A9               ADD      R1,SP,#+0
   \   00000038   ....               LDR.N    R0,??DataTable25_3  ;; 0x40020800
   \   0000003A   ........           BL       GPIO_Init
     52          	
     53          }
   \   0000003E   07BD               POP      {R0-R2,PC}       ;; return
     54          
     55          

   \                                 In section .text, align 2, keep-with-next
     56          u8 GetKey(void)
     57          {
   \                     GetKey:
   \   00000000   10B5               PUSH     {R4,LR}
     58               static u16 KeyPush_Timer = 0;
     59               static u8 KeyPush_Flag = 0;
     60          	static   u16   KeyCount=0;
     61          	static   u8    OldKeyData=0;
     62          	static   u8    isPush = 0;
     63          	u8             KeyData = 0;
   \   00000002   0024               MOVS     R4,#+0
     64               
     65          	KeyData = 0;
   \   00000004   0020               MOVS     R0,#+0
   \   00000006   0400               MOVS     R4,R0
     66          	if(IsKey_ESC())
   \   00000008   ........           BL       IsKey_ESC
   \   0000000C   0028               CMP      R0,#+0
   \   0000000E   44D0               BEQ.N    ??GetKey_0
     67               {
     68                    if(IsKey_OK())
   \   00000010   ........           BL       IsKey_OK
   \   00000014   0028               CMP      R0,#+0
   \   00000016   1AD0               BEQ.N    ??GetKey_1
     69                    {
     70                         if(KeyPush_Flag == 0)
   \   00000018   ....               LDR.N    R0,??DataTable25_5
   \   0000001A   0078               LDRB     R0,[R0, #+0]
   \   0000001C   0028               CMP      R0,#+0
   \   0000001E   09D1               BNE.N    ??GetKey_2
     71                         {
     72                              KeyPush_Timer = MS_TIMER;
   \   00000020   ....               LDR.N    R0,??DataTable25_6  ;; 0x40000c00
   \   00000022   ........           BL       TIM_GetCounter
   \   00000026   ....               LDR.N    R1,??DataTable25_7
   \   00000028   0880               STRH     R0,[R1, #+0]
     73                              KeyPush_Flag = 1;
   \   0000002A   ....               LDR.N    R0,??DataTable25_5
   \   0000002C   0121               MOVS     R1,#+1
   \   0000002E   0170               STRB     R1,[R0, #+0]
     74                         }else
     75                         {
     76                              if(!CheckTimeOver(100,KeyPush_Timer) )
     77                                   return 0;
     78                              KeyData = Key_OKESC;
     79                              return KeyData;
     80                         }
     81                    }else if(IsKey_MODE())
     82                    {
     83                         if(KeyPush_Flag == 0)
     84                         {
     85                              KeyPush_Timer = MS_TIMER;
     86                              KeyPush_Flag = 1;
     87                         }else
     88                         {
     89                              if(!CheckTimeOver(100,KeyPush_Timer) )
     90                                   return 0;
     91                              KeyData = Key_ESCMODE;
     92                              return KeyData;
     93                         }           
     94                    }else if(IsKey_UP())
     95                    {
     96                         KeyData = Key_UPESC;
     97                         return KeyData;               
     98                    }
     99                    
    100                    KeyData = Key_ESC;
   \                     ??GetKey_3:
   \   00000030   0124               MOVS     R4,#+1
   \   00000032   4FE0               B.N      ??GetKey_4
   \                     ??GetKey_2:
   \   00000034   ....               LDR.N    R0,??DataTable25_7
   \   00000036   0188               LDRH     R1,[R0, #+0]
   \   00000038   6420               MOVS     R0,#+100
   \   0000003A   ........           BL       CheckTimeOver
   \   0000003E   0028               CMP      R0,#+0
   \   00000040   01D1               BNE.N    ??GetKey_5
   \   00000042   0020               MOVS     R0,#+0
   \   00000044   91E0               B.N      ??GetKey_6
   \                     ??GetKey_5:
   \   00000046   4024               MOVS     R4,#+64
   \   00000048   2000               MOVS     R0,R4
   \   0000004A   C0B2               UXTB     R0,R0            ;; ZeroExt  R0,R0,#+24,#+24
   \   0000004C   8DE0               B.N      ??GetKey_6
   \                     ??GetKey_1:
   \   0000004E   ........           BL       IsKey_MODE
   \   00000052   0028               CMP      R0,#+0
   \   00000054   19D0               BEQ.N    ??GetKey_7
   \   00000056   ....               LDR.N    R0,??DataTable25_5
   \   00000058   0078               LDRB     R0,[R0, #+0]
   \   0000005A   0028               CMP      R0,#+0
   \   0000005C   08D1               BNE.N    ??GetKey_8
   \   0000005E   ....               LDR.N    R0,??DataTable25_6  ;; 0x40000c00
   \   00000060   ........           BL       TIM_GetCounter
   \   00000064   ....               LDR.N    R1,??DataTable25_7
   \   00000066   0880               STRH     R0,[R1, #+0]
   \   00000068   ....               LDR.N    R0,??DataTable25_5
   \   0000006A   0121               MOVS     R1,#+1
   \   0000006C   0170               STRB     R1,[R0, #+0]
   \   0000006E   DFE7               B.N      ??GetKey_3
   \                     ??GetKey_8:
   \   00000070   ....               LDR.N    R0,??DataTable25_7
   \   00000072   0188               LDRH     R1,[R0, #+0]
   \   00000074   6420               MOVS     R0,#+100
   \   00000076   ........           BL       CheckTimeOver
   \   0000007A   0028               CMP      R0,#+0
   \   0000007C   01D1               BNE.N    ??GetKey_9
   \   0000007E   0020               MOVS     R0,#+0
   \   00000080   73E0               B.N      ??GetKey_6
   \                     ??GetKey_9:
   \   00000082   1124               MOVS     R4,#+17
   \   00000084   2000               MOVS     R0,R4
   \   00000086   C0B2               UXTB     R0,R0            ;; ZeroExt  R0,R0,#+24,#+24
   \   00000088   6FE0               B.N      ??GetKey_6
   \                     ??GetKey_7:
   \   0000008A   ........           BL       IsKey_UP
   \   0000008E   0028               CMP      R0,#+0
   \   00000090   CED0               BEQ.N    ??GetKey_3
   \   00000092   0724               MOVS     R4,#+7
   \   00000094   2000               MOVS     R0,R4
   \   00000096   C0B2               UXTB     R0,R0            ;; ZeroExt  R0,R0,#+24,#+24
   \   00000098   67E0               B.N      ??GetKey_6
    101               }
    102          	else if(IsKey_OK())
   \                     ??GetKey_0:
   \   0000009A   ........           BL       IsKey_OK
   \   0000009E   0028               CMP      R0,#+0
   \   000000A0   01D0               BEQ.N    ??GetKey_10
    103          		KeyData = Key_OK;
   \   000000A2   0224               MOVS     R4,#+2
   \   000000A4   16E0               B.N      ??GetKey_4
    104          	else if(IsKey_DOWN())
   \                     ??GetKey_10:
   \   000000A6   ........           BL       IsKey_DOWN
   \   000000AA   0028               CMP      R0,#+0
   \   000000AC   01D0               BEQ.N    ??GetKey_11
    105          		KeyData = Key_DOWN;
   \   000000AE   0424               MOVS     R4,#+4
   \   000000B0   10E0               B.N      ??GetKey_4
    106          	else if(IsKey_UP())
   \                     ??GetKey_11:
   \   000000B2   ........           BL       IsKey_UP
   \   000000B6   0028               CMP      R0,#+0
   \   000000B8   01D0               BEQ.N    ??GetKey_12
    107          		KeyData = Key_UP;
   \   000000BA   0624               MOVS     R4,#+6
   \   000000BC   0AE0               B.N      ??GetKey_4
    108          	else if(IsKey_MODE())
   \                     ??GetKey_12:
   \   000000BE   ........           BL       IsKey_MODE
   \   000000C2   0028               CMP      R0,#+0
   \   000000C4   01D0               BEQ.N    ??GetKey_13
    109          		KeyData = Key_MODE;
   \   000000C6   1024               MOVS     R4,#+16
   \   000000C8   04E0               B.N      ??GetKey_4
    110          	else if(IsKey_ECO())
   \                     ??GetKey_13:
   \   000000CA   ........           BL       IsKey_ECO
   \   000000CE   0028               CMP      R0,#+0
   \   000000D0   00D0               BEQ.N    ??GetKey_4
    111          		KeyData = Key_ECO;        
   \   000000D2   2024               MOVS     R4,#+32
    112               
    113          	if (KeyData == 0)                // 모든 키가 입력되지 않았을 경우 리턴
   \                     ??GetKey_4:
   \   000000D4   E4B2               UXTB     R4,R4            ;; ZeroExt  R4,R4,#+24,#+24
   \   000000D6   002C               CMP      R4,#+0
   \   000000D8   0AD1               BNE.N    ??GetKey_14
    114          	{
    115          		KeyCount = 0;
   \   000000DA   ....               LDR.N    R0,??DataTable25_8
   \   000000DC   0021               MOVS     R1,#+0
   \   000000DE   0180               STRH     R1,[R0, #+0]
    116                    KeyPush_Flag = 0;
   \   000000E0   ....               LDR.N    R0,??DataTable25_5
   \   000000E2   0021               MOVS     R1,#+0
   \   000000E4   0170               STRB     R1,[R0, #+0]
    117          		isPush = 0;
   \   000000E6   ....               LDR.N    R0,??DataTable25_9
   \   000000E8   0021               MOVS     R1,#+0
   \   000000EA   0170               STRB     R1,[R0, #+0]
    118          		return   0;
   \   000000EC   0020               MOVS     R0,#+0
   \   000000EE   3CE0               B.N      ??GetKey_6
    119          	}
    120              	if (isPush )
   \                     ??GetKey_14:
   \   000000F0   ....               LDR.N    R0,??DataTable25_9
   \   000000F2   0078               LDRB     R0,[R0, #+0]
   \   000000F4   0028               CMP      R0,#+0
   \   000000F6   1BD0               BEQ.N    ??GetKey_15
    121               {
    122                    if( KeyData == Key_MODE )
   \   000000F8   E4B2               UXTB     R4,R4            ;; ZeroExt  R4,R4,#+24,#+24
   \   000000FA   102C               CMP      R4,#+16
   \   000000FC   16D1               BNE.N    ??GetKey_16
    123                    {
    124                         if( KeyCount++ >= 200)
   \   000000FE   ....               LDR.N    R0,??DataTable25_8
   \   00000100   0088               LDRH     R0,[R0, #+0]
   \   00000102   411C               ADDS     R1,R0,#+1
   \   00000104   ....               LDR.N    R2,??DataTable25_8
   \   00000106   1180               STRH     R1,[R2, #+0]
   \   00000108   80B2               UXTH     R0,R0            ;; ZeroExt  R0,R0,#+16,#+16
   \   0000010A   C828               CMP      R0,#+200
   \   0000010C   0ED3               BCC.N    ??GetKey_16
    125                         {
    126                              Voice_Error_Out = 1;
   \   0000010E   ....               LDR.N    R0,??DataTable25_10
   \   00000110   0121               MOVS     R1,#+1
   \   00000112   0170               STRB     R1,[R0, #+0]
    127                              DisplayInfo.Mode = DISPMODE_MENU;
   \   00000114   ....               LDR.N    R0,??DataTable25_11
   \   00000116   0221               MOVS     R1,#+2
   \   00000118   8171               STRB     R1,[R0, #+6]
    128                              DisplayInfo.Now_View = DISP_MENU_USECOM;     
   \   0000011A   ....               LDR.N    R0,??DataTable25_11
   \   0000011C   1021               MOVS     R1,#+16
   \   0000011E   4171               STRB     R1,[R0, #+5]
    129                              
    130                              USB_MODE_SELECT(1);      // DEVICE
   \   00000120   0120               MOVS     R0,#+1
   \   00000122   ........           BL       USB_MODE_SELECT
    131                              KeyCount = 0;
   \   00000126   ....               LDR.N    R0,??DataTable25_8
   \   00000128   0021               MOVS     R1,#+0
   \   0000012A   0180               STRH     R1,[R0, #+0]
    132                         }
    133                    }
    134                    return 0;      // 키 누름 상태가 유지되고 있는 경우 리턴
   \                     ??GetKey_16:
   \   0000012C   0020               MOVS     R0,#+0
   \   0000012E   1CE0               B.N      ??GetKey_6
    135               }
    136          	if (OldKeyData == KeyData) {
   \                     ??GetKey_15:
   \   00000130   ....               LDR.N    R0,??DataTable25_12
   \   00000132   0078               LDRB     R0,[R0, #+0]
   \   00000134   E4B2               UXTB     R4,R4            ;; ZeroExt  R4,R4,#+24,#+24
   \   00000136   A042               CMP      R0,R4
   \   00000138   0ED1               BNE.N    ??GetKey_17
    137          		KeyCount++;
   \   0000013A   ....               LDR.N    R0,??DataTable25_8
   \   0000013C   0088               LDRH     R0,[R0, #+0]
   \   0000013E   401C               ADDS     R0,R0,#+1
   \   00000140   ....               LDR.N    R1,??DataTable25_8
   \   00000142   0880               STRH     R0,[R1, #+0]
    138                    if (KeyCount >= 3) 
   \   00000144   ....               LDR.N    R0,??DataTable25_8
   \   00000146   0088               LDRH     R0,[R0, #+0]
   \   00000148   0328               CMP      R0,#+3
   \   0000014A   0BD3               BCC.N    ??GetKey_18
    139                    {             // 30ms이상 유지되어 있으면 키로 인식
    140          			isPush = 1;
   \   0000014C   ....               LDR.N    R0,??DataTable25_9
   \   0000014E   0121               MOVS     R1,#+1
   \   00000150   0170               STRB     R1,[R0, #+0]
    141          			return KeyData;
   \   00000152   2000               MOVS     R0,R4
   \   00000154   C0B2               UXTB     R0,R0            ;; ZeroExt  R0,R0,#+24,#+24
   \   00000156   08E0               B.N      ??GetKey_6
    142          		}
    143          	}
    144          	else {
    145          		KeyCount = 0;
   \                     ??GetKey_17:
   \   00000158   ....               LDR.N    R0,??DataTable25_8
   \   0000015A   0021               MOVS     R1,#+0
   \   0000015C   0180               STRH     R1,[R0, #+0]
    146          		isPush = 0;
   \   0000015E   ....               LDR.N    R0,??DataTable25_9
   \   00000160   0021               MOVS     R1,#+0
   \   00000162   0170               STRB     R1,[R0, #+0]
    147          	}
    148          	OldKeyData = KeyData;
   \                     ??GetKey_18:
   \   00000164   ....               LDR.N    R0,??DataTable25_12
   \   00000166   0470               STRB     R4,[R0, #+0]
    149               
    150          	return 0;
   \   00000168   0020               MOVS     R0,#+0
   \                     ??GetKey_6:
   \   0000016A   10BD               POP      {R4,PC}          ;; return
    151          }

   \                                 In section .bss, align 2
   \                     ??KeyPush_Timer:
   \   00000000                      DS8 2

   \                                 In section .bss, align 1
   \                     ??KeyPush_Flag:
   \   00000000                      DS8 1

   \                                 In section .bss, align 2
   \                     ??KeyCount:
   \   00000000                      DS8 2

   \                                 In section .bss, align 1
   \                     ??OldKeyData:
   \   00000000                      DS8 1

   \                                 In section .bss, align 1
   \                     ??isPush:
   \   00000000                      DS8 1
    152          
    153          

   \                                 In section .text, align 4, keep-with-next
    154          void KeyProcess(void)
    155          {
   \                     KeyProcess:
   \   00000000   10B5               PUSH     {R4,LR}
   \   00000002   86B0               SUB      SP,SP,#+24
    156          	static   u16   KeyTime;
    157          	static u8 Password[4];
    158          	const u8 Answer[4] = { 0x06,0x06,0x06,0x06 };      
   \   00000004   00A8               ADD      R0,SP,#+0
   \   00000006   ........           ADR.W    R1,`?<Constant {6, 6, 6, 6}>`
   \   0000000A   0A68               LDR      R2,[R1, #0]
   \   0000000C   0260               STR      R2,[R0, #+0]
    159          	u32 Temp;
    160          	u8 KeyData;
    161          
    162          	if (!CheckTimeOver(10,KeyTime))     // 10ms 마다 한번씩만 동작하도록한다.
   \   0000000E   DFF8F80C           LDR.W    R0,??KeyProcess_0
   \   00000012   0188               LDRH     R1,[R0, #+0]
   \   00000014   0A20               MOVS     R0,#+10
   \   00000016   ........           BL       CheckTimeOver
   \   0000001A   0028               CMP      R0,#+0
   \   0000001C   02F07283           BEQ.W    ??KeyProcess_1
    163          		return ;
    164          	KeyTime = MS_TIMER;
   \                     ??KeyProcess_2:
   \   00000020   DFF8E80C           LDR.W    R0,??KeyProcess_0+0x4  ;; 0x40000c00
   \   00000024   ........           BL       TIM_GetCounter
   \   00000028   DFF8DC1C           LDR.W    R1,??KeyProcess_0
   \   0000002C   0880               STRH     R0,[R1, #+0]
    165               
    166          	KeyData = GetKey();
   \   0000002E   ........           BL       GetKey
   \   00000032   0400               MOVS     R4,R0
    167               
    168          	if(KeyData == 0)   // 입력된 키값이 없음
   \   00000034   E4B2               UXTB     R4,R4            ;; ZeroExt  R4,R4,#+24,#+24
   \   00000036   002C               CMP      R4,#+0
   \   00000038   02F06483           BEQ.W    ??KeyProcess_1
    169          		return;
    170          
    171               Voice_Play(VOICE_CLICK);
   \                     ??KeyProcess_3:
   \   0000003C   0A20               MOVS     R0,#+10
   \   0000003E   ........           BL       Voice_Play
    172               
    173          	switch(KeyData)
   \   00000042   E4B2               UXTB     R4,R4            ;; ZeroExt  R4,R4,#+24,#+24
   \   00000044   2000               MOVS     R0,R4
   \   00000046   0128               CMP      R0,#+1
   \   00000048   02F0F181           BEQ.W    ??KeyProcess_4
   \   0000004C   0228               CMP      R0,#+2
   \   0000004E   01F0DB80           BEQ.W    ??KeyProcess_5
   \   00000052   0428               CMP      R0,#+4
   \   00000054   00F0C184           BEQ.W    ??KeyProcess_6
   \   00000058   0628               CMP      R0,#+6
   \   0000005A   00F09180           BEQ.W    ??KeyProcess_7
   \   0000005E   1028               CMP      R0,#+16
   \   00000060   52D0               BEQ.N    ??KeyProcess_8
   \   00000062   1128               CMP      R0,#+17
   \   00000064   17D0               BEQ.N    ??KeyProcess_9
   \   00000066   2028               CMP      R0,#+32
   \   00000068   19D0               BEQ.N    ??KeyProcess_10
   \   0000006A   4028               CMP      R0,#+64
   \   0000006C   42F03E83           BNE.W    ??KeyProcess_11
    174          	{
    175               case Key_OKESC:          // 엔지니어 모드
    176                    {
    177                         DisplayInfo.Mode = DISPMODE_ENGINER; 
   \                     ??KeyProcess_12:
   \   00000070   DFF89C0C           LDR.W    R0,??KeyProcess_0+0x8
   \   00000074   0421               MOVS     R1,#+4
   \   00000076   8171               STRB     R1,[R0, #+6]
    178                         DisplayInfo.Now_View = DISP_ENGINER;       
   \   00000078   DFF8940C           LDR.W    R0,??KeyProcess_0+0x8
   \   0000007C   0F21               MOVS     R1,#+15
   \   0000007E   4171               STRB     R1,[R0, #+5]
    179                         SetCursor(0,0,0);
   \   00000080   0022               MOVS     R2,#+0
   \   00000082   0021               MOVS     R1,#+0
   \   00000084   0020               MOVS     R0,#+0
   \   00000086   ........           BL       SetCursor
    180                         Input_Mode = 0;                 
   \   0000008A   DFF8880C           LDR.W    R0,??KeyProcess_0+0xC
   \   0000008E   0021               MOVS     R1,#+0
   \   00000090   0170               STRB     R1,[R0, #+0]
    181                    }break;
   \   00000092   02F037BB           B.W      ??KeyProcess_13
    182               case Key_ESCMODE:          // 엔지니어 모드
    183                    {
    184                         NVIC_SystemReset();           // 시스템 재시작
   \                     ??KeyProcess_9:
   \   00000096   ........           BL       NVIC_SystemReset
    185                    }break;          
   \   0000009A   02F033BB           B.W      ??KeyProcess_13
    186               case Key_ECO:
    187                    {           
    188          //               strcpy(Buffer,"AAAAA");
    189          //               APP_FOPS.pIfDataTX(Buffer,3);
    190          //               RTC_AddDay();
    191                          if( Info.EcoStatus )
   \                     ??KeyProcess_10:
   \   0000009E   DFF8780C           LDR.W    R0,??KeyProcess_0+0x10
   \   000000A2   007E               LDRB     R0,[R0, #+24]
   \   000000A4   0028               CMP      R0,#+0
   \   000000A6   12D0               BEQ.N    ??KeyProcess_14
    192                          {
    193                              LED1_OFF();
   \   000000A8   ........           BL       LED1_OFF
    194                              Info.EcoStatus = 0;
   \   000000AC   DFF8680C           LDR.W    R0,??KeyProcess_0+0x10
   \   000000B0   0021               MOVS     R1,#+0
   \   000000B2   0176               STRB     R1,[R0, #+24]
    195                              Voice_OutAdd(VOICE_ECO_OFF);                   // Eco모드중 
   \   000000B4   0720               MOVS     R0,#+7
   \   000000B6   ........           BL       Voice_OutAdd
    196                              if( EnginOff_Flag == 1)            // 현재 공회전 정지 동작중이면
   \   000000BA   DFF8600C           LDR.W    R0,??KeyProcess_0+0x14
   \   000000BE   0078               LDRB     R0,[R0, #+0]
   \   000000C0   0128               CMP      R0,#+1
   \   000000C2   0DD1               BNE.N    ??KeyProcess_15
    197                                   EMS_Reley_Off = 1;            // 릴레이 오프동작
   \   000000C4   DFF8580C           LDR.W    R0,??KeyProcess_0+0x18
   \   000000C8   0121               MOVS     R1,#+1
   \   000000CA   0170               STRB     R1,[R0, #+0]
   \   000000CC   08E0               B.N      ??KeyProcess_15
    198                         }
    199                         else                    
    200                         {                    
    201                              LED1_RED();      
   \                     ??KeyProcess_14:
   \   000000CE   ........           BL       LED1_RED
    202                              Info.EcoStatus = 1;
   \   000000D2   DFF8440C           LDR.W    R0,??KeyProcess_0+0x10
   \   000000D6   0121               MOVS     R1,#+1
   \   000000D8   0176               STRB     R1,[R0, #+24]
    203                              Voice_OutAdd(VOICE_ECO_ON);
   \   000000DA   0620               MOVS     R0,#+6
   \   000000DC   ........           BL       Voice_OutAdd
    204                         }               
    205                         if(LOGWRITE & LOG_KEY)
   \                     ??KeyProcess_15:
   \   000000E0   DFF8400C           LDR.W    R0,??KeyProcess_0+0x1C
   \   000000E4   0078               LDRB     R0,[R0, #+0]
   \   000000E6   0007               LSLS     R0,R0,#+28
   \   000000E8   0AD5               BPL.N    ??KeyProcess_16
    206                         {
    207                              sprintf((char *)Buffer,"KEY-ECO Done\r\n");
   \   000000EA   DFF83C1C           LDR.W    R1,??KeyProcess_0+0x20
   \   000000EE   DFF83C0C           LDR.W    R0,??KeyProcess_0+0x24
   \   000000F2   ........           BL       sprintf
    208                              Write_Log(Buffer, NORMAL_LOG);
   \   000000F6   0121               MOVS     R1,#+1
   \   000000F8   DFF8300C           LDR.W    R0,??KeyProcess_0+0x24
   \   000000FC   ........           BL       Write_Log
    209                         }                  
    210                         Write_Header_EMS();                // 에코버튼을 누르면 저장시킨다.               
   \                     ??KeyProcess_16:
   \   00000100   ........           BL       Write_Header_EMS
    211                    } // end of Key_ECO
    212                    break;
   \   00000104   02F0FEBA           B.W      ??KeyProcess_13
    213               case Key_MODE:
    214                    {
    215          
    216                         GLCD_Refresh_Flag = 1;               
   \                     ??KeyProcess_8:
   \   00000108   DFF8240C           LDR.W    R0,??KeyProcess_0+0x28
   \   0000010C   0121               MOVS     R1,#+1
   \   0000010E   0170               STRB     R1,[R0, #+0]
    217          //               while(1);
    218                         if( DisplayInfo.Mode == DISPMODE_VIEW )
   \   00000110   DFF8FC0B           LDR.W    R0,??KeyProcess_0+0x8
   \   00000114   8079               LDRB     R0,[R0, #+6]
   \   00000116   0128               CMP      R0,#+1
   \   00000118   08D1               BNE.N    ??KeyProcess_17
    219                         {
    220                              DisplayInfo.Mode = DISPMODE_MENU;
   \   0000011A   DFF8F40B           LDR.W    R0,??KeyProcess_0+0x8
   \   0000011E   0221               MOVS     R1,#+2
   \   00000120   8171               STRB     R1,[R0, #+6]
    221                              DisplayInfo.Now_View = DISP_MENU1;
   \   00000122   DFF8EC0B           LDR.W    R0,??KeyProcess_0+0x8
   \   00000126   1121               MOVS     R1,#+17
   \   00000128   4171               STRB     R1,[R0, #+5]
   \   0000012A   0CE0               B.N      ??KeyProcess_18
    222                         }                  
    223                         else if( DisplayInfo.Mode == DISPMODE_MENU )
   \                     ??KeyProcess_17:
   \   0000012C   DFF8E00B           LDR.W    R0,??KeyProcess_0+0x8
   \   00000130   8079               LDRB     R0,[R0, #+6]
   \   00000132   0228               CMP      R0,#+2
   \   00000134   07D1               BNE.N    ??KeyProcess_18
    224                         {
    225                              DisplayInfo.Mode = DISPMODE_VIEW;
   \   00000136   DFF8D80B           LDR.W    R0,??KeyProcess_0+0x8
   \   0000013A   0121               MOVS     R1,#+1
   \   0000013C   8171               STRB     R1,[R0, #+6]
    226                              DisplayInfo.Now_View = DISP_IDLE;
   \   0000013E   DFF8D00B           LDR.W    R0,??KeyProcess_0+0x8
   \   00000142   0321               MOVS     R1,#+3
   \   00000144   4171               STRB     R1,[R0, #+5]
    227                         }       
    228                         if(LOGWRITE & LOG_KEY)
   \                     ??KeyProcess_18:
   \   00000146   DFF8DC0B           LDR.W    R0,??KeyProcess_0+0x1C
   \   0000014A   0078               LDRB     R0,[R0, #+0]
   \   0000014C   0007               LSLS     R0,R0,#+28
   \   0000014E   0AD5               BPL.N    ??KeyProcess_19
    229                         {
    230                              sprintf((char *)Buffer,"KEY-MODE Done\r\n");
   \   00000150   DFF8E01B           LDR.W    R1,??KeyProcess_0+0x2C
   \   00000154   DFF8D40B           LDR.W    R0,??KeyProcess_0+0x24
   \   00000158   ........           BL       sprintf
    231                              Write_Log(Buffer, NORMAL_LOG);
   \   0000015C   0121               MOVS     R1,#+1
   \   0000015E   DFF8CC0B           LDR.W    R0,??KeyProcess_0+0x24
   \   00000162   ........           BL       Write_Log
    232                         }  
    233                         
    234                         SetCursor(0,0,0);
   \                     ??KeyProcess_19:
   \   00000166   0022               MOVS     R2,#+0
   \   00000168   0021               MOVS     R1,#+0
   \   0000016A   0020               MOVS     R0,#+0
   \   0000016C   ........           BL       SetCursor
    235                         Input_Mode = 0;                             
   \   00000170   DFF8A00B           LDR.W    R0,??KeyProcess_0+0xC
   \   00000174   0021               MOVS     R1,#+0
   \   00000176   0170               STRB     R1,[R0, #+0]
    236                         GLcd_Clear();               
   \   00000178   ........           BL       GLcd_Clear
    237                    }  // end of Key_MODE
    238                    break;
   \   0000017C   02F0C2BA           B.W      ??KeyProcess_13
    239               case Key_UP:
    240                    {
    241                         GLCD_Refresh_Flag = 1; 
   \                     ??KeyProcess_7:
   \   00000180   DFF8AC0B           LDR.W    R0,??KeyProcess_0+0x28
   \   00000184   0121               MOVS     R1,#+1
   \   00000186   0170               STRB     R1,[R0, #+0]
    242                         if( DisplayInfo.Mode == DISPMODE_VIEW )
   \   00000188   DFF8840B           LDR.W    R0,??KeyProcess_0+0x8
   \   0000018C   8079               LDRB     R0,[R0, #+6]
   \   0000018E   0128               CMP      R0,#+1
   \   00000190   40F08880           BNE.W    ??KeyProcess_20
    243                         {
    244                              if(DisplayInfo.Now_View ==  DISP_MENU2_1_1)     // 운전자 선택
   \   00000194   DFF8780B           LDR.W    R0,??KeyProcess_0+0x8
   \   00000198   4079               LDRB     R0,[R0, #+5]
   \   0000019A   1F28               CMP      R0,#+31
   \   0000019C   10D1               BNE.N    ??KeyProcess_21
    245                              {
    246                                   if( Info.Driver_Index == 4 )
   \   0000019E   DFF8780B           LDR.W    R0,??KeyProcess_0+0x10
   \   000001A2   0078               LDRB     R0,[R0, #+0]
   \   000001A4   0428               CMP      R0,#+4
   \   000001A6   04D1               BNE.N    ??KeyProcess_22
    247                                        Info.Driver_Index = 0;
   \   000001A8   DFF86C0B           LDR.W    R0,??KeyProcess_0+0x10
   \   000001AC   0021               MOVS     R1,#+0
   \   000001AE   0170               STRB     R1,[R0, #+0]
   \   000001B0   06E0               B.N      ??KeyProcess_21
    248                                   else
    249                                        Info.Driver_Index ++;
   \                     ??KeyProcess_22:
   \   000001B2   DFF8640B           LDR.W    R0,??KeyProcess_0+0x10
   \   000001B6   0078               LDRB     R0,[R0, #+0]
   \   000001B8   401C               ADDS     R0,R0,#+1
   \   000001BA   DFF85C1B           LDR.W    R1,??KeyProcess_0+0x10
   \   000001BE   0870               STRB     R0,[R1, #+0]
    250                              }
    251                              if( DisplayInfo.Now_View == DISP_MENU5_1)
   \                     ??KeyProcess_21:
   \   000001C0   DFF84C0B           LDR.W    R0,??KeyProcess_0+0x8
   \   000001C4   4079               LDRB     R0,[R0, #+5]
   \   000001C6   3528               CMP      R0,#+53
   \   000001C8   16D1               BNE.N    ??KeyProcess_23
    252                              {
    253                                   if(Input_Mode == 1)
   \   000001CA   DFF8480B           LDR.W    R0,??KeyProcess_0+0xC
   \   000001CE   0078               LDRB     R0,[R0, #+0]
   \   000001D0   0128               CMP      R0,#+1
   \   000001D2   40F00084           BNE.W    ??KeyProcess_24
    254                                   {
    255                                        if(SFLASH_Memory.Voice_Volume < 100)
   \   000001D6   DFF8600B           LDR.W    R0,??KeyProcess_0+0x30
   \   000001DA   90F8A300           LDRB     R0,[R0, #+163]
   \   000001DE   6428               CMP      R0,#+100
   \   000001E0   80F0F983           BCS.W    ??KeyProcess_24
    256                                             SFLASH_Memory.Voice_Volume += 20;
   \   000001E4   DFF8500B           LDR.W    R0,??KeyProcess_0+0x30
   \   000001E8   90F8A300           LDRB     R0,[R0, #+163]
   \   000001EC   1430               ADDS     R0,R0,#+20
   \   000001EE   DFF8481B           LDR.W    R1,??KeyProcess_0+0x30
   \   000001F2   81F8A300           STRB     R0,[R1, #+163]
   \   000001F6   EEE3               B.N      ??KeyProcess_24
    257                                   }
    258                              }else
    259                              {
    260                                   switch(DisplayInfo.Now_View)
   \                     ??KeyProcess_23:
   \   000001F8   DFF8140B           LDR.W    R0,??KeyProcess_0+0x8
   \   000001FC   4079               LDRB     R0,[R0, #+5]
   \   000001FE   0328               CMP      R0,#+3
   \   00000200   12D0               BEQ.N    ??KeyProcess_25
   \   00000202   4CD3               BCC.N    ??KeyProcess_26
   \   00000204   0528               CMP      R0,#+5
   \   00000206   19D0               BEQ.N    ??KeyProcess_27
   \   00000208   13D3               BCC.N    ??KeyProcess_28
   \   0000020A   0728               CMP      R0,#+7
   \   0000020C   20D0               BEQ.N    ??KeyProcess_29
   \   0000020E   1AD3               BCC.N    ??KeyProcess_30
   \   00000210   0928               CMP      R0,#+9
   \   00000212   27D0               BEQ.N    ??KeyProcess_31
   \   00000214   21D3               BCC.N    ??KeyProcess_32
   \   00000216   0B28               CMP      R0,#+11
   \   00000218   2ED0               BEQ.N    ??KeyProcess_33
   \   0000021A   28D3               BCC.N    ??KeyProcess_34
   \   0000021C   0D28               CMP      R0,#+13
   \   0000021E   35D0               BEQ.N    ??KeyProcess_35
   \   00000220   2FD3               BCC.N    ??KeyProcess_36
   \   00000222   0E28               CMP      R0,#+14
   \   00000224   37D0               BEQ.N    ??KeyProcess_37
   \   00000226   3AE0               B.N      ??KeyProcess_26
    261                                   {
    262                                   case DISP_IDLE:
    263                                        DisplayInfo.Now_View = DISP_TODAY_DISTANCE;
   \                     ??KeyProcess_25:
   \   00000228   DFF8E40A           LDR.W    R0,??KeyProcess_0+0x8
   \   0000022C   0421               MOVS     R1,#+4
   \   0000022E   4171               STRB     R1,[R0, #+5]
    264                                        break;
   \   00000230   35E0               B.N      ??KeyProcess_26
    265                                   case DISP_TODAY_DISTANCE:
    266                                        DisplayInfo.Now_View = DISP_TOTAL_DISTANCE;
   \                     ??KeyProcess_28:
   \   00000232   DFF8DC0A           LDR.W    R0,??KeyProcess_0+0x8
   \   00000236   0521               MOVS     R1,#+5
   \   00000238   4171               STRB     R1,[R0, #+5]
    267                                        break;
   \   0000023A   30E0               B.N      ??KeyProcess_26
    268                                   case DISP_TOTAL_DISTANCE:
    269                                        DisplayInfo.Now_View = DISP_DRIVER_VIEW;
   \                     ??KeyProcess_27:
   \   0000023C   DFF8D00A           LDR.W    R0,??KeyProcess_0+0x8
   \   00000240   0621               MOVS     R1,#+6
   \   00000242   4171               STRB     R1,[R0, #+5]
    270                                        break;
   \   00000244   2BE0               B.N      ??KeyProcess_26
    271                                   case DISP_DRIVER_VIEW:
    272                                        DisplayInfo.Now_View = DISP_MEMS_VIEW;
   \                     ??KeyProcess_30:
   \   00000246   DFF8C80A           LDR.W    R0,??KeyProcess_0+0x8
   \   0000024A   0721               MOVS     R1,#+7
   \   0000024C   4171               STRB     R1,[R0, #+5]
    273                                        break;     
   \   0000024E   26E0               B.N      ??KeyProcess_26
    274                                   case DISP_MEMS_VIEW:
    275                                        DisplayInfo.Now_View = DISP_IO_VIEW;
   \                     ??KeyProcess_29:
   \   00000250   DFF8BC0A           LDR.W    R0,??KeyProcess_0+0x8
   \   00000254   0821               MOVS     R1,#+8
   \   00000256   4171               STRB     R1,[R0, #+5]
    276                                        break;				    
   \   00000258   21E0               B.N      ??KeyProcess_26
    277                                   case DISP_IO_VIEW:
    278                                        DisplayInfo.Now_View = DISP_INPUT_VIEW;                           
   \                     ??KeyProcess_32:
   \   0000025A   DFF8B40A           LDR.W    R0,??KeyProcess_0+0x8
   \   0000025E   0921               MOVS     R1,#+9
   \   00000260   4171               STRB     R1,[R0, #+5]
    279                                        break;  
   \   00000262   1CE0               B.N      ??KeyProcess_26
    280                                   case DISP_INPUT_VIEW:
    281                                        DisplayInfo.Now_View = DISP_STARTMOTOR_VIEW;                                                
   \                     ??KeyProcess_31:
   \   00000264   DFF8A80A           LDR.W    R0,??KeyProcess_0+0x8
   \   00000268   0A21               MOVS     R1,#+10
   \   0000026A   4171               STRB     R1,[R0, #+5]
    282                                        break;
   \   0000026C   17E0               B.N      ??KeyProcess_26
    283                                   case DISP_STARTMOTOR_VIEW:         
    284                                        DisplayInfo.Now_View = DISP_GPS_VIEW; 
   \                     ??KeyProcess_34:
   \   0000026E   DFF8A00A           LDR.W    R0,??KeyProcess_0+0x8
   \   00000272   0B21               MOVS     R1,#+11
   \   00000274   4171               STRB     R1,[R0, #+5]
    285                                        break;
   \   00000276   12E0               B.N      ??KeyProcess_26
    286                                   case DISP_GPS_VIEW:         
    287                                        DisplayInfo.Now_View = DISP_VERSION1; 
   \                     ??KeyProcess_33:
   \   00000278   DFF8940A           LDR.W    R0,??KeyProcess_0+0x8
   \   0000027C   0C21               MOVS     R1,#+12
   \   0000027E   4171               STRB     R1,[R0, #+5]
    288                                        break;
   \   00000280   0DE0               B.N      ??KeyProcess_26
    289                                   case DISP_VERSION1:
    290                                        DisplayInfo.Now_View = DISP_VERSION2; 
   \                     ??KeyProcess_36:
   \   00000282   DFF88C0A           LDR.W    R0,??KeyProcess_0+0x8
   \   00000286   0D21               MOVS     R1,#+13
   \   00000288   4171               STRB     R1,[R0, #+5]
    291                                        break;
   \   0000028A   08E0               B.N      ??KeyProcess_26
    292                                   case DISP_VERSION2:
    293                                        DisplayInfo.Now_View = DISP_VERSION3; 
   \                     ??KeyProcess_35:
   \   0000028C   DFF8800A           LDR.W    R0,??KeyProcess_0+0x8
   \   00000290   0E21               MOVS     R1,#+14
   \   00000292   4171               STRB     R1,[R0, #+5]
    294                                        break;
   \   00000294   03E0               B.N      ??KeyProcess_26
    295                                   case DISP_VERSION3:
    296                                        DisplayInfo.Now_View = DISP_IDLE; 
   \                     ??KeyProcess_37:
   \   00000296   DFF8780A           LDR.W    R0,??KeyProcess_0+0x8
   \   0000029A   0321               MOVS     R1,#+3
   \   0000029C   4171               STRB     R1,[R0, #+5]
    297                                        break;                    
    298                                   }
    299                                   GLcd_Clear();
   \                     ??KeyProcess_26:
   \   0000029E   ........           BL       GLcd_Clear
   \   000002A2   98E3               B.N      ??KeyProcess_24
    300                              }
    301                         }
    302                         else if( DisplayInfo.Mode == DISPMODE_MENU )
   \                     ??KeyProcess_20:
   \   000002A4   DFF8680A           LDR.W    R0,??KeyProcess_0+0x8
   \   000002A8   8079               LDRB     R0,[R0, #+6]
   \   000002AA   0228               CMP      R0,#+2
   \   000002AC   40F09383           BNE.W    ??KeyProcess_24
    303                         {
    304                              //GLcd_Clear();                                                      
    305                              switch(DisplayInfo.Now_View)
   \   000002B0   DFF85C0A           LDR.W    R0,??KeyProcess_0+0x8
   \   000002B4   4079               LDRB     R0,[R0, #+5]
   \   000002B6   1128               CMP      R0,#+17
   \   000002B8   59D0               BEQ.N    ??KeyProcess_38
   \   000002BA   1228               CMP      R0,#+18
   \   000002BC   5CD0               BEQ.N    ??KeyProcess_39
   \   000002BE   1328               CMP      R0,#+19
   \   000002C0   5FD0               BEQ.N    ??KeyProcess_40
   \   000002C2   1428               CMP      R0,#+20
   \   000002C4   62D0               BEQ.N    ??KeyProcess_41
   \   000002C6   1528               CMP      R0,#+21
   \   000002C8   65D0               BEQ.N    ??KeyProcess_42
   \   000002CA   1628               CMP      R0,#+22
   \   000002CC   68D0               BEQ.N    ??KeyProcess_43
   \   000002CE   1728               CMP      R0,#+23
   \   000002D0   6BD0               BEQ.N    ??KeyProcess_44
   \   000002D2   1A28               CMP      R0,#+26
   \   000002D4   6ED0               BEQ.N    ??KeyProcess_45
   \   000002D6   1B28               CMP      R0,#+27
   \   000002D8   00F09C80           BEQ.W    ??KeyProcess_46
   \   000002DC   1C28               CMP      R0,#+28
   \   000002DE   00F0B580           BEQ.W    ??KeyProcess_47
   \   000002E2   1D28               CMP      R0,#+29
   \   000002E4   00F0BC80           BEQ.W    ??KeyProcess_48
   \   000002E8   1E28               CMP      R0,#+30
   \   000002EA   00F0C380           BEQ.W    ??KeyProcess_49
   \   000002EE   2028               CMP      R0,#+32
   \   000002F0   00F0D280           BEQ.W    ??KeyProcess_50
   \   000002F4   2128               CMP      R0,#+33
   \   000002F6   00F0D080           BEQ.W    ??KeyProcess_51
   \   000002FA   2228               CMP      R0,#+34
   \   000002FC   00F0E080           BEQ.W    ??KeyProcess_52
   \   00000300   2328               CMP      R0,#+35
   \   00000302   00F02381           BEQ.W    ??KeyProcess_53
   \   00000306   2428               CMP      R0,#+36
   \   00000308   00F04181           BEQ.W    ??KeyProcess_54
   \   0000030C   2528               CMP      R0,#+37
   \   0000030E   00F06B81           BEQ.W    ??KeyProcess_55
   \   00000312   2628               CMP      R0,#+38
   \   00000314   00F09581           BEQ.W    ??KeyProcess_56
   \   00000318   2728               CMP      R0,#+39
   \   0000031A   00F0B181           BEQ.W    ??KeyProcess_57
   \   0000031E   2828               CMP      R0,#+40
   \   00000320   00F0CD81           BEQ.W    ??KeyProcess_58
   \   00000324   2928               CMP      R0,#+41
   \   00000326   00F0EB81           BEQ.W    ??KeyProcess_59
   \   0000032A   2A28               CMP      R0,#+42
   \   0000032C   00F00982           BEQ.W    ??KeyProcess_60
   \   00000330   2B28               CMP      R0,#+43
   \   00000332   00F02582           BEQ.W    ??KeyProcess_61
   \   00000336   2C28               CMP      R0,#+44
   \   00000338   00F04182           BEQ.W    ??KeyProcess_62
   \   0000033C   2D28               CMP      R0,#+45
   \   0000033E   00F05D82           BEQ.W    ??KeyProcess_63
   \   00000342   2E28               CMP      R0,#+46
   \   00000344   00F07B82           BEQ.W    ??KeyProcess_64
   \   00000348   2F28               CMP      R0,#+47
   \   0000034A   00F08282           BEQ.W    ??KeyProcess_65
   \   0000034E   3028               CMP      R0,#+48
   \   00000350   00F08082           BEQ.W    ??KeyProcess_66
   \   00000354   3128               CMP      R0,#+49
   \   00000356   00F0B382           BEQ.W    ??KeyProcess_67
   \   0000035A   3228               CMP      R0,#+50
   \   0000035C   00F0B582           BEQ.W    ??KeyProcess_68
   \   00000360   3328               CMP      R0,#+51
   \   00000362   00F0D782           BEQ.W    ??KeyProcess_69
   \   00000366   3428               CMP      R0,#+52
   \   00000368   00F00183           BEQ.W    ??KeyProcess_70
   \   0000036C   23E3               B.N      ??KeyProcess_71
    306                              {
    307                              case DISP_MENU1:
    308                                   {                          
    309                                        DisplayInfo.Now_View = DISP_MENU2;
   \                     ??KeyProcess_38:
   \   0000036E   DFF8A009           LDR.W    R0,??KeyProcess_0+0x8
   \   00000372   1221               MOVS     R1,#+18
   \   00000374   4171               STRB     R1,[R0, #+5]
    310                                   }break;
   \   00000376   1EE3               B.N      ??KeyProcess_71
    311                              case DISP_MENU2:       // 운전자 변경
    312                                   {                                          
    313                                        DisplayInfo.Now_View = DISP_MENU3;
   \                     ??KeyProcess_39:
   \   00000378   DFF89409           LDR.W    R0,??KeyProcess_0+0x8
   \   0000037C   1321               MOVS     R1,#+19
   \   0000037E   4171               STRB     R1,[R0, #+5]
    314                                   }break;
   \   00000380   19E3               B.N      ??KeyProcess_71
    315                                   
    316                              case DISP_MENU3:     // 차량번호 확인
    317                                   {
    318                                        DisplayInfo.Now_View = DISP_MENU4;
   \                     ??KeyProcess_40:
   \   00000382   DFF88C09           LDR.W    R0,??KeyProcess_0+0x8
   \   00000386   1421               MOVS     R1,#+20
   \   00000388   4171               STRB     R1,[R0, #+5]
    319                                   }break;
   \   0000038A   14E3               B.N      ??KeyProcess_71
    320                              case DISP_MENU4:       // 환경설정
    321                                   {
    322                                        DisplayInfo.Now_View = DISP_MENU5;
   \                     ??KeyProcess_41:
   \   0000038C   DFF88009           LDR.W    R0,??KeyProcess_0+0x8
   \   00000390   1521               MOVS     R1,#+21
   \   00000392   4171               STRB     R1,[R0, #+5]
    323                                   }break;                            
   \   00000394   0FE3               B.N      ??KeyProcess_71
    324                              case DISP_MENU5:       // 환경설정
    325                                   {
    326                                        DisplayInfo.Now_View = DISP_MENU6;
   \                     ??KeyProcess_42:
   \   00000396   DFF87809           LDR.W    R0,??KeyProcess_0+0x8
   \   0000039A   1621               MOVS     R1,#+22
   \   0000039C   4171               STRB     R1,[R0, #+5]
    327                                   }break;         
   \   0000039E   0AE3               B.N      ??KeyProcess_71
    328                              case DISP_MENU6:       // 환경설정
    329                                   {
    330                                        DisplayInfo.Now_View = DISP_MENU7;
   \                     ??KeyProcess_43:
   \   000003A0   DFF86C09           LDR.W    R0,??KeyProcess_0+0x8
   \   000003A4   1721               MOVS     R1,#+23
   \   000003A6   4171               STRB     R1,[R0, #+5]
    331                                   }break;    
   \   000003A8   05E3               B.N      ??KeyProcess_71
    332                              case DISP_MENU7:       // 환경설정
    333                                   {
    334          
    335                                        DisplayInfo.Now_View = DISP_MENU1;
   \                     ??KeyProcess_44:
   \   000003AA   DFF86409           LDR.W    R0,??KeyProcess_0+0x8
   \   000003AE   1121               MOVS     R1,#+17
   \   000003B0   4171               STRB     R1,[R0, #+5]
    336                                   }break;                             
   \   000003B2   00E3               B.N      ??KeyProcess_71
    337          
    338                                   
    339                              case DISP_MENU1_1:     // 선택전 백업
    340                                   {                         
    341                                        if(Input_Mode == 0)
   \                     ??KeyProcess_45:
   \   000003B4   DFF85C09           LDR.W    R0,??KeyProcess_0+0xC
   \   000003B8   0078               LDRB     R0,[R0, #+0]
   \   000003BA   0028               CMP      R0,#+0
   \   000003BC   04D1               BNE.N    ??KeyProcess_72
    342                                             DisplayInfo.Now_View = DISP_MENU1_2;
   \   000003BE   DFF85009           LDR.W    R0,??KeyProcess_0+0x8
   \   000003C2   1B21               MOVS     R1,#+27
   \   000003C4   4171               STRB     R1,[R0, #+5]
   \   000003C6   24E0               B.N      ??KeyProcess_73
    343                                        else
    344                                        {
    345                                             if( VIEW_Header.Start_Index == NAND_Header_Index.Header_Count)
   \                     ??KeyProcess_72:
   \   000003C8   DFF8CC0C           LDR.W    R0,??KeyProcess_74
   \   000003CC   0068               LDR      R0,[R0, #+0]
   \   000003CE   DFF8CC1C           LDR.W    R1,??KeyProcess_74+0x4
   \   000003D2   0988               LDRH     R1,[R1, #+0]
   \   000003D4   8842               CMP      R0,R1
   \   000003D6   04D1               BNE.N    ??KeyProcess_75
    346                                                  VIEW_Header.Start_Index = 0;
   \   000003D8   DFF8BC0C           LDR.W    R0,??KeyProcess_74
   \   000003DC   0021               MOVS     R1,#+0
   \   000003DE   0160               STR      R1,[R0, #+0]
   \   000003E0   06E0               B.N      ??KeyProcess_76
    347                                             else
    348                                                  VIEW_Header.Start_Index++;
   \                     ??KeyProcess_75:
   \   000003E2   DFF8B40C           LDR.W    R0,??KeyProcess_74
   \   000003E6   0068               LDR      R0,[R0, #+0]
   \   000003E8   401C               ADDS     R0,R0,#+1
   \   000003EA   DFF8AC1C           LDR.W    R1,??KeyProcess_74
   \   000003EE   0860               STR      R0,[R1, #+0]
    349                                             VIEW_Header.Header = Read_Header_Information(VIEW_Header.Start_Index);                                      
   \                     ??KeyProcess_76:
   \   000003F0   DFF8A40C           LDR.W    R0,??KeyProcess_74
   \   000003F4   0168               LDR      R1,[R0, #+0]
   \   000003F6   89B2               UXTH     R1,R1            ;; ZeroExt  R1,R1,#+16,#+16
   \   000003F8   01A8               ADD      R0,SP,#+4
   \   000003FA   ........           BL       Read_Header_Information
   \   000003FE   0020               MOVS     R0,#+0
   \                     ??KeyProcess_77:
   \   00000400   DFF8941C           LDR.W    R1,??KeyProcess_74
   \   00000404   4118               ADDS     R1,R0,R1
   \   00000406   01AA               ADD      R2,SP,#+4
   \   00000408   825C               LDRB     R2,[R0, R2]
   \   0000040A   0A72               STRB     R2,[R1, #+8]
   \   0000040C   401C               ADDS     R0,R0,#+1
   \   0000040E   1028               CMP      R0,#+16
   \   00000410   F6DB               BLT.N    ??KeyProcess_77
    350                                        }
    351                                   }break;
   \                     ??KeyProcess_73:
   \   00000412   D0E2               B.N      ??KeyProcess_71
    352                              case DISP_MENU1_2:     //  지정기간 백업
    353                                   {                           
    354                                        if(Input_Mode == 0)
   \                     ??KeyProcess_46:
   \   00000414   DFF8FC08           LDR.W    R0,??KeyProcess_0+0xC
   \   00000418   0078               LDRB     R0,[R0, #+0]
   \   0000041A   0028               CMP      R0,#+0
   \   0000041C   04D1               BNE.N    ??KeyProcess_78
    355                                        {
    356                                             DisplayInfo.Now_View = DISP_MENU1_3;  
   \   0000041E   DFF8F008           LDR.W    R0,??KeyProcess_0+0x8
   \   00000422   1C21               MOVS     R1,#+28
   \   00000424   4171               STRB     R1,[R0, #+5]
   \   00000426   10E0               B.N      ??KeyProcess_79
    357                                             
    358                                        //     GLcd_Clear();
    359                                        }
    360                                        else
    361                                        {
    362                                             if( Input_Index_1 == 4)
   \                     ??KeyProcess_78:
   \   00000428   DFF8BC0C           LDR.W    R0,??KeyProcess_80
   \   0000042C   0078               LDRB     R0,[R0, #+0]
   \   0000042E   0428               CMP      R0,#+4
   \   00000430   04D1               BNE.N    ??KeyProcess_81
    363                                                  Input_Index_1 = 0;
   \   00000432   DFF8B40C           LDR.W    R0,??KeyProcess_80
   \   00000436   0021               MOVS     R1,#+0
   \   00000438   0170               STRB     R1,[R0, #+0]
   \   0000043A   06E0               B.N      ??KeyProcess_79
    364                                             else
    365                                                  Input_Index_1++;
   \                     ??KeyProcess_81:
   \   0000043C   DFF8A80C           LDR.W    R0,??KeyProcess_80
   \   00000440   0078               LDRB     R0,[R0, #+0]
   \   00000442   401C               ADDS     R0,R0,#+1
   \   00000444   DFF8A01C           LDR.W    R1,??KeyProcess_80
   \   00000448   0870               STRB     R0,[R1, #+0]
    366                                        }                                 
    367                                   }break;
   \                     ??KeyProcess_79:
   \   0000044A   B4E2               B.N      ??KeyProcess_71
    368                              case DISP_MENU1_3:     //  전체 백업
    369                                   {         
    370                                        if(Input_Mode == 0)
   \                     ??KeyProcess_47:
   \   0000044C   DFF8C408           LDR.W    R0,??KeyProcess_0+0xC
   \   00000450   0078               LDRB     R0,[R0, #+0]
   \   00000452   0028               CMP      R0,#+0
   \   00000454   03D1               BNE.N    ??KeyProcess_82
    371                                        {                                   
    372                                             DisplayInfo.Now_View = DISP_MENU1_4;  
   \   00000456   DFF8B808           LDR.W    R0,??KeyProcess_0+0x8
   \   0000045A   1D21               MOVS     R1,#+29
   \   0000045C   4171               STRB     R1,[R0, #+5]
    373                                        }
    374          //                              GLcd_Clear();
    375                                                                       
    376                                   }break;                            
   \                     ??KeyProcess_82:
   \   0000045E   AAE2               B.N      ??KeyProcess_71
    377                              case DISP_MENU1_4:     //  이벤트 백업
    378                                   {    
    379                                        if(Input_Mode == 0)
   \                     ??KeyProcess_48:
   \   00000460   DFF8B008           LDR.W    R0,??KeyProcess_0+0xC
   \   00000464   0078               LDRB     R0,[R0, #+0]
   \   00000466   0028               CMP      R0,#+0
   \   00000468   03D1               BNE.N    ??KeyProcess_83
    380                                        {
    381                                             DisplayInfo.Now_View = DISP_MENU1_1;  
   \   0000046A   DFF8A408           LDR.W    R0,??KeyProcess_0+0x8
   \   0000046E   1A21               MOVS     R1,#+26
   \   00000470   4171               STRB     R1,[R0, #+5]
    382                                        }
    383          //                              GLcd_Clear();
    384                                                                       
    385                                   }break;                              
   \                     ??KeyProcess_83:
   \   00000472   A0E2               B.N      ??KeyProcess_71
    386                              case DISP_MENU2_1:     // 운전자 선택
    387                                   {
    388                                        if( Info.Driver_Index == 4 )
   \                     ??KeyProcess_49:
   \   00000474   DFF8A008           LDR.W    R0,??KeyProcess_0+0x10
   \   00000478   0078               LDRB     R0,[R0, #+0]
   \   0000047A   0428               CMP      R0,#+4
   \   0000047C   04D1               BNE.N    ??KeyProcess_84
    389                                             Info.Driver_Index = 0;
   \   0000047E   DFF89808           LDR.W    R0,??KeyProcess_0+0x10
   \   00000482   0021               MOVS     R1,#+0
   \   00000484   0170               STRB     R1,[R0, #+0]
   \   00000486   06E0               B.N      ??KeyProcess_85
    390                                        else
    391                                             Info.Driver_Index ++;
   \                     ??KeyProcess_84:
   \   00000488   DFF88C08           LDR.W    R0,??KeyProcess_0+0x10
   \   0000048C   0078               LDRB     R0,[R0, #+0]
   \   0000048E   401C               ADDS     R0,R0,#+1
   \   00000490   DFF88418           LDR.W    R1,??KeyProcess_0+0x10
   \   00000494   0870               STRB     R0,[R1, #+0]
    392                                   }break;
   \                     ??KeyProcess_85:
   \   00000496   8EE2               B.N      ??KeyProcess_71
    393                                
    394                              case DISP_MENU3_1:     // 차량번호 확인
    395                                   {
    396                                   }break;                            
   \                     ??KeyProcess_50:
   \   00000498   8DE2               B.N      ??KeyProcess_71
    397          
    398                              case DISP_MENU4_0:     // 암호코드 입력
    399                                   {
    400                                   //     GLcd_Clear();    
    401                                        
    402                                        if(Pass_Index < 4 )
   \                     ??KeyProcess_51:
   \   0000049A   DFF8F00C           LDR.W    R0,??KeyProcess_86
   \   0000049E   0078               LDRB     R0,[R0, #+0]
   \   000004A0   0428               CMP      R0,#+4
   \   000004A2   0CD2               BCS.N    ??KeyProcess_87
    403                                             Password[Pass_Index++] = KeyData;
   \   000004A4   DFF8E40C           LDR.W    R0,??KeyProcess_86
   \   000004A8   0078               LDRB     R0,[R0, #+0]
   \   000004AA   DFF8E41C           LDR.W    R1,??KeyProcess_86+0x4
   \   000004AE   4454               STRB     R4,[R0, R1]
   \   000004B0   DFF8D80C           LDR.W    R0,??KeyProcess_86
   \   000004B4   0078               LDRB     R0,[R0, #+0]
   \   000004B6   401C               ADDS     R0,R0,#+1
   \   000004B8   DFF8D01C           LDR.W    R1,??KeyProcess_86
   \   000004BC   0870               STRB     R0,[R1, #+0]
    404                                   }break;   
   \                     ??KeyProcess_87:
   \   000004BE   7AE2               B.N      ??KeyProcess_71
    405                              case DISP_MENU4_1:     // 운전자 코드
    406                                   {                                
    407                                        if( Input_Mode == 0 )
   \                     ??KeyProcess_52:
   \   000004C0   DFF85008           LDR.W    R0,??KeyProcess_0+0xC
   \   000004C4   0078               LDRB     R0,[R0, #+0]
   \   000004C6   0028               CMP      R0,#+0
   \   000004C8   06D1               BNE.N    ??KeyProcess_88
    408                                        {
    409                                             GLcd_Clear();    
   \   000004CA   ........           BL       GLcd_Clear
    410                                             
    411                                             DisplayInfo.Now_View = DISP_MENU4_2;
   \   000004CE   DFF84008           LDR.W    R0,??KeyProcess_0+0x8
   \   000004D2   2321               MOVS     R1,#+35
   \   000004D4   4171               STRB     R1,[R0, #+5]
   \   000004D6   38E0               B.N      ??KeyProcess_89
    412                                        }
    413                                        else if(Input_Mode == 1)
   \                     ??KeyProcess_88:
   \   000004D8   DFF83808           LDR.W    R0,??KeyProcess_0+0xC
   \   000004DC   0078               LDRB     R0,[R0, #+0]
   \   000004DE   0128               CMP      R0,#+1
   \   000004E0   11D1               BNE.N    ??KeyProcess_90
    414                                        {
    415                                             if(Input_Index_1 == 4)
   \   000004E2   DFF8040C           LDR.W    R0,??KeyProcess_80
   \   000004E6   0078               LDRB     R0,[R0, #+0]
   \   000004E8   0428               CMP      R0,#+4
   \   000004EA   04D1               BNE.N    ??KeyProcess_91
    416                                                  Input_Index_1 = 0;
   \   000004EC   DFF8F80B           LDR.W    R0,??KeyProcess_80
   \   000004F0   0021               MOVS     R1,#+0
   \   000004F2   0170               STRB     R1,[R0, #+0]
   \   000004F4   29E0               B.N      ??KeyProcess_89
    417                                             else
    418                                                  Input_Index_1++;
   \                     ??KeyProcess_91:
   \   000004F6   DFF8F00B           LDR.W    R0,??KeyProcess_80
   \   000004FA   0078               LDRB     R0,[R0, #+0]
   \   000004FC   401C               ADDS     R0,R0,#+1
   \   000004FE   DFF8E81B           LDR.W    R1,??KeyProcess_80
   \   00000502   0870               STRB     R0,[R1, #+0]
   \   00000504   21E0               B.N      ??KeyProcess_89
    419                                        }                                 
    420                                        else if(Input_Mode == 2)
   \                     ??KeyProcess_90:
   \   00000506   DFF80C08           LDR.W    R0,??KeyProcess_0+0xC
   \   0000050A   0078               LDRB     R0,[R0, #+0]
   \   0000050C   0228               CMP      R0,#+2
   \   0000050E   1CD1               BNE.N    ??KeyProcess_89
    421                                        {
    422                                             if(Input_Word[Input_Index_2] == '9')
   \   00000510   DFF8EC0C           LDR.W    R0,??KeyProcess_92
   \   00000514   0078               LDRB     R0,[R0, #+0]
   \   00000516   DFF8EC1C           LDR.W    R1,??KeyProcess_92+0x4
   \   0000051A   405C               LDRB     R0,[R0, R1]
   \   0000051C   3928               CMP      R0,#+57
   \   0000051E   07D1               BNE.N    ??KeyProcess_93
    423                                                  Input_Word[Input_Index_2] = '0';
   \   00000520   DFF8DC0C           LDR.W    R0,??KeyProcess_92
   \   00000524   0078               LDRB     R0,[R0, #+0]
   \   00000526   DFF8DC1C           LDR.W    R1,??KeyProcess_92+0x4
   \   0000052A   3022               MOVS     R2,#+48
   \   0000052C   4254               STRB     R2,[R0, R1]
   \   0000052E   0CE0               B.N      ??KeyProcess_89
    424                                             else
    425                                                  Input_Word[Input_Index_2] ++;                                           
   \                     ??KeyProcess_93:
   \   00000530   DFF8CC0C           LDR.W    R0,??KeyProcess_92
   \   00000534   0078               LDRB     R0,[R0, #+0]
   \   00000536   DFF8CC1C           LDR.W    R1,??KeyProcess_92+0x4
   \   0000053A   405C               LDRB     R0,[R0, R1]
   \   0000053C   401C               ADDS     R0,R0,#+1
   \   0000053E   DFF8C01C           LDR.W    R1,??KeyProcess_92
   \   00000542   0978               LDRB     R1,[R1, #+0]
   \   00000544   DFF8BC2C           LDR.W    R2,??KeyProcess_92+0x4
   \   00000548   8854               STRB     R0,[R1, R2]
    426                                        }                                 
    427                                   }break;
   \                     ??KeyProcess_89:
   \   0000054A   34E2               B.N      ??KeyProcess_71
    428                              case DISP_MENU4_2:     // 차량 선택
    429                                   {
    430                                        if( Input_Mode == 0 )
   \                     ??KeyProcess_53:
   \   0000054C   DFF8C407           LDR.W    R0,??KeyProcess_0+0xC
   \   00000550   0078               LDRB     R0,[R0, #+0]
   \   00000552   0028               CMP      R0,#+0
   \   00000554   04D1               BNE.N    ??KeyProcess_94
    431                                             DisplayInfo.Now_View = DISP_MENU4_3;
   \   00000556   DFF8B807           LDR.W    R0,??KeyProcess_0+0x8
   \   0000055A   2421               MOVS     R1,#+36
   \   0000055C   4171               STRB     R1,[R0, #+5]
   \   0000055E   15E0               B.N      ??KeyProcess_95
    432                                        else if(Input_Mode == 1)
   \                     ??KeyProcess_94:
   \   00000560   DFF8B007           LDR.W    R0,??KeyProcess_0+0xC
   \   00000564   0078               LDRB     R0,[R0, #+0]
   \   00000566   0128               CMP      R0,#+1
   \   00000568   10D1               BNE.N    ??KeyProcess_95
    433                                        {
    434                                             if(SFLASH_Memory.Car_Maker == 14)
   \   0000056A   DFF8CC07           LDR.W    R0,??KeyProcess_0+0x30
   \   0000056E   0078               LDRB     R0,[R0, #+0]
   \   00000570   0E28               CMP      R0,#+14
   \   00000572   04D1               BNE.N    ??KeyProcess_96
    435                                                  SFLASH_Memory.Car_Maker = 1;
   \   00000574   DFF8C007           LDR.W    R0,??KeyProcess_0+0x30
   \   00000578   0121               MOVS     R1,#+1
   \   0000057A   0170               STRB     R1,[R0, #+0]
   \   0000057C   06E0               B.N      ??KeyProcess_95
    436                                             else
    437                                                  SFLASH_Memory.Car_Maker++;
   \                     ??KeyProcess_96:
   \   0000057E   DFF8B807           LDR.W    R0,??KeyProcess_0+0x30
   \   00000582   0078               LDRB     R0,[R0, #+0]
   \   00000584   401C               ADDS     R0,R0,#+1
   \   00000586   DFF8B017           LDR.W    R1,??KeyProcess_0+0x30
   \   0000058A   0870               STRB     R0,[R1, #+0]
    438                                        }
    439                                   }break;
   \                     ??KeyProcess_95:
   \   0000058C   13E2               B.N      ??KeyProcess_71
    440                              case DISP_MENU4_3:     // 속도센서 상수
    441                                   {
    442                                        if( Input_Mode == 0 )
   \                     ??KeyProcess_54:
   \   0000058E   DFF88407           LDR.W    R0,??KeyProcess_0+0xC
   \   00000592   0078               LDRB     R0,[R0, #+0]
   \   00000594   0028               CMP      R0,#+0
   \   00000596   04D1               BNE.N    ??KeyProcess_97
    443                                        {                                 
    444                                             DisplayInfo.Now_View = DISP_MENU4_4;
   \   00000598   DFF87407           LDR.W    R0,??KeyProcess_0+0x8
   \   0000059C   2521               MOVS     R1,#+37
   \   0000059E   4171               STRB     R1,[R0, #+5]
   \   000005A0   21E0               B.N      ??KeyProcess_98
    445                                        }
    446                                        else if(Input_Mode == 1)
   \                     ??KeyProcess_97:
   \   000005A2   DFF87007           LDR.W    R0,??KeyProcess_0+0xC
   \   000005A6   0078               LDRB     R0,[R0, #+0]
   \   000005A8   0128               CMP      R0,#+1
   \   000005AA   1CD1               BNE.N    ??KeyProcess_98
    447                                        {
    448                                             if(Input_Word[Input_Index_2] == '9')
   \   000005AC   DFF8500C           LDR.W    R0,??KeyProcess_92
   \   000005B0   0078               LDRB     R0,[R0, #+0]
   \   000005B2   DFF8501C           LDR.W    R1,??KeyProcess_92+0x4
   \   000005B6   405C               LDRB     R0,[R0, R1]
   \   000005B8   3928               CMP      R0,#+57
   \   000005BA   07D1               BNE.N    ??KeyProcess_99
    449                                                  Input_Word[Input_Index_2] = '0';
   \   000005BC   DFF8400C           LDR.W    R0,??KeyProcess_92
   \   000005C0   0078               LDRB     R0,[R0, #+0]
   \   000005C2   DFF8401C           LDR.W    R1,??KeyProcess_92+0x4
   \   000005C6   3022               MOVS     R2,#+48
   \   000005C8   4254               STRB     R2,[R0, R1]
   \   000005CA   0CE0               B.N      ??KeyProcess_98
    450                                             else
    451                                                  Input_Word[Input_Index_2] ++;                                           
   \                     ??KeyProcess_99:
   \   000005CC   DFF8300C           LDR.W    R0,??KeyProcess_92
   \   000005D0   0078               LDRB     R0,[R0, #+0]
   \   000005D2   DFF8301C           LDR.W    R1,??KeyProcess_92+0x4
   \   000005D6   405C               LDRB     R0,[R0, R1]
   \   000005D8   401C               ADDS     R0,R0,#+1
   \   000005DA   DFF8241C           LDR.W    R1,??KeyProcess_92
   \   000005DE   0978               LDRB     R1,[R1, #+0]
   \   000005E0   DFF8202C           LDR.W    R2,??KeyProcess_92+0x4
   \   000005E4   8854               STRB     R0,[R1, R2]
    452                                        }                                                                  
    453                                   }break;
   \                     ??KeyProcess_98:
   \   000005E6   E6E1               B.N      ??KeyProcess_71
    454                              case DISP_MENU4_4:     // RPM 센서 상수
    455                                   {
    456                                        if( Input_Mode == 0 )
   \                     ??KeyProcess_55:
   \   000005E8   DFF82807           LDR.W    R0,??KeyProcess_0+0xC
   \   000005EC   0078               LDRB     R0,[R0, #+0]
   \   000005EE   0028               CMP      R0,#+0
   \   000005F0   04D1               BNE.N    ??KeyProcess_100
    457                                        {
    458                                             DisplayInfo.Now_View = DISP_MENU4_5;
   \   000005F2   DFF81C07           LDR.W    R0,??KeyProcess_0+0x8
   \   000005F6   2621               MOVS     R1,#+38
   \   000005F8   4171               STRB     R1,[R0, #+5]
   \   000005FA   21E0               B.N      ??KeyProcess_101
    459                                        }
    460                                        else if(Input_Mode == 1)
   \                     ??KeyProcess_100:
   \   000005FC   DFF81407           LDR.W    R0,??KeyProcess_0+0xC
   \   00000600   0078               LDRB     R0,[R0, #+0]
   \   00000602   0128               CMP      R0,#+1
   \   00000604   1CD1               BNE.N    ??KeyProcess_101
    461                                        {
    462                                             if(Input_Word[Input_Index_2] == '9')
   \   00000606   DFF8F80B           LDR.W    R0,??KeyProcess_92
   \   0000060A   0078               LDRB     R0,[R0, #+0]
   \   0000060C   DFF8F41B           LDR.W    R1,??KeyProcess_92+0x4
   \   00000610   405C               LDRB     R0,[R0, R1]
   \   00000612   3928               CMP      R0,#+57
   \   00000614   07D1               BNE.N    ??KeyProcess_102
    463                                                  Input_Word[Input_Index_2] = '0';
   \   00000616   DFF8E80B           LDR.W    R0,??KeyProcess_92
   \   0000061A   0078               LDRB     R0,[R0, #+0]
   \   0000061C   DFF8E41B           LDR.W    R1,??KeyProcess_92+0x4
   \   00000620   3022               MOVS     R2,#+48
   \   00000622   4254               STRB     R2,[R0, R1]
   \   00000624   0CE0               B.N      ??KeyProcess_101
    464                                             else
    465                                                  Input_Word[Input_Index_2] ++;                                           
   \                     ??KeyProcess_102:
   \   00000626   DFF8D80B           LDR.W    R0,??KeyProcess_92
   \   0000062A   0078               LDRB     R0,[R0, #+0]
   \   0000062C   DFF8D41B           LDR.W    R1,??KeyProcess_92+0x4
   \   00000630   405C               LDRB     R0,[R0, R1]
   \   00000632   401C               ADDS     R0,R0,#+1
   \   00000634   DFF8C81B           LDR.W    R1,??KeyProcess_92
   \   00000638   0978               LDRB     R1,[R1, #+0]
   \   0000063A   DFF8C82B           LDR.W    R2,??KeyProcess_92+0x4
   \   0000063E   8854               STRB     R0,[R1, R2]
    466                                        }  					   
    467                                   }break;
   \                     ??KeyProcess_101:
   \   00000640   B9E1               B.N      ??KeyProcess_71
    468                              case DISP_MENU4_5:     // 속도 Reference
    469                                   {
    470                                        if( Input_Mode == 0 )
   \                     ??KeyProcess_56:
   \   00000642   DFF8D006           LDR.W    R0,??KeyProcess_0+0xC
   \   00000646   0078               LDRB     R0,[R0, #+0]
   \   00000648   0028               CMP      R0,#+0
   \   0000064A   04D1               BNE.N    ??KeyProcess_103
    471                                        { 
    472                                             DisplayInfo.Now_View = DISP_MENU4_6;					   
   \   0000064C   DFF8C006           LDR.W    R0,??KeyProcess_0+0x8
   \   00000650   2721               MOVS     R1,#+39
   \   00000652   4171               STRB     R1,[R0, #+5]
   \   00000654   13E0               B.N      ??KeyProcess_104
    473                                        }
    474                                        else if(Input_Mode == 1)
   \                     ??KeyProcess_103:
   \   00000656   DFF8BC06           LDR.W    R0,??KeyProcess_0+0xC
   \   0000065A   0078               LDRB     R0,[R0, #+0]
   \   0000065C   0128               CMP      R0,#+1
   \   0000065E   0ED1               BNE.N    ??KeyProcess_104
    475                                        {
    476                                             if(SFLASH_Memory.SPEED_Reference < MAX_REFERENCE)
   \   00000660   DFF8D406           LDR.W    R0,??KeyProcess_0+0x30
   \   00000664   B0F86C00           LDRH     R0,[R0, #+108]
   \   00000668   6428               CMP      R0,#+100
   \   0000066A   08D2               BCS.N    ??KeyProcess_104
    477                                                  SFLASH_Memory.SPEED_Reference++;
   \   0000066C   DFF8C806           LDR.W    R0,??KeyProcess_0+0x30
   \   00000670   B0F86C00           LDRH     R0,[R0, #+108]
   \   00000674   401C               ADDS     R0,R0,#+1
   \   00000676   DFF8C016           LDR.W    R1,??KeyProcess_0+0x30
   \   0000067A   A1F86C00           STRH     R0,[R1, #+108]
    478                                        }
    479                                   }break;
   \                     ??KeyProcess_104:
   \   0000067E   9AE1               B.N      ??KeyProcess_71
    480                              case DISP_MENU4_6:     // RPM Reference
    481                                   {
    482                                        if( Input_Mode == 0 )
   \                     ??KeyProcess_57:
   \   00000680   DFF89006           LDR.W    R0,??KeyProcess_0+0xC
   \   00000684   0078               LDRB     R0,[R0, #+0]
   \   00000686   0028               CMP      R0,#+0
   \   00000688   04D1               BNE.N    ??KeyProcess_105
    483                                        {   
    484                                             DisplayInfo.Now_View = DISP_MENU4_7;					   
   \   0000068A   DFF88406           LDR.W    R0,??KeyProcess_0+0x8
   \   0000068E   2821               MOVS     R1,#+40
   \   00000690   4171               STRB     R1,[R0, #+5]
   \   00000692   13E0               B.N      ??KeyProcess_106
    485                                        }                              
    486                                        else if(Input_Mode == 1)
   \                     ??KeyProcess_105:
   \   00000694   DFF87C06           LDR.W    R0,??KeyProcess_0+0xC
   \   00000698   0078               LDRB     R0,[R0, #+0]
   \   0000069A   0128               CMP      R0,#+1
   \   0000069C   0ED1               BNE.N    ??KeyProcess_106
    487                                        {
    488                                             if(SFLASH_Memory.RPM_Reference < MAX_REFERENCE)
   \   0000069E   DFF89806           LDR.W    R0,??KeyProcess_0+0x30
   \   000006A2   B0F86E00           LDRH     R0,[R0, #+110]
   \   000006A6   6428               CMP      R0,#+100
   \   000006A8   08D2               BCS.N    ??KeyProcess_106
    489                                                  SFLASH_Memory.RPM_Reference++;
   \   000006AA   DFF88C06           LDR.W    R0,??KeyProcess_0+0x30
   \   000006AE   B0F86E00           LDRH     R0,[R0, #+110]
   \   000006B2   401C               ADDS     R0,R0,#+1
   \   000006B4   DFF88016           LDR.W    R1,??KeyProcess_0+0x30
   \   000006B8   A1F86E00           STRH     R0,[R1, #+110]
    490                                        }					   
    491                                   }break;
   \                     ??KeyProcess_106:
   \   000006BC   7BE1               B.N      ??KeyProcess_71
    492                                   
    493                              case DISP_MENU4_7:     //에어압 설정
    494                                   {
    495                                        if( Input_Mode == 0 )
   \                     ??KeyProcess_58:
   \   000006BE   DFF85406           LDR.W    R0,??KeyProcess_0+0xC
   \   000006C2   0078               LDRB     R0,[R0, #+0]
   \   000006C4   0028               CMP      R0,#+0
   \   000006C6   04D1               BNE.N    ??KeyProcess_107
    496                                        {
    497                                             DisplayInfo.Now_View = DISP_MENU4_8;					   
   \   000006C8   DFF84406           LDR.W    R0,??KeyProcess_0+0x8
   \   000006CC   2921               MOVS     R1,#+41
   \   000006CE   4171               STRB     R1,[R0, #+5]
   \   000006D0   15E0               B.N      ??KeyProcess_108
    498                                        }
    499                                        else if(Input_Mode == 1)
   \                     ??KeyProcess_107:
   \   000006D2   DFF84006           LDR.W    R0,??KeyProcess_0+0xC
   \   000006D6   0078               LDRB     R0,[R0, #+0]
   \   000006D8   0128               CMP      R0,#+1
   \   000006DA   10D1               BNE.N    ??KeyProcess_108
    500                                        {
    501                                             if(SFLASH_Memory.EMS.Air_Volt < MAX_VOLT)
   \   000006DC   DFF85806           LDR.W    R0,??KeyProcess_0+0x30
   \   000006E0   B0F88F00           LDRH     R0,[R0, #+143]
   \   000006E4   42F21071           MOVW     R1,#+10000
   \   000006E8   8842               CMP      R0,R1
   \   000006EA   08D2               BCS.N    ??KeyProcess_108
    502                                                  SFLASH_Memory.EMS.Air_Volt+=100;
   \   000006EC   DFF84806           LDR.W    R0,??KeyProcess_0+0x30
   \   000006F0   B0F88F00           LDRH     R0,[R0, #+143]
   \   000006F4   6430               ADDS     R0,R0,#+100
   \   000006F6   DFF84016           LDR.W    R1,??KeyProcess_0+0x30
   \   000006FA   A1F88F00           STRH     R0,[R1, #+143]
    503                                        }								   
    504                                   }break;
   \                     ??KeyProcess_108:
   \   000006FE   5AE1               B.N      ??KeyProcess_71
    505                                   
    506                              case DISP_MENU4_8:     // 냉각수 온도
    507                                   {
    508                                        if( Input_Mode == 0 )
   \                     ??KeyProcess_59:
   \   00000700   DFF81006           LDR.W    R0,??KeyProcess_0+0xC
   \   00000704   0078               LDRB     R0,[R0, #+0]
   \   00000706   0028               CMP      R0,#+0
   \   00000708   04D1               BNE.N    ??KeyProcess_109
    509                                        {
    510                                             DisplayInfo.Now_View = DISP_MENU4_9;					   
   \   0000070A   DFF80406           LDR.W    R0,??KeyProcess_0+0x8
   \   0000070E   2A21               MOVS     R1,#+42
   \   00000710   4171               STRB     R1,[R0, #+5]
   \   00000712   15E0               B.N      ??KeyProcess_110
    511                                        }
    512                                        else if(Input_Mode == 1)
   \                     ??KeyProcess_109:
   \   00000714   DFF8FC05           LDR.W    R0,??KeyProcess_0+0xC
   \   00000718   0078               LDRB     R0,[R0, #+0]
   \   0000071A   0128               CMP      R0,#+1
   \   0000071C   10D1               BNE.N    ??KeyProcess_110
    513                                        {
    514                                             if(SFLASH_Memory.EMS.ColdWaterTemp_Volt < MAX_VOLT)
   \   0000071E   DFF81806           LDR.W    R0,??KeyProcess_0+0x30
   \   00000722   B0F88D00           LDRH     R0,[R0, #+141]
   \   00000726   42F21071           MOVW     R1,#+10000
   \   0000072A   8842               CMP      R0,R1
   \   0000072C   08D2               BCS.N    ??KeyProcess_110
    515                                                  SFLASH_Memory.EMS.ColdWaterTemp_Volt+=100;
   \   0000072E   DFF80806           LDR.W    R0,??KeyProcess_0+0x30
   \   00000732   B0F88D00           LDRH     R0,[R0, #+141]
   \   00000736   6430               ADDS     R0,R0,#+100
   \   00000738   DFF8FC15           LDR.W    R1,??KeyProcess_0+0x30
   \   0000073C   A1F88D00           STRH     R0,[R1, #+141]
    516                                        }								   
    517                                   }break;
   \                     ??KeyProcess_110:
   \   00000740   39E1               B.N      ??KeyProcess_71
    518                                   
    519                              case DISP_MENU4_9:     // 과속
    520                                   {
    521                                        if( Input_Mode == 0 )
   \                     ??KeyProcess_60:
   \   00000742   DFF8D005           LDR.W    R0,??KeyProcess_0+0xC
   \   00000746   0078               LDRB     R0,[R0, #+0]
   \   00000748   0028               CMP      R0,#+0
   \   0000074A   04D1               BNE.N    ??KeyProcess_111
    522                                        {
    523                                             DisplayInfo.Now_View = DISP_MENU4_10;					   
   \   0000074C   DFF8C005           LDR.W    R0,??KeyProcess_0+0x8
   \   00000750   2B21               MOVS     R1,#+43
   \   00000752   4171               STRB     R1,[R0, #+5]
   \   00000754   13E0               B.N      ??KeyProcess_112
    524                                        }
    525                                        else if(Input_Mode == 1)
   \                     ??KeyProcess_111:
   \   00000756   DFF8BC05           LDR.W    R0,??KeyProcess_0+0xC
   \   0000075A   0078               LDRB     R0,[R0, #+0]
   \   0000075C   0128               CMP      R0,#+1
   \   0000075E   0ED1               BNE.N    ??KeyProcess_112
    526                                        {
    527                                             if(SFLASH_Memory.FastOverSpeed < MAX_REFERENCE)
   \   00000760   DFF8D405           LDR.W    R0,??KeyProcess_0+0x30
   \   00000764   B0F89600           LDRH     R0,[R0, #+150]
   \   00000768   6428               CMP      R0,#+100
   \   0000076A   08D2               BCS.N    ??KeyProcess_112
    528                                                  SFLASH_Memory.FastOverSpeed++;
   \   0000076C   DFF8C805           LDR.W    R0,??KeyProcess_0+0x30
   \   00000770   B0F89600           LDRH     R0,[R0, #+150]
   \   00000774   401C               ADDS     R0,R0,#+1
   \   00000776   DFF8C015           LDR.W    R1,??KeyProcess_0+0x30
   \   0000077A   A1F89600           STRH     R0,[R1, #+150]
    529                                        }		
    530                                   }break;
   \                     ??KeyProcess_112:
   \   0000077E   1AE1               B.N      ??KeyProcess_71
    531                                   
    532                              case DISP_MENU4_10:     // 급정지
    533                                   {
    534                                        if( Input_Mode == 0 )
   \                     ??KeyProcess_61:
   \   00000780   DFF89005           LDR.W    R0,??KeyProcess_0+0xC
   \   00000784   0078               LDRB     R0,[R0, #+0]
   \   00000786   0028               CMP      R0,#+0
   \   00000788   04D1               BNE.N    ??KeyProcess_113
    535                                        {
    536                                             DisplayInfo.Now_View = DISP_MENU4_11;					   
   \   0000078A   DFF88405           LDR.W    R0,??KeyProcess_0+0x8
   \   0000078E   2C21               MOVS     R1,#+44
   \   00000790   4171               STRB     R1,[R0, #+5]
   \   00000792   13E0               B.N      ??KeyProcess_114
    537                                        }
    538                                        else if(Input_Mode == 1)
   \                     ??KeyProcess_113:
   \   00000794   DFF87C05           LDR.W    R0,??KeyProcess_0+0xC
   \   00000798   0078               LDRB     R0,[R0, #+0]
   \   0000079A   0128               CMP      R0,#+1
   \   0000079C   0ED1               BNE.N    ??KeyProcess_114
    539                                        {
    540                                             if(SFLASH_Memory.QuickStop < MAX_REFERENCE)
   \   0000079E   DFF89805           LDR.W    R0,??KeyProcess_0+0x30
   \   000007A2   B0F89A00           LDRH     R0,[R0, #+154]
   \   000007A6   6428               CMP      R0,#+100
   \   000007A8   08D2               BCS.N    ??KeyProcess_114
    541                                                  SFLASH_Memory.QuickStop++;
   \   000007AA   DFF88C05           LDR.W    R0,??KeyProcess_0+0x30
   \   000007AE   B0F89A00           LDRH     R0,[R0, #+154]
   \   000007B2   401C               ADDS     R0,R0,#+1
   \   000007B4   DFF88015           LDR.W    R1,??KeyProcess_0+0x30
   \   000007B8   A1F89A00           STRH     R0,[R1, #+154]
    542                                        }		
    543                                   }break;
   \                     ??KeyProcess_114:
   \   000007BC   FBE0               B.N      ??KeyProcess_71
    544                                   
    545                              case DISP_MENU4_11:     // 급가속
    546                                   {
    547                                        if( Input_Mode == 0 )
   \                     ??KeyProcess_62:
   \   000007BE   DFF85405           LDR.W    R0,??KeyProcess_0+0xC
   \   000007C2   0078               LDRB     R0,[R0, #+0]
   \   000007C4   0028               CMP      R0,#+0
   \   000007C6   04D1               BNE.N    ??KeyProcess_115
    548                                        {
    549                                             DisplayInfo.Now_View = DISP_MENU4_12;					   
   \   000007C8   DFF84405           LDR.W    R0,??KeyProcess_0+0x8
   \   000007CC   2D21               MOVS     R1,#+45
   \   000007CE   4171               STRB     R1,[R0, #+5]
   \   000007D0   13E0               B.N      ??KeyProcess_116
    550                                        }
    551                                        else if(Input_Mode == 1)
   \                     ??KeyProcess_115:
   \   000007D2   DFF84005           LDR.W    R0,??KeyProcess_0+0xC
   \   000007D6   0078               LDRB     R0,[R0, #+0]
   \   000007D8   0128               CMP      R0,#+1
   \   000007DA   0ED1               BNE.N    ??KeyProcess_116
    552                                        {
    553                                             if(SFLASH_Memory.QuickStart < MAX_REFERENCE)
   \   000007DC   DFF85805           LDR.W    R0,??KeyProcess_0+0x30
   \   000007E0   B0F89C00           LDRH     R0,[R0, #+156]
   \   000007E4   6428               CMP      R0,#+100
   \   000007E6   08D2               BCS.N    ??KeyProcess_116
    554                                                  SFLASH_Memory.QuickStart++;
   \   000007E8   DFF84C05           LDR.W    R0,??KeyProcess_0+0x30
   \   000007EC   B0F89C00           LDRH     R0,[R0, #+156]
   \   000007F0   401C               ADDS     R0,R0,#+1
   \   000007F2   DFF84415           LDR.W    R1,??KeyProcess_0+0x30
   \   000007F6   A1F89C00           STRH     R0,[R1, #+156]
    555                                        }		
    556                                   }break;
   \                     ??KeyProcess_116:
   \   000007FA   DCE0               B.N      ??KeyProcess_71
    557                              case DISP_MENU4_12:     // 과부하
    558                                   {
    559                                        if( Input_Mode == 0 )
   \                     ??KeyProcess_63:
   \   000007FC   DFF81405           LDR.W    R0,??KeyProcess_0+0xC
   \   00000800   0078               LDRB     R0,[R0, #+0]
   \   00000802   0028               CMP      R0,#+0
   \   00000804   04D1               BNE.N    ??KeyProcess_117
    560                                        {
    561                                             DisplayInfo.Now_View = DISP_MENU4_13;			
   \   00000806   DFF80805           LDR.W    R0,??KeyProcess_0+0x8
   \   0000080A   2E21               MOVS     R1,#+46
   \   0000080C   4171               STRB     R1,[R0, #+5]
   \   0000080E   15E0               B.N      ??KeyProcess_118
    562                                        }
    563                                        else if(Input_Mode == 1)
   \                     ??KeyProcess_117:
   \   00000810   DFF80005           LDR.W    R0,??KeyProcess_0+0xC
   \   00000814   0078               LDRB     R0,[R0, #+0]
   \   00000816   0128               CMP      R0,#+1
   \   00000818   10D1               BNE.N    ??KeyProcess_118
    564                                        {
    565                                             if(SFLASH_Memory.OverloadRPM < 6000)
   \   0000081A   DFF81C05           LDR.W    R0,??KeyProcess_0+0x30
   \   0000081E   B0F89E00           LDRH     R0,[R0, #+158]
   \   00000822   41F27071           MOVW     R1,#+6000
   \   00000826   8842               CMP      R0,R1
   \   00000828   08D2               BCS.N    ??KeyProcess_118
    566                                                  SFLASH_Memory.OverloadRPM+=100;
   \   0000082A   DFF80C05           LDR.W    R0,??KeyProcess_0+0x30
   \   0000082E   B0F89E00           LDRH     R0,[R0, #+158]
   \   00000832   6430               ADDS     R0,R0,#+100
   \   00000834   DFF80015           LDR.W    R1,??KeyProcess_0+0x30
   \   00000838   A1F89E00           STRH     R0,[R1, #+158]
    567                                        }						   
    568                                   }break;				    
   \                     ??KeyProcess_118:
   \   0000083C   BBE0               B.N      ??KeyProcess_71
    569                              case DISP_MENU4_13:     // 기울기
    570                                   {
    571                                        if( Input_Mode == 0 )
   \                     ??KeyProcess_64:
   \   0000083E   DFF8D404           LDR.W    R0,??KeyProcess_0+0xC
   \   00000842   0078               LDRB     R0,[R0, #+0]
   \   00000844   0028               CMP      R0,#+0
   \   00000846   03D1               BNE.N    ??KeyProcess_119
    572                                        {
    573          
    574                                             DisplayInfo.Now_View = DISP_MENU4_15;			
   \   00000848   DFF8C404           LDR.W    R0,??KeyProcess_0+0x8
   \   0000084C   3021               MOVS     R1,#+48
   \   0000084E   4171               STRB     R1,[R0, #+5]
    575                                        }
    576                                        
    577                                   }break;				    
   \                     ??KeyProcess_119:
   \   00000850   B1E0               B.N      ??KeyProcess_71
    578                                   
    579                              case DISP_MENU4_14:     // 볼륜
    580                                   {
    581          					   
    582                                   }break;
   \                     ??KeyProcess_65:
   \   00000852   B0E0               B.N      ??KeyProcess_71
    583                              case DISP_MENU4_15:     // IO Reverse 
    584                                   {
    585                                        if( Input_Mode == 0 )
   \                     ??KeyProcess_66:
   \   00000854   DFF8BC04           LDR.W    R0,??KeyProcess_0+0xC
   \   00000858   0078               LDRB     R0,[R0, #+0]
   \   0000085A   0028               CMP      R0,#+0
   \   0000085C   04D1               BNE.N    ??KeyProcess_120
    586                                        {
    587                                             DisplayInfo.Now_View = DISP_MENU4_16;			
   \   0000085E   DFF8B004           LDR.W    R0,??KeyProcess_0+0x8
   \   00000862   3121               MOVS     R1,#+49
   \   00000864   4171               STRB     R1,[R0, #+5]
   \   00000866   2AE0               B.N      ??KeyProcess_121
    588                                        }
    589                                        else if(Input_Mode == 1)
   \                     ??KeyProcess_120:
   \   00000868   DFF8A804           LDR.W    R0,??KeyProcess_0+0xC
   \   0000086C   0078               LDRB     R0,[R0, #+0]
   \   0000086E   0128               CMP      R0,#+1
   \   00000870   25D1               BNE.N    ??KeyProcess_121
    590                                        {
    591                                             if( INPUT_REVERSE_DATA & 1 << IOReverse_Count )	// 체크가 되어있으면
   \   00000872   DFF80C0A           LDR.W    R0,??KeyProcess_122
   \   00000876   0088               LDRH     R0,[R0, #+0]
   \   00000878   0121               MOVS     R1,#+1
   \   0000087A   DFF8082A           LDR.W    R2,??KeyProcess_122+0x4
   \   0000087E   92F90020           LDRSB    R2,[R2, #+0]
   \   00000882   9140               LSLS     R1,R1,R2
   \   00000884   0842               TST      R0,R1
   \   00000886   0DD0               BEQ.N    ??KeyProcess_123
    592                                                  INPUT_REVERSE_DATA &= ~( 1 << IOReverse_Count );
   \   00000888   DFF8F409           LDR.W    R0,??KeyProcess_122
   \   0000088C   0088               LDRH     R0,[R0, #+0]
   \   0000088E   0121               MOVS     R1,#+1
   \   00000890   DFF8F029           LDR.W    R2,??KeyProcess_122+0x4
   \   00000894   92F90020           LDRSB    R2,[R2, #+0]
   \   00000898   9140               LSLS     R1,R1,R2
   \   0000089A   8843               BICS     R0,R0,R1
   \   0000089C   DFF8E019           LDR.W    R1,??KeyProcess_122
   \   000008A0   0880               STRH     R0,[R1, #+0]
   \   000008A2   0CE0               B.N      ??KeyProcess_121
    593                                             else
    594                                                  INPUT_REVERSE_DATA |= ( 1 << IOReverse_Count );
   \                     ??KeyProcess_123:
   \   000008A4   DFF8D809           LDR.W    R0,??KeyProcess_122
   \   000008A8   0088               LDRH     R0,[R0, #+0]
   \   000008AA   0121               MOVS     R1,#+1
   \   000008AC   DFF8D429           LDR.W    R2,??KeyProcess_122+0x4
   \   000008B0   92F90020           LDRSB    R2,[R2, #+0]
   \   000008B4   9140               LSLS     R1,R1,R2
   \   000008B6   0843               ORRS     R0,R1,R0
   \   000008B8   DFF8C419           LDR.W    R1,??KeyProcess_122
   \   000008BC   0880               STRH     R0,[R1, #+0]
    595                                             
    596                                        }						   
    597                                   }break;			
   \                     ??KeyProcess_121:
   \   000008BE   7AE0               B.N      ??KeyProcess_71
    598                              case DISP_MENU4_16:     // GPS 차고지설정
    599                                   {
    600                                        DisplayInfo.Now_View = DISP_MENU4_17;			
   \                     ??KeyProcess_67:
   \   000008C0   DFF84C04           LDR.W    R0,??KeyProcess_0+0x8
   \   000008C4   3221               MOVS     R1,#+50
   \   000008C6   4171               STRB     R1,[R0, #+5]
    601                                   }break;	
   \   000008C8   75E0               B.N      ??KeyProcess_71
    602                              case DISP_MENU4_17:     // EMS 동작범위
    603                                   {
    604                                        if( Input_Mode == 0 )
   \                     ??KeyProcess_68:
   \   000008CA   DFF84804           LDR.W    R0,??KeyProcess_0+0xC
   \   000008CE   0078               LDRB     R0,[R0, #+0]
   \   000008D0   0028               CMP      R0,#+0
   \   000008D2   04D1               BNE.N    ??KeyProcess_124
    605                                        {
    606                                             DisplayInfo.Now_View = DISP_MENU4_18;			
   \   000008D4   DFF83804           LDR.W    R0,??KeyProcess_0+0x8
   \   000008D8   3321               MOVS     R1,#+51
   \   000008DA   4171               STRB     R1,[R0, #+5]
   \   000008DC   19E0               B.N      ??KeyProcess_125
    607                                        }
    608                                        else if(Input_Mode == 1)
   \                     ??KeyProcess_124:
   \   000008DE   DFF83404           LDR.W    R0,??KeyProcess_0+0xC
   \   000008E2   0078               LDRB     R0,[R0, #+0]
   \   000008E4   0128               CMP      R0,#+1
   \   000008E6   14D1               BNE.N    ??KeyProcess_125
    609                                        {
    610                                             if( SFLASH_Memory.GPS_EMS_Use == 2 )
   \   000008E8   DFF84C04           LDR.W    R0,??KeyProcess_0+0x30
   \   000008EC   90F88900           LDRB     R0,[R0, #+137]
   \   000008F0   0228               CMP      R0,#+2
   \   000008F2   05D1               BNE.N    ??KeyProcess_126
    611                                                  SFLASH_Memory.GPS_EMS_Use = 0;                                        
   \   000008F4   DFF84004           LDR.W    R0,??KeyProcess_0+0x30
   \   000008F8   0021               MOVS     R1,#+0
   \   000008FA   80F88910           STRB     R1,[R0, #+137]
   \   000008FE   08E0               B.N      ??KeyProcess_125
    612                                             else
    613                                                  SFLASH_Memory.GPS_EMS_Use++;                                   
   \                     ??KeyProcess_126:
   \   00000900   DFF83404           LDR.W    R0,??KeyProcess_0+0x30
   \   00000904   90F88900           LDRB     R0,[R0, #+137]
   \   00000908   401C               ADDS     R0,R0,#+1
   \   0000090A   DFF82C14           LDR.W    R1,??KeyProcess_0+0x30
   \   0000090E   81F88900           STRB     R0,[R1, #+137]
    614                                        }						   
    615                                   }break;
   \                     ??KeyProcess_125:
   \   00000912   50E0               B.N      ??KeyProcess_71
    616                              case DISP_MENU4_18:     // EMS 동작범위
    617                                   {
    618                                        if( Input_Mode == 0 )
   \                     ??KeyProcess_69:
   \   00000914   DFF8FC03           LDR.W    R0,??KeyProcess_0+0xC
   \   00000918   0078               LDRB     R0,[R0, #+0]
   \   0000091A   0028               CMP      R0,#+0
   \   0000091C   04D1               BNE.N    ??KeyProcess_127
    619                                        {
    620                                             DisplayInfo.Now_View = DISP_MENU4_19;			
   \   0000091E   DFF8F003           LDR.W    R0,??KeyProcess_0+0x8
   \   00000922   3421               MOVS     R1,#+52
   \   00000924   4171               STRB     R1,[R0, #+5]
   \   00000926   21E0               B.N      ??KeyProcess_128
    621                                        }
    622                                        else if(Input_Mode == 1)
   \                     ??KeyProcess_127:
   \   00000928   DFF8E803           LDR.W    R0,??KeyProcess_0+0xC
   \   0000092C   0078               LDRB     R0,[R0, #+0]
   \   0000092E   0128               CMP      R0,#+1
   \   00000930   1CD1               BNE.N    ??KeyProcess_128
    623                                        {
    624                                             if(Input_Word[Input_Index_2] == '9')
   \   00000932   DFF8CC08           LDR.W    R0,??KeyProcess_92
   \   00000936   0078               LDRB     R0,[R0, #+0]
   \   00000938   DFF8C818           LDR.W    R1,??KeyProcess_92+0x4
   \   0000093C   405C               LDRB     R0,[R0, R1]
   \   0000093E   3928               CMP      R0,#+57
   \   00000940   07D1               BNE.N    ??KeyProcess_129
    625                                                  Input_Word[Input_Index_2] = '0';
   \   00000942   DFF8BC08           LDR.W    R0,??KeyProcess_92
   \   00000946   0078               LDRB     R0,[R0, #+0]
   \   00000948   DFF8B818           LDR.W    R1,??KeyProcess_92+0x4
   \   0000094C   3022               MOVS     R2,#+48
   \   0000094E   4254               STRB     R2,[R0, R1]
   \   00000950   0CE0               B.N      ??KeyProcess_128
    626                                             else
    627                                                  Input_Word[Input_Index_2] ++ ;
   \                     ??KeyProcess_129:
   \   00000952   DFF8AC08           LDR.W    R0,??KeyProcess_92
   \   00000956   0078               LDRB     R0,[R0, #+0]
   \   00000958   DFF8A818           LDR.W    R1,??KeyProcess_92+0x4
   \   0000095C   405C               LDRB     R0,[R0, R1]
   \   0000095E   401C               ADDS     R0,R0,#+1
   \   00000960   DFF89C18           LDR.W    R1,??KeyProcess_92
   \   00000964   0978               LDRB     R1,[R1, #+0]
   \   00000966   DFF89C28           LDR.W    R2,??KeyProcess_92+0x4
   \   0000096A   8854               STRB     R0,[R1, R2]
    628                                        }   
    629                                   }break;	 
   \                     ??KeyProcess_128:
   \   0000096C   23E0               B.N      ??KeyProcess_71
    630                              case DISP_MENU4_19:     // EMS 동작범위
    631                                   {
    632                                        if( Input_Mode == 0 )
   \                     ??KeyProcess_70:
   \   0000096E   DFF8A403           LDR.W    R0,??KeyProcess_0+0xC
   \   00000972   0078               LDRB     R0,[R0, #+0]
   \   00000974   0028               CMP      R0,#+0
   \   00000976   04D1               BNE.N    ??KeyProcess_130
    633                                        {
    634                                             DisplayInfo.Now_View = DISP_MENU4_1;			
   \   00000978   DFF89403           LDR.W    R0,??KeyProcess_0+0x8
   \   0000097C   2221               MOVS     R1,#+34
   \   0000097E   4171               STRB     R1,[R0, #+5]
   \   00000980   19E0               B.N      ??KeyProcess_131
    635                                        }
    636                                        else if(Input_Mode == 1)
   \                     ??KeyProcess_130:
   \   00000982   DFF89003           LDR.W    R0,??KeyProcess_0+0xC
   \   00000986   0078               LDRB     R0,[R0, #+0]
   \   00000988   0128               CMP      R0,#+1
   \   0000098A   14D1               BNE.N    ??KeyProcess_131
    637                                        {
    638                                             if( SFLASH_Memory.EMS.LimitSpeed == 50 )
   \   0000098C   DFF8A803           LDR.W    R0,??KeyProcess_0+0x30
   \   00000990   90F89300           LDRB     R0,[R0, #+147]
   \   00000994   3228               CMP      R0,#+50
   \   00000996   05D1               BNE.N    ??KeyProcess_132
    639                                                  SFLASH_Memory.EMS.LimitSpeed = 0;                                        
   \   00000998   DFF89C03           LDR.W    R0,??KeyProcess_0+0x30
   \   0000099C   0021               MOVS     R1,#+0
   \   0000099E   80F89310           STRB     R1,[R0, #+147]
   \   000009A2   08E0               B.N      ??KeyProcess_131
    640                                             else
    641                                                  SFLASH_Memory.EMS.LimitSpeed ++ ;                                   
   \                     ??KeyProcess_132:
   \   000009A4   DFF89003           LDR.W    R0,??KeyProcess_0+0x30
   \   000009A8   90F89300           LDRB     R0,[R0, #+147]
   \   000009AC   401C               ADDS     R0,R0,#+1
   \   000009AE   DFF88813           LDR.W    R1,??KeyProcess_0+0x30
   \   000009B2   81F89300           STRB     R0,[R1, #+147]
    642                                        }						   
    643                                   }break;                         
    644                                   /*                                                                                   
    645                              case DISP_MENU5:
    646                                   {
    647                                   DisplayInfo.Now_View = DISP_MENU6;
    648                              }break;                            
    649                              case DISP_MENU6:
    650                                   {
    651                                   DisplayInfo.Now_View = DISP_MENU7;
    652                              }break;
    653                              case DISP_MENU7:
    654                                   {
    655                                   DisplayInfo.Now_View = DISP_MENU8;
    656                              }break;
    657                              case DISP_MENU8:
    658                                   {
    659                                   DisplayInfo.Now_View = DISP_MENU1;                                 
    660                              }break;            
    661                                   */
    662                              } // end of Switch
    663                              
    664                              if(LOGWRITE & LOG_KEY)
   \                     ??KeyProcess_131:
   \                     ??KeyProcess_71:
   \   000009B6   DFF86C03           LDR.W    R0,??KeyProcess_0+0x1C
   \   000009BA   0078               LDRB     R0,[R0, #+0]
   \   000009BC   0007               LSLS     R0,R0,#+28
   \   000009BE   0AD5               BPL.N    ??KeyProcess_24
    665                              {
    666                                   sprintf((char *)Buffer,"KEY-UP Done\r\n");
   \   000009C0   DFF88C1C           LDR.W    R1,??KeyProcess_133
   \   000009C4   DFF86403           LDR.W    R0,??KeyProcess_0+0x24
   \   000009C8   ........           BL       sprintf
    667                                   Write_Log(Buffer, NORMAL_LOG);
   \   000009CC   0121               MOVS     R1,#+1
   \   000009CE   DFF85C03           LDR.W    R0,??KeyProcess_0+0x24
   \   000009D2   ........           BL       Write_Log
    668                              }
    669                              
    670                         }
    671                         
    672                    }  // end of Key_MODE
    673                    break;
   \                     ??KeyProcess_24:
   \   000009D6   01F095BE           B.W      ??KeyProcess_13
    674               case Key_DOWN:
    675                    {
    676                         
    677                         if( DisplayInfo.Mode == DISPMODE_VIEW )
   \                     ??KeyProcess_6:
   \   000009DA   DFF83403           LDR.W    R0,??KeyProcess_0+0x8
   \   000009DE   8079               LDRB     R0,[R0, #+6]
   \   000009E0   0128               CMP      R0,#+1
   \   000009E2   78D1               BNE.N    ??KeyProcess_134
    678                         {
    679                              if( DisplayInfo.Now_View == DISP_MENU2_1_1)     // 운전자 선택
   \   000009E4   DFF82803           LDR.W    R0,??KeyProcess_0+0x8
   \   000009E8   4079               LDRB     R0,[R0, #+5]
   \   000009EA   1F28               CMP      R0,#+31
   \   000009EC   12D1               BNE.N    ??KeyProcess_135
    680                              {
    681                                   if( Info.Driver_Index == 0 )
   \   000009EE   DFF82803           LDR.W    R0,??KeyProcess_0+0x10
   \   000009F2   0078               LDRB     R0,[R0, #+0]
   \   000009F4   0028               CMP      R0,#+0
   \   000009F6   05D1               BNE.N    ??KeyProcess_136
    682                                        Info.Driver_Index = 4;
   \   000009F8   DFF81C03           LDR.W    R0,??KeyProcess_0+0x10
   \   000009FC   0421               MOVS     R1,#+4
   \   000009FE   0170               STRB     R1,[R0, #+0]
   \   00000A00   00F0FCBB           B.W      ??KeyProcess_137
    683                                   else
    684                                        Info.Driver_Index --;                             
   \                     ??KeyProcess_136:
   \   00000A04   DFF81003           LDR.W    R0,??KeyProcess_0+0x10
   \   00000A08   0078               LDRB     R0,[R0, #+0]
   \   00000A0A   401E               SUBS     R0,R0,#+1
   \   00000A0C   DFF80813           LDR.W    R1,??KeyProcess_0+0x10
   \   00000A10   0870               STRB     R0,[R1, #+0]
   \   00000A12   F3E3               B.N      ??KeyProcess_137
    685                              }                    
    686                              else if(DisplayInfo.Now_View ==  DISP_MENU5_1)
   \                     ??KeyProcess_135:
   \   00000A14   BE48               LDR.N    R0,??KeyProcess_0+0x8
   \   00000A16   4079               LDRB     R0,[R0, #+5]
   \   00000A18   3528               CMP      R0,#+53
   \   00000A1A   13D1               BNE.N    ??KeyProcess_138
    687                              {
    688                                   if(Input_Mode == 1)
   \   00000A1C   BD48               LDR.N    R0,??KeyProcess_0+0xC
   \   00000A1E   0078               LDRB     R0,[R0, #+0]
   \   00000A20   0128               CMP      R0,#+1
   \   00000A22   40F0EB83           BNE.W    ??KeyProcess_137
    689                                   {
    690                                        if(SFLASH_Memory.Voice_Volume > 0)
   \   00000A26   DFF81003           LDR.W    R0,??KeyProcess_0+0x30
   \   00000A2A   90F8A300           LDRB     R0,[R0, #+163]
   \   00000A2E   0128               CMP      R0,#+1
   \   00000A30   C0F0E483           BCC.W    ??KeyProcess_137
    691                                             SFLASH_Memory.Voice_Volume -= 20;
   \   00000A34   C048               LDR.N    R0,??KeyProcess_0+0x30
   \   00000A36   90F8A300           LDRB     R0,[R0, #+163]
   \   00000A3A   1438               SUBS     R0,R0,#+20
   \   00000A3C   BE49               LDR.N    R1,??KeyProcess_0+0x30
   \   00000A3E   81F8A300           STRB     R0,[R1, #+163]
   \   00000A42   DBE3               B.N      ??KeyProcess_137
    692                                   }	                          
    693                              }else
    694                              {
    695                                   switch(DisplayInfo.Now_View)
   \                     ??KeyProcess_138:
   \   00000A44   B248               LDR.N    R0,??KeyProcess_0+0x8
   \   00000A46   4079               LDRB     R0,[R0, #+5]
   \   00000A48   0328               CMP      R0,#+3
   \   00000A4A   12D0               BEQ.N    ??KeyProcess_139
   \   00000A4C   40D3               BCC.N    ??KeyProcess_140
   \   00000A4E   0528               CMP      R0,#+5
   \   00000A50   17D0               BEQ.N    ??KeyProcess_141
   \   00000A52   12D3               BCC.N    ??KeyProcess_142
   \   00000A54   0728               CMP      R0,#+7
   \   00000A56   1CD0               BEQ.N    ??KeyProcess_143
   \   00000A58   17D3               BCC.N    ??KeyProcess_144
   \   00000A5A   0928               CMP      R0,#+9
   \   00000A5C   21D0               BEQ.N    ??KeyProcess_145
   \   00000A5E   1CD3               BCC.N    ??KeyProcess_146
   \   00000A60   0B28               CMP      R0,#+11
   \   00000A62   26D0               BEQ.N    ??KeyProcess_147
   \   00000A64   21D3               BCC.N    ??KeyProcess_148
   \   00000A66   0D28               CMP      R0,#+13
   \   00000A68   2BD0               BEQ.N    ??KeyProcess_149
   \   00000A6A   26D3               BCC.N    ??KeyProcess_150
   \   00000A6C   0E28               CMP      R0,#+14
   \   00000A6E   2CD0               BEQ.N    ??KeyProcess_151
   \   00000A70   2EE0               B.N      ??KeyProcess_140
    696                                   {
    697                                   case DISP_IDLE:
    698                                        DisplayInfo.Now_View = DISP_VERSION3;
   \                     ??KeyProcess_139:
   \   00000A72   A748               LDR.N    R0,??KeyProcess_0+0x8
   \   00000A74   0E21               MOVS     R1,#+14
   \   00000A76   4171               STRB     R1,[R0, #+5]
    699                                        break;
   \   00000A78   2AE0               B.N      ??KeyProcess_140
    700                                   case DISP_TODAY_DISTANCE:
    701                                        DisplayInfo.Now_View = DISP_IDLE;
   \                     ??KeyProcess_142:
   \   00000A7A   A548               LDR.N    R0,??KeyProcess_0+0x8
   \   00000A7C   0321               MOVS     R1,#+3
   \   00000A7E   4171               STRB     R1,[R0, #+5]
    702                                        break;
   \   00000A80   26E0               B.N      ??KeyProcess_140
    703                                   case DISP_TOTAL_DISTANCE:
    704                                        DisplayInfo.Now_View = DISP_TODAY_DISTANCE;
   \                     ??KeyProcess_141:
   \   00000A82   A348               LDR.N    R0,??KeyProcess_0+0x8
   \   00000A84   0421               MOVS     R1,#+4
   \   00000A86   4171               STRB     R1,[R0, #+5]
    705                                        break;
   \   00000A88   22E0               B.N      ??KeyProcess_140
    706                                   case DISP_DRIVER_VIEW:
    707                                        DisplayInfo.Now_View = DISP_TOTAL_DISTANCE;
   \                     ??KeyProcess_144:
   \   00000A8A   A148               LDR.N    R0,??KeyProcess_0+0x8
   \   00000A8C   0521               MOVS     R1,#+5
   \   00000A8E   4171               STRB     R1,[R0, #+5]
    708                                        break;    
   \   00000A90   1EE0               B.N      ??KeyProcess_140
    709                                   case DISP_MEMS_VIEW:
    710                                        DisplayInfo.Now_View = DISP_DRIVER_VIEW;		
   \                     ??KeyProcess_143:
   \   00000A92   9F48               LDR.N    R0,??KeyProcess_0+0x8
   \   00000A94   0621               MOVS     R1,#+6
   \   00000A96   4171               STRB     R1,[R0, #+5]
    711                                        break;		    
   \   00000A98   1AE0               B.N      ??KeyProcess_140
    712                                   case DISP_IO_VIEW:
    713                                        DisplayInfo.Now_View = DISP_MEMS_VIEW;
   \                     ??KeyProcess_146:
   \   00000A9A   9D48               LDR.N    R0,??KeyProcess_0+0x8
   \   00000A9C   0721               MOVS     R1,#+7
   \   00000A9E   4171               STRB     R1,[R0, #+5]
    714                                        break;         
   \   00000AA0   16E0               B.N      ??KeyProcess_140
    715                                   case DISP_INPUT_VIEW:
    716                                        DisplayInfo.Now_View = DISP_IO_VIEW;
   \                     ??KeyProcess_145:
   \   00000AA2   9B48               LDR.N    R0,??KeyProcess_0+0x8
   \   00000AA4   0821               MOVS     R1,#+8
   \   00000AA6   4171               STRB     R1,[R0, #+5]
    717                                        break;      				    				    
   \   00000AA8   12E0               B.N      ??KeyProcess_140
    718                                   case DISP_STARTMOTOR_VIEW:         
    719                                        DisplayInfo.Now_View = DISP_INPUT_VIEW; 
   \                     ??KeyProcess_148:
   \   00000AAA   9948               LDR.N    R0,??KeyProcess_0+0x8
   \   00000AAC   0921               MOVS     R1,#+9
   \   00000AAE   4171               STRB     R1,[R0, #+5]
    720                                        break;
   \   00000AB0   0EE0               B.N      ??KeyProcess_140
    721                                   case DISP_GPS_VIEW:         
    722                                        DisplayInfo.Now_View = DISP_STARTMOTOR_VIEW; 
   \                     ??KeyProcess_147:
   \   00000AB2   9748               LDR.N    R0,??KeyProcess_0+0x8
   \   00000AB4   0A21               MOVS     R1,#+10
   \   00000AB6   4171               STRB     R1,[R0, #+5]
    723                                        break;                         
   \   00000AB8   0AE0               B.N      ??KeyProcess_140
    724                                   case DISP_VERSION1:
    725                                        DisplayInfo.Now_View = DISP_GPS_VIEW; 
   \                     ??KeyProcess_150:
   \   00000ABA   9548               LDR.N    R0,??KeyProcess_0+0x8
   \   00000ABC   0B21               MOVS     R1,#+11
   \   00000ABE   4171               STRB     R1,[R0, #+5]
    726                                        break;
   \   00000AC0   06E0               B.N      ??KeyProcess_140
    727                                   case DISP_VERSION2:
    728                                        DisplayInfo.Now_View = DISP_VERSION1; 
   \                     ??KeyProcess_149:
   \   00000AC2   9348               LDR.N    R0,??KeyProcess_0+0x8
   \   00000AC4   0C21               MOVS     R1,#+12
   \   00000AC6   4171               STRB     R1,[R0, #+5]
    729                                        break;
   \   00000AC8   02E0               B.N      ??KeyProcess_140
    730                                   case DISP_VERSION3:
    731                                        DisplayInfo.Now_View = DISP_VERSION2; 
   \                     ??KeyProcess_151:
   \   00000ACA   9148               LDR.N    R0,??KeyProcess_0+0x8
   \   00000ACC   0D21               MOVS     R1,#+13
   \   00000ACE   4171               STRB     R1,[R0, #+5]
    732                                        break;                         
    733                                   }
    734                                   GLcd_Clear();    
   \                     ??KeyProcess_140:
   \   00000AD0   ........           BL       GLcd_Clear
   \   00000AD4   92E3               B.N      ??KeyProcess_137
    735                              }
    736                              
    737                         }
    738                         else if( DisplayInfo.Mode == DISPMODE_MENU )
   \                     ??KeyProcess_134:
   \   00000AD6   8E48               LDR.N    R0,??KeyProcess_0+0x8
   \   00000AD8   8079               LDRB     R0,[R0, #+6]
   \   00000ADA   0228               CMP      R0,#+2
   \   00000ADC   40F08E83           BNE.W    ??KeyProcess_137
    739                         {
    740          //                              GLcd_Clear();                                                      
    741                              switch(DisplayInfo.Now_View)
   \   00000AE0   8B48               LDR.N    R0,??KeyProcess_0+0x8
   \   00000AE2   4079               LDRB     R0,[R0, #+5]
   \   00000AE4   1128               CMP      R0,#+17
   \   00000AE6   59D0               BEQ.N    ??KeyProcess_152
   \   00000AE8   1228               CMP      R0,#+18
   \   00000AEA   5BD0               BEQ.N    ??KeyProcess_153
   \   00000AEC   1328               CMP      R0,#+19
   \   00000AEE   5DD0               BEQ.N    ??KeyProcess_154
   \   00000AF0   1428               CMP      R0,#+20
   \   00000AF2   5FD0               BEQ.N    ??KeyProcess_155
   \   00000AF4   1528               CMP      R0,#+21
   \   00000AF6   61D0               BEQ.N    ??KeyProcess_156
   \   00000AF8   1628               CMP      R0,#+22
   \   00000AFA   63D0               BEQ.N    ??KeyProcess_157
   \   00000AFC   1728               CMP      R0,#+23
   \   00000AFE   65D0               BEQ.N    ??KeyProcess_158
   \   00000B00   1A28               CMP      R0,#+26
   \   00000B02   67D0               BEQ.N    ??KeyProcess_159
   \   00000B04   1B28               CMP      R0,#+27
   \   00000B06   00F09480           BEQ.W    ??KeyProcess_160
   \   00000B0A   1C28               CMP      R0,#+28
   \   00000B0C   00F0AB80           BEQ.W    ??KeyProcess_161
   \   00000B10   1D28               CMP      R0,#+29
   \   00000B12   00F0B080           BEQ.W    ??KeyProcess_162
   \   00000B16   1E28               CMP      R0,#+30
   \   00000B18   00F0B580           BEQ.W    ??KeyProcess_163
   \   00000B1C   2028               CMP      R0,#+32
   \   00000B1E   00F0C080           BEQ.W    ??KeyProcess_164
   \   00000B22   2128               CMP      R0,#+33
   \   00000B24   00F0BE80           BEQ.W    ??KeyProcess_165
   \   00000B28   2228               CMP      R0,#+34
   \   00000B2A   00F0CE80           BEQ.W    ??KeyProcess_166
   \   00000B2E   2328               CMP      R0,#+35
   \   00000B30   00F02781           BEQ.W    ??KeyProcess_167
   \   00000B34   2428               CMP      R0,#+36
   \   00000B36   00F04581           BEQ.W    ??KeyProcess_168
   \   00000B3A   2528               CMP      R0,#+37
   \   00000B3C   00F06F81           BEQ.W    ??KeyProcess_169
   \   00000B40   2628               CMP      R0,#+38
   \   00000B42   00F09981           BEQ.W    ??KeyProcess_170
   \   00000B46   2728               CMP      R0,#+39
   \   00000B48   00F0B581           BEQ.W    ??KeyProcess_171
   \   00000B4C   2828               CMP      R0,#+40
   \   00000B4E   00F0D181           BEQ.W    ??KeyProcess_172
   \   00000B52   2928               CMP      R0,#+41
   \   00000B54   00F0ED81           BEQ.W    ??KeyProcess_173
   \   00000B58   2A28               CMP      R0,#+42
   \   00000B5A   00F00982           BEQ.W    ??KeyProcess_174
   \   00000B5E   2B28               CMP      R0,#+43
   \   00000B60   00F02582           BEQ.W    ??KeyProcess_175
   \   00000B64   2C28               CMP      R0,#+44
   \   00000B66   00F04182           BEQ.W    ??KeyProcess_176
   \   00000B6A   2D28               CMP      R0,#+45
   \   00000B6C   00F05D82           BEQ.W    ??KeyProcess_177
   \   00000B70   2E28               CMP      R0,#+46
   \   00000B72   00F07B82           BEQ.W    ??KeyProcess_178
   \   00000B76   2F28               CMP      R0,#+47
   \   00000B78   00F08282           BEQ.W    ??KeyProcess_179
   \   00000B7C   3028               CMP      R0,#+48
   \   00000B7E   00F08082           BEQ.W    ??KeyProcess_180
   \   00000B82   3128               CMP      R0,#+49
   \   00000B84   00F0B282           BEQ.W    ??KeyProcess_181
   \   00000B88   3228               CMP      R0,#+50
   \   00000B8A   00F0B482           BEQ.W    ??KeyProcess_182
   \   00000B8E   3328               CMP      R0,#+51
   \   00000B90   00F0D682           BEQ.W    ??KeyProcess_183
   \   00000B94   3428               CMP      R0,#+52
   \   00000B96   00F0FD82           BEQ.W    ??KeyProcess_184
   \   00000B9A   1FE3               B.N      ??KeyProcess_185
    742                              {
    743                              case DISP_MENU1:
    744                                   {
    745                                        DisplayInfo.Now_View = DISP_MENU7;
   \                     ??KeyProcess_152:
   \   00000B9C   5C48               LDR.N    R0,??KeyProcess_0+0x8
   \   00000B9E   1721               MOVS     R1,#+23
   \   00000BA0   4171               STRB     R1,[R0, #+5]
    746          //                              GLcd_Clear();                                  
    747                                   }break;
   \   00000BA2   1BE3               B.N      ??KeyProcess_185
    748                              case DISP_MENU2:       // 운전자 변경
    749                                   {
    750                                        DisplayInfo.Now_View = DISP_MENU1;
   \                     ??KeyProcess_153:
   \   00000BA4   5A48               LDR.N    R0,??KeyProcess_0+0x8
   \   00000BA6   1121               MOVS     R1,#+17
   \   00000BA8   4171               STRB     R1,[R0, #+5]
    751                                   }break;                         
   \   00000BAA   17E3               B.N      ??KeyProcess_185
    752                              case DISP_MENU3:     // 차량번호 확인
    753                                   {
    754                                        DisplayInfo.Now_View = DISP_MENU2;
   \                     ??KeyProcess_154:
   \   00000BAC   5848               LDR.N    R0,??KeyProcess_0+0x8
   \   00000BAE   1221               MOVS     R1,#+18
   \   00000BB0   4171               STRB     R1,[R0, #+5]
    755                                   }break;
   \   00000BB2   13E3               B.N      ??KeyProcess_185
    756                              case DISP_MENU4:       // 환경설정
    757                                   {
    758                                        DisplayInfo.Now_View = DISP_MENU3;
   \                     ??KeyProcess_155:
   \   00000BB4   5648               LDR.N    R0,??KeyProcess_0+0x8
   \   00000BB6   1321               MOVS     R1,#+19
   \   00000BB8   4171               STRB     R1,[R0, #+5]
    759                                   }break;
   \   00000BBA   0FE3               B.N      ??KeyProcess_185
    760                              case DISP_MENU5:       // 펌웨어 업데이트
    761                                   {                           
    762                                        DisplayInfo.Now_View = DISP_MENU4;
   \                     ??KeyProcess_156:
   \   00000BBC   5448               LDR.N    R0,??KeyProcess_0+0x8
   \   00000BBE   1421               MOVS     R1,#+20
   \   00000BC0   4171               STRB     R1,[R0, #+5]
    763                                   }break;                         
   \   00000BC2   0BE3               B.N      ??KeyProcess_185
    764                              case DISP_MENU6:       // 사운드 업데이트
    765                                   {                           
    766                                        DisplayInfo.Now_View = DISP_MENU5;
   \                     ??KeyProcess_157:
   \   00000BC4   5248               LDR.N    R0,??KeyProcess_0+0x8
   \   00000BC6   1521               MOVS     R1,#+21
   \   00000BC8   4171               STRB     R1,[R0, #+5]
    767                                   }break;                         
   \   00000BCA   07E3               B.N      ??KeyProcess_185
    768                              case DISP_MENU7:       // 파라미터 업데이트
    769                                   {                           
    770                                        DisplayInfo.Now_View = DISP_MENU6;
   \                     ??KeyProcess_158:
   \   00000BCC   5048               LDR.N    R0,??KeyProcess_0+0x8
   \   00000BCE   1621               MOVS     R1,#+22
   \   00000BD0   4171               STRB     R1,[R0, #+5]
    771                                   }break;                                                  
   \   00000BD2   03E3               B.N      ??KeyProcess_185
    772                                   
    773                              case DISP_MENU1_1:     // 선택 백업
    774                                   {             
    775                                        if(Input_Mode == 0)
   \                     ??KeyProcess_159:
   \   00000BD4   4F48               LDR.N    R0,??KeyProcess_0+0xC
   \   00000BD6   0078               LDRB     R0,[R0, #+0]
   \   00000BD8   0028               CMP      R0,#+0
   \   00000BDA   05D1               BNE.N    ??KeyProcess_186
    776                                        {
    777                                             DisplayInfo.Now_View = DISP_MENU1_4;
   \   00000BDC   4C48               LDR.N    R0,??KeyProcess_0+0x8
   \   00000BDE   1D21               MOVS     R1,#+29
   \   00000BE0   4171               STRB     R1,[R0, #+5]
    778                                             GLcd_Clear();    
   \   00000BE2   ........           BL       GLcd_Clear
   \   00000BE6   23E0               B.N      ??KeyProcess_187
    779                                             
    780                                        }
    781                                        else
    782                                        {
    783                                             if( VIEW_Header.Start_Index == 0)
   \                     ??KeyProcess_186:
   \   00000BE8   DFF8AC04           LDR.W    R0,??KeyProcess_74
   \   00000BEC   0068               LDR      R0,[R0, #+0]
   \   00000BEE   0028               CMP      R0,#+0
   \   00000BF0   06D1               BNE.N    ??KeyProcess_188
    784                                                  VIEW_Header.Start_Index = NAND_Header_Index.Header_Count;
   \   00000BF2   DFF8A404           LDR.W    R0,??KeyProcess_74
   \   00000BF6   DFF8A414           LDR.W    R1,??KeyProcess_74+0x4
   \   00000BFA   0988               LDRH     R1,[R1, #+0]
   \   00000BFC   0160               STR      R1,[R0, #+0]
   \   00000BFE   06E0               B.N      ??KeyProcess_189
    785                                             else
    786                                                  VIEW_Header.Start_Index--;
   \                     ??KeyProcess_188:
   \   00000C00   DFF89404           LDR.W    R0,??KeyProcess_74
   \   00000C04   0068               LDR      R0,[R0, #+0]
   \   00000C06   401E               SUBS     R0,R0,#+1
   \   00000C08   DFF88C14           LDR.W    R1,??KeyProcess_74
   \   00000C0C   0860               STR      R0,[R1, #+0]
    787                                             VIEW_Header.Header = Read_Header_Information(VIEW_Header.Start_Index);
   \                     ??KeyProcess_189:
   \   00000C0E   DFF88804           LDR.W    R0,??KeyProcess_74
   \   00000C12   0168               LDR      R1,[R0, #+0]
   \   00000C14   89B2               UXTH     R1,R1            ;; ZeroExt  R1,R1,#+16,#+16
   \   00000C16   01A8               ADD      R0,SP,#+4
   \   00000C18   ........           BL       Read_Header_Information
   \   00000C1C   0020               MOVS     R0,#+0
   \                     ??KeyProcess_190:
   \   00000C1E   DFF87814           LDR.W    R1,??KeyProcess_74
   \   00000C22   4118               ADDS     R1,R0,R1
   \   00000C24   01AA               ADD      R2,SP,#+4
   \   00000C26   825C               LDRB     R2,[R0, R2]
   \   00000C28   0A72               STRB     R2,[R1, #+8]
   \   00000C2A   401C               ADDS     R0,R0,#+1
   \   00000C2C   1028               CMP      R0,#+16
   \   00000C2E   F6DB               BLT.N    ??KeyProcess_190
    788                                        }                                 
    789                                   }break;
   \                     ??KeyProcess_187:
   \   00000C30   D4E2               B.N      ??KeyProcess_185
    790                              case DISP_MENU1_2:     //  지정기간 백업
    791                                   {              
    792                                        if(Input_Mode == 0)
   \                     ??KeyProcess_160:
   \   00000C32   3848               LDR.N    R0,??KeyProcess_0+0xC
   \   00000C34   0078               LDRB     R0,[R0, #+0]
   \   00000C36   0028               CMP      R0,#+0
   \   00000C38   03D1               BNE.N    ??KeyProcess_191
    793                                        {
    794                                             DisplayInfo.Now_View = DISP_MENU1_1;
   \   00000C3A   3548               LDR.N    R0,??KeyProcess_0+0x8
   \   00000C3C   1A21               MOVS     R1,#+26
   \   00000C3E   4171               STRB     R1,[R0, #+5]
   \   00000C40   10E0               B.N      ??KeyProcess_192
    795          //                                   GLcd_Clear();                                      
    796                                        }
    797                                        else
    798                                        {
    799                                             if( Input_Index_1 == 0)
   \                     ??KeyProcess_191:
   \   00000C42   DFF8A404           LDR.W    R0,??KeyProcess_80
   \   00000C46   0078               LDRB     R0,[R0, #+0]
   \   00000C48   0028               CMP      R0,#+0
   \   00000C4A   04D1               BNE.N    ??KeyProcess_193
    800                                                  Input_Index_1 = 4;
   \   00000C4C   DFF89804           LDR.W    R0,??KeyProcess_80
   \   00000C50   0421               MOVS     R1,#+4
   \   00000C52   0170               STRB     R1,[R0, #+0]
   \   00000C54   06E0               B.N      ??KeyProcess_192
    801                                             else
    802                                                  Input_Index_1--;                                      
   \                     ??KeyProcess_193:
   \   00000C56   DFF89004           LDR.W    R0,??KeyProcess_80
   \   00000C5A   0078               LDRB     R0,[R0, #+0]
   \   00000C5C   401E               SUBS     R0,R0,#+1
   \   00000C5E   DFF88814           LDR.W    R1,??KeyProcess_80
   \   00000C62   0870               STRB     R0,[R1, #+0]
    803                                        }                                                                 
    804                                   }break;
   \                     ??KeyProcess_192:
   \   00000C64   BAE2               B.N      ??KeyProcess_185
    805                              case DISP_MENU1_3:     //  전체 백업
    806                                   {     
    807                                        if(Input_Mode == 0)
   \                     ??KeyProcess_161:
   \   00000C66   2B48               LDR.N    R0,??KeyProcess_0+0xC
   \   00000C68   0078               LDRB     R0,[R0, #+0]
   \   00000C6A   0028               CMP      R0,#+0
   \   00000C6C   02D1               BNE.N    ??KeyProcess_194
    808                                        {                              
    809                                             DisplayInfo.Now_View = DISP_MENU1_2;                                 
   \   00000C6E   2848               LDR.N    R0,??KeyProcess_0+0x8
   \   00000C70   1B21               MOVS     R1,#+27
   \   00000C72   4171               STRB     R1,[R0, #+5]
    810                                        }
    811                                   }break;                            
   \                     ??KeyProcess_194:
   \   00000C74   B2E2               B.N      ??KeyProcess_185
    812                              case DISP_MENU1_4:     //  이벤트 백업
    813                                   {                         
    814                                        if(Input_Mode == 0)
   \                     ??KeyProcess_162:
   \   00000C76   2748               LDR.N    R0,??KeyProcess_0+0xC
   \   00000C78   0078               LDRB     R0,[R0, #+0]
   \   00000C7A   0028               CMP      R0,#+0
   \   00000C7C   02D1               BNE.N    ??KeyProcess_195
    815                                        {                              
    816                                        
    817                                             DisplayInfo.Now_View = DISP_MENU1_3;                                 
   \   00000C7E   2448               LDR.N    R0,??KeyProcess_0+0x8
   \   00000C80   1C21               MOVS     R1,#+28
   \   00000C82   4171               STRB     R1,[R0, #+5]
    818                                        }                                   
    819                                   }break;    
   \                     ??KeyProcess_195:
   \   00000C84   AAE2               B.N      ??KeyProcess_185
    820                              case DISP_MENU2_1:     // 운전자 선택
    821                                   {
    822                                        if( Info.Driver_Index == 0 )
   \                     ??KeyProcess_163:
   \   00000C86   2448               LDR.N    R0,??KeyProcess_0+0x10
   \   00000C88   0078               LDRB     R0,[R0, #+0]
   \   00000C8A   0028               CMP      R0,#+0
   \   00000C8C   03D1               BNE.N    ??KeyProcess_196
    823                                             Info.Driver_Index = 4;
   \   00000C8E   2248               LDR.N    R0,??KeyProcess_0+0x10
   \   00000C90   0421               MOVS     R1,#+4
   \   00000C92   0170               STRB     R1,[R0, #+0]
   \   00000C94   04E0               B.N      ??KeyProcess_197
    824                                        else
    825                                             Info.Driver_Index --;                             
   \                     ??KeyProcess_196:
   \   00000C96   2048               LDR.N    R0,??KeyProcess_0+0x10
   \   00000C98   0078               LDRB     R0,[R0, #+0]
   \   00000C9A   401E               SUBS     R0,R0,#+1
   \   00000C9C   1E49               LDR.N    R1,??KeyProcess_0+0x10
   \   00000C9E   0870               STRB     R0,[R1, #+0]
    826                                   }break;
   \                     ??KeyProcess_197:
   \   00000CA0   9CE2               B.N      ??KeyProcess_185
    827          
    828          
    829                              case DISP_MENU3_1:     // 차량번호 확인
    830                                   {
    831                                        
    832                                   }break;                            
   \                     ??KeyProcess_164:
   \   00000CA2   9BE2               B.N      ??KeyProcess_185
    833                           
    834                              case DISP_MENU4_0:     // 암호코드 입력
    835                                   {
    836                                        
    837                                        if(Pass_Index < 4 )
   \                     ??KeyProcess_165:
   \   00000CA4   DFF8E404           LDR.W    R0,??KeyProcess_86
   \   00000CA8   0078               LDRB     R0,[R0, #+0]
   \   00000CAA   0428               CMP      R0,#+4
   \   00000CAC   0CD2               BCS.N    ??KeyProcess_198
    838                                             Password[Pass_Index++] = KeyData;
   \   00000CAE   DFF8DC04           LDR.W    R0,??KeyProcess_86
   \   00000CB2   0078               LDRB     R0,[R0, #+0]
   \   00000CB4   DFF8D814           LDR.W    R1,??KeyProcess_86+0x4
   \   00000CB8   4454               STRB     R4,[R0, R1]
   \   00000CBA   DFF8D004           LDR.W    R0,??KeyProcess_86
   \   00000CBE   0078               LDRB     R0,[R0, #+0]
   \   00000CC0   401C               ADDS     R0,R0,#+1
   \   00000CC2   DFF8C814           LDR.W    R1,??KeyProcess_86
   \   00000CC6   0870               STRB     R0,[R1, #+0]
    839                                        
    840                                   }break;                            
   \                     ??KeyProcess_198:
   \   00000CC8   88E2               B.N      ??KeyProcess_185
    841                              case DISP_MENU4_1:     // 운전자 코드
    842                                   {
    843                                        if( Input_Mode == 0 )
   \                     ??KeyProcess_166:
   \   00000CCA   1248               LDR.N    R0,??KeyProcess_0+0xC
   \   00000CCC   0078               LDRB     R0,[R0, #+0]
   \   00000CCE   0028               CMP      R0,#+0
   \   00000CD0   03D1               BNE.N    ??KeyProcess_199
    844                                             DisplayInfo.Now_View = DISP_MENU4_19;
   \   00000CD2   0F48               LDR.N    R0,??KeyProcess_0+0x8
   \   00000CD4   3421               MOVS     R1,#+52
   \   00000CD6   4171               STRB     R1,[R0, #+5]
   \   00000CD8   52E0               B.N      ??KeyProcess_200
    845                                        else if(Input_Mode == 1)
   \                     ??KeyProcess_199:
   \   00000CDA   0E48               LDR.N    R0,??KeyProcess_0+0xC
   \   00000CDC   0078               LDRB     R0,[R0, #+0]
   \   00000CDE   0128               CMP      R0,#+1
   \   00000CE0   2CD1               BNE.N    ??KeyProcess_201
    846                                        {
    847                                             if(Input_Index_1 == 0)
   \   00000CE2   DFF80404           LDR.W    R0,??KeyProcess_80
   \   00000CE6   0078               LDRB     R0,[R0, #+0]
   \   00000CE8   0028               CMP      R0,#+0
   \   00000CEA   04D1               BNE.N    ??KeyProcess_202
    848                                                  Input_Index_1 = 4;
   \   00000CEC   DFF8F803           LDR.W    R0,??KeyProcess_80
   \   00000CF0   0421               MOVS     R1,#+4
   \   00000CF2   0170               STRB     R1,[R0, #+0]
   \   00000CF4   44E0               B.N      ??KeyProcess_200
    849                                             else
    850                                                  Input_Index_1 --;
   \                     ??KeyProcess_202:
   \   00000CF6   DFF8F003           LDR.W    R0,??KeyProcess_80
   \   00000CFA   0078               LDRB     R0,[R0, #+0]
   \   00000CFC   401E               SUBS     R0,R0,#+1
   \   00000CFE   DFF8E813           LDR.W    R1,??KeyProcess_80
   \   00000D02   0870               STRB     R0,[R1, #+0]
   \   00000D04   3CE0               B.N      ??KeyProcess_200
   \   00000D06   00BF               Nop      
   \                     ??KeyProcess_0:
   \   00000D08   ........           DC32     ??KeyTime
   \   00000D0C   000C0040           DC32     0x40000c00
   \   00000D10   ........           DC32     DisplayInfo
   \   00000D14   ........           DC32     Input_Mode
   \   00000D18   ........           DC32     Info
   \   00000D1C   ........           DC32     EnginOff_Flag
   \   00000D20   ........           DC32     EMS_Reley_Off
   \   00000D24   ........           DC32     LOGWRITE
   \   00000D28   ........           DC32     `?<Constant "KEY-ECO Done\\r\\n">`
   \   00000D2C   ........           DC32     Buffer
   \   00000D30   ........           DC32     GLCD_Refresh_Flag
   \   00000D34   ........           DC32     `?<Constant "KEY-MODE Done\\r\\n">`
   \   00000D38   ........           DC32     SFLASH_Memory
    851                                        }
    852                                        else if(Input_Mode == 2)
   \                     ??KeyProcess_201:
   \   00000D3C   DFF8940D           LDR.W    R0,??KeyProcess_203
   \   00000D40   0078               LDRB     R0,[R0, #+0]
   \   00000D42   0228               CMP      R0,#+2
   \   00000D44   1CD1               BNE.N    ??KeyProcess_200
    853                                        {
    854                                             if(Input_Word[Input_Index_2] == '0')
   \   00000D46   DFF8B804           LDR.W    R0,??KeyProcess_92
   \   00000D4A   0078               LDRB     R0,[R0, #+0]
   \   00000D4C   DFF8B414           LDR.W    R1,??KeyProcess_92+0x4
   \   00000D50   405C               LDRB     R0,[R0, R1]
   \   00000D52   3028               CMP      R0,#+48
   \   00000D54   07D1               BNE.N    ??KeyProcess_204
    855                                                  Input_Word[Input_Index_2] = '9';
   \   00000D56   DFF8A804           LDR.W    R0,??KeyProcess_92
   \   00000D5A   0078               LDRB     R0,[R0, #+0]
   \   00000D5C   DFF8A414           LDR.W    R1,??KeyProcess_92+0x4
   \   00000D60   3922               MOVS     R2,#+57
   \   00000D62   4254               STRB     R2,[R0, R1]
   \   00000D64   0CE0               B.N      ??KeyProcess_200
    856                                             else
    857                                                  Input_Word[Input_Index_2] --;                                           
   \                     ??KeyProcess_204:
   \   00000D66   DFF89804           LDR.W    R0,??KeyProcess_92
   \   00000D6A   0078               LDRB     R0,[R0, #+0]
   \   00000D6C   DFF89414           LDR.W    R1,??KeyProcess_92+0x4
   \   00000D70   405C               LDRB     R0,[R0, R1]
   \   00000D72   401E               SUBS     R0,R0,#+1
   \   00000D74   DFF88814           LDR.W    R1,??KeyProcess_92
   \   00000D78   0978               LDRB     R1,[R1, #+0]
   \   00000D7A   DFF88824           LDR.W    R2,??KeyProcess_92+0x4
   \   00000D7E   8854               STRB     R0,[R1, R2]
    858                                        }
    859                                   }break;
   \                     ??KeyProcess_200:
   \   00000D80   2CE2               B.N      ??KeyProcess_185
    860                              case DISP_MENU4_2:     // 차량 선택
    861                                   {
    862                                        if( Input_Mode == 0 )
   \                     ??KeyProcess_167:
   \   00000D82   DFF8500D           LDR.W    R0,??KeyProcess_203
   \   00000D86   0078               LDRB     R0,[R0, #+0]
   \   00000D88   0028               CMP      R0,#+0
   \   00000D8A   04D1               BNE.N    ??KeyProcess_205
    863                                             DisplayInfo.Now_View = DISP_MENU4_1;
   \   00000D8C   DFF8480D           LDR.W    R0,??KeyProcess_203+0x4
   \   00000D90   2221               MOVS     R1,#+34
   \   00000D92   4171               STRB     R1,[R0, #+5]
   \   00000D94   15E0               B.N      ??KeyProcess_206
    864                                        else if(Input_Mode == 1)
   \                     ??KeyProcess_205:
   \   00000D96   DFF83C0D           LDR.W    R0,??KeyProcess_203
   \   00000D9A   0078               LDRB     R0,[R0, #+0]
   \   00000D9C   0128               CMP      R0,#+1
   \   00000D9E   10D1               BNE.N    ??KeyProcess_206
    865                                        {
    866                                             if(SFLASH_Memory.Car_Maker == 1)
   \   00000DA0   DFF8380D           LDR.W    R0,??KeyProcess_203+0x8
   \   00000DA4   0078               LDRB     R0,[R0, #+0]
   \   00000DA6   0128               CMP      R0,#+1
   \   00000DA8   04D1               BNE.N    ??KeyProcess_207
    867                                                  SFLASH_Memory.Car_Maker = 14;
   \   00000DAA   DFF8300D           LDR.W    R0,??KeyProcess_203+0x8
   \   00000DAE   0E21               MOVS     R1,#+14
   \   00000DB0   0170               STRB     R1,[R0, #+0]
   \   00000DB2   06E0               B.N      ??KeyProcess_206
    868                                             else
    869                                                  SFLASH_Memory.Car_Maker--;
   \                     ??KeyProcess_207:
   \   00000DB4   DFF8240D           LDR.W    R0,??KeyProcess_203+0x8
   \   00000DB8   0078               LDRB     R0,[R0, #+0]
   \   00000DBA   401E               SUBS     R0,R0,#+1
   \   00000DBC   DFF81C1D           LDR.W    R1,??KeyProcess_203+0x8
   \   00000DC0   0870               STRB     R0,[R1, #+0]
    870                                        }
    871                                   }break;                         
   \                     ??KeyProcess_206:
   \   00000DC2   0BE2               B.N      ??KeyProcess_185
    872                              case DISP_MENU4_3:     // 속도센서 상수
    873                                   {
    874                                        if( Input_Mode == 0 )
   \                     ??KeyProcess_168:
   \   00000DC4   DFF80C0D           LDR.W    R0,??KeyProcess_203
   \   00000DC8   0078               LDRB     R0,[R0, #+0]
   \   00000DCA   0028               CMP      R0,#+0
   \   00000DCC   04D1               BNE.N    ??KeyProcess_208
    875                                             DisplayInfo.Now_View = DISP_MENU4_2;
   \   00000DCE   DFF8080D           LDR.W    R0,??KeyProcess_203+0x4
   \   00000DD2   2321               MOVS     R1,#+35
   \   00000DD4   4171               STRB     R1,[R0, #+5]
   \   00000DD6   21E0               B.N      ??KeyProcess_209
    876                                        else if(Input_Mode == 1)
   \                     ??KeyProcess_208:
   \   00000DD8   DFF8F80C           LDR.W    R0,??KeyProcess_203
   \   00000DDC   0078               LDRB     R0,[R0, #+0]
   \   00000DDE   0128               CMP      R0,#+1
   \   00000DE0   1CD1               BNE.N    ??KeyProcess_209
    877                                        {
    878                                             if(Input_Word[Input_Index_2] == '0')
   \   00000DE2   DFF81C04           LDR.W    R0,??KeyProcess_92
   \   00000DE6   0078               LDRB     R0,[R0, #+0]
   \   00000DE8   DFF81814           LDR.W    R1,??KeyProcess_92+0x4
   \   00000DEC   405C               LDRB     R0,[R0, R1]
   \   00000DEE   3028               CMP      R0,#+48
   \   00000DF0   07D1               BNE.N    ??KeyProcess_210
    879                                                  Input_Word[Input_Index_2] = '9';
   \   00000DF2   DFF80C04           LDR.W    R0,??KeyProcess_92
   \   00000DF6   0078               LDRB     R0,[R0, #+0]
   \   00000DF8   DFF80814           LDR.W    R1,??KeyProcess_92+0x4
   \   00000DFC   3922               MOVS     R2,#+57
   \   00000DFE   4254               STRB     R2,[R0, R1]
   \   00000E00   0CE0               B.N      ??KeyProcess_209
    880                                             else
    881                                                  Input_Word[Input_Index_2] --;                                           
   \                     ??KeyProcess_210:
   \   00000E02   DFF8FC03           LDR.W    R0,??KeyProcess_92
   \   00000E06   0078               LDRB     R0,[R0, #+0]
   \   00000E08   DFF8F813           LDR.W    R1,??KeyProcess_92+0x4
   \   00000E0C   405C               LDRB     R0,[R0, R1]
   \   00000E0E   401E               SUBS     R0,R0,#+1
   \   00000E10   DFF8EC13           LDR.W    R1,??KeyProcess_92
   \   00000E14   0978               LDRB     R1,[R1, #+0]
   \   00000E16   DFF8EC23           LDR.W    R2,??KeyProcess_92+0x4
   \   00000E1A   8854               STRB     R0,[R1, R2]
    882                                        }
    883                                   }break;
   \                     ??KeyProcess_209:
   \   00000E1C   DEE1               B.N      ??KeyProcess_185
    884                              case DISP_MENU4_4:     // RPM 센서 상수
    885                                   {
    886                                        if( Input_Mode == 0 )
   \                     ??KeyProcess_169:
   \   00000E1E   DFF8B40C           LDR.W    R0,??KeyProcess_203
   \   00000E22   0078               LDRB     R0,[R0, #+0]
   \   00000E24   0028               CMP      R0,#+0
   \   00000E26   04D1               BNE.N    ??KeyProcess_211
    887                                             DisplayInfo.Now_View = DISP_MENU4_3;
   \   00000E28   DFF8AC0C           LDR.W    R0,??KeyProcess_203+0x4
   \   00000E2C   2421               MOVS     R1,#+36
   \   00000E2E   4171               STRB     R1,[R0, #+5]
   \   00000E30   21E0               B.N      ??KeyProcess_212
    888                                        else if(Input_Mode == 1)
   \                     ??KeyProcess_211:
   \   00000E32   DFF8A00C           LDR.W    R0,??KeyProcess_203
   \   00000E36   0078               LDRB     R0,[R0, #+0]
   \   00000E38   0128               CMP      R0,#+1
   \   00000E3A   1CD1               BNE.N    ??KeyProcess_212
    889                                        {
    890                                             if(Input_Word[Input_Index_2] == '0')
   \   00000E3C   DFF8C003           LDR.W    R0,??KeyProcess_92
   \   00000E40   0078               LDRB     R0,[R0, #+0]
   \   00000E42   DFF8C013           LDR.W    R1,??KeyProcess_92+0x4
   \   00000E46   405C               LDRB     R0,[R0, R1]
   \   00000E48   3028               CMP      R0,#+48
   \   00000E4A   07D1               BNE.N    ??KeyProcess_213
    891                                                  Input_Word[Input_Index_2] = '9';
   \   00000E4C   DFF8B003           LDR.W    R0,??KeyProcess_92
   \   00000E50   0078               LDRB     R0,[R0, #+0]
   \   00000E52   DFF8B013           LDR.W    R1,??KeyProcess_92+0x4
   \   00000E56   3922               MOVS     R2,#+57
   \   00000E58   4254               STRB     R2,[R0, R1]
   \   00000E5A   0CE0               B.N      ??KeyProcess_212
    892                                             else
    893                                                  Input_Word[Input_Index_2] --;                                           
   \                     ??KeyProcess_213:
   \   00000E5C   DFF8A003           LDR.W    R0,??KeyProcess_92
   \   00000E60   0078               LDRB     R0,[R0, #+0]
   \   00000E62   DFF8A013           LDR.W    R1,??KeyProcess_92+0x4
   \   00000E66   405C               LDRB     R0,[R0, R1]
   \   00000E68   401E               SUBS     R0,R0,#+1
   \   00000E6A   DFF89413           LDR.W    R1,??KeyProcess_92
   \   00000E6E   0978               LDRB     R1,[R1, #+0]
   \   00000E70   DFF89023           LDR.W    R2,??KeyProcess_92+0x4
   \   00000E74   8854               STRB     R0,[R1, R2]
    894                                        }					   
    895                                   }break;
   \                     ??KeyProcess_212:
   \   00000E76   B1E1               B.N      ??KeyProcess_185
    896                              case DISP_MENU4_5:     // 속도 Reference
    897                                   {
    898                                        if( Input_Mode == 0 )
   \                     ??KeyProcess_170:
   \   00000E78   DFF8580C           LDR.W    R0,??KeyProcess_203
   \   00000E7C   0078               LDRB     R0,[R0, #+0]
   \   00000E7E   0028               CMP      R0,#+0
   \   00000E80   04D1               BNE.N    ??KeyProcess_214
    899                                             DisplayInfo.Now_View = DISP_MENU4_4;
   \   00000E82   DFF8540C           LDR.W    R0,??KeyProcess_203+0x4
   \   00000E86   2521               MOVS     R1,#+37
   \   00000E88   4171               STRB     R1,[R0, #+5]
   \   00000E8A   13E0               B.N      ??KeyProcess_215
    900                                        else if(Input_Mode == 1)
   \                     ??KeyProcess_214:
   \   00000E8C   DFF8440C           LDR.W    R0,??KeyProcess_203
   \   00000E90   0078               LDRB     R0,[R0, #+0]
   \   00000E92   0128               CMP      R0,#+1
   \   00000E94   0ED1               BNE.N    ??KeyProcess_215
    901                                        {
    902                                             if(SFLASH_Memory.SPEED_Reference > 0)
   \   00000E96   DFF8440C           LDR.W    R0,??KeyProcess_203+0x8
   \   00000E9A   B0F86C00           LDRH     R0,[R0, #+108]
   \   00000E9E   0128               CMP      R0,#+1
   \   00000EA0   08D3               BCC.N    ??KeyProcess_215
    903                                                  SFLASH_Memory.SPEED_Reference--;
   \   00000EA2   DFF8380C           LDR.W    R0,??KeyProcess_203+0x8
   \   00000EA6   B0F86C00           LDRH     R0,[R0, #+108]
   \   00000EAA   401E               SUBS     R0,R0,#+1
   \   00000EAC   DFF82C1C           LDR.W    R1,??KeyProcess_203+0x8
   \   00000EB0   A1F86C00           STRH     R0,[R1, #+108]
    904                                        }                  					   
    905                                   }break;
   \                     ??KeyProcess_215:
   \   00000EB4   92E1               B.N      ??KeyProcess_185
    906                              case DISP_MENU4_6:     // RPM Reference
    907                                   {
    908                                        if( Input_Mode == 0 )
   \                     ??KeyProcess_171:
   \   00000EB6   DFF81C0C           LDR.W    R0,??KeyProcess_203
   \   00000EBA   0078               LDRB     R0,[R0, #+0]
   \   00000EBC   0028               CMP      R0,#+0
   \   00000EBE   04D1               BNE.N    ??KeyProcess_216
    909                                             DisplayInfo.Now_View = DISP_MENU4_5;					   
   \   00000EC0   DFF8140C           LDR.W    R0,??KeyProcess_203+0x4
   \   00000EC4   2621               MOVS     R1,#+38
   \   00000EC6   4171               STRB     R1,[R0, #+5]
   \   00000EC8   13E0               B.N      ??KeyProcess_217
    910                                        else if(Input_Mode == 1)
   \                     ??KeyProcess_216:
   \   00000ECA   DFF8080C           LDR.W    R0,??KeyProcess_203
   \   00000ECE   0078               LDRB     R0,[R0, #+0]
   \   00000ED0   0128               CMP      R0,#+1
   \   00000ED2   0ED1               BNE.N    ??KeyProcess_217
    911                                        {
    912                                             if(SFLASH_Memory.RPM_Reference > 0)
   \   00000ED4   DFF8040C           LDR.W    R0,??KeyProcess_203+0x8
   \   00000ED8   B0F86E00           LDRH     R0,[R0, #+110]
   \   00000EDC   0128               CMP      R0,#+1
   \   00000EDE   08D3               BCC.N    ??KeyProcess_217
    913                                                  SFLASH_Memory.RPM_Reference--;
   \   00000EE0   DFF8F80B           LDR.W    R0,??KeyProcess_203+0x8
   \   00000EE4   B0F86E00           LDRH     R0,[R0, #+110]
   \   00000EE8   401E               SUBS     R0,R0,#+1
   \   00000EEA   DFF8F01B           LDR.W    R1,??KeyProcess_203+0x8
   \   00000EEE   A1F86E00           STRH     R0,[R1, #+110]
    914                                        }						   
    915                                   }break;
   \                     ??KeyProcess_217:
   \   00000EF2   73E1               B.N      ??KeyProcess_185
    916                                   
    917                              case DISP_MENU4_7:     // 에어압 설정
    918                                   {
    919                                        if( Input_Mode == 0 )
   \                     ??KeyProcess_172:
   \   00000EF4   DFF8DC0B           LDR.W    R0,??KeyProcess_203
   \   00000EF8   0078               LDRB     R0,[R0, #+0]
   \   00000EFA   0028               CMP      R0,#+0
   \   00000EFC   04D1               BNE.N    ??KeyProcess_218
    920                                             DisplayInfo.Now_View = DISP_MENU4_6;					   
   \   00000EFE   DFF8D80B           LDR.W    R0,??KeyProcess_203+0x4
   \   00000F02   2721               MOVS     R1,#+39
   \   00000F04   4171               STRB     R1,[R0, #+5]
   \   00000F06   13E0               B.N      ??KeyProcess_219
    921                                        else if(Input_Mode == 1)
   \                     ??KeyProcess_218:
   \   00000F08   DFF8C80B           LDR.W    R0,??KeyProcess_203
   \   00000F0C   0078               LDRB     R0,[R0, #+0]
   \   00000F0E   0128               CMP      R0,#+1
   \   00000F10   0ED1               BNE.N    ??KeyProcess_219
    922                                        {
    923                                             if(SFLASH_Memory.EMS.Air_Volt > 100)
   \   00000F12   DFF8C80B           LDR.W    R0,??KeyProcess_203+0x8
   \   00000F16   B0F88F00           LDRH     R0,[R0, #+143]
   \   00000F1A   6528               CMP      R0,#+101
   \   00000F1C   08D3               BCC.N    ??KeyProcess_219
    924                                                  SFLASH_Memory.EMS.Air_Volt-=100;
   \   00000F1E   DFF8BC0B           LDR.W    R0,??KeyProcess_203+0x8
   \   00000F22   B0F88F00           LDRH     R0,[R0, #+143]
   \   00000F26   6438               SUBS     R0,R0,#+100
   \   00000F28   DFF8B01B           LDR.W    R1,??KeyProcess_203+0x8
   \   00000F2C   A1F88F00           STRH     R0,[R1, #+143]
    925                                        }							   
    926                                   }break;
   \                     ??KeyProcess_219:
   \   00000F30   54E1               B.N      ??KeyProcess_185
    927                                   
    928                              case DISP_MENU4_8:     // 냉각수 온도
    929                                   {
    930                                        if( Input_Mode == 0 )
   \                     ??KeyProcess_173:
   \   00000F32   DFF8A00B           LDR.W    R0,??KeyProcess_203
   \   00000F36   0078               LDRB     R0,[R0, #+0]
   \   00000F38   0028               CMP      R0,#+0
   \   00000F3A   04D1               BNE.N    ??KeyProcess_220
    931                                             DisplayInfo.Now_View = DISP_MENU4_7;					   
   \   00000F3C   DFF8980B           LDR.W    R0,??KeyProcess_203+0x4
   \   00000F40   2821               MOVS     R1,#+40
   \   00000F42   4171               STRB     R1,[R0, #+5]
   \   00000F44   13E0               B.N      ??KeyProcess_221
    932                                        else if(Input_Mode == 1)
   \                     ??KeyProcess_220:
   \   00000F46   DFF88C0B           LDR.W    R0,??KeyProcess_203
   \   00000F4A   0078               LDRB     R0,[R0, #+0]
   \   00000F4C   0128               CMP      R0,#+1
   \   00000F4E   0ED1               BNE.N    ??KeyProcess_221
    933                                        {
    934                                             if(SFLASH_Memory.EMS.ColdWaterTemp_Volt > 100)
   \   00000F50   DFF8880B           LDR.W    R0,??KeyProcess_203+0x8
   \   00000F54   B0F88D00           LDRH     R0,[R0, #+141]
   \   00000F58   6528               CMP      R0,#+101
   \   00000F5A   08D3               BCC.N    ??KeyProcess_221
    935                                                  SFLASH_Memory.EMS.ColdWaterTemp_Volt-=100;
   \   00000F5C   DFF87C0B           LDR.W    R0,??KeyProcess_203+0x8
   \   00000F60   B0F88D00           LDRH     R0,[R0, #+141]
   \   00000F64   6438               SUBS     R0,R0,#+100
   \   00000F66   DFF8741B           LDR.W    R1,??KeyProcess_203+0x8
   \   00000F6A   A1F88D00           STRH     R0,[R1, #+141]
    936                                        }	   
    937                                   }break;
   \                     ??KeyProcess_221:
   \   00000F6E   35E1               B.N      ??KeyProcess_185
    938                                   
    939                              case DISP_MENU4_9:     // 과속
    940                                   {
    941                                        if( Input_Mode == 0 )
   \                     ??KeyProcess_174:
   \   00000F70   DFF8600B           LDR.W    R0,??KeyProcess_203
   \   00000F74   0078               LDRB     R0,[R0, #+0]
   \   00000F76   0028               CMP      R0,#+0
   \   00000F78   04D1               BNE.N    ??KeyProcess_222
    942                                             DisplayInfo.Now_View = DISP_MENU4_8;					   
   \   00000F7A   DFF85C0B           LDR.W    R0,??KeyProcess_203+0x4
   \   00000F7E   2921               MOVS     R1,#+41
   \   00000F80   4171               STRB     R1,[R0, #+5]
   \   00000F82   13E0               B.N      ??KeyProcess_223
    943                                        else if(Input_Mode == 1)
   \                     ??KeyProcess_222:
   \   00000F84   DFF84C0B           LDR.W    R0,??KeyProcess_203
   \   00000F88   0078               LDRB     R0,[R0, #+0]
   \   00000F8A   0128               CMP      R0,#+1
   \   00000F8C   0ED1               BNE.N    ??KeyProcess_223
    944                                        {
    945                                             if(SFLASH_Memory.FastOverSpeed > 0)
   \   00000F8E   DFF84C0B           LDR.W    R0,??KeyProcess_203+0x8
   \   00000F92   B0F89600           LDRH     R0,[R0, #+150]
   \   00000F96   0128               CMP      R0,#+1
   \   00000F98   08D3               BCC.N    ??KeyProcess_223
    946                                                  SFLASH_Memory.FastOverSpeed--;
   \   00000F9A   DFF8400B           LDR.W    R0,??KeyProcess_203+0x8
   \   00000F9E   B0F89600           LDRH     R0,[R0, #+150]
   \   00000FA2   401E               SUBS     R0,R0,#+1
   \   00000FA4   DFF8341B           LDR.W    R1,??KeyProcess_203+0x8
   \   00000FA8   A1F89600           STRH     R0,[R1, #+150]
    947                                        }	   
    948                                   }break;
   \                     ??KeyProcess_223:
   \   00000FAC   16E1               B.N      ??KeyProcess_185
    949                                   
    950                              case DISP_MENU4_10:     // 급정지
    951                                   {
    952                                        if( Input_Mode == 0 )
   \                     ??KeyProcess_175:
   \   00000FAE   DFF8240B           LDR.W    R0,??KeyProcess_203
   \   00000FB2   0078               LDRB     R0,[R0, #+0]
   \   00000FB4   0028               CMP      R0,#+0
   \   00000FB6   04D1               BNE.N    ??KeyProcess_224
    953                                             DisplayInfo.Now_View = DISP_MENU4_9;					   
   \   00000FB8   DFF81C0B           LDR.W    R0,??KeyProcess_203+0x4
   \   00000FBC   2A21               MOVS     R1,#+42
   \   00000FBE   4171               STRB     R1,[R0, #+5]
   \   00000FC0   13E0               B.N      ??KeyProcess_225
    954                                        else if(Input_Mode == 1)
   \                     ??KeyProcess_224:
   \   00000FC2   DFF8100B           LDR.W    R0,??KeyProcess_203
   \   00000FC6   0078               LDRB     R0,[R0, #+0]
   \   00000FC8   0128               CMP      R0,#+1
   \   00000FCA   0ED1               BNE.N    ??KeyProcess_225
    955                                        {
    956                                             if(SFLASH_Memory.QuickStop > 0)
   \   00000FCC   DFF80C0B           LDR.W    R0,??KeyProcess_203+0x8
   \   00000FD0   B0F89A00           LDRH     R0,[R0, #+154]
   \   00000FD4   0128               CMP      R0,#+1
   \   00000FD6   08D3               BCC.N    ??KeyProcess_225
    957                                                  SFLASH_Memory.QuickStop--;
   \   00000FD8   DFF8000B           LDR.W    R0,??KeyProcess_203+0x8
   \   00000FDC   B0F89A00           LDRH     R0,[R0, #+154]
   \   00000FE0   401E               SUBS     R0,R0,#+1
   \   00000FE2   DFF8F81A           LDR.W    R1,??KeyProcess_203+0x8
   \   00000FE6   A1F89A00           STRH     R0,[R1, #+154]
    958                                        }	   
    959                                   }break;
   \                     ??KeyProcess_225:
   \   00000FEA   F7E0               B.N      ??KeyProcess_185
    960                                   
    961                              case DISP_MENU4_11:     // 급가속
    962                                   {
    963                                        if( Input_Mode == 0 )
   \                     ??KeyProcess_176:
   \   00000FEC   DFF8E40A           LDR.W    R0,??KeyProcess_203
   \   00000FF0   0078               LDRB     R0,[R0, #+0]
   \   00000FF2   0028               CMP      R0,#+0
   \   00000FF4   04D1               BNE.N    ??KeyProcess_226
    964                                             DisplayInfo.Now_View = DISP_MENU4_10;					   
   \   00000FF6   DFF8E00A           LDR.W    R0,??KeyProcess_203+0x4
   \   00000FFA   2B21               MOVS     R1,#+43
   \   00000FFC   4171               STRB     R1,[R0, #+5]
   \   00000FFE   13E0               B.N      ??KeyProcess_227
    965                                        else if(Input_Mode == 1)
   \                     ??KeyProcess_226:
   \   00001000   DFF8D00A           LDR.W    R0,??KeyProcess_203
   \   00001004   0078               LDRB     R0,[R0, #+0]
   \   00001006   0128               CMP      R0,#+1
   \   00001008   0ED1               BNE.N    ??KeyProcess_227
    966                                        {
    967                                             if(SFLASH_Memory.QuickStart > 0)
   \   0000100A   DFF8D00A           LDR.W    R0,??KeyProcess_203+0x8
   \   0000100E   B0F89C00           LDRH     R0,[R0, #+156]
   \   00001012   0128               CMP      R0,#+1
   \   00001014   08D3               BCC.N    ??KeyProcess_227
    968                                                  SFLASH_Memory.QuickStart--;
   \   00001016   DFF8C40A           LDR.W    R0,??KeyProcess_203+0x8
   \   0000101A   B0F89C00           LDRH     R0,[R0, #+156]
   \   0000101E   401E               SUBS     R0,R0,#+1
   \   00001020   DFF8B81A           LDR.W    R1,??KeyProcess_203+0x8
   \   00001024   A1F89C00           STRH     R0,[R1, #+156]
    969                                        }	   
    970                                   }break;
   \                     ??KeyProcess_227:
   \   00001028   D8E0               B.N      ??KeyProcess_185
    971                              case DISP_MENU4_12:     // 
    972                                   {
    973                                        if( Input_Mode == 0 )
   \                     ??KeyProcess_177:
   \   0000102A   DFF8A80A           LDR.W    R0,??KeyProcess_203
   \   0000102E   0078               LDRB     R0,[R0, #+0]
   \   00001030   0028               CMP      R0,#+0
   \   00001032   04D1               BNE.N    ??KeyProcess_228
    974                                             DisplayInfo.Now_View = DISP_MENU4_11;	
   \   00001034   DFF8A00A           LDR.W    R0,??KeyProcess_203+0x4
   \   00001038   2C21               MOVS     R1,#+44
   \   0000103A   4171               STRB     R1,[R0, #+5]
   \   0000103C   15E0               B.N      ??KeyProcess_229
    975                                        else if(Input_Mode == 1)
   \                     ??KeyProcess_228:
   \   0000103E   DFF8940A           LDR.W    R0,??KeyProcess_203
   \   00001042   0078               LDRB     R0,[R0, #+0]
   \   00001044   0128               CMP      R0,#+1
   \   00001046   10D1               BNE.N    ??KeyProcess_229
    976                                        {
    977                                             if(SFLASH_Memory.OverloadRPM > 500)
   \   00001048   DFF8900A           LDR.W    R0,??KeyProcess_203+0x8
   \   0000104C   B0F89E00           LDRH     R0,[R0, #+158]
   \   00001050   40F2F511           MOVW     R1,#+501
   \   00001054   8842               CMP      R0,R1
   \   00001056   08D3               BCC.N    ??KeyProcess_229
    978                                                  SFLASH_Memory.OverloadRPM-=100;
   \   00001058   DFF8800A           LDR.W    R0,??KeyProcess_203+0x8
   \   0000105C   B0F89E00           LDRH     R0,[R0, #+158]
   \   00001060   6438               SUBS     R0,R0,#+100
   \   00001062   DFF8781A           LDR.W    R1,??KeyProcess_203+0x8
   \   00001066   A1F89E00           STRH     R0,[R1, #+158]
    979                                        }	   					   
    980                                   }break;				    
   \                     ??KeyProcess_229:
   \   0000106A   B7E0               B.N      ??KeyProcess_185
    981                              case DISP_MENU4_13:     // 기울기 설정
    982                                   {
    983                                        if( Input_Mode == 0 )
   \                     ??KeyProcess_178:
   \   0000106C   DFF8640A           LDR.W    R0,??KeyProcess_203
   \   00001070   0078               LDRB     R0,[R0, #+0]
   \   00001072   0028               CMP      R0,#+0
   \   00001074   03D1               BNE.N    ??KeyProcess_230
    984                                             DisplayInfo.Now_View = DISP_MENU4_12;					   
   \   00001076   DFF8600A           LDR.W    R0,??KeyProcess_203+0x4
   \   0000107A   2D21               MOVS     R1,#+45
   \   0000107C   4171               STRB     R1,[R0, #+5]
    985                                   }break;
   \                     ??KeyProcess_230:
   \   0000107E   ADE0               B.N      ??KeyProcess_185
    986                              case DISP_MENU4_14:     // 볼륨
    987                                   {
    988            					   
    989                                   }break;
   \                     ??KeyProcess_179:
   \   00001080   ACE0               B.N      ??KeyProcess_185
    990                              case DISP_MENU4_15:     // IO Reverse 
    991                                   {
    992                                        if( Input_Mode == 0 )
   \                     ??KeyProcess_180:
   \   00001082   DFF8500A           LDR.W    R0,??KeyProcess_203
   \   00001086   0078               LDRB     R0,[R0, #+0]
   \   00001088   0028               CMP      R0,#+0
   \   0000108A   09D1               BNE.N    ??KeyProcess_231
    993                                             DisplayInfo.Now_View = DISP_MENU4_13;			
   \   0000108C   DFF8480A           LDR.W    R0,??KeyProcess_203+0x4
   \   00001090   2E21               MOVS     R1,#+46
   \   00001092   4171               STRB     R1,[R0, #+5]
   \   00001094   27E0               B.N      ??KeyProcess_232
   \   00001096   00BF               Nop      
   \                     ??KeyProcess_74:
   \   00001098   ........           DC32     VIEW_Header
   \   0000109C   ........           DC32     NAND_Header_Index
    994                                        else if(Input_Mode == 1)
   \                     ??KeyProcess_231:
   \   000010A0   DFF8300A           LDR.W    R0,??KeyProcess_203
   \   000010A4   0078               LDRB     R0,[R0, #+0]
   \   000010A6   0128               CMP      R0,#+1
   \   000010A8   1DD1               BNE.N    ??KeyProcess_232
    995                                        {
    996                                             if( INPUT_REVERSE_DATA & 1 << IOReverse_Count )	// 체크가 되어있으면
   \   000010AA   7548               LDR.N    R0,??KeyProcess_122
   \   000010AC   0088               LDRH     R0,[R0, #+0]
   \   000010AE   0121               MOVS     R1,#+1
   \   000010B0   744A               LDR.N    R2,??KeyProcess_122+0x4
   \   000010B2   92F90020           LDRSB    R2,[R2, #+0]
   \   000010B6   9140               LSLS     R1,R1,R2
   \   000010B8   0842               TST      R0,R1
   \   000010BA   0AD0               BEQ.N    ??KeyProcess_233
    997                                                  INPUT_REVERSE_DATA &= ~( 1 << IOReverse_Count );
   \   000010BC   7048               LDR.N    R0,??KeyProcess_122
   \   000010BE   0088               LDRH     R0,[R0, #+0]
   \   000010C0   0121               MOVS     R1,#+1
   \   000010C2   704A               LDR.N    R2,??KeyProcess_122+0x4
   \   000010C4   92F90020           LDRSB    R2,[R2, #+0]
   \   000010C8   9140               LSLS     R1,R1,R2
   \   000010CA   8843               BICS     R0,R0,R1
   \   000010CC   6C49               LDR.N    R1,??KeyProcess_122
   \   000010CE   0880               STRH     R0,[R1, #+0]
   \   000010D0   09E0               B.N      ??KeyProcess_232
    998                                             else
    999                                                  INPUT_REVERSE_DATA |= ( 1 << IOReverse_Count );
   \                     ??KeyProcess_233:
   \   000010D2   6B48               LDR.N    R0,??KeyProcess_122
   \   000010D4   0088               LDRH     R0,[R0, #+0]
   \   000010D6   0121               MOVS     R1,#+1
   \   000010D8   6A4A               LDR.N    R2,??KeyProcess_122+0x4
   \   000010DA   92F90020           LDRSB    R2,[R2, #+0]
   \   000010DE   9140               LSLS     R1,R1,R2
   \   000010E0   0843               ORRS     R0,R1,R0
   \   000010E2   6749               LDR.N    R1,??KeyProcess_122
   \   000010E4   0880               STRH     R0,[R1, #+0]
   1000                                        }						   
   1001                                   }break;		
   \                     ??KeyProcess_232:
   \   000010E6   79E0               B.N      ??KeyProcess_185
   \                     ??KeyProcess_80:
   \   000010E8   ........           DC32     Input_Index_1
   1002          
   1003                              case DISP_MENU4_16:     // GPS 차고지설정
   1004                                   {
   1005                                        DisplayInfo.Now_View = DISP_MENU4_15;			
   \                     ??KeyProcess_181:
   \   000010EC   DFF8E809           LDR.W    R0,??KeyProcess_203+0x4
   \   000010F0   3021               MOVS     R1,#+48
   \   000010F2   4171               STRB     R1,[R0, #+5]
   1006                                   }break;	
   \   000010F4   72E0               B.N      ??KeyProcess_185
   1007                              case DISP_MENU4_17:     // EMS 동작범위
   1008                                   {
   1009                                        if( Input_Mode == 0 )
   \                     ??KeyProcess_182:
   \   000010F6   DFF8DC09           LDR.W    R0,??KeyProcess_203
   \   000010FA   0078               LDRB     R0,[R0, #+0]
   \   000010FC   0028               CMP      R0,#+0
   \   000010FE   04D1               BNE.N    ??KeyProcess_234
   1010                                        {
   1011                                             DisplayInfo.Now_View = DISP_MENU4_16;			
   \   00001100   DFF8D409           LDR.W    R0,??KeyProcess_203+0x4
   \   00001104   3121               MOVS     R1,#+49
   \   00001106   4171               STRB     R1,[R0, #+5]
   \   00001108   19E0               B.N      ??KeyProcess_235
   1012                                        }
   1013                                        else if(Input_Mode == 1)
   \                     ??KeyProcess_234:
   \   0000110A   DFF8C809           LDR.W    R0,??KeyProcess_203
   \   0000110E   0078               LDRB     R0,[R0, #+0]
   \   00001110   0128               CMP      R0,#+1
   \   00001112   14D1               BNE.N    ??KeyProcess_235
   1014                                        {
   1015                                             if( SFLASH_Memory.GPS_EMS_Use == 0 )
   \   00001114   DFF8C409           LDR.W    R0,??KeyProcess_203+0x8
   \   00001118   90F88900           LDRB     R0,[R0, #+137]
   \   0000111C   0028               CMP      R0,#+0
   \   0000111E   05D1               BNE.N    ??KeyProcess_236
   1016                                                  SFLASH_Memory.GPS_EMS_Use = 2;                                        
   \   00001120   DFF8B809           LDR.W    R0,??KeyProcess_203+0x8
   \   00001124   0221               MOVS     R1,#+2
   \   00001126   80F88910           STRB     R1,[R0, #+137]
   \   0000112A   08E0               B.N      ??KeyProcess_235
   1017                                             else
   1018                                                  SFLASH_Memory.GPS_EMS_Use--;                                   
   \                     ??KeyProcess_236:
   \   0000112C   DFF8AC09           LDR.W    R0,??KeyProcess_203+0x8
   \   00001130   90F88900           LDRB     R0,[R0, #+137]
   \   00001134   401E               SUBS     R0,R0,#+1
   \   00001136   DFF8A419           LDR.W    R1,??KeyProcess_203+0x8
   \   0000113A   81F88900           STRB     R0,[R1, #+137]
   1019                                        }						   
   1020                                   }break;	  
   \                     ??KeyProcess_235:
   \   0000113E   4DE0               B.N      ??KeyProcess_185
   1021                              case DISP_MENU4_18:     // EMS 스타트 모터 설정
   1022                                   {
   1023                                        if( Input_Mode == 0 )
   \                     ??KeyProcess_183:
   \   00001140   DFF89009           LDR.W    R0,??KeyProcess_203
   \   00001144   0078               LDRB     R0,[R0, #+0]
   \   00001146   0028               CMP      R0,#+0
   \   00001148   04D1               BNE.N    ??KeyProcess_237
   1024                                        {
   1025                                             DisplayInfo.Now_View = DISP_MENU4_17;			
   \   0000114A   DFF88C09           LDR.W    R0,??KeyProcess_203+0x4
   \   0000114E   3221               MOVS     R1,#+50
   \   00001150   4171               STRB     R1,[R0, #+5]
   \   00001152   19E0               B.N      ??KeyProcess_238
   1026                                        }
   1027                                        else if(Input_Mode == 1)
   \                     ??KeyProcess_237:
   \   00001154   DFF87C09           LDR.W    R0,??KeyProcess_203
   \   00001158   0078               LDRB     R0,[R0, #+0]
   \   0000115A   0128               CMP      R0,#+1
   \   0000115C   14D1               BNE.N    ??KeyProcess_238
   1028                                        {
   1029                                             if(Input_Word[Input_Index_2] == '0')
   \   0000115E   2848               LDR.N    R0,??KeyProcess_92
   \   00001160   0078               LDRB     R0,[R0, #+0]
   \   00001162   2849               LDR.N    R1,??KeyProcess_92+0x4
   \   00001164   405C               LDRB     R0,[R0, R1]
   \   00001166   3028               CMP      R0,#+48
   \   00001168   05D1               BNE.N    ??KeyProcess_239
   1030                                                  Input_Word[Input_Index_2] = '9';
   \   0000116A   2548               LDR.N    R0,??KeyProcess_92
   \   0000116C   0078               LDRB     R0,[R0, #+0]
   \   0000116E   2549               LDR.N    R1,??KeyProcess_92+0x4
   \   00001170   3922               MOVS     R2,#+57
   \   00001172   4254               STRB     R2,[R0, R1]
   \   00001174   08E0               B.N      ??KeyProcess_238
   1031                                             else
   1032                                                  Input_Word[Input_Index_2] --;
   \                     ??KeyProcess_239:
   \   00001176   2248               LDR.N    R0,??KeyProcess_92
   \   00001178   0078               LDRB     R0,[R0, #+0]
   \   0000117A   2249               LDR.N    R1,??KeyProcess_92+0x4
   \   0000117C   405C               LDRB     R0,[R0, R1]
   \   0000117E   401E               SUBS     R0,R0,#+1
   \   00001180   1F49               LDR.N    R1,??KeyProcess_92
   \   00001182   0978               LDRB     R1,[R1, #+0]
   \   00001184   1F4A               LDR.N    R2,??KeyProcess_92+0x4
   \   00001186   8854               STRB     R0,[R1, R2]
   1033                                        }   
   1034                                   }break;	 
   \                     ??KeyProcess_238:
   \   00001188   28E0               B.N      ??KeyProcess_185
   \   0000118A   00BF               Nop      
   \                     ??KeyProcess_86:
   \   0000118C   ........           DC32     Pass_Index
   \   00001190   ........           DC32     ??Password
   1035                              case DISP_MENU4_19:     // EMS 속도범위
   1036                                   {
   1037                                        if( Input_Mode == 0 )
   \                     ??KeyProcess_184:
   \   00001194   DFF83C09           LDR.W    R0,??KeyProcess_203
   \   00001198   0078               LDRB     R0,[R0, #+0]
   \   0000119A   0028               CMP      R0,#+0
   \   0000119C   04D1               BNE.N    ??KeyProcess_240
   1038                                        {
   1039                                             DisplayInfo.Now_View = DISP_MENU4_18;			
   \   0000119E   DFF83809           LDR.W    R0,??KeyProcess_203+0x4
   \   000011A2   3321               MOVS     R1,#+51
   \   000011A4   4171               STRB     R1,[R0, #+5]
   \   000011A6   19E0               B.N      ??KeyProcess_241
   1040                                        }
   1041                                        else if(Input_Mode == 1)
   \                     ??KeyProcess_240:
   \   000011A8   DFF82809           LDR.W    R0,??KeyProcess_203
   \   000011AC   0078               LDRB     R0,[R0, #+0]
   \   000011AE   0128               CMP      R0,#+1
   \   000011B0   14D1               BNE.N    ??KeyProcess_241
   1042                                        {
   1043                                             if( SFLASH_Memory.EMS.LimitSpeed == 0 )
   \   000011B2   DFF82809           LDR.W    R0,??KeyProcess_203+0x8
   \   000011B6   90F89300           LDRB     R0,[R0, #+147]
   \   000011BA   0028               CMP      R0,#+0
   \   000011BC   05D1               BNE.N    ??KeyProcess_242
   1044                                                  SFLASH_Memory.EMS.LimitSpeed = 50;                                        
   \   000011BE   DFF81C09           LDR.W    R0,??KeyProcess_203+0x8
   \   000011C2   3221               MOVS     R1,#+50
   \   000011C4   80F89310           STRB     R1,[R0, #+147]
   \   000011C8   08E0               B.N      ??KeyProcess_241
   1045                                             else
   1046                                                  SFLASH_Memory.EMS.LimitSpeed--;                                   
   \                     ??KeyProcess_242:
   \   000011CA   DFF81009           LDR.W    R0,??KeyProcess_203+0x8
   \   000011CE   90F89300           LDRB     R0,[R0, #+147]
   \   000011D2   401E               SUBS     R0,R0,#+1
   \   000011D4   DFF80419           LDR.W    R1,??KeyProcess_203+0x8
   \   000011D8   81F89300           STRB     R0,[R1, #+147]
   1047                                        }						   
   1048                                   }break;	                          
   1049                              } // end of Switch
   1050                              
   1051                              if( LOGWRITE & LOG_KEY )
   \                     ??KeyProcess_241:
   \                     ??KeyProcess_185:
   \   000011DC   DFF8DC0B           LDR.W    R0,??KeyProcess_243
   \   000011E0   0078               LDRB     R0,[R0, #+0]
   \   000011E2   0007               LSLS     R0,R0,#+28
   \   000011E4   0AD5               BPL.N    ??KeyProcess_137
   1052                              {
   1053                                   sprintf((char *)Buffer,"KEY-DOWN Done\r\n");
   \   000011E6   DFF8D81B           LDR.W    R1,??KeyProcess_243+0x4
   \   000011EA   DFF8D80B           LDR.W    R0,??KeyProcess_243+0x8
   \   000011EE   ........           BL       sprintf
   1054                                   Write_Log(Buffer, NORMAL_LOG);
   \   000011F2   0121               MOVS     R1,#+1
   \   000011F4   DFF8CC0B           LDR.W    R0,??KeyProcess_243+0x8
   \   000011F8   ........           BL       Write_Log
   1055                              }                                              
   1056                         }
   1057                    }  // end of Key_MODE
   1058                    break;
   \                     ??KeyProcess_137:
   \   000011FC   01F082BA           B.W      ??KeyProcess_13
   \                     ??KeyProcess_92:
   \   00001200   ........           DC32     Input_Index_2
   \   00001204   ........           DC32     Input_Word
   1059               case Key_OK:
   1060                    {
   1061                         GLCD_Refresh_Flag = 1;
   \                     ??KeyProcess_5:
   \   00001208   DFF8BC0B           LDR.W    R0,??KeyProcess_243+0xC
   \   0000120C   0121               MOVS     R1,#+1
   \   0000120E   0170               STRB     R1,[R0, #+0]
   1062                         if( DisplayInfo.Mode == DISPMODE_VIEW )
   \   00001210   DFF8C408           LDR.W    R0,??KeyProcess_203+0x4
   \   00001214   8079               LDRB     R0,[R0, #+6]
   \   00001216   0128               CMP      R0,#+1
   \   00001218   40F08480           BNE.W    ??KeyProcess_244
   1063                         {
   1064                              if( DisplayInfo.Now_View == DISP_MENU5_1 )   // 볼륨 조절
   \   0000121C   DFF8B808           LDR.W    R0,??KeyProcess_203+0x4
   \   00001220   4079               LDRB     R0,[R0, #+5]
   \   00001222   3528               CMP      R0,#+53
   \   00001224   30D1               BNE.N    ??KeyProcess_245
   1065                              {
   1066                                   Input_Mode = 0;	   
   \   00001226   DFF8AC08           LDR.W    R0,??KeyProcess_203
   \   0000122A   0021               MOVS     R1,#+0
   \   0000122C   0170               STRB     R1,[R0, #+0]
   1067                                   
   1068                                   Write_Word(0,16,"  정보수정완료  ");
   \   0000122E   DFF89C2B           LDR.W    R2,??KeyProcess_243+0x10
   \   00001232   1021               MOVS     R1,#+16
   \   00001234   0020               MOVS     R0,#+0
   \   00001236   ........           BL       Write_Word
   1069                                   
   1070                                   DisplayInfo.TimeOut = MS_TIMER;                                       
   \   0000123A   DFF8940B           LDR.W    R0,??KeyProcess_243+0x14  ;; 0x40000c00
   \   0000123E   ........           BL       TIM_GetCounter
   \   00001242   DFF89418           LDR.W    R1,??KeyProcess_203+0x4
   \   00001246   4880               STRH     R0,[R1, #+2]
   1071                                   DisplayInfo.HoldingTime = 2000;
   \   00001248   DFF88C08           LDR.W    R0,??KeyProcess_203+0x4
   \   0000124C   4FF4FA61           MOV      R1,#+2000
   \   00001250   0180               STRH     R1,[R0, #+0]
   1072                                   DisplayInfo.Next_View = DISP_IDLE;
   \   00001252   DFF88408           LDR.W    R0,??KeyProcess_203+0x4
   \   00001256   0321               MOVS     R1,#+3
   \   00001258   0171               STRB     R1,[R0, #+4]
   1073                                   
   1074                                   DisplayInfo.Now_View = DISP_WAIT;
   \   0000125A   DFF87C08           LDR.W    R0,??KeyProcess_203+0x4
   \   0000125E   0121               MOVS     R1,#+1
   \   00001260   4171               STRB     R1,[R0, #+5]
   1075                                   
   1076                                   Voice_Set_Volume(SFLASH_Memory.Voice_Volume);
   \   00001262   DFF87808           LDR.W    R0,??KeyProcess_203+0x8
   \   00001266   90F8A300           LDRB     R0,[R0, #+163]
   \   0000126A   ........           BL       Voice_Set_Volume
   1077                                   SetCursor(0,0,0);
   \   0000126E   0022               MOVS     R2,#+0
   \   00001270   0021               MOVS     R1,#+0
   \   00001272   0020               MOVS     R0,#+0
   \   00001274   ........           BL       SetCursor
   1078                                   
   1079                                   Save_SFLASH();                         
   \   00001278   ........           BL       Save_SFLASH
   \   0000127C   52E0               B.N      ??KeyProcess_244
   \   0000127E   00BF               Nop      
   \                     ??KeyProcess_122:
   \   00001280   ........           DC32     INPUT_REVERSE_DATA
   \   00001284   ........           DC32     IOReverse_Count
   1080                                   
   1081                              }
   1082                              else if(DisplayInfo.Now_View != DISP_MENU2_1_1 )
   \                     ??KeyProcess_245:
   \   00001288   DFF84C08           LDR.W    R0,??KeyProcess_203+0x4
   \   0000128C   4079               LDRB     R0,[R0, #+5]
   \   0000128E   1F28               CMP      R0,#+31
   \   00001290   12D0               BEQ.N    ??KeyProcess_246
   1083                              {
   1084                                   if(Info.Driver_Index == NO_DRIVER)             // 운전자가 선택되지 않았다면
   \   00001292   DFF8400B           LDR.W    R0,??KeyProcess_243+0x18
   \   00001296   0078               LDRB     R0,[R0, #+0]
   \   00001298   FF28               CMP      R0,#+255
   \   0000129A   03D1               BNE.N    ??KeyProcess_247
   1085                                        Info.Driver_Index = 0;              // 최근 마지막 운전자
   \   0000129C   DFF8340B           LDR.W    R0,??KeyProcess_243+0x18
   \   000012A0   0021               MOVS     R1,#+0
   \   000012A2   0170               STRB     R1,[R0, #+0]
   1086                                   DisplayInfo.Now_View = DISP_MENU2_1_1;
   \                     ??KeyProcess_247:
   \   000012A4   DFF83008           LDR.W    R0,??KeyProcess_203+0x4
   \   000012A8   1F21               MOVS     R1,#+31
   \   000012AA   4171               STRB     R1,[R0, #+5]
   1087                                   SetCursor(0,26,3);                    
   \   000012AC   0322               MOVS     R2,#+3
   \   000012AE   1A21               MOVS     R1,#+26
   \   000012B0   0020               MOVS     R0,#+0
   \   000012B2   ........           BL       SetCursor
   \   000012B6   35E0               B.N      ??KeyProcess_244
   1088                              }else if(DisplayInfo.Now_View == DISP_MENU2_1_1 )
   \                     ??KeyProcess_246:
   \   000012B8   DFF81C08           LDR.W    R0,??KeyProcess_203+0x4
   \   000012BC   4079               LDRB     R0,[R0, #+5]
   \   000012BE   1F28               CMP      R0,#+31
   \   000012C0   30D1               BNE.N    ??KeyProcess_244
   1089                              {
   1090                                   Flag.Driver_Change = 1;
   \   000012C2   DFF8F80D           LDR.W    R0,??KeyProcess_248
   \   000012C6   0121               MOVS     R1,#+1
   \   000012C8   4172               STRB     R1,[R0, #+9]
   1091                                   
   1092                                   SetCursor(0,0,0);        //커서를 끄고     
   \   000012CA   0022               MOVS     R2,#+0
   \   000012CC   0021               MOVS     R1,#+0
   \   000012CE   0020               MOVS     R0,#+0
   \   000012D0   ........           BL       SetCursor
   1093                                   Write_Word(0,16,"운전자정보수정완료  ");
   \   000012D4   DFF8E82D           LDR.W    R2,??KeyProcess_248+0x4
   \   000012D8   1021               MOVS     R1,#+16
   \   000012DA   0020               MOVS     R0,#+0
   \   000012DC   ........           BL       Write_Word
   1094                                   
   1095                                   DisplayInfo.TimeOut = MS_TIMER;
   \   000012E0   DFF8EC0A           LDR.W    R0,??KeyProcess_243+0x14  ;; 0x40000c00
   \   000012E4   ........           BL       TIM_GetCounter
   \   000012E8   DFF8EC17           LDR.W    R1,??KeyProcess_203+0x4
   \   000012EC   4880               STRH     R0,[R1, #+2]
   1096                                   DisplayInfo.HoldingTime = 2000;
   \   000012EE   DFF8E807           LDR.W    R0,??KeyProcess_203+0x4
   \   000012F2   4FF4FA61           MOV      R1,#+2000
   \   000012F6   0180               STRH     R1,[R0, #+0]
   1097                                   DisplayInfo.Next_View = DISP_IDLE;//DisplayInfo.Now_View;                              
   \   000012F8   DFF8DC07           LDR.W    R0,??KeyProcess_203+0x4
   \   000012FC   0321               MOVS     R1,#+3
   \   000012FE   0171               STRB     R1,[R0, #+4]
   1098                                   DisplayInfo.Now_View = DISP_WAIT;
   \   00001300   DFF8D407           LDR.W    R0,??KeyProcess_203+0x4
   \   00001304   0121               MOVS     R1,#+1
   \   00001306   4171               STRB     R1,[R0, #+5]
   1099                                   memcpy( Info.Driver_Num , SFLASH_Memory.Driver[Info.Driver_Index] , DRIVER_NUM_SIZE) ;
   \   00001308   1222               MOVS     R2,#+18
   \   0000130A   DFF8C80A           LDR.W    R0,??KeyProcess_243+0x18
   \   0000130E   0078               LDRB     R0,[R0, #+0]
   \   00001310   1321               MOVS     R1,#+19
   \   00001312   DFF8C837           LDR.W    R3,??KeyProcess_203+0x8
   \   00001316   01FB0030           MLA      R0,R1,R0,R3
   \   0000131A   411C               ADDS     R1,R0,#+1
   \   0000131C   DFF8040E           LDR.W    R0,??KeyProcess_249
   \   00001320   ........           BL       memcpy
   1100          //                              Save_SFLASH();                         
   1101                              }
   1102          
   1103                         }
   1104                         if( DisplayInfo.Mode == DISPMODE_MENU )
   \                     ??KeyProcess_244:
   \   00001324   DFF8B007           LDR.W    R0,??KeyProcess_203+0x4
   \   00001328   8079               LDRB     R0,[R0, #+6]
   \   0000132A   0228               CMP      R0,#+2
   \   0000132C   41F07E80           BNE.W    ??KeyProcess_250
   1105                         {
   1106                              
   1107                              switch(DisplayInfo.Now_View)
   \   00001330   DFF8A407           LDR.W    R0,??KeyProcess_203+0x4
   \   00001334   4079               LDRB     R0,[R0, #+5]
   \   00001336   1128               CMP      R0,#+17
   \   00001338   60D0               BEQ.N    ??KeyProcess_251
   \   0000133A   1228               CMP      R0,#+18
   \   0000133C   00F00382           BEQ.W    ??KeyProcess_252
   \   00001340   1328               CMP      R0,#+19
   \   00001342   00F04282           BEQ.W    ??KeyProcess_253
   \   00001346   1428               CMP      R0,#+20
   \   00001348   00F04682           BEQ.W    ??KeyProcess_254
   \   0000134C   1528               CMP      R0,#+21
   \   0000134E   00F05582           BEQ.W    ??KeyProcess_255
   \   00001352   1628               CMP      R0,#+22
   \   00001354   00F07082           BEQ.W    ??KeyProcess_256
   \   00001358   1728               CMP      R0,#+23
   \   0000135A   00F08B82           BEQ.W    ??KeyProcess_257
   \   0000135E   1A28               CMP      R0,#+26
   \   00001360   52D0               BEQ.N    ??KeyProcess_258
   \   00001362   1B28               CMP      R0,#+27
   \   00001364   00F08D80           BEQ.W    ??KeyProcess_259
   \   00001368   1C28               CMP      R0,#+28
   \   0000136A   00F09081           BEQ.W    ??KeyProcess_260
   \   0000136E   1D28               CMP      R0,#+29
   \   00001370   00F0BB81           BEQ.W    ??KeyProcess_261
   \   00001374   1E28               CMP      R0,#+30
   \   00001376   00F0FA81           BEQ.W    ??KeyProcess_262
   \   0000137A   2028               CMP      R0,#+32
   \   0000137C   00F02A82           BEQ.W    ??KeyProcess_263
   \   00001380   2128               CMP      R0,#+33
   \   00001382   00F09582           BEQ.W    ??KeyProcess_264
   \   00001386   2228               CMP      R0,#+34
   \   00001388   00F0AC82           BEQ.W    ??KeyProcess_265
   \   0000138C   2328               CMP      R0,#+35
   \   0000138E   00F06783           BEQ.W    ??KeyProcess_266
   \   00001392   2428               CMP      R0,#+36
   \   00001394   00F0A483           BEQ.W    ??KeyProcess_267
   \   00001398   2528               CMP      R0,#+37
   \   0000139A   00F01484           BEQ.W    ??KeyProcess_268
   \   0000139E   2628               CMP      R0,#+38
   \   000013A0   00F08484           BEQ.W    ??KeyProcess_269
   \   000013A4   2728               CMP      R0,#+39
   \   000013A6   00F0C584           BEQ.W    ??KeyProcess_270
   \   000013AA   2828               CMP      R0,#+40
   \   000013AC   00F01485           BEQ.W    ??KeyProcess_271
   \   000013B0   2928               CMP      R0,#+41
   \   000013B2   00F04D85           BEQ.W    ??KeyProcess_272
   \   000013B6   2A28               CMP      R0,#+42
   \   000013B8   00F08685           BEQ.W    ??KeyProcess_273
   \   000013BC   2B28               CMP      R0,#+43
   \   000013BE   00F0BF85           BEQ.W    ??KeyProcess_274
   \   000013C2   2C28               CMP      R0,#+44
   \   000013C4   00F0F885           BEQ.W    ??KeyProcess_275
   \   000013C8   2D28               CMP      R0,#+45
   \   000013CA   00F03186           BEQ.W    ??KeyProcess_276
   \   000013CE   2E28               CMP      R0,#+46
   \   000013D0   00F06A86           BEQ.W    ??KeyProcess_277
   \   000013D4   2F28               CMP      R0,#+47
   \   000013D6   00F0A786           BEQ.W    ??KeyProcess_278
   \   000013DA   3028               CMP      R0,#+48
   \   000013DC   00F0A486           BEQ.W    ??KeyProcess_278
   \   000013E0   3128               CMP      R0,#+49
   \   000013E2   00F01387           BEQ.W    ??KeyProcess_279
   \   000013E6   3228               CMP      R0,#+50
   \   000013E8   00F03F87           BEQ.W    ??KeyProcess_280
   \   000013EC   3328               CMP      R0,#+51
   \   000013EE   00F07887           BEQ.W    ??KeyProcess_281
   \   000013F2   3428               CMP      R0,#+52
   \   000013F4   00F0E287           BEQ.W    ??KeyProcess_282
   \   000013F8   01F018B8           B.W      ??KeyProcess_250
   1108                              {
   1109                              case DISP_MENU1:
   1110                                   {
   1111                                        DisplayInfo.Now_View = DISP_MENU1_1;
   \                     ??KeyProcess_251:
   \   000013FC   DFF8D806           LDR.W    R0,??KeyProcess_203+0x4
   \   00001400   1A21               MOVS     R1,#+26
   \   00001402   4171               STRB     R1,[R0, #+5]
   1112                                   }break;
   \   00001404   01F012B8           B.W      ??KeyProcess_250
   1113                              case DISP_MENU1_1:     // 지정기간 백업
   1114                                   {
   1115                                        if( Input_Mode == 0)       // 선택할수 있도로 변경
   \                     ??KeyProcess_258:
   \   00001408   DFF8C806           LDR.W    R0,??KeyProcess_203
   \   0000140C   0078               LDRB     R0,[R0, #+0]
   \   0000140E   0028               CMP      R0,#+0
   \   00001410   19D1               BNE.N    ??KeyProcess_283
   1116                                        {
   1117                                             VIEW_Header.Start_Index = 0;   
   \   00001412   DFF8E40D           LDR.W    R0,??KeyProcess_284
   \   00001416   0021               MOVS     R1,#+0
   \   00001418   0160               STR      R1,[R0, #+0]
   1118                                             Input_Mode = 1;
   \   0000141A   DFF8B806           LDR.W    R0,??KeyProcess_203
   \   0000141E   0121               MOVS     R1,#+1
   \   00001420   0170               STRB     R1,[R0, #+0]
   1119                                             VIEW_Header.Header = Read_Header_Information(VIEW_Header.Start_Index);
   \   00001422   DFF8D40D           LDR.W    R0,??KeyProcess_284
   \   00001426   0168               LDR      R1,[R0, #+0]
   \   00001428   89B2               UXTH     R1,R1            ;; ZeroExt  R1,R1,#+16,#+16
   \   0000142A   01A8               ADD      R0,SP,#+4
   \   0000142C   ........           BL       Read_Header_Information
   \   00001430   0020               MOVS     R0,#+0
   \                     ??KeyProcess_285:
   \   00001432   DFF8C41D           LDR.W    R1,??KeyProcess_284
   \   00001436   4118               ADDS     R1,R0,R1
   \   00001438   01AA               ADD      R2,SP,#+4
   \   0000143A   825C               LDRB     R2,[R0, R2]
   \   0000143C   0A72               STRB     R2,[R1, #+8]
   \   0000143E   401C               ADDS     R0,R0,#+1
   \   00001440   1028               CMP      R0,#+16
   \   00001442   F6DB               BLT.N    ??KeyProcess_285
   \   00001444   1BE0               B.N      ??KeyProcess_286
   1120                                        }else if (Input_Mode == 1)      // 선택했을경우
   \                     ??KeyProcess_283:
   \   00001446   DFF88C06           LDR.W    R0,??KeyProcess_203
   \   0000144A   0078               LDRB     R0,[R0, #+0]
   \   0000144C   0128               CMP      R0,#+1
   \   0000144E   16D1               BNE.N    ??KeyProcess_286
   1121                                        {
   1122                                             if( USBH_USR_ApplicationState == USH_USR_FS_INIT )
   \   00001450   DFF8A80D           LDR.W    R0,??KeyProcess_284+0x4
   \   00001454   0078               LDRB     R0,[R0, #+0]
   \   00001456   0028               CMP      R0,#+0
   \   00001458   05D1               BNE.N    ??KeyProcess_287
   1123                                             {
   1124                                                  Input_Mode = 4;
   \   0000145A   DFF87806           LDR.W    R0,??KeyProcess_203
   \   0000145E   0421               MOVS     R1,#+4
   \   00001460   0170               STRB     R1,[R0, #+0]
   1125                                                  break;
   \   00001462   00F0E3BF           B.W      ??KeyProcess_250
   1126                                             }                                   
   1127                                             VIEW_Header.Search_Count = 1;
   \                     ??KeyProcess_287:
   \   00001466   DFF8900D           LDR.W    R0,??KeyProcess_284
   \   0000146A   0121               MOVS     R1,#+1
   \   0000146C   4160               STR      R1,[R0, #+4]
   1128                                             USBH_USR_ActionFlag = USH_USR_FS_WRITEBACKUP;  // 백업을 선택한다.                                  
   \   0000146E   DFF8900D           LDR.W    R0,??KeyProcess_284+0x8
   \   00001472   0421               MOVS     R1,#+4
   \   00001474   0170               STRB     R1,[R0, #+0]
   1129                                             Input_Mode = 2;
   \   00001476   DFF85C06           LDR.W    R0,??KeyProcess_203
   \   0000147A   0221               MOVS     R1,#+2
   \   0000147C   0170               STRB     R1,[R0, #+0]
   1130                                        }
   1131                                        //                                 Trans_DTG(Page++);
   1132                                   }break;
   \                     ??KeyProcess_286:
   \   0000147E   00F0D5BF           B.W      ??KeyProcess_250
   1133                              case DISP_MENU1_2:     //  기간 백업
   1134                                   {           
   1135                                        if(Input_Mode == 0 )
   \                     ??KeyProcess_259:
   \   00001482   DFF85006           LDR.W    R0,??KeyProcess_203
   \   00001486   0078               LDRB     R0,[R0, #+0]
   \   00001488   0028               CMP      R0,#+0
   \   0000148A   19D1               BNE.N    ??KeyProcess_288
   1136                                        {
   1137                                             Input_Index_1 = 0 ;
   \   0000148C   DFF8740D           LDR.W    R0,??KeyProcess_284+0xC
   \   00001490   0021               MOVS     R1,#+0
   \   00001492   0170               STRB     R1,[R0, #+0]
   1138                                             Input_Mode = 1;
   \   00001494   DFF83C06           LDR.W    R0,??KeyProcess_203
   \   00001498   0121               MOVS     R1,#+1
   \   0000149A   0170               STRB     R1,[R0, #+0]
   1139                                             VIEW_Header.Header = Read_Header_Information(VIEW_Header.Start_Index);
   \   0000149C   DFF8580D           LDR.W    R0,??KeyProcess_284
   \   000014A0   0168               LDR      R1,[R0, #+0]
   \   000014A2   89B2               UXTH     R1,R1            ;; ZeroExt  R1,R1,#+16,#+16
   \   000014A4   01A8               ADD      R0,SP,#+4
   \   000014A6   ........           BL       Read_Header_Information
   \   000014AA   0020               MOVS     R0,#+0
   \                     ??KeyProcess_289:
   \   000014AC   DFF8481D           LDR.W    R1,??KeyProcess_284
   \   000014B0   4118               ADDS     R1,R0,R1
   \   000014B2   01AA               ADD      R2,SP,#+4
   \   000014B4   825C               LDRB     R2,[R0, R2]
   \   000014B6   0A72               STRB     R2,[R1, #+8]
   \   000014B8   401C               ADDS     R0,R0,#+1
   \   000014BA   1028               CMP      R0,#+16
   \   000014BC   F6DB               BLT.N    ??KeyProcess_289
   \   000014BE   E4E0               B.N      ??KeyProcess_290
   1140                                        }
   1141                                        else if(Input_Mode == 1)
   \                     ??KeyProcess_288:
   \   000014C0   DFF81006           LDR.W    R0,??KeyProcess_203
   \   000014C4   0078               LDRB     R0,[R0, #+0]
   \   000014C6   0128               CMP      R0,#+1
   \   000014C8   40F0DF80           BNE.W    ??KeyProcess_290
   1142                                        {                       
   1143                                             if( USBH_USR_ApplicationState == USH_USR_FS_INIT )
   \   000014CC   DFF82C0D           LDR.W    R0,??KeyProcess_284+0x4
   \   000014D0   0078               LDRB     R0,[R0, #+0]
   \   000014D2   0028               CMP      R0,#+0
   \   000014D4   05D1               BNE.N    ??KeyProcess_291
   1144                                             {
   1145                                                  Input_Mode = 4;
   \   000014D6   DFF8FC05           LDR.W    R0,??KeyProcess_203
   \   000014DA   0421               MOVS     R1,#+4
   \   000014DC   0170               STRB     R1,[R0, #+0]
   1146                                                  break;
   \   000014DE   00F0A5BF           B.W      ??KeyProcess_250
   1147                                             }
   1148                                             if( Input_Index_1 == 0 )     // 오늘 검색해서 백업
   \                     ??KeyProcess_291:
   \   000014E2   DFF8200D           LDR.W    R0,??KeyProcess_284+0xC
   \   000014E6   0078               LDRB     R0,[R0, #+0]
   \   000014E8   0028               CMP      R0,#+0
   \   000014EA   0ED1               BNE.N    ??KeyProcess_292
   1149                                             {
   1150                                                  VIEW_Header.Start_Index = NAND_Header_Index.Write_Point ;
   \   000014EC   DFF8180D           LDR.W    R0,??KeyProcess_284+0x10
   \   000014F0   4088               LDRH     R0,[R0, #+2]
   \   000014F2   DFF8041D           LDR.W    R1,??KeyProcess_284
   \   000014F6   0860               STR      R0,[R1, #+0]
   1151                                                  VIEW_Header.Search_Count = 1;
   \   000014F8   DFF8FC0C           LDR.W    R0,??KeyProcess_284
   \   000014FC   0121               MOVS     R1,#+1
   \   000014FE   4160               STR      R1,[R0, #+4]
   1152                                                  USBH_USR_ActionFlag = USH_USR_FS_WRITEBACKUP;  // 백업을 선택한다.        
   \   00001500   DFF8FC0C           LDR.W    R0,??KeyProcess_284+0x8
   \   00001504   0421               MOVS     R1,#+4
   \   00001506   0170               STRB     R1,[R0, #+0]
   \   00001508   BBE0               B.N      ??KeyProcess_293
   1153                                             }else if(Input_Index_1 == 1) // 하루 검색해서 백업
   \                     ??KeyProcess_292:
   \   0000150A   DFF8F80C           LDR.W    R0,??KeyProcess_284+0xC
   \   0000150E   0078               LDRB     R0,[R0, #+0]
   \   00001510   0128               CMP      R0,#+1
   \   00001512   22D1               BNE.N    ??KeyProcess_294
   1154                                             {
   1155                                                  if(NAND_Header_Index.Header_Count > 1)
   \   00001514   DFF8F00C           LDR.W    R0,??KeyProcess_284+0x10
   \   00001518   0088               LDRH     R0,[R0, #+0]
   \   0000151A   0228               CMP      R0,#+2
   \   0000151C   0ED3               BCC.N    ??KeyProcess_295
   1156                                                  {
   1157                                                       VIEW_Header.Start_Index = GetHeader_Index(NAND_Header_Index.Write_Point , -1);
   \   0000151E   5FF0FF31           MOVS     R1,#-1
   \   00001522   DFF8E40C           LDR.W    R0,??KeyProcess_284+0x10
   \   00001526   4088               LDRH     R0,[R0, #+2]
   \   00001528   ........           BL       GetHeader_Index
   \   0000152C   DFF8C81C           LDR.W    R1,??KeyProcess_284
   \   00001530   0860               STR      R0,[R1, #+0]
   1158                                                       VIEW_Header.Search_Count = 1;
   \   00001532   DFF8C40C           LDR.W    R0,??KeyProcess_284
   \   00001536   0121               MOVS     R1,#+1
   \   00001538   4160               STR      R1,[R0, #+4]
   \   0000153A   09E0               B.N      ??KeyProcess_296
   1159                                                  }else
   1160                                                  {
   1161                                                       VIEW_Header.Start_Index = NAND_Header_Index.Write_Point ;
   \                     ??KeyProcess_295:
   \   0000153C   DFF8C80C           LDR.W    R0,??KeyProcess_284+0x10
   \   00001540   4088               LDRH     R0,[R0, #+2]
   \   00001542   DFF8B41C           LDR.W    R1,??KeyProcess_284
   \   00001546   0860               STR      R0,[R1, #+0]
   1162                                                       VIEW_Header.Search_Count = 1;
   \   00001548   DFF8AC0C           LDR.W    R0,??KeyProcess_284
   \   0000154C   0121               MOVS     R1,#+1
   \   0000154E   4160               STR      R1,[R0, #+4]
   1163                                                  }
   1164                                                  USBH_USR_ActionFlag = USH_USR_FS_WRITEBACKUP;  // 백업을 선택한다.                                           
   \                     ??KeyProcess_296:
   \   00001550   DFF8AC0C           LDR.W    R0,??KeyProcess_284+0x8
   \   00001554   0421               MOVS     R1,#+4
   \   00001556   0170               STRB     R1,[R0, #+0]
   \   00001558   93E0               B.N      ??KeyProcess_293
   1165                                             }else if(Input_Index_1 == 2) // 일주일 검색해서 백업
   \                     ??KeyProcess_294:
   \   0000155A   DFF8A80C           LDR.W    R0,??KeyProcess_284+0xC
   \   0000155E   0078               LDRB     R0,[R0, #+0]
   \   00001560   0228               CMP      R0,#+2
   \   00001562   2BD1               BNE.N    ??KeyProcess_297
   1166                                             {
   1167                                                  if(NAND_Header_Index.Header_Count > 7)
   \   00001564   DFF8A00C           LDR.W    R0,??KeyProcess_284+0x10
   \   00001568   0088               LDRH     R0,[R0, #+0]
   \   0000156A   0828               CMP      R0,#+8
   \   0000156C   0ED3               BCC.N    ??KeyProcess_298
   1168                                                  {
   1169                                                       VIEW_Header.Start_Index = GetHeader_Index(NAND_Header_Index.Write_Point , -7);
   \   0000156E   7FF00601           MVNS     R1,#+6
   \   00001572   DFF8940C           LDR.W    R0,??KeyProcess_284+0x10
   \   00001576   4088               LDRH     R0,[R0, #+2]
   \   00001578   ........           BL       GetHeader_Index
   \   0000157C   DFF8781C           LDR.W    R1,??KeyProcess_284
   \   00001580   0860               STR      R0,[R1, #+0]
   1170                                                       VIEW_Header.Search_Count = 7;
   \   00001582   DFF8740C           LDR.W    R0,??KeyProcess_284
   \   00001586   0721               MOVS     R1,#+7
   \   00001588   4160               STR      R1,[R0, #+4]
   \   0000158A   12E0               B.N      ??KeyProcess_299
   1171                                                  }else
   1172                                                  {
   1173                                                       VIEW_Header.Start_Index = GetHeader_Index(NAND_Header_Index.Write_Point, -NAND_Header_Index.Header_Count);
   \                     ??KeyProcess_298:
   \   0000158C   DFF8780C           LDR.W    R0,??KeyProcess_284+0x10
   \   00001590   0088               LDRH     R0,[R0, #+0]
   \   00001592   4142               RSBS     R1,R0,#+0
   \   00001594   09B2               SXTH     R1,R1            ;; SignExt  R1,R1,#+16,#+16
   \   00001596   DFF8700C           LDR.W    R0,??KeyProcess_284+0x10
   \   0000159A   4088               LDRH     R0,[R0, #+2]
   \   0000159C   ........           BL       GetHeader_Index
   \   000015A0   DFF8541C           LDR.W    R1,??KeyProcess_284
   \   000015A4   0860               STR      R0,[R1, #+0]
   1174                                                       VIEW_Header.Search_Count = NAND_Header_Index.Header_Count;                                                            
   \   000015A6   DFF8500C           LDR.W    R0,??KeyProcess_284
   \   000015AA   DFF85C1C           LDR.W    R1,??KeyProcess_284+0x10
   \   000015AE   0988               LDRH     R1,[R1, #+0]
   \   000015B0   4160               STR      R1,[R0, #+4]
   1175                                                  }
   1176                                                  USBH_USR_ActionFlag = USH_USR_FS_WRITEBACKUP;  // 백업을 선택한다.     
   \                     ??KeyProcess_299:
   \   000015B2   DFF84C0C           LDR.W    R0,??KeyProcess_284+0x8
   \   000015B6   0421               MOVS     R1,#+4
   \   000015B8   0170               STRB     R1,[R0, #+0]
   \   000015BA   62E0               B.N      ??KeyProcess_293
   1177                                             }else if(Input_Index_1 == 3) // 하달 검색해서 백업
   \                     ??KeyProcess_297:
   \   000015BC   DFF8440C           LDR.W    R0,??KeyProcess_284+0xC
   \   000015C0   0078               LDRB     R0,[R0, #+0]
   \   000015C2   0328               CMP      R0,#+3
   \   000015C4   2BD1               BNE.N    ??KeyProcess_300
   1178                                             {
   1179                                                  if(NAND_Header_Index.Header_Count > 30)
   \   000015C6   DFF8400C           LDR.W    R0,??KeyProcess_284+0x10
   \   000015CA   0088               LDRH     R0,[R0, #+0]
   \   000015CC   1F28               CMP      R0,#+31
   \   000015CE   0ED3               BCC.N    ??KeyProcess_301
   1180                                                  {
   1181                                                       VIEW_Header.Start_Index = GetHeader_Index(NAND_Header_Index.Write_Point ,-30);
   \   000015D0   7FF01D01           MVNS     R1,#+29
   \   000015D4   DFF8300C           LDR.W    R0,??KeyProcess_284+0x10
   \   000015D8   4088               LDRH     R0,[R0, #+2]
   \   000015DA   ........           BL       GetHeader_Index
   \   000015DE   DFF8181C           LDR.W    R1,??KeyProcess_284
   \   000015E2   0860               STR      R0,[R1, #+0]
   1182                                                       VIEW_Header.Search_Count = 30;
   \   000015E4   DFF8100C           LDR.W    R0,??KeyProcess_284
   \   000015E8   1E21               MOVS     R1,#+30
   \   000015EA   4160               STR      R1,[R0, #+4]
   \   000015EC   12E0               B.N      ??KeyProcess_302
   1183                                                  }else
   1184                                                  {
   1185                                                       VIEW_Header.Start_Index = GetHeader_Index(NAND_Header_Index.Write_Point, -NAND_Header_Index.Header_Count);
   \                     ??KeyProcess_301:
   \   000015EE   DFF8180C           LDR.W    R0,??KeyProcess_284+0x10
   \   000015F2   0088               LDRH     R0,[R0, #+0]
   \   000015F4   4142               RSBS     R1,R0,#+0
   \   000015F6   09B2               SXTH     R1,R1            ;; SignExt  R1,R1,#+16,#+16
   \   000015F8   DFF80C0C           LDR.W    R0,??KeyProcess_284+0x10
   \   000015FC   4088               LDRH     R0,[R0, #+2]
   \   000015FE   ........           BL       GetHeader_Index
   \   00001602   DFF8F41B           LDR.W    R1,??KeyProcess_284
   \   00001606   0860               STR      R0,[R1, #+0]
   1186                                                       VIEW_Header.Search_Count = NAND_Header_Index.Header_Count;                                                            
   \   00001608   DFF8EC0B           LDR.W    R0,??KeyProcess_284
   \   0000160C   DFF8F81B           LDR.W    R1,??KeyProcess_284+0x10
   \   00001610   0988               LDRH     R1,[R1, #+0]
   \   00001612   4160               STR      R1,[R0, #+4]
   1187                                                  }
   1188                                                  USBH_USR_ActionFlag = USH_USR_FS_WRITEBACKUP;  // 백업을 선택한다. 
   \                     ??KeyProcess_302:
   \   00001614   DFF8E80B           LDR.W    R0,??KeyProcess_284+0x8
   \   00001618   0421               MOVS     R1,#+4
   \   0000161A   0170               STRB     R1,[R0, #+0]
   \   0000161C   31E0               B.N      ??KeyProcess_293
   1189                                             }else if(Input_Index_1 == 4) // 세달 검색해서 백업
   \                     ??KeyProcess_300:
   \   0000161E   DFF8E40B           LDR.W    R0,??KeyProcess_284+0xC
   \   00001622   0078               LDRB     R0,[R0, #+0]
   \   00001624   0428               CMP      R0,#+4
   \   00001626   2CD1               BNE.N    ??KeyProcess_293
   1190                                             {
   1191                                                  if(NAND_Header_Index.Header_Count > 90)
   \   00001628   DFF8DC0B           LDR.W    R0,??KeyProcess_284+0x10
   \   0000162C   0088               LDRH     R0,[R0, #+0]
   \   0000162E   5B28               CMP      R0,#+91
   \   00001630   10D3               BCC.N    ??KeyProcess_303
   1192                                                  {
   1193                                                       VIEW_Header.Start_Index = GetHeader_Index(NAND_Header_Index.Write_Point, -90);
   \   00001632   7FF05901           MVNS     R1,#+89
   \   00001636   DFF8D00B           LDR.W    R0,??KeyProcess_284+0x10
   \   0000163A   4088               LDRH     R0,[R0, #+2]
   \   0000163C   ........           BL       GetHeader_Index
   \   00001640   DFF8B41B           LDR.W    R1,??KeyProcess_284
   \   00001644   0860               STR      R0,[R1, #+0]
   1194                                                       VIEW_Header.Search_Count = 90;
   \   00001646   DFF8B00B           LDR.W    R0,??KeyProcess_284
   \   0000164A   5A21               MOVS     R1,#+90
   \   0000164C   4160               STR      R1,[R0, #+4]
   \   0000164E   14E0               B.N      ??KeyProcess_304
   \                     ??KeyProcess_133:
   \   00001650   ........           DC32     `?<Constant "KEY-UP Done\\r\\n">`
   1195                                                  }else
   1196                                                  {
   1197                                                       VIEW_Header.Start_Index = GetHeader_Index(NAND_Header_Index.Write_Point, -NAND_Header_Index.Header_Count);
   \                     ??KeyProcess_303:
   \   00001654   DFF8B00B           LDR.W    R0,??KeyProcess_284+0x10
   \   00001658   0088               LDRH     R0,[R0, #+0]
   \   0000165A   4142               RSBS     R1,R0,#+0
   \   0000165C   09B2               SXTH     R1,R1            ;; SignExt  R1,R1,#+16,#+16
   \   0000165E   DFF8A80B           LDR.W    R0,??KeyProcess_284+0x10
   \   00001662   4088               LDRH     R0,[R0, #+2]
   \   00001664   ........           BL       GetHeader_Index
   \   00001668   DFF88C1B           LDR.W    R1,??KeyProcess_284
   \   0000166C   0860               STR      R0,[R1, #+0]
   1198                                                       VIEW_Header.Search_Count = NAND_Header_Index.Header_Count;                                             
   \   0000166E   DFF8880B           LDR.W    R0,??KeyProcess_284
   \   00001672   DFF8941B           LDR.W    R1,??KeyProcess_284+0x10
   \   00001676   0988               LDRH     R1,[R1, #+0]
   \   00001678   4160               STR      R1,[R0, #+4]
   1199                                                  }
   1200                                                  USBH_USR_ActionFlag = USH_USR_FS_WRITEBACKUP;  // 백업을 선택한다. 
   \                     ??KeyProcess_304:
   \   0000167A   DFF8840B           LDR.W    R0,??KeyProcess_284+0x8
   \   0000167E   0421               MOVS     R1,#+4
   \   00001680   0170               STRB     R1,[R0, #+0]
   1201                                             }                            
   1202                                             Input_Mode = 2;
   \                     ??KeyProcess_293:
   \   00001682   DFF85004           LDR.W    R0,??KeyProcess_203
   \   00001686   0221               MOVS     R1,#+2
   \   00001688   0170               STRB     R1,[R0, #+0]
   1203                                             //USBH_USR_ActionFlag = USH_USR_FS_WRITEBACKUP;  // 백업을 선택한다.  
   1204                                        }                                      
   1205                                                              
   1206                                   }break;
   \                     ??KeyProcess_290:
   \   0000168A   00F0CFBE           B.W      ??KeyProcess_250
   1207                              case DISP_MENU1_3:     //  전체 백업
   1208                                   {           
   1209                                        if(Input_Mode == 0 )
   \                     ??KeyProcess_260:
   \   0000168E   DFF84404           LDR.W    R0,??KeyProcess_203
   \   00001692   0078               LDRB     R0,[R0, #+0]
   \   00001694   0028               CMP      R0,#+0
   \   00001696   04D1               BNE.N    ??KeyProcess_305
   1210                                        {
   1211                                             Input_Mode = 1;          // OK 한번더 누르면 선택
   \   00001698   DFF83804           LDR.W    R0,??KeyProcess_203
   \   0000169C   0121               MOVS     R1,#+1
   \   0000169E   0170               STRB     R1,[R0, #+0]
   \   000016A0   21E0               B.N      ??KeyProcess_306
   1212                                        }
   1213                                        else if(Input_Mode == 1)
   \                     ??KeyProcess_305:
   \   000016A2   DFF83004           LDR.W    R0,??KeyProcess_203
   \   000016A6   0078               LDRB     R0,[R0, #+0]
   \   000016A8   0128               CMP      R0,#+1
   \   000016AA   1CD1               BNE.N    ??KeyProcess_306
   1214                                        {
   1215                                             if( USBH_USR_ApplicationState == USH_USR_FS_INIT )
   \   000016AC   DFF84C0B           LDR.W    R0,??KeyProcess_284+0x4
   \   000016B0   0078               LDRB     R0,[R0, #+0]
   \   000016B2   0028               CMP      R0,#+0
   \   000016B4   05D1               BNE.N    ??KeyProcess_307
   1216                                             {
   1217                                                  Input_Mode = 4;
   \   000016B6   DFF81C04           LDR.W    R0,??KeyProcess_203
   \   000016BA   0421               MOVS     R1,#+4
   \   000016BC   0170               STRB     R1,[R0, #+0]
   1218                                                  break;
   \   000016BE   00F0B5BE           B.W      ??KeyProcess_250
   1219                                             }                                   
   1220                                             VIEW_Header.Start_Index = 0;
   \                     ??KeyProcess_307:
   \   000016C2   DFF8340B           LDR.W    R0,??KeyProcess_284
   \   000016C6   0021               MOVS     R1,#+0
   \   000016C8   0160               STR      R1,[R0, #+0]
   1221                                             VIEW_Header.Search_Count = NAND_Header_Index.Header_Count;
   \   000016CA   DFF82C0B           LDR.W    R0,??KeyProcess_284
   \   000016CE   DFF8381B           LDR.W    R1,??KeyProcess_284+0x10
   \   000016D2   0988               LDRH     R1,[R1, #+0]
   \   000016D4   4160               STR      R1,[R0, #+4]
   1222                                             USBH_USR_ActionFlag = USH_USR_FS_WRITEBACKUP;  // 백업을 선택한다. 
   \   000016D6   DFF8280B           LDR.W    R0,??KeyProcess_284+0x8
   \   000016DA   0421               MOVS     R1,#+4
   \   000016DC   0170               STRB     R1,[R0, #+0]
   1223                                             Input_Mode = 2;
   \   000016DE   DFF8F403           LDR.W    R0,??KeyProcess_203
   \   000016E2   0221               MOVS     R1,#+2
   \   000016E4   0170               STRB     R1,[R0, #+0]
   1224                                        }                                      
   1225                                   }break;                            
   \                     ??KeyProcess_306:
   \   000016E6   00F0A1BE           B.W      ??KeyProcess_250
   1226                              case DISP_MENU1_4:     //  이벤트 백업
   1227                                   {           
   1228                                        if(Input_Mode == 0 )
   \                     ??KeyProcess_261:
   \   000016EA   DFF8E803           LDR.W    R0,??KeyProcess_203
   \   000016EE   0078               LDRB     R0,[R0, #+0]
   \   000016F0   0028               CMP      R0,#+0
   \   000016F2   04D1               BNE.N    ??KeyProcess_308
   1229                                        {
   1230                                             Input_Mode = 1;          // OK 한번더 누르면 선택
   \   000016F4   DFF8DC03           LDR.W    R0,??KeyProcess_203
   \   000016F8   0121               MOVS     R1,#+1
   \   000016FA   0170               STRB     R1,[R0, #+0]
   \   000016FC   21E0               B.N      ??KeyProcess_309
   1231                                        }
   1232                                        else if(Input_Mode == 1)
   \                     ??KeyProcess_308:
   \   000016FE   DFF8D403           LDR.W    R0,??KeyProcess_203
   \   00001702   0078               LDRB     R0,[R0, #+0]
   \   00001704   0128               CMP      R0,#+1
   \   00001706   1CD1               BNE.N    ??KeyProcess_309
   1233                                        {
   1234                                             if( USBH_USR_ApplicationState == USH_USR_FS_INIT )
   \   00001708   DFF8F00A           LDR.W    R0,??KeyProcess_284+0x4
   \   0000170C   0078               LDRB     R0,[R0, #+0]
   \   0000170E   0028               CMP      R0,#+0
   \   00001710   05D1               BNE.N    ??KeyProcess_310
   1235                                             {
   1236                                                  Input_Mode = 4;
   \   00001712   DFF8C003           LDR.W    R0,??KeyProcess_203
   \   00001716   0421               MOVS     R1,#+4
   \   00001718   0170               STRB     R1,[R0, #+0]
   1237                                                  break;
   \   0000171A   00F087BE           B.W      ??KeyProcess_250
   1238                                             }                                   
   1239                                             VIEW_Header.Start_Index = 0;
   \                     ??KeyProcess_310:
   \   0000171E   DFF8D80A           LDR.W    R0,??KeyProcess_284
   \   00001722   0021               MOVS     R1,#+0
   \   00001724   0160               STR      R1,[R0, #+0]
   1240                                             VIEW_Header.Search_Count = NAND_Header_Index.Header_Count;
   \   00001726   DFF8D00A           LDR.W    R0,??KeyProcess_284
   \   0000172A   DFF8DC1A           LDR.W    R1,??KeyProcess_284+0x10
   \   0000172E   0988               LDRH     R1,[R1, #+0]
   \   00001730   4160               STR      R1,[R0, #+4]
   1241                                             USBH_USR_ActionFlag = USH_USR_FS_READACCIDENT;  // 백업을 선택한다. 
   \   00001732   DFF8CC0A           LDR.W    R0,??KeyProcess_284+0x8
   \   00001736   0B21               MOVS     R1,#+11
   \   00001738   0170               STRB     R1,[R0, #+0]
   1242                                             Input_Mode = 2;
   \   0000173A   DFF89803           LDR.W    R0,??KeyProcess_203
   \   0000173E   0221               MOVS     R1,#+2
   \   00001740   0170               STRB     R1,[R0, #+0]
   1243                                        }                                      
   1244                                   }break;                           
   \                     ??KeyProcess_309:
   \   00001742   00F073BE           B.W      ??KeyProcess_250
   1245                              case DISP_MENU2:       // 운전자 변경
   1246                                   {
   1247                                        if(Info.Driver_Index == NO_DRIVER)             // 운전자가 선택되지 않았다면
   \                     ??KeyProcess_252:
   \   00001746   DFF88C06           LDR.W    R0,??KeyProcess_243+0x18
   \   0000174A   0078               LDRB     R0,[R0, #+0]
   \   0000174C   FF28               CMP      R0,#+255
   \   0000174E   03D1               BNE.N    ??KeyProcess_311
   1248                                             Info.Driver_Index = 0;              // 최근 마지막 운전자
   \   00001750   DFF88006           LDR.W    R0,??KeyProcess_243+0x18
   \   00001754   0021               MOVS     R1,#+0
   \   00001756   0170               STRB     R1,[R0, #+0]
   1249                                        DisplayInfo.Now_View = DISP_MENU2_1;
   \                     ??KeyProcess_311:
   \   00001758   DFF87C03           LDR.W    R0,??KeyProcess_203+0x4
   \   0000175C   1E21               MOVS     R1,#+30
   \   0000175E   4171               STRB     R1,[R0, #+5]
   1250                                        SetCursor(0,26,3);
   \   00001760   0322               MOVS     R2,#+3
   \   00001762   1A21               MOVS     R1,#+26
   \   00001764   0020               MOVS     R0,#+0
   \   00001766   ........           BL       SetCursor
   1251                                   }break;
   \   0000176A   00F05FBE           B.W      ??KeyProcess_250
   1252                              case DISP_MENU2_1:     // 운전자 선택
   1253                                   {
   1254                                        Flag.Driver_Change = 1;
   \                     ??KeyProcess_262:
   \   0000176E   DFF84C09           LDR.W    R0,??KeyProcess_248
   \   00001772   0121               MOVS     R1,#+1
   \   00001774   4172               STRB     R1,[R0, #+9]
   1255                                        
   1256                                        SetCursor(0,0,0);        //커서를 끄고     
   \   00001776   0022               MOVS     R2,#+0
   \   00001778   0021               MOVS     R1,#+0
   \   0000177A   0020               MOVS     R0,#+0
   \   0000177C   ........           BL       SetCursor
   1257                                        Write_Word(0,16,"운전자정보수정완료  ");
   \   00001780   DFF83C29           LDR.W    R2,??KeyProcess_248+0x4
   \   00001784   1021               MOVS     R1,#+16
   \   00001786   0020               MOVS     R0,#+0
   \   00001788   ........           BL       Write_Word
   1258          
   1259                                        DisplayInfo.TimeOut = MS_TIMER;
   \   0000178C   DFF84006           LDR.W    R0,??KeyProcess_243+0x14  ;; 0x40000c00
   \   00001790   ........           BL       TIM_GetCounter
   \   00001794   D049               LDR.N    R1,??KeyProcess_203+0x4
   \   00001796   4880               STRH     R0,[R1, #+2]
   1260                                        DisplayInfo.HoldingTime = 2000;
   \   00001798   CF48               LDR.N    R0,??KeyProcess_203+0x4
   \   0000179A   4FF4FA61           MOV      R1,#+2000
   \   0000179E   0180               STRH     R1,[R0, #+0]
   1261                                        DisplayInfo.Next_View = DISP_MENU2;//DisplayInfo.Now_View;                              
   \   000017A0   CD48               LDR.N    R0,??KeyProcess_203+0x4
   \   000017A2   1221               MOVS     R1,#+18
   \   000017A4   0171               STRB     R1,[R0, #+4]
   1262                                        DisplayInfo.Now_View = DISP_WAIT;
   \   000017A6   CC48               LDR.N    R0,??KeyProcess_203+0x4
   \   000017A8   0121               MOVS     R1,#+1
   \   000017AA   4171               STRB     R1,[R0, #+5]
   1263                                        memcpy( Info.Driver_Num , SFLASH_Memory.Driver[Info.Driver_Index] , DRIVER_NUM_SIZE) ;
   \   000017AC   1222               MOVS     R2,#+18
   \   000017AE   DFF82406           LDR.W    R0,??KeyProcess_243+0x18
   \   000017B2   0078               LDRB     R0,[R0, #+0]
   \   000017B4   1321               MOVS     R1,#+19
   \   000017B6   C94B               LDR.N    R3,??KeyProcess_203+0x8
   \   000017B8   01FB0030           MLA      R0,R1,R0,R3
   \   000017BC   411C               ADDS     R1,R0,#+1
   \   000017BE   DFF86409           LDR.W    R0,??KeyProcess_249
   \   000017C2   ........           BL       memcpy
   1264          //                              Save_SFLASH();
   1265                                                                      
   1266                                   }break;
   \   000017C6   00F031BE           B.W      ??KeyProcess_250
   1267                                   
   1268                              case DISP_MENU3:     // 차량번호 확인
   1269                                   {
   1270                                        DisplayInfo.Now_View = DISP_MENU3_1;
   \                     ??KeyProcess_253:
   \   000017CA   C348               LDR.N    R0,??KeyProcess_203+0x4
   \   000017CC   2021               MOVS     R1,#+32
   \   000017CE   4171               STRB     R1,[R0, #+5]
   1271                                   }break;
   \   000017D0   00F02CBE           B.W      ??KeyProcess_250
   1272                              case DISP_MENU3_1:     // 차량번호 확인
   1273                                   {
   1274                                        
   1275                                   }break;                            
   \                     ??KeyProcess_263:
   \   000017D4   00F02ABE           B.W      ??KeyProcess_250
   1276                              case DISP_MENU4:       // 환경설정
   1277                                   {
   1278                                        DisplayInfo.Now_View = DISP_MENU4_0;
   \                     ??KeyProcess_254:
   \   000017D8   BF48               LDR.N    R0,??KeyProcess_203+0x4
   \   000017DA   2121               MOVS     R1,#+33
   \   000017DC   4171               STRB     R1,[R0, #+5]
   1279                                        Pass_Index = 0;
   \   000017DE   DFF8D80B           LDR.W    R0,??KeyProcess_312
   \   000017E2   0021               MOVS     R1,#+0
   \   000017E4   0170               STRB     R1,[R0, #+0]
   1280                                        if(Info.Driver_Index == NO_DRIVER)             // 운전자가 선택되지 않았다면
   \   000017E6   DFF8EC05           LDR.W    R0,??KeyProcess_243+0x18
   \   000017EA   0078               LDRB     R0,[R0, #+0]
   \   000017EC   FF28               CMP      R0,#+255
   \   000017EE   03D1               BNE.N    ??KeyProcess_313
   1281                                             Info.Driver_Index = 0;              // 최근 마지막 운전자                                  
   \   000017F0   DFF8E005           LDR.W    R0,??KeyProcess_243+0x18
   \   000017F4   0021               MOVS     R1,#+0
   \   000017F6   0170               STRB     R1,[R0, #+0]
   1282                                   }break;                            
   \                     ??KeyProcess_313:
   \   000017F8   00F018BE           B.W      ??KeyProcess_250
   1283                              case DISP_MENU5:
   1284                                   {
   1285                                        if( Input_Mode == 0 ) // 뷰모드
   \                     ??KeyProcess_255:
   \   000017FC   B548               LDR.N    R0,??KeyProcess_203
   \   000017FE   0078               LDRB     R0,[R0, #+0]
   \   00001800   0028               CMP      R0,#+0
   \   00001802   03D1               BNE.N    ??KeyProcess_314
   1286                                        {
   1287                                             Input_Mode = 1;				   
   \   00001804   B348               LDR.N    R0,??KeyProcess_203
   \   00001806   0121               MOVS     R1,#+1
   \   00001808   0170               STRB     R1,[R0, #+0]
   \   0000180A   13E0               B.N      ??KeyProcess_315
   1288                                        }else if( Input_Mode == 1 ) // 뷰모드
   \                     ??KeyProcess_314:
   \   0000180C   B148               LDR.N    R0,??KeyProcess_203
   \   0000180E   0078               LDRB     R0,[R0, #+0]
   \   00001810   0128               CMP      R0,#+1
   \   00001812   0FD1               BNE.N    ??KeyProcess_315
   1289                                        {
   1290                                             Input_Mode = 2;
   \   00001814   AF48               LDR.N    R0,??KeyProcess_203
   \   00001816   0221               MOVS     R1,#+2
   \   00001818   0170               STRB     R1,[R0, #+0]
   1291                                              if(USBH_USR_ApplicationState == USH_USR_FS_IDLE)                                         
   \   0000181A   DFF8E009           LDR.W    R0,??KeyProcess_284+0x4
   \   0000181E   0078               LDRB     R0,[R0, #+0]
   \   00001820   0128               CMP      R0,#+1
   \   00001822   04D1               BNE.N    ??KeyProcess_316
   1292                                                   USBH_USR_ActionFlag = USH_USR_FS_UPDATE;  // 백업을 선택한다.                                            
   \   00001824   DFF8D809           LDR.W    R0,??KeyProcess_284+0x8
   \   00001828   0621               MOVS     R1,#+6
   \   0000182A   0170               STRB     R1,[R0, #+0]
   \   0000182C   02E0               B.N      ??KeyProcess_315
   1293                                              else
   1294                                                   Input_Mode = 2;         // 실패
   \                     ??KeyProcess_316:
   \   0000182E   A948               LDR.N    R0,??KeyProcess_203
   \   00001830   0221               MOVS     R1,#+2
   \   00001832   0170               STRB     R1,[R0, #+0]
   1295                                                   
   1296                                        }                            
   1297                                   }break;                              
   \                     ??KeyProcess_315:
   \   00001834   00F0FABD           B.W      ??KeyProcess_250
   1298                              case DISP_MENU6:
   1299                                   {
   1300                                        if( Input_Mode == 0 ) // 뷰모드
   \                     ??KeyProcess_256:
   \   00001838   A648               LDR.N    R0,??KeyProcess_203
   \   0000183A   0078               LDRB     R0,[R0, #+0]
   \   0000183C   0028               CMP      R0,#+0
   \   0000183E   03D1               BNE.N    ??KeyProcess_317
   1301                                        {
   1302                                             Input_Mode = 1;				   
   \   00001840   A448               LDR.N    R0,??KeyProcess_203
   \   00001842   0121               MOVS     R1,#+1
   \   00001844   0170               STRB     R1,[R0, #+0]
   \   00001846   13E0               B.N      ??KeyProcess_318
   1303                                        }else if( Input_Mode == 1 ) // 뷰모드
   \                     ??KeyProcess_317:
   \   00001848   A248               LDR.N    R0,??KeyProcess_203
   \   0000184A   0078               LDRB     R0,[R0, #+0]
   \   0000184C   0128               CMP      R0,#+1
   \   0000184E   0FD1               BNE.N    ??KeyProcess_318
   1304                                        {
   1305                                             Input_Mode = 2;
   \   00001850   A048               LDR.N    R0,??KeyProcess_203
   \   00001852   0221               MOVS     R1,#+2
   \   00001854   0170               STRB     R1,[R0, #+0]
   1306                                              if(USBH_USR_ApplicationState == USH_USR_FS_IDLE)
   \   00001856   DFF8A409           LDR.W    R0,??KeyProcess_284+0x4
   \   0000185A   0078               LDRB     R0,[R0, #+0]
   \   0000185C   0128               CMP      R0,#+1
   \   0000185E   04D1               BNE.N    ??KeyProcess_319
   1307                                                   USBH_USR_ActionFlag = USH_USR_FS_SOUND;  // 백업을 선택한다. 
   \   00001860   DFF89C09           LDR.W    R0,??KeyProcess_284+0x8
   \   00001864   0721               MOVS     R1,#+7
   \   00001866   0170               STRB     R1,[R0, #+0]
   \   00001868   02E0               B.N      ??KeyProcess_318
   1308                                              else
   1309                                                   Input_Mode = 3;         // 실패
   \                     ??KeyProcess_319:
   \   0000186A   9A48               LDR.N    R0,??KeyProcess_203
   \   0000186C   0321               MOVS     R1,#+3
   \   0000186E   0170               STRB     R1,[R0, #+0]
   1310                                        }                            
   1311                                   }break;   
   \                     ??KeyProcess_318:
   \   00001870   00F0DCBD           B.W      ??KeyProcess_250
   1312                              case DISP_MENU7:
   1313                                   {
   1314                                        if( Input_Mode == 0 )                                  // 뷰모드
   \                     ??KeyProcess_257:
   \   00001874   9748               LDR.N    R0,??KeyProcess_203
   \   00001876   0078               LDRB     R0,[R0, #+0]
   \   00001878   0028               CMP      R0,#+0
   \   0000187A   03D1               BNE.N    ??KeyProcess_320
   1315                                        {
   1316                                             Input_Mode = 1;				   
   \   0000187C   9548               LDR.N    R0,??KeyProcess_203
   \   0000187E   0121               MOVS     R1,#+1
   \   00001880   0170               STRB     R1,[R0, #+0]
   \   00001882   13E0               B.N      ??KeyProcess_321
   1317                                        }else if( Input_Mode == 1 )                            // 뷰모드
   \                     ??KeyProcess_320:
   \   00001884   9348               LDR.N    R0,??KeyProcess_203
   \   00001886   0078               LDRB     R0,[R0, #+0]
   \   00001888   0128               CMP      R0,#+1
   \   0000188A   0FD1               BNE.N    ??KeyProcess_321
   1318                                        {
   1319                                             Input_Mode = 2;
   \   0000188C   9148               LDR.N    R0,??KeyProcess_203
   \   0000188E   0221               MOVS     R1,#+2
   \   00001890   0170               STRB     R1,[R0, #+0]
   1320                                             if(USBH_USR_ApplicationState == USH_USR_FS_IDLE)
   \   00001892   DFF86809           LDR.W    R0,??KeyProcess_284+0x4
   \   00001896   0078               LDRB     R0,[R0, #+0]
   \   00001898   0128               CMP      R0,#+1
   \   0000189A   04D1               BNE.N    ??KeyProcess_322
   1321                                                  USBH_USR_ActionFlag = USH_USR_FS_READPARAMETER;  // 백업을 선택한다.                                            
   \   0000189C   DFF86009           LDR.W    R0,??KeyProcess_284+0x8
   \   000018A0   0521               MOVS     R1,#+5
   \   000018A2   0170               STRB     R1,[R0, #+0]
   \   000018A4   02E0               B.N      ??KeyProcess_321
   1322                                             else
   1323                                                  Input_Mode = 4;
   \                     ??KeyProcess_322:
   \   000018A6   8B48               LDR.N    R0,??KeyProcess_203
   \   000018A8   0421               MOVS     R1,#+4
   \   000018AA   0170               STRB     R1,[R0, #+0]
   1324                                        }                            
   1325                                   }break;                            
   \                     ??KeyProcess_321:
   \   000018AC   00F0BEBD           B.W      ??KeyProcess_250
   1326                              case DISP_MENU4_0:     // 암호코드 입력
   1327                                   {
   1328                                        if( Pass_Index == 4 )
   \                     ??KeyProcess_264:
   \   000018B0   DFF8040B           LDR.W    R0,??KeyProcess_312
   \   000018B4   0078               LDRB     R0,[R0, #+0]
   \   000018B6   0428               CMP      R0,#+4
   \   000018B8   0FD1               BNE.N    ??KeyProcess_323
   1329                                        {
   1330                                             if(!memcmp(Password,Answer,sizeof(Password)))
   \   000018BA   0422               MOVS     R2,#+4
   \   000018BC   00A9               ADD      R1,SP,#+0
   \   000018BE   DFF8AC0D           LDR.W    R0,??KeyProcess_324
   \   000018C2   ........           BL       memcmp
   \   000018C6   0028               CMP      R0,#+0
   \   000018C8   03D1               BNE.N    ??KeyProcess_325
   1331                                                  DisplayInfo.Now_View = DISP_MENU4_1;
   \   000018CA   8348               LDR.N    R0,??KeyProcess_203+0x4
   \   000018CC   2221               MOVS     R1,#+34
   \   000018CE   4171               STRB     R1,[R0, #+5]
   \   000018D0   06E0               B.N      ??KeyProcess_326
   1332                                             else
   1333                                                  DisplayInfo.Now_View = DISP_MENU4;
   \                     ??KeyProcess_325:
   \   000018D2   8148               LDR.N    R0,??KeyProcess_203+0x4
   \   000018D4   1421               MOVS     R1,#+20
   \   000018D6   4171               STRB     R1,[R0, #+5]
   \   000018D8   02E0               B.N      ??KeyProcess_326
   1334                                        }
   1335                                        else
   1336                                             DisplayInfo.Now_View = DISP_MENU4;
   \                     ??KeyProcess_323:
   \   000018DA   7F48               LDR.N    R0,??KeyProcess_203+0x4
   \   000018DC   1421               MOVS     R1,#+20
   \   000018DE   4171               STRB     R1,[R0, #+5]
   1337          
   1338                                   }break;   
   \                     ??KeyProcess_326:
   \   000018E0   00F0A4BD           B.W      ??KeyProcess_250
   1339                              case DISP_MENU4_1:     // 운전자 코드
   1340                                   {
   1341                                        if( Input_Mode == 0 ) // 뷰모드
   \                     ??KeyProcess_265:
   \   000018E4   7B48               LDR.N    R0,??KeyProcess_203
   \   000018E6   0078               LDRB     R0,[R0, #+0]
   \   000018E8   0028               CMP      R0,#+0
   \   000018EA   17D1               BNE.N    ??KeyProcess_327
   1342                                        {                                   
   1343                                             SetCursor(0,31,1);
   \   000018EC   0122               MOVS     R2,#+1
   \   000018EE   1F21               MOVS     R1,#+31
   \   000018F0   0020               MOVS     R0,#+0
   \   000018F2   ........           BL       SetCursor
   1344                                             Input_Mode = 1;
   \   000018F6   7748               LDR.N    R0,??KeyProcess_203
   \   000018F8   0121               MOVS     R1,#+1
   \   000018FA   0170               STRB     R1,[R0, #+0]
   1345                                             if(Info.Driver_Index == NO_DRIVER)             // 운전자가 선택되지 않았다면
   \   000018FC   DFF8D404           LDR.W    R0,??KeyProcess_243+0x18
   \   00001900   0078               LDRB     R0,[R0, #+0]
   \   00001902   FF28               CMP      R0,#+255
   \   00001904   03D1               BNE.N    ??KeyProcess_328
   1346                                                  Info.Driver_Index = 0;              // 최근 마지막 운전자                                        
   \   00001906   DFF8CC04           LDR.W    R0,??KeyProcess_243+0x18
   \   0000190A   0021               MOVS     R1,#+0
   \   0000190C   0170               STRB     R1,[R0, #+0]
   1347                                             Input_Index_1 = Info.Driver_Index  ;
   \                     ??KeyProcess_328:
   \   0000190E   DFF8F408           LDR.W    R0,??KeyProcess_284+0xC
   \   00001912   DFF8C014           LDR.W    R1,??KeyProcess_243+0x18
   \   00001916   0978               LDRB     R1,[R1, #+0]
   \   00001918   0170               STRB     R1,[R0, #+0]
   \   0000191A   9FE0               B.N      ??KeyProcess_329
   1348                                        
   1349                                        }
   1350                                        else if( Input_Mode == 1)
   \                     ??KeyProcess_327:
   \   0000191C   6D48               LDR.N    R0,??KeyProcess_203
   \   0000191E   0078               LDRB     R0,[R0, #+0]
   \   00001920   0128               CMP      R0,#+1
   \   00001922   22D1               BNE.N    ??KeyProcess_330
   1351                                        {
   1352                                             
   1353                                             Input_Mode = 2;
   \   00001924   6B48               LDR.N    R0,??KeyProcess_203
   \   00001926   0221               MOVS     R1,#+2
   \   00001928   0170               STRB     R1,[R0, #+0]
   1354                                             Input_Index_2 = 17;
   \   0000192A   DFF8BC0D           LDR.W    R0,??KeyProcess_331
   \   0000192E   1121               MOVS     R1,#+17
   \   00001930   0170               STRB     R1,[R0, #+0]
   1355          
   1356          //                                   SetCursor(0,24,3);
   1357                                             SetCursor(2 + Input_Index_2,30,1);
   \   00001932   0122               MOVS     R2,#+1
   \   00001934   1E21               MOVS     R1,#+30
   \   00001936   DFF8B00D           LDR.W    R0,??KeyProcess_331
   \   0000193A   0078               LDRB     R0,[R0, #+0]
   \   0000193C   801C               ADDS     R0,R0,#+2
   \   0000193E   C0B2               UXTB     R0,R0            ;; ZeroExt  R0,R0,#+24,#+24
   \   00001940   ........           BL       SetCursor
   1358                                             memset(Input_Word,0 , sizeof(Input_Word));
   \   00001944   1422               MOVS     R2,#+20
   \   00001946   0021               MOVS     R1,#+0
   \   00001948   DFF8BC0D           LDR.W    R0,??KeyProcess_332
   \   0000194C   ........           BL       memset
   1359                                             strcpy((char *)Input_Word ,(char *)SFLASH_Memory.Driver[Input_Index_1]);               
   \   00001950   DFF8B008           LDR.W    R0,??KeyProcess_284+0xC
   \   00001954   0078               LDRB     R0,[R0, #+0]
   \   00001956   1321               MOVS     R1,#+19
   \   00001958   604A               LDR.N    R2,??KeyProcess_203+0x8
   \   0000195A   01FB0020           MLA      R0,R1,R0,R2
   \   0000195E   411C               ADDS     R1,R0,#+1
   \   00001960   DFF8A40D           LDR.W    R0,??KeyProcess_332
   \   00001964   ........           BL       strcpy
   \   00001968   78E0               B.N      ??KeyProcess_329
   1360                                             
   1361                                        }
   1362                                        else if (Input_Mode == 2)
   \                     ??KeyProcess_330:
   \   0000196A   5A48               LDR.N    R0,??KeyProcess_203
   \   0000196C   0078               LDRB     R0,[R0, #+0]
   \   0000196E   0228               CMP      R0,#+2
   \   00001970   74D1               BNE.N    ??KeyProcess_329
   1363                                        {
   1364                                             if(Input_Index_2 == 0)// 마지막 버튼을 누르면
   \   00001972   DFF8740D           LDR.W    R0,??KeyProcess_331
   \   00001976   0078               LDRB     R0,[R0, #+0]
   \   00001978   0028               CMP      R0,#+0
   \   0000197A   49D1               BNE.N    ??KeyProcess_333
   1365                                             {
   1366                                                  Info.Driver_Index = Input_Index_1 ;
   \   0000197C   DFF85404           LDR.W    R0,??KeyProcess_243+0x18
   \   00001980   DFF88018           LDR.W    R1,??KeyProcess_284+0xC
   \   00001984   0978               LDRB     R1,[R1, #+0]
   \   00001986   0170               STRB     R1,[R0, #+0]
   1367                                                  memset(SFLASH_Memory.Driver[Info.Driver_Index], 0 , DRIVER_NUM_SIZE);
   \   00001988   1222               MOVS     R2,#+18
   \   0000198A   0021               MOVS     R1,#+0
   \   0000198C   DFF84404           LDR.W    R0,??KeyProcess_243+0x18
   \   00001990   0078               LDRB     R0,[R0, #+0]
   \   00001992   1323               MOVS     R3,#+19
   \   00001994   514C               LDR.N    R4,??KeyProcess_203+0x8
   \   00001996   03FB0040           MLA      R0,R3,R0,R4
   \   0000199A   401C               ADDS     R0,R0,#+1
   \   0000199C   ........           BL       memset
   1368                                                  strcpy((char *)SFLASH_Memory.Driver[Info.Driver_Index] ,(char *)Input_Word);
   \   000019A0   DFF8641D           LDR.W    R1,??KeyProcess_332
   \   000019A4   DFF82C04           LDR.W    R0,??KeyProcess_243+0x18
   \   000019A8   0078               LDRB     R0,[R0, #+0]
   \   000019AA   1322               MOVS     R2,#+19
   \   000019AC   4B4B               LDR.N    R3,??KeyProcess_203+0x8
   \   000019AE   02FB0030           MLA      R0,R2,R0,R3
   \   000019B2   401C               ADDS     R0,R0,#+1
   \   000019B4   ........           BL       strcpy
   1369                                                  strcpy((char *)Info.Driver_Num ,(char *)Input_Word);                                        
   \   000019B8   DFF84C1D           LDR.W    R1,??KeyProcess_332
   \   000019BC   DFF86407           LDR.W    R0,??KeyProcess_249
   \   000019C0   ........           BL       strcpy
   1370                                                  Save_SFLASH();
   \   000019C4   ........           BL       Save_SFLASH
   1371                                                  
   1372                                                  Input_Mode = 0;
   \   000019C8   4248               LDR.N    R0,??KeyProcess_203
   \   000019CA   0021               MOVS     R1,#+0
   \   000019CC   0170               STRB     R1,[R0, #+0]
   1373                                                  
   1374                                                  Flag.Driver_Change = 1;
   \   000019CE   DFF8EC06           LDR.W    R0,??KeyProcess_248
   \   000019D2   0121               MOVS     R1,#+1
   \   000019D4   4172               STRB     R1,[R0, #+9]
   1375                                                  
   1376                                                  Write_Word(0,16,"운전자정보수정완료  ");
   \   000019D6   DFF8E826           LDR.W    R2,??KeyProcess_248+0x4
   \   000019DA   1021               MOVS     R1,#+16
   \   000019DC   0020               MOVS     R0,#+0
   \   000019DE   ........           BL       Write_Word
   1377                                                  
   1378                                                  DisplayInfo.TimeOut = MS_TIMER;
   \   000019E2   DFF8EC03           LDR.W    R0,??KeyProcess_243+0x14  ;; 0x40000c00
   \   000019E6   ........           BL       TIM_GetCounter
   \   000019EA   3B49               LDR.N    R1,??KeyProcess_203+0x4
   \   000019EC   4880               STRH     R0,[R1, #+2]
   1379                                                  DisplayInfo.HoldingTime = 2000;
   \   000019EE   3A48               LDR.N    R0,??KeyProcess_203+0x4
   \   000019F0   4FF4FA61           MOV      R1,#+2000
   \   000019F4   0180               STRH     R1,[R0, #+0]
   1380                                                  DisplayInfo.Next_View = DisplayInfo.Now_View;
   \   000019F6   3848               LDR.N    R0,??KeyProcess_203+0x4
   \   000019F8   3749               LDR.N    R1,??KeyProcess_203+0x4
   \   000019FA   4979               LDRB     R1,[R1, #+5]
   \   000019FC   0171               STRB     R1,[R0, #+4]
   1381                                                  DisplayInfo.Now_View = DISP_WAIT;
   \   000019FE   3648               LDR.N    R0,??KeyProcess_203+0x4
   \   00001A00   0121               MOVS     R1,#+1
   \   00001A02   4171               STRB     R1,[R0, #+5]
   1382                                                  SetCursor(0,0,0);
   \   00001A04   0022               MOVS     R2,#+0
   \   00001A06   0021               MOVS     R1,#+0
   \   00001A08   0020               MOVS     R0,#+0
   \   00001A0A   ........           BL       SetCursor
   \   00001A0E   25E0               B.N      ??KeyProcess_329
   1383                                                  
   1384                                             }else if(Input_Index_2 == 11)
   \                     ??KeyProcess_333:
   \   00001A10   DFF8D40C           LDR.W    R0,??KeyProcess_331
   \   00001A14   0078               LDRB     R0,[R0, #+0]
   \   00001A16   0B28               CMP      R0,#+11
   \   00001A18   10D1               BNE.N    ??KeyProcess_334
   1385                                             {
   1386                                                  Input_Index_2-=2;
   \   00001A1A   DFF8CC0C           LDR.W    R0,??KeyProcess_331
   \   00001A1E   0078               LDRB     R0,[R0, #+0]
   \   00001A20   801E               SUBS     R0,R0,#+2
   \   00001A22   DFF8C41C           LDR.W    R1,??KeyProcess_331
   \   00001A26   0870               STRB     R0,[R1, #+0]
   1387                                                  SetCursor(2 + Input_Index_2,30,1);
   \   00001A28   0122               MOVS     R2,#+1
   \   00001A2A   1E21               MOVS     R1,#+30
   \   00001A2C   DFF8B80C           LDR.W    R0,??KeyProcess_331
   \   00001A30   0078               LDRB     R0,[R0, #+0]
   \   00001A32   801C               ADDS     R0,R0,#+2
   \   00001A34   C0B2               UXTB     R0,R0            ;; ZeroExt  R0,R0,#+24,#+24
   \   00001A36   ........           BL       SetCursor
   \   00001A3A   0FE0               B.N      ??KeyProcess_329
   1388                                             }else
   1389                                             {
   1390                                                  Input_Index_2 --;
   \                     ??KeyProcess_334:
   \   00001A3C   DFF8A80C           LDR.W    R0,??KeyProcess_331
   \   00001A40   0078               LDRB     R0,[R0, #+0]
   \   00001A42   401E               SUBS     R0,R0,#+1
   \   00001A44   DFF8A01C           LDR.W    R1,??KeyProcess_331
   \   00001A48   0870               STRB     R0,[R1, #+0]
   1391                                                  SetCursor(2 + Input_Index_2,30,1);
   \   00001A4A   0122               MOVS     R2,#+1
   \   00001A4C   1E21               MOVS     R1,#+30
   \   00001A4E   DFF8980C           LDR.W    R0,??KeyProcess_331
   \   00001A52   0078               LDRB     R0,[R0, #+0]
   \   00001A54   801C               ADDS     R0,R0,#+2
   \   00001A56   C0B2               UXTB     R0,R0            ;; ZeroExt  R0,R0,#+24,#+24
   \   00001A58   ........           BL       SetCursor
   1392                                             }
   1393                                        }
   1394                                   }break;
   \                     ??KeyProcess_329:
   \   00001A5C   00F0E6BC           B.W      ??KeyProcess_250
   1395                              case DISP_MENU4_2:       // 차량 선택
   1396                                        if(Input_Mode == 0 )
   \                     ??KeyProcess_266:
   \   00001A60   1C48               LDR.N    R0,??KeyProcess_203
   \   00001A62   0078               LDRB     R0,[R0, #+0]
   \   00001A64   0028               CMP      R0,#+0
   \   00001A66   08D1               BNE.N    ??KeyProcess_335
   1397                                        {
   1398                                             Input_Mode = 1;
   \   00001A68   1A48               LDR.N    R0,??KeyProcess_203
   \   00001A6A   0121               MOVS     R1,#+1
   \   00001A6C   0170               STRB     R1,[R0, #+0]
   1399                                             SetCursor(0,26,3);
   \   00001A6E   0322               MOVS     R2,#+3
   \   00001A70   1A21               MOVS     R1,#+26
   \   00001A72   0020               MOVS     R0,#+0
   \   00001A74   ........           BL       SetCursor
   \   00001A78   29E0               B.N      ??KeyProcess_336
   1400                                        }
   1401                                        else if(Input_Mode == 1)         
   \                     ??KeyProcess_335:
   \   00001A7A   1648               LDR.N    R0,??KeyProcess_203
   \   00001A7C   0078               LDRB     R0,[R0, #+0]
   \   00001A7E   0128               CMP      R0,#+1
   \   00001A80   25D1               BNE.N    ??KeyProcess_336
   1402                                        {
   1403                                             Input_Mode = 0;
   \   00001A82   1448               LDR.N    R0,??KeyProcess_203
   \   00001A84   0021               MOVS     R1,#+0
   \   00001A86   0170               STRB     R1,[R0, #+0]
   1404                                             Write_Word(0,16,"  정보수정완료      ");
   \   00001A88   ........           LDR.W    R2,??DataTable26
   \   00001A8C   1021               MOVS     R1,#+16
   \   00001A8E   0020               MOVS     R0,#+0
   \   00001A90   ........           BL       Write_Word
   1405                                             
   1406                                             DisplayInfo.TimeOut = MS_TIMER;
   \   00001A94   CE48               LDR.N    R0,??KeyProcess_243+0x14  ;; 0x40000c00
   \   00001A96   ........           BL       TIM_GetCounter
   \   00001A9A   0F49               LDR.N    R1,??KeyProcess_203+0x4
   \   00001A9C   4880               STRH     R0,[R1, #+2]
   1407                                             DisplayInfo.HoldingTime = 2000;
   \   00001A9E   0E48               LDR.N    R0,??KeyProcess_203+0x4
   \   00001AA0   4FF4FA61           MOV      R1,#+2000
   \   00001AA4   0180               STRH     R1,[R0, #+0]
   1408                                             DisplayInfo.Next_View = DisplayInfo.Now_View;
   \   00001AA6   0C48               LDR.N    R0,??KeyProcess_203+0x4
   \   00001AA8   0B49               LDR.N    R1,??KeyProcess_203+0x4
   \   00001AAA   4979               LDRB     R1,[R1, #+5]
   \   00001AAC   0171               STRB     R1,[R0, #+4]
   1409                                             DisplayInfo.Now_View = DISP_WAIT;
   \   00001AAE   0A48               LDR.N    R0,??KeyProcess_203+0x4
   \   00001AB0   0121               MOVS     R1,#+1
   \   00001AB2   4171               STRB     R1,[R0, #+5]
   1410                                             SetCursor(0,0,0);     
   \   00001AB4   0022               MOVS     R2,#+0
   \   00001AB6   0021               MOVS     R1,#+0
   \   00001AB8   0020               MOVS     R0,#+0
   \   00001ABA   ........           BL       SetCursor
   1411                                             SetCarMaker(SFLASH_Memory.Car_Maker);
   \   00001ABE   0748               LDR.N    R0,??KeyProcess_203+0x8
   \   00001AC0   0078               LDRB     R0,[R0, #+0]
   \   00001AC2   ........           BL       SetCarMaker
   1412                                             DataSetting();
   \   00001AC6   ........           BL       DataSetting
   1413                                             Save_SFLASH();                                   
   \   00001ACA   ........           BL       Save_SFLASH
   1414                                        }break;                         
   \                     ??KeyProcess_336:
   \   00001ACE   00F0ADBC           B.W      ??KeyProcess_250
   \   00001AD2   00BF               Nop      
   \                     ??KeyProcess_203:
   \   00001AD4   ........           DC32     Input_Mode
   \   00001AD8   ........           DC32     DisplayInfo
   \   00001ADC   ........           DC32     SFLASH_Memory
   1415                                        
   1416                              case DISP_MENU4_3:     // 속도센서 상수 OK
   1417                                   {
   1418                                        if( Input_Mode == 0 ) // 뷰모드
   \                     ??KeyProcess_267:
   \   00001AE0   ........           LDR.W    R0,??DataTable26_1
   \   00001AE4   0078               LDRB     R0,[R0, #+0]
   \   00001AE6   0028               CMP      R0,#+0
   \   00001AE8   21D1               BNE.N    ??KeyProcess_337
   1419                                        {
   1420                                             Input_Mode = 1;
   \   00001AEA   ........           LDR.W    R0,??DataTable26_1
   \   00001AEE   0121               MOVS     R1,#+1
   \   00001AF0   0170               STRB     R1,[R0, #+0]
   1421                                             Input_Index_2 = 5;
   \   00001AF2   DFF8F40B           LDR.W    R0,??KeyProcess_331
   \   00001AF6   0521               MOVS     R1,#+5
   \   00001AF8   0170               STRB     R1,[R0, #+0]
   1422                                             SetCursor(7 + Input_Index_2,31,1);
   \   00001AFA   0122               MOVS     R2,#+1
   \   00001AFC   1F21               MOVS     R1,#+31
   \   00001AFE   DFF8E80B           LDR.W    R0,??KeyProcess_331
   \   00001B02   0078               LDRB     R0,[R0, #+0]
   \   00001B04   C01D               ADDS     R0,R0,#+7
   \   00001B06   C0B2               UXTB     R0,R0            ;; ZeroExt  R0,R0,#+24,#+24
   \   00001B08   ........           BL       SetCursor
   1423                                             Temp = SFLASH_Memory.SPEED_Adjust % 1000000;
   \   00001B0C   ........           LDR.W    R0,??DataTable26_2
   \   00001B10   406E               LDR      R0,[R0, #+100]
   \   00001B12   ........           LDR.W    R1,??DataTable26_3  ;; 0xf4240
   \   00001B16   B0FBF1F2           UDIV     R2,R0,R1
   \   00001B1A   01FB1200           MLS      R0,R1,R2,R0
   1424                                             sprintf( (char *) Input_Word,"%06d",Temp );                                    
   \   00001B1E   0200               MOVS     R2,R0
   \   00001B20   ........           LDR.W    R1,??DataTable26_4
   \   00001B24   DFF8E00B           LDR.W    R0,??KeyProcess_332
   \   00001B28   ........           BL       sprintf
   \   00001B2C   49E0               B.N      ??KeyProcess_338
   1425                                        }
   1426                                        else if (Input_Mode == 1)
   \                     ??KeyProcess_337:
   \   00001B2E   ........           LDR.W    R0,??DataTable26_1
   \   00001B32   0078               LDRB     R0,[R0, #+0]
   \   00001B34   0128               CMP      R0,#+1
   \   00001B36   44D1               BNE.N    ??KeyProcess_338
   1427                                        {
   1428                                             if(Input_Index_2 == 0)// 마지막 버튼을 누르면
   \   00001B38   DFF8AC0B           LDR.W    R0,??KeyProcess_331
   \   00001B3C   0078               LDRB     R0,[R0, #+0]
   \   00001B3E   0028               CMP      R0,#+0
   \   00001B40   2FD1               BNE.N    ??KeyProcess_339
   1429                                             {
   1430                                                  Temp = atoi((char*)Input_Word);
   \   00001B42   DFF8C40B           LDR.W    R0,??KeyProcess_332
   \   00001B46   ........           BL       atoi
   1431                                                  SFLASH_Memory.SPEED_Adjust = Temp;
   \   00001B4A   ........           LDR.W    R1,??DataTable26_2
   \   00001B4E   4866               STR      R0,[R1, #+100]
   1432                                                  Input_Mode = 0;
   \   00001B50   ........           LDR.W    R0,??DataTable26_1
   \   00001B54   0021               MOVS     R1,#+0
   \   00001B56   0170               STRB     R1,[R0, #+0]
   1433                                                  Write_Word(0,16,"  정보수정완료      ");
   \   00001B58   ........           LDR.W    R2,??DataTable26
   \   00001B5C   1021               MOVS     R1,#+16
   \   00001B5E   0020               MOVS     R0,#+0
   \   00001B60   ........           BL       Write_Word
   1434                                                  DisplayInfo.TimeOut = MS_TIMER;
   \   00001B64   9A48               LDR.N    R0,??KeyProcess_243+0x14  ;; 0x40000c00
   \   00001B66   ........           BL       TIM_GetCounter
   \   00001B6A   ........           LDR.W    R1,??DataTable26_5
   \   00001B6E   4880               STRH     R0,[R1, #+2]
   1435                                                  DisplayInfo.HoldingTime = 2000;
   \   00001B70   ........           LDR.W    R0,??DataTable26_5
   \   00001B74   4FF4FA61           MOV      R1,#+2000
   \   00001B78   0180               STRH     R1,[R0, #+0]
   1436                                                  DisplayInfo.Next_View = DisplayInfo.Now_View;
   \   00001B7A   ........           LDR.W    R0,??DataTable26_5
   \   00001B7E   ........           LDR.W    R1,??DataTable26_5
   \   00001B82   4979               LDRB     R1,[R1, #+5]
   \   00001B84   0171               STRB     R1,[R0, #+4]
   1437                                                  DisplayInfo.Now_View = DISP_WAIT;
   \   00001B86   ........           LDR.W    R0,??DataTable26_5
   \   00001B8A   0121               MOVS     R1,#+1
   \   00001B8C   4171               STRB     R1,[R0, #+5]
   1438                                                  SetCursor(0,0,0);
   \   00001B8E   0022               MOVS     R2,#+0
   \   00001B90   0021               MOVS     R1,#+0
   \   00001B92   0020               MOVS     R0,#+0
   \   00001B94   ........           BL       SetCursor
   1439                                                  DataSetting();
   \   00001B98   ........           BL       DataSetting
   1440                                                  Save_SFLASH();                                        
   \   00001B9C   ........           BL       Save_SFLASH
   \   00001BA0   0FE0               B.N      ??KeyProcess_338
   1441                                             }else
   1442                                             {
   1443                                                  Input_Index_2 --;
   \                     ??KeyProcess_339:
   \   00001BA2   DFF8440B           LDR.W    R0,??KeyProcess_331
   \   00001BA6   0078               LDRB     R0,[R0, #+0]
   \   00001BA8   401E               SUBS     R0,R0,#+1
   \   00001BAA   DFF83C1B           LDR.W    R1,??KeyProcess_331
   \   00001BAE   0870               STRB     R0,[R1, #+0]
   1444                                                  SetCursor(7 + Input_Index_2,31,1);
   \   00001BB0   0122               MOVS     R2,#+1
   \   00001BB2   1F21               MOVS     R1,#+31
   \   00001BB4   DFF8300B           LDR.W    R0,??KeyProcess_331
   \   00001BB8   0078               LDRB     R0,[R0, #+0]
   \   00001BBA   C01D               ADDS     R0,R0,#+7
   \   00001BBC   C0B2               UXTB     R0,R0            ;; ZeroExt  R0,R0,#+24,#+24
   \   00001BBE   ........           BL       SetCursor
   1445                                             }
   1446                                        }                                 
   1447                                        
   1448                                   }break;
   \                     ??KeyProcess_338:
   \   00001BC2   00F033BC           B.W      ??KeyProcess_250
   1449                              case DISP_MENU4_4:     // RPM 센서 상수
   1450                                   {
   1451                                        if( Input_Mode == 0 ) // 뷰모드
   \                     ??KeyProcess_268:
   \   00001BC6   ........           LDR.W    R0,??DataTable26_1
   \   00001BCA   0078               LDRB     R0,[R0, #+0]
   \   00001BCC   0028               CMP      R0,#+0
   \   00001BCE   21D1               BNE.N    ??KeyProcess_340
   1452                                        {
   1453                                             Input_Mode = 1;
   \   00001BD0   ........           LDR.W    R0,??DataTable26_1
   \   00001BD4   0121               MOVS     R1,#+1
   \   00001BD6   0170               STRB     R1,[R0, #+0]
   1454                                             Input_Index_2 = 5;
   \   00001BD8   DFF80C0B           LDR.W    R0,??KeyProcess_331
   \   00001BDC   0521               MOVS     R1,#+5
   \   00001BDE   0170               STRB     R1,[R0, #+0]
   1455                                             SetCursor(7 + Input_Index_2,31,1);
   \   00001BE0   0122               MOVS     R2,#+1
   \   00001BE2   1F21               MOVS     R1,#+31
   \   00001BE4   DFF8000B           LDR.W    R0,??KeyProcess_331
   \   00001BE8   0078               LDRB     R0,[R0, #+0]
   \   00001BEA   C01D               ADDS     R0,R0,#+7
   \   00001BEC   C0B2               UXTB     R0,R0            ;; ZeroExt  R0,R0,#+24,#+24
   \   00001BEE   ........           BL       SetCursor
   1456                                             Temp = SFLASH_Memory.RPM_Adjust % 1000000;
   \   00001BF2   ........           LDR.W    R0,??DataTable26_2
   \   00001BF6   006E               LDR      R0,[R0, #+96]
   \   00001BF8   ........           LDR.W    R1,??DataTable26_3  ;; 0xf4240
   \   00001BFC   B0FBF1F2           UDIV     R2,R0,R1
   \   00001C00   01FB1200           MLS      R0,R1,R2,R0
   1457                                             sprintf( (char *) Input_Word,"%06d",Temp );                                    
   \   00001C04   0200               MOVS     R2,R0
   \   00001C06   ........           LDR.W    R1,??DataTable26_4
   \   00001C0A   DFF8FC0A           LDR.W    R0,??KeyProcess_332
   \   00001C0E   ........           BL       sprintf
   \   00001C12   4AE0               B.N      ??KeyProcess_341
   1458                                        }
   1459                                        else if (Input_Mode == 1)
   \                     ??KeyProcess_340:
   \   00001C14   ........           LDR.W    R0,??DataTable26_1
   \   00001C18   0078               LDRB     R0,[R0, #+0]
   \   00001C1A   0128               CMP      R0,#+1
   \   00001C1C   45D1               BNE.N    ??KeyProcess_341
   1460                                        {
   1461                                             if(Input_Index_2 == 0)// 마지막 버튼을 누르면
   \   00001C1E   DFF8C80A           LDR.W    R0,??KeyProcess_331
   \   00001C22   0078               LDRB     R0,[R0, #+0]
   \   00001C24   0028               CMP      R0,#+0
   \   00001C26   30D1               BNE.N    ??KeyProcess_342
   1462                                             {
   1463                                                  Temp = atoi((char*)Input_Word);
   \   00001C28   DFF8DC0A           LDR.W    R0,??KeyProcess_332
   \   00001C2C   ........           BL       atoi
   1464                                                  SFLASH_Memory.RPM_Adjust = Temp;
   \   00001C30   ........           LDR.W    R1,??DataTable26_2
   \   00001C34   0866               STR      R0,[R1, #+96]
   1465                                                  Input_Mode = 0;							 
   \   00001C36   ........           LDR.W    R0,??DataTable26_1
   \   00001C3A   0021               MOVS     R1,#+0
   \   00001C3C   0170               STRB     R1,[R0, #+0]
   1466                                                  Save_SFLASH();
   \   00001C3E   ........           BL       Save_SFLASH
   1467                                                  Write_Word(0,16,"  정보수정완료  ");
   \   00001C42   624A               LDR.N    R2,??KeyProcess_243+0x10
   \   00001C44   1021               MOVS     R1,#+16
   \   00001C46   0020               MOVS     R0,#+0
   \   00001C48   ........           BL       Write_Word
   1468                                                  
   1469                                                  DisplayInfo.TimeOut = MS_TIMER;
   \   00001C4C   6048               LDR.N    R0,??KeyProcess_243+0x14  ;; 0x40000c00
   \   00001C4E   ........           BL       TIM_GetCounter
   \   00001C52   ........           LDR.W    R1,??DataTable26_5
   \   00001C56   4880               STRH     R0,[R1, #+2]
   1470                                                  DisplayInfo.HoldingTime = 2000;
   \   00001C58   ........           LDR.W    R0,??DataTable26_5
   \   00001C5C   4FF4FA61           MOV      R1,#+2000
   \   00001C60   0180               STRH     R1,[R0, #+0]
   1471                                                  DisplayInfo.Next_View = DisplayInfo.Now_View;
   \   00001C62   ........           LDR.W    R0,??DataTable26_5
   \   00001C66   ........           LDR.W    R1,??DataTable26_5
   \   00001C6A   4979               LDRB     R1,[R1, #+5]
   \   00001C6C   0171               STRB     R1,[R0, #+4]
   1472                                                  DisplayInfo.Now_View = DISP_WAIT;
   \   00001C6E   ........           LDR.W    R0,??DataTable26_5
   \   00001C72   0121               MOVS     R1,#+1
   \   00001C74   4171               STRB     R1,[R0, #+5]
   1473                                                  SetCursor(0,0,0);
   \   00001C76   0022               MOVS     R2,#+0
   \   00001C78   0021               MOVS     R1,#+0
   \   00001C7A   0020               MOVS     R0,#+0
   \   00001C7C   ........           BL       SetCursor
   1474                                                  DataSetting();
   \   00001C80   ........           BL       DataSetting
   1475                                                  Save_SFLASH();
   \   00001C84   ........           BL       Save_SFLASH
   \   00001C88   0FE0               B.N      ??KeyProcess_341
   1476                                             }else
   1477                                             {
   1478                                                  Input_Index_2 --;
   \                     ??KeyProcess_342:
   \   00001C8A   DFF85C0A           LDR.W    R0,??KeyProcess_331
   \   00001C8E   0078               LDRB     R0,[R0, #+0]
   \   00001C90   401E               SUBS     R0,R0,#+1
   \   00001C92   DFF8541A           LDR.W    R1,??KeyProcess_331
   \   00001C96   0870               STRB     R0,[R1, #+0]
   1479                                                  SetCursor(7 + Input_Index_2, 31, 1);
   \   00001C98   0122               MOVS     R2,#+1
   \   00001C9A   1F21               MOVS     R1,#+31
   \   00001C9C   DFF8480A           LDR.W    R0,??KeyProcess_331
   \   00001CA0   0078               LDRB     R0,[R0, #+0]
   \   00001CA2   C01D               ADDS     R0,R0,#+7
   \   00001CA4   C0B2               UXTB     R0,R0            ;; ZeroExt  R0,R0,#+24,#+24
   \   00001CA6   ........           BL       SetCursor
   1480                                             }
   1481                                        }
   1482                                   }break;
   \                     ??KeyProcess_341:
   \   00001CAA   BFE3               B.N      ??KeyProcess_250
   1483                              case DISP_MENU4_5:     // 속도 Reference
   1484                                   {
   1485                                        if( Input_Mode == 0 ) // 뷰모드
   \                     ??KeyProcess_269:
   \   00001CAC   ........           LDR.W    R0,??DataTable26_1
   \   00001CB0   0078               LDRB     R0,[R0, #+0]
   \   00001CB2   0028               CMP      R0,#+0
   \   00001CB4   09D1               BNE.N    ??KeyProcess_343
   1486                                        {
   1487                                             SetCursor(9,31,1);
   \   00001CB6   0122               MOVS     R2,#+1
   \   00001CB8   1F21               MOVS     R1,#+31
   \   00001CBA   0920               MOVS     R0,#+9
   \   00001CBC   ........           BL       SetCursor
   1488                                             Input_Mode = 1;                                   
   \   00001CC0   ........           LDR.W    R0,??DataTable26_1
   \   00001CC4   0121               MOVS     R1,#+1
   \   00001CC6   0170               STRB     R1,[R0, #+0]
   \   00001CC8   33E0               B.N      ??KeyProcess_344
   1489                                        }
   1490                                        else if( Input_Mode == 1)
   \                     ??KeyProcess_343:
   \   00001CCA   ........           LDR.W    R0,??DataTable26_1
   \   00001CCE   0078               LDRB     R0,[R0, #+0]
   \   00001CD0   0128               CMP      R0,#+1
   \   00001CD2   2ED1               BNE.N    ??KeyProcess_344
   1491                                        {
   1492                                             Input_Mode = 0;					   
   \   00001CD4   ........           LDR.W    R0,??DataTable26_1
   \   00001CD8   0021               MOVS     R1,#+0
   \   00001CDA   0170               STRB     R1,[R0, #+0]
   1493                                             SetCursor(0,0,0);
   \   00001CDC   0022               MOVS     R2,#+0
   \   00001CDE   0021               MOVS     R1,#+0
   \   00001CE0   0020               MOVS     R0,#+0
   \   00001CE2   ........           BL       SetCursor
   1494                                             Write_Word(0,16,"    정보수정완료  ");
   \   00001CE6   ........           LDR.W    R2,??DataTable26_6
   \   00001CEA   1021               MOVS     R1,#+16
   \   00001CEC   0020               MOVS     R0,#+0
   \   00001CEE   ........           BL       Write_Word
   1495                                             DisplayInfo.TimeOut = MS_TIMER;                                       
   \   00001CF2   3748               LDR.N    R0,??KeyProcess_243+0x14  ;; 0x40000c00
   \   00001CF4   ........           BL       TIM_GetCounter
   \   00001CF8   ........           LDR.W    R1,??DataTable26_5
   \   00001CFC   4880               STRH     R0,[R1, #+2]
   1496                                             DisplayInfo.HoldingTime = 2000;
   \   00001CFE   ........           LDR.W    R0,??DataTable26_5
   \   00001D02   4FF4FA61           MOV      R1,#+2000
   \   00001D06   0180               STRH     R1,[R0, #+0]
   1497                                             DisplayInfo.Next_View = DisplayInfo.Now_View;
   \   00001D08   ........           LDR.W    R0,??DataTable26_5
   \   00001D0C   ........           LDR.W    R1,??DataTable26_5
   \   00001D10   4979               LDRB     R1,[R1, #+5]
   \   00001D12   0171               STRB     R1,[R0, #+4]
   1498                                             DisplayInfo.Now_View = DISP_WAIT;
   \   00001D14   ........           LDR.W    R0,??DataTable26_5
   \   00001D18   0121               MOVS     R1,#+1
   \   00001D1A   4171               STRB     R1,[R0, #+5]
   1499                                             
   1500                                             Reference_Channel1 = SFLASH_Memory.SPEED_Reference * DAC_ADJUST;	// 스피드
   \   00001D1C   ........           LDR.W    R0,??DataTable26_2
   \   00001D20   B0F86C00           LDRH     R0,[R0, #+108]
   \   00001D24   0F21               MOVS     R1,#+15
   \   00001D26   4843               MULS     R0,R1,R0
   \   00001D28   ........           LDR.W    R1,??DataTable26_7
   \   00001D2C   0860               STR      R0,[R1, #+0]
   1501                                             Save_SFLASH();
   \   00001D2E   ........           BL       Save_SFLASH
   1502                                        }		
   1503                                        
   1504                                   }break;
   \                     ??KeyProcess_344:
   \   00001D32   7BE3               B.N      ??KeyProcess_250
   1505                              case DISP_MENU4_6:     // RPM Reference
   1506                                   {
   1507                                        if( Input_Mode == 0 ) // 뷰모드
   \                     ??KeyProcess_270:
   \   00001D34   ........           LDR.W    R0,??DataTable26_1
   \   00001D38   0078               LDRB     R0,[R0, #+0]
   \   00001D3A   0028               CMP      R0,#+0
   \   00001D3C   09D1               BNE.N    ??KeyProcess_345
   1508                                        {
   1509                                             SetCursor(9,31,1);
   \   00001D3E   0122               MOVS     R2,#+1
   \   00001D40   1F21               MOVS     R1,#+31
   \   00001D42   0920               MOVS     R0,#+9
   \   00001D44   ........           BL       SetCursor
   1510                                             Input_Mode = 1;				  
   \   00001D48   ........           LDR.W    R0,??DataTable26_1
   \   00001D4C   0121               MOVS     R1,#+1
   \   00001D4E   0170               STRB     R1,[R0, #+0]
   \   00001D50   33E0               B.N      ??KeyProcess_346
   1511                                        }
   1512                                        else if( Input_Mode == 1)
   \                     ??KeyProcess_345:
   \   00001D52   ........           LDR.W    R0,??DataTable26_1
   \   00001D56   0078               LDRB     R0,[R0, #+0]
   \   00001D58   0128               CMP      R0,#+1
   \   00001D5A   2ED1               BNE.N    ??KeyProcess_346
   1513                                        {
   1514                                             Input_Mode = 0;		
   \   00001D5C   ........           LDR.W    R0,??DataTable26_1
   \   00001D60   0021               MOVS     R1,#+0
   \   00001D62   0170               STRB     R1,[R0, #+0]
   1515                                             SetCursor(0,0,0);
   \   00001D64   0022               MOVS     R2,#+0
   \   00001D66   0021               MOVS     R1,#+0
   \   00001D68   0020               MOVS     R0,#+0
   \   00001D6A   ........           BL       SetCursor
   1516                                             Write_Word(0,16,"    정보수정완료   ");
   \   00001D6E   ........           LDR.W    R2,??DataTable26_8
   \   00001D72   1021               MOVS     R1,#+16
   \   00001D74   0020               MOVS     R0,#+0
   \   00001D76   ........           BL       Write_Word
   1517                                                       
   1518                                             
   1519                                             DisplayInfo.TimeOut = MS_TIMER;                                       
   \   00001D7A   1548               LDR.N    R0,??KeyProcess_243+0x14  ;; 0x40000c00
   \   00001D7C   ........           BL       TIM_GetCounter
   \   00001D80   ........           LDR.W    R1,??DataTable26_5
   \   00001D84   4880               STRH     R0,[R1, #+2]
   1520                                             DisplayInfo.HoldingTime = 2000;
   \   00001D86   ........           LDR.W    R0,??DataTable26_5
   \   00001D8A   4FF4FA61           MOV      R1,#+2000
   \   00001D8E   0180               STRH     R1,[R0, #+0]
   1521                                             DisplayInfo.Next_View = DisplayInfo.Now_View;
   \   00001D90   ........           LDR.W    R0,??DataTable26_5
   \   00001D94   ........           LDR.W    R1,??DataTable26_5
   \   00001D98   4979               LDRB     R1,[R1, #+5]
   \   00001D9A   0171               STRB     R1,[R0, #+4]
   1522                                             
   1523                                             DisplayInfo.Now_View = DISP_WAIT;
   \   00001D9C   ........           LDR.W    R0,??DataTable26_5
   \   00001DA0   0121               MOVS     R1,#+1
   \   00001DA2   4171               STRB     R1,[R0, #+5]
   1524                                             
   1525                                             Reference_Channel2 = SFLASH_Memory.RPM_Reference * DAC_ADJUST;     	// RPM
   \   00001DA4   ........           LDR.W    R0,??DataTable26_2
   \   00001DA8   B0F86E00           LDRH     R0,[R0, #+110]
   \   00001DAC   0F21               MOVS     R1,#+15
   \   00001DAE   4843               MULS     R0,R1,R0
   \   00001DB0   ........           LDR.W    R1,??DataTable26_9
   \   00001DB4   0860               STR      R0,[R1, #+0]
   1526                                             Save_SFLASH();
   \   00001DB6   ........           BL       Save_SFLASH
   1527                                        }		
   1528                                        
   1529                                   }break;
   \                     ??KeyProcess_346:
   \   00001DBA   37E3               B.N      ??KeyProcess_250
   \                     ??KeyProcess_243:
   \   00001DBC   ........           DC32     LOGWRITE
   \   00001DC0   ........           DC32     `?<Constant "KEY-DOWN Done\\r\\n">`
   \   00001DC4   ........           DC32     Buffer
   \   00001DC8   ........           DC32     GLCD_Refresh_Flag
   \   00001DCC   ........           DC32     `?<Constant "  \\301\\244\\272\\270\\274\\366\\301\\244`
   \   00001DD0   000C0040           DC32     0x40000c00
   \   00001DD4   ........           DC32     Info
   1530                                   
   1531                              case DISP_MENU4_7:     // 에어압
   1532                                   {
   1533                                        if( Input_Mode == 0 ) // 뷰모드
   \                     ??KeyProcess_271:
   \   00001DD8   ........           LDR.W    R0,??DataTable26_1
   \   00001DDC   0078               LDRB     R0,[R0, #+0]
   \   00001DDE   0028               CMP      R0,#+0
   \   00001DE0   09D1               BNE.N    ??KeyProcess_347
   1534                                        {
   1535                                             SetCursor(9,31,1);
   \   00001DE2   0122               MOVS     R2,#+1
   \   00001DE4   1F21               MOVS     R1,#+31
   \   00001DE6   0920               MOVS     R0,#+9
   \   00001DE8   ........           BL       SetCursor
   1536                                             Input_Mode = 1;				  
   \   00001DEC   ........           LDR.W    R0,??DataTable26_1
   \   00001DF0   0121               MOVS     R1,#+1
   \   00001DF2   0170               STRB     R1,[R0, #+0]
   \   00001DF4   2BE0               B.N      ??KeyProcess_348
   1537                                        }
   1538                                        else if( Input_Mode == 1)
   \                     ??KeyProcess_347:
   \   00001DF6   ........           LDR.W    R0,??DataTable26_1
   \   00001DFA   0078               LDRB     R0,[R0, #+0]
   \   00001DFC   0128               CMP      R0,#+1
   \   00001DFE   26D1               BNE.N    ??KeyProcess_348
   1539                                        {
   1540                                             
   1541                                             Input_Mode = 0;					   
   \   00001E00   ........           LDR.W    R0,??DataTable26_1
   \   00001E04   0021               MOVS     R1,#+0
   \   00001E06   0170               STRB     R1,[R0, #+0]
   1542                                             SetCursor(0,0,0);
   \   00001E08   0022               MOVS     R2,#+0
   \   00001E0A   0021               MOVS     R1,#+0
   \   00001E0C   0020               MOVS     R0,#+0
   \   00001E0E   ........           BL       SetCursor
   1543                                             Write_Word(0,16,"    정보수정완료     ");
   \   00001E12   ........           LDR.W    R2,??DataTable26_10
   \   00001E16   1021               MOVS     R1,#+16
   \   00001E18   0020               MOVS     R0,#+0
   \   00001E1A   ........           BL       Write_Word
   1544                                             
   1545                                             DisplayInfo.TimeOut = MS_TIMER;                                       
   \   00001E1E   ........           LDR.W    R0,??DataTable26_11  ;; 0x40000c00
   \   00001E22   ........           BL       TIM_GetCounter
   \   00001E26   ........           LDR.W    R1,??DataTable26_5
   \   00001E2A   4880               STRH     R0,[R1, #+2]
   1546                                             DisplayInfo.HoldingTime = 2000;
   \   00001E2C   ........           LDR.W    R0,??DataTable26_5
   \   00001E30   4FF4FA61           MOV      R1,#+2000
   \   00001E34   0180               STRH     R1,[R0, #+0]
   1547                                             DisplayInfo.Next_View = DisplayInfo.Now_View;
   \   00001E36   ........           LDR.W    R0,??DataTable26_5
   \   00001E3A   ........           LDR.W    R1,??DataTable26_5
   \   00001E3E   4979               LDRB     R1,[R1, #+5]
   \   00001E40   0171               STRB     R1,[R0, #+4]
   1548                                             
   1549                                             DisplayInfo.Now_View = DISP_WAIT;
   \   00001E42   ........           LDR.W    R0,??DataTable26_5
   \   00001E46   0121               MOVS     R1,#+1
   \   00001E48   4171               STRB     R1,[R0, #+5]
   1550          
   1551                                             Save_SFLASH();
   \   00001E4A   ........           BL       Save_SFLASH
   1552                                        }		
   1553                                   }break;
   \                     ??KeyProcess_348:
   \   00001E4E   EDE2               B.N      ??KeyProcess_250
   1554                                   
   1555                              case DISP_MENU4_8:     // 냉각수 온도
   1556                                   {
   1557                                        if( Input_Mode == 0 ) // 뷰모드
   \                     ??KeyProcess_272:
   \   00001E50   ........           LDR.W    R0,??DataTable26_1
   \   00001E54   0078               LDRB     R0,[R0, #+0]
   \   00001E56   0028               CMP      R0,#+0
   \   00001E58   09D1               BNE.N    ??KeyProcess_349
   1558                                        {
   1559                                             SetCursor(9,31,1);
   \   00001E5A   0122               MOVS     R2,#+1
   \   00001E5C   1F21               MOVS     R1,#+31
   \   00001E5E   0920               MOVS     R0,#+9
   \   00001E60   ........           BL       SetCursor
   1560                                             Input_Mode = 1;				  
   \   00001E64   ........           LDR.W    R0,??DataTable26_1
   \   00001E68   0121               MOVS     R1,#+1
   \   00001E6A   0170               STRB     R1,[R0, #+0]
   \   00001E6C   2BE0               B.N      ??KeyProcess_350
   1561                                        }
   1562                                        else if( Input_Mode == 1)
   \                     ??KeyProcess_349:
   \   00001E6E   ........           LDR.W    R0,??DataTable26_1
   \   00001E72   0078               LDRB     R0,[R0, #+0]
   \   00001E74   0128               CMP      R0,#+1
   \   00001E76   26D1               BNE.N    ??KeyProcess_350
   1563                                        {
   1564                                             
   1565                                             Input_Mode = 0;					   
   \   00001E78   ........           LDR.W    R0,??DataTable26_1
   \   00001E7C   0021               MOVS     R1,#+0
   \   00001E7E   0170               STRB     R1,[R0, #+0]
   1566                                             SetCursor(0,0,0);
   \   00001E80   0022               MOVS     R2,#+0
   \   00001E82   0021               MOVS     R1,#+0
   \   00001E84   0020               MOVS     R0,#+0
   \   00001E86   ........           BL       SetCursor
   1567                                             
   1568                                             Write_Word(0,16,"  정보수정완료  ");
   \   00001E8A   ........           LDR.W    R2,??DataTable26_12
   \   00001E8E   1021               MOVS     R1,#+16
   \   00001E90   0020               MOVS     R0,#+0
   \   00001E92   ........           BL       Write_Word
   1569                                             
   1570                                             DisplayInfo.TimeOut = MS_TIMER;                                       
   \   00001E96   ........           LDR.W    R0,??DataTable26_11  ;; 0x40000c00
   \   00001E9A   ........           BL       TIM_GetCounter
   \   00001E9E   ........           LDR.W    R1,??DataTable26_5
   \   00001EA2   4880               STRH     R0,[R1, #+2]
   1571                                             DisplayInfo.HoldingTime = 2000;
   \   00001EA4   ........           LDR.W    R0,??DataTable26_5
   \   00001EA8   4FF4FA61           MOV      R1,#+2000
   \   00001EAC   0180               STRH     R1,[R0, #+0]
   1572                                             DisplayInfo.Next_View = DisplayInfo.Now_View;
   \   00001EAE   ........           LDR.W    R0,??DataTable26_5
   \   00001EB2   ........           LDR.W    R1,??DataTable26_5
   \   00001EB6   4979               LDRB     R1,[R1, #+5]
   \   00001EB8   0171               STRB     R1,[R0, #+4]
   1573                                             
   1574                                             DisplayInfo.Now_View = DISP_WAIT;
   \   00001EBA   ........           LDR.W    R0,??DataTable26_5
   \   00001EBE   0121               MOVS     R1,#+1
   \   00001EC0   4171               STRB     R1,[R0, #+5]
   1575          
   1576                                             Save_SFLASH();
   \   00001EC2   ........           BL       Save_SFLASH
   1577                                        }		
   1578                                   }break;
   \                     ??KeyProcess_350:
   \   00001EC6   B1E2               B.N      ??KeyProcess_250
   1579                                   
   1580                              case DISP_MENU4_9:     // 과속
   1581                                   {
   1582                                        if( Input_Mode == 0 ) // 뷰모드
   \                     ??KeyProcess_273:
   \   00001EC8   ........           LDR.W    R0,??DataTable26_1
   \   00001ECC   0078               LDRB     R0,[R0, #+0]
   \   00001ECE   0028               CMP      R0,#+0
   \   00001ED0   09D1               BNE.N    ??KeyProcess_351
   1583                                        {
   1584                                             SetCursor(9,31,1);
   \   00001ED2   0122               MOVS     R2,#+1
   \   00001ED4   1F21               MOVS     R1,#+31
   \   00001ED6   0920               MOVS     R0,#+9
   \   00001ED8   ........           BL       SetCursor
   1585                                             Input_Mode = 1;				  
   \   00001EDC   ........           LDR.W    R0,??DataTable26_1
   \   00001EE0   0121               MOVS     R1,#+1
   \   00001EE2   0170               STRB     R1,[R0, #+0]
   \   00001EE4   2BE0               B.N      ??KeyProcess_352
   1586                                        }
   1587                                        else if( Input_Mode == 1)
   \                     ??KeyProcess_351:
   \   00001EE6   ........           LDR.W    R0,??DataTable26_1
   \   00001EEA   0078               LDRB     R0,[R0, #+0]
   \   00001EEC   0128               CMP      R0,#+1
   \   00001EEE   26D1               BNE.N    ??KeyProcess_352
   1588                                        {
   1589                                             
   1590                                             Input_Mode = 0;					   
   \   00001EF0   ........           LDR.W    R0,??DataTable26_1
   \   00001EF4   0021               MOVS     R1,#+0
   \   00001EF6   0170               STRB     R1,[R0, #+0]
   1591                                             
   1592                                             Write_Word(0,16,"  정보수정완료  ");
   \   00001EF8   ........           LDR.W    R2,??DataTable26_12
   \   00001EFC   1021               MOVS     R1,#+16
   \   00001EFE   0020               MOVS     R0,#+0
   \   00001F00   ........           BL       Write_Word
   1593                                             
   1594                                             DisplayInfo.TimeOut = MS_TIMER;                                       
   \   00001F04   ........           LDR.W    R0,??DataTable26_11  ;; 0x40000c00
   \   00001F08   ........           BL       TIM_GetCounter
   \   00001F0C   ........           LDR.W    R1,??DataTable26_5
   \   00001F10   4880               STRH     R0,[R1, #+2]
   1595                                             DisplayInfo.HoldingTime = 2000;
   \   00001F12   ........           LDR.W    R0,??DataTable26_5
   \   00001F16   4FF4FA61           MOV      R1,#+2000
   \   00001F1A   0180               STRH     R1,[R0, #+0]
   1596                                             DisplayInfo.Next_View = DisplayInfo.Now_View;
   \   00001F1C   ........           LDR.W    R0,??DataTable26_5
   \   00001F20   ........           LDR.W    R1,??DataTable26_5
   \   00001F24   4979               LDRB     R1,[R1, #+5]
   \   00001F26   0171               STRB     R1,[R0, #+4]
   1597                                             
   1598                                             DisplayInfo.Now_View = DISP_WAIT;
   \   00001F28   ........           LDR.W    R0,??DataTable26_5
   \   00001F2C   0121               MOVS     R1,#+1
   \   00001F2E   4171               STRB     R1,[R0, #+5]
   1599                                             
   1600                                             SetCursor(0,0,0);
   \   00001F30   0022               MOVS     R2,#+0
   \   00001F32   0021               MOVS     R1,#+0
   \   00001F34   0020               MOVS     R0,#+0
   \   00001F36   ........           BL       SetCursor
   1601                                             Save_SFLASH();
   \   00001F3A   ........           BL       Save_SFLASH
   1602                                        }		
   1603                                   }break;
   \                     ??KeyProcess_352:
   \   00001F3E   75E2               B.N      ??KeyProcess_250
   1604                                   
   1605                              case DISP_MENU4_10:     // 급정지
   1606                                   {
   1607                                        if( Input_Mode == 0 ) // 뷰모드
   \                     ??KeyProcess_274:
   \   00001F40   ........           LDR.W    R0,??DataTable26_1
   \   00001F44   0078               LDRB     R0,[R0, #+0]
   \   00001F46   0028               CMP      R0,#+0
   \   00001F48   09D1               BNE.N    ??KeyProcess_353
   1608                                        {
   1609                                             SetCursor(9,31,1);
   \   00001F4A   0122               MOVS     R2,#+1
   \   00001F4C   1F21               MOVS     R1,#+31
   \   00001F4E   0920               MOVS     R0,#+9
   \   00001F50   ........           BL       SetCursor
   1610                                             Input_Mode = 1;				  
   \   00001F54   ........           LDR.W    R0,??DataTable26_1
   \   00001F58   0121               MOVS     R1,#+1
   \   00001F5A   0170               STRB     R1,[R0, #+0]
   \   00001F5C   2BE0               B.N      ??KeyProcess_354
   1611                                        }
   1612                                        else if( Input_Mode == 1)
   \                     ??KeyProcess_353:
   \   00001F5E   ........           LDR.W    R0,??DataTable26_1
   \   00001F62   0078               LDRB     R0,[R0, #+0]
   \   00001F64   0128               CMP      R0,#+1
   \   00001F66   26D1               BNE.N    ??KeyProcess_354
   1613                                        {
   1614                                             
   1615                                             Input_Mode = 0;					   
   \   00001F68   ........           LDR.W    R0,??DataTable26_1
   \   00001F6C   0021               MOVS     R1,#+0
   \   00001F6E   0170               STRB     R1,[R0, #+0]
   1616                                             
   1617                                             Write_Word(0,16,"  정보수정완료  ");
   \   00001F70   ........           LDR.W    R2,??DataTable26_12
   \   00001F74   1021               MOVS     R1,#+16
   \   00001F76   0020               MOVS     R0,#+0
   \   00001F78   ........           BL       Write_Word
   1618                                             
   1619                                             DisplayInfo.TimeOut = MS_TIMER;                                       
   \   00001F7C   ........           LDR.W    R0,??DataTable26_11  ;; 0x40000c00
   \   00001F80   ........           BL       TIM_GetCounter
   \   00001F84   ........           LDR.W    R1,??DataTable26_5
   \   00001F88   4880               STRH     R0,[R1, #+2]
   1620                                             DisplayInfo.HoldingTime = 2000;
   \   00001F8A   ........           LDR.W    R0,??DataTable26_5
   \   00001F8E   4FF4FA61           MOV      R1,#+2000
   \   00001F92   0180               STRH     R1,[R0, #+0]
   1621                                             DisplayInfo.Next_View = DisplayInfo.Now_View;
   \   00001F94   ........           LDR.W    R0,??DataTable26_5
   \   00001F98   ........           LDR.W    R1,??DataTable26_5
   \   00001F9C   4979               LDRB     R1,[R1, #+5]
   \   00001F9E   0171               STRB     R1,[R0, #+4]
   1622                                             
   1623                                             DisplayInfo.Now_View = DISP_WAIT;
   \   00001FA0   ........           LDR.W    R0,??DataTable26_5
   \   00001FA4   0121               MOVS     R1,#+1
   \   00001FA6   4171               STRB     R1,[R0, #+5]
   1624                                             
   1625                                             SetCursor(0,0,0);
   \   00001FA8   0022               MOVS     R2,#+0
   \   00001FAA   0021               MOVS     R1,#+0
   \   00001FAC   0020               MOVS     R0,#+0
   \   00001FAE   ........           BL       SetCursor
   1626                                             Save_SFLASH();
   \   00001FB2   ........           BL       Save_SFLASH
   1627                                        }		                                 
   1628                                   }break;
   \                     ??KeyProcess_354:
   \   00001FB6   39E2               B.N      ??KeyProcess_250
   1629                                   
   1630                              case DISP_MENU4_11:     // 급가속
   1631                                   {
   1632                                        if( Input_Mode == 0 ) // 뷰모드
   \                     ??KeyProcess_275:
   \   00001FB8   ........           LDR.W    R0,??DataTable26_1
   \   00001FBC   0078               LDRB     R0,[R0, #+0]
   \   00001FBE   0028               CMP      R0,#+0
   \   00001FC0   09D1               BNE.N    ??KeyProcess_355
   1633                                        {
   1634                                             SetCursor(9,31,1);
   \   00001FC2   0122               MOVS     R2,#+1
   \   00001FC4   1F21               MOVS     R1,#+31
   \   00001FC6   0920               MOVS     R0,#+9
   \   00001FC8   ........           BL       SetCursor
   1635                                             Input_Mode = 1;				  
   \   00001FCC   ........           LDR.W    R0,??DataTable26_1
   \   00001FD0   0121               MOVS     R1,#+1
   \   00001FD2   0170               STRB     R1,[R0, #+0]
   \   00001FD4   2BE0               B.N      ??KeyProcess_356
   1636                                        }
   1637                                        else if( Input_Mode == 1)
   \                     ??KeyProcess_355:
   \   00001FD6   ........           LDR.W    R0,??DataTable26_1
   \   00001FDA   0078               LDRB     R0,[R0, #+0]
   \   00001FDC   0128               CMP      R0,#+1
   \   00001FDE   26D1               BNE.N    ??KeyProcess_356
   1638                                        {
   1639                                             
   1640                                             Input_Mode = 0;					   
   \   00001FE0   ........           LDR.W    R0,??DataTable26_1
   \   00001FE4   0021               MOVS     R1,#+0
   \   00001FE6   0170               STRB     R1,[R0, #+0]
   1641                                             
   1642                                             Write_Word(0,16,"  정보수정완료  ");
   \   00001FE8   ........           LDR.W    R2,??DataTable26_12
   \   00001FEC   1021               MOVS     R1,#+16
   \   00001FEE   0020               MOVS     R0,#+0
   \   00001FF0   ........           BL       Write_Word
   1643                                             
   1644                                             DisplayInfo.TimeOut = MS_TIMER;                                       
   \   00001FF4   ........           LDR.W    R0,??DataTable26_11  ;; 0x40000c00
   \   00001FF8   ........           BL       TIM_GetCounter
   \   00001FFC   ........           LDR.W    R1,??DataTable26_5
   \   00002000   4880               STRH     R0,[R1, #+2]
   1645                                             DisplayInfo.HoldingTime = 2000;
   \   00002002   ........           LDR.W    R0,??DataTable26_5
   \   00002006   4FF4FA61           MOV      R1,#+2000
   \   0000200A   0180               STRH     R1,[R0, #+0]
   1646                                             DisplayInfo.Next_View = DisplayInfo.Now_View;
   \   0000200C   ........           LDR.W    R0,??DataTable26_5
   \   00002010   ........           LDR.W    R1,??DataTable26_5
   \   00002014   4979               LDRB     R1,[R1, #+5]
   \   00002016   0171               STRB     R1,[R0, #+4]
   1647                                             
   1648                                             DisplayInfo.Now_View = DISP_WAIT;
   \   00002018   ........           LDR.W    R0,??DataTable26_5
   \   0000201C   0121               MOVS     R1,#+1
   \   0000201E   4171               STRB     R1,[R0, #+5]
   1649                                             
   1650                                             SetCursor(0,0,0);
   \   00002020   0022               MOVS     R2,#+0
   \   00002022   0021               MOVS     R1,#+0
   \   00002024   0020               MOVS     R0,#+0
   \   00002026   ........           BL       SetCursor
   1651                                             Save_SFLASH();
   \   0000202A   ........           BL       Save_SFLASH
   1652                                        }		                                 
   1653                                   }break;
   \                     ??KeyProcess_356:
   \   0000202E   FDE1               B.N      ??KeyProcess_250
   1654                              case DISP_MENU4_12:     // 과부하
   1655                                   {
   1656                                        if( Input_Mode == 0 ) // 뷰모드
   \                     ??KeyProcess_276:
   \   00002030   ........           LDR.W    R0,??DataTable26_1
   \   00002034   0078               LDRB     R0,[R0, #+0]
   \   00002036   0028               CMP      R0,#+0
   \   00002038   09D1               BNE.N    ??KeyProcess_357
   1657                                        {
   1658                                             SetCursor(9,31,1);
   \   0000203A   0122               MOVS     R2,#+1
   \   0000203C   1F21               MOVS     R1,#+31
   \   0000203E   0920               MOVS     R0,#+9
   \   00002040   ........           BL       SetCursor
   1659                                             Input_Mode = 1;				   
   \   00002044   ........           LDR.W    R0,??DataTable26_1
   \   00002048   0121               MOVS     R1,#+1
   \   0000204A   0170               STRB     R1,[R0, #+0]
   \   0000204C   2BE0               B.N      ??KeyProcess_358
   1660                                        }
   1661                                        else if( Input_Mode == 1)
   \                     ??KeyProcess_357:
   \   0000204E   ........           LDR.W    R0,??DataTable26_1
   \   00002052   0078               LDRB     R0,[R0, #+0]
   \   00002054   0128               CMP      R0,#+1
   \   00002056   26D1               BNE.N    ??KeyProcess_358
   1662                                        {
   1663                                             Input_Mode = 0;					   
   \   00002058   ........           LDR.W    R0,??DataTable26_1
   \   0000205C   0021               MOVS     R1,#+0
   \   0000205E   0170               STRB     R1,[R0, #+0]
   1664                                             
   1665                                             Write_Word(0,16,"  정보수정완료  ");
   \   00002060   ........           LDR.W    R2,??DataTable26_12
   \   00002064   1021               MOVS     R1,#+16
   \   00002066   0020               MOVS     R0,#+0
   \   00002068   ........           BL       Write_Word
   1666                                             
   1667                                             DisplayInfo.TimeOut = MS_TIMER;                                       
   \   0000206C   ........           LDR.W    R0,??DataTable26_11  ;; 0x40000c00
   \   00002070   ........           BL       TIM_GetCounter
   \   00002074   ........           LDR.W    R1,??DataTable26_5
   \   00002078   4880               STRH     R0,[R1, #+2]
   1668                                             DisplayInfo.HoldingTime = 2000;
   \   0000207A   ........           LDR.W    R0,??DataTable26_5
   \   0000207E   4FF4FA61           MOV      R1,#+2000
   \   00002082   0180               STRH     R1,[R0, #+0]
   1669                                             DisplayInfo.Next_View = DisplayInfo.Now_View;
   \   00002084   ........           LDR.W    R0,??DataTable26_5
   \   00002088   ........           LDR.W    R1,??DataTable26_5
   \   0000208C   4979               LDRB     R1,[R1, #+5]
   \   0000208E   0171               STRB     R1,[R0, #+4]
   1670                                             
   1671                                             DisplayInfo.Now_View = DISP_WAIT;
   \   00002090   ........           LDR.W    R0,??DataTable26_5
   \   00002094   0121               MOVS     R1,#+1
   \   00002096   4171               STRB     R1,[R0, #+5]
   1672                                             
   1673                                             SetCursor(0,0,0);
   \   00002098   0022               MOVS     R2,#+0
   \   0000209A   0021               MOVS     R1,#+0
   \   0000209C   0020               MOVS     R0,#+0
   \   0000209E   ........           BL       SetCursor
   1674                                             Save_SFLASH();
   \   000020A2   ........           BL       Save_SFLASH
   1675                                        }		                                 
   1676                                   }break;                      
   \                     ??KeyProcess_358:
   \   000020A6   C1E1               B.N      ??KeyProcess_250
   1677                              case DISP_MENU4_13:     // 기울기
   1678                                   {
   1679                                        if( Input_Mode == 0 ) // 뷰모드
   \                     ??KeyProcess_277:
   \   000020A8   ........           LDR.W    R0,??DataTable26_1
   \   000020AC   0078               LDRB     R0,[R0, #+0]
   \   000020AE   0028               CMP      R0,#+0
   \   000020B0   08D1               BNE.N    ??KeyProcess_359
   1680                                        {
   1681                                             //SetCursor(7,2,1);
   1682                                             Input_Mode = 1;				   
   \   000020B2   ........           LDR.W    R0,??DataTable26_1
   \   000020B6   0121               MOVS     R1,#+1
   \   000020B8   0170               STRB     R1,[R0, #+0]
   \   000020BA   31E0               B.N      ??KeyProcess_360
   \                     ??KeyProcess_248:
   \   000020BC   ........           DC32     Flag
   \   000020C0   ........           DC32     `?<Constant "\\277\\356\\300\\374\\300\\332\\301\\244\\2`
   1683                                        }
   1684                                        else if( Input_Mode == 1)
   \                     ??KeyProcess_359:
   \   000020C4   ........           LDR.W    R0,??DataTable26_1
   \   000020C8   0078               LDRB     R0,[R0, #+0]
   \   000020CA   0128               CMP      R0,#+1
   \   000020CC   28D1               BNE.N    ??KeyProcess_360
   1685                                        {
   1686                                             Input_Mode = 0;                                   
   \   000020CE   ........           LDR.W    R0,??DataTable26_1
   \   000020D2   0021               MOVS     R1,#+0
   \   000020D4   0170               STRB     R1,[R0, #+0]
   1687                                             Write_Word(0,16,"  정보수정완료   ");
   \   000020D6   ........           LDR.W    R2,??DataTable26_13
   \   000020DA   1021               MOVS     R1,#+16
   \   000020DC   0020               MOVS     R0,#+0
   \   000020DE   ........           BL       Write_Word
   1688                                             
   1689                                             DisplayInfo.TimeOut = MS_TIMER;                                       
   \   000020E2   ........           LDR.W    R0,??DataTable26_11  ;; 0x40000c00
   \   000020E6   ........           BL       TIM_GetCounter
   \   000020EA   ........           LDR.W    R1,??DataTable26_5
   \   000020EE   4880               STRH     R0,[R1, #+2]
   1690                                             DisplayInfo.HoldingTime = 2000;
   \   000020F0   ........           LDR.W    R0,??DataTable26_5
   \   000020F4   4FF4FA61           MOV      R1,#+2000
   \   000020F8   0180               STRH     R1,[R0, #+0]
   1691                                             DisplayInfo.Next_View = DisplayInfo.Now_View;
   \   000020FA   ........           LDR.W    R0,??DataTable26_5
   \   000020FE   ........           LDR.W    R1,??DataTable26_5
   \   00002102   4979               LDRB     R1,[R1, #+5]
   \   00002104   0171               STRB     R1,[R0, #+4]
   1692                                             
   1693                                             DisplayInfo.Now_View = DISP_WAIT;
   \   00002106   ........           LDR.W    R0,??DataTable26_5
   \   0000210A   0121               MOVS     R1,#+1
   \   0000210C   4171               STRB     R1,[R0, #+5]
   1694                                             
   1695                                             SetCursor(0,0,0);
   \   0000210E   0022               MOVS     R2,#+0
   \   00002110   0021               MOVS     R1,#+0
   \   00002112   0020               MOVS     R0,#+0
   \   00002114   ........           BL       SetCursor
   1696                                             Tilt_Setting_Reference();          // 기울기 설정
   \   00002118   ........           BL       Tilt_Setting_Reference
   1697                                             Save_SFLASH();
   \   0000211C   ........           BL       Save_SFLASH
   1698                                        }		                                 
   1699                                   }break;               
   \                     ??KeyProcess_360:
   \   00002120   84E1               B.N      ??KeyProcess_250
   \   00002122   00BF               Nop      
   \                     ??KeyProcess_249:
   \   00002124   ........           DC32     Info+0x1
   1700                              case DISP_MENU4_14:     // 볼륨
   1701          			   
   1702                              case DISP_MENU4_15:     // IO 반전 입력
   1703                                   {
   1704                                        if( Input_Mode == 0 ) // 뷰모드
   \                     ??KeyProcess_278:
   \   00002128   ........           LDR.W    R0,??DataTable26_1
   \   0000212C   0078               LDRB     R0,[R0, #+0]
   \   0000212E   0028               CMP      R0,#+0
   \   00002130   16D1               BNE.N    ??KeyProcess_361
   1705                                        {
   1706                                             GLcd_Clear();
   \   00002132   ........           BL       GLcd_Clear
   1707                                             SetCursor(0,0,0);
   \   00002136   0022               MOVS     R2,#+0
   \   00002138   0021               MOVS     R1,#+0
   \   0000213A   0020               MOVS     R0,#+0
   \   0000213C   ........           BL       SetCursor
   1708                                             INPUT_REVERSE_DATA = SFLASH_Memory.IO_Reverser;
   \   00002140   ........           LDR.W    R0,??DataTable26_2
   \   00002144   B0F8A000           LDRH     R0,[R0, #+160]
   \   00002148   ........           LDR.W    R1,??DataTable26_14
   \   0000214C   0880               STRH     R0,[R1, #+0]
   1709                                             Input_Mode = 1;				   
   \   0000214E   ........           LDR.W    R0,??DataTable26_1
   \   00002152   0121               MOVS     R1,#+1
   \   00002154   0170               STRB     R1,[R0, #+0]
   1710                                             IOReverse_Count = 0;
   \   00002156   ........           LDR.W    R0,??DataTable26_15
   \   0000215A   0021               MOVS     R1,#+0
   \   0000215C   0170               STRB     R1,[R0, #+0]
   \   0000215E   4AE0               B.N      ??KeyProcess_362
   1711                                        }
   1712                                        else if( Input_Mode == 1)
   \                     ??KeyProcess_361:
   \   00002160   ........           LDR.W    R0,??DataTable26_1
   \   00002164   0078               LDRB     R0,[R0, #+0]
   \   00002166   0128               CMP      R0,#+1
   \   00002168   45D1               BNE.N    ??KeyProcess_362
   1713                                        {
   1714                                             IOReverse_Count++;
   \   0000216A   ........           LDR.W    R0,??DataTable26_15
   \   0000216E   0078               LDRB     R0,[R0, #+0]
   \   00002170   401C               ADDS     R0,R0,#+1
   \   00002172   ........           LDR.W    R1,??DataTable26_15
   \   00002176   0870               STRB     R0,[R1, #+0]
   1715                                       
   1716                                             if(IOReverse_Count > 7)
   \   00002178   ........           LDR.W    R0,??DataTable26_15
   \   0000217C   0078               LDRB     R0,[R0, #+0]
   \   0000217E   0828               CMP      R0,#+8
   \   00002180   39D3               BCC.N    ??KeyProcess_362
   1717                                             {
   1718                                                  Input_Mode = 0;					   
   \   00002182   ........           LDR.W    R0,??DataTable26_1
   \   00002186   0021               MOVS     R1,#+0
   \   00002188   0170               STRB     R1,[R0, #+0]
   1719                                                  SetCursor(0,0,0);
   \   0000218A   0022               MOVS     R2,#+0
   \   0000218C   0021               MOVS     R1,#+0
   \   0000218E   0020               MOVS     R0,#+0
   \   00002190   ........           BL       SetCursor
   1720                                                  Write_Word(0,0, "  < 키입력수정 >       " );
   \   00002194   ........           LDR.W    R2,??DataTable26_16
   \   00002198   0021               MOVS     R1,#+0
   \   0000219A   0020               MOVS     R0,#+0
   \   0000219C   ........           BL       Write_Word
   1721                                                  Write_Word(0,16,"  정보수정완료      " );
   \   000021A0   ........           LDR.W    R2,??DataTable26
   \   000021A4   1021               MOVS     R1,#+16
   \   000021A6   0020               MOVS     R0,#+0
   \   000021A8   ........           BL       Write_Word
   1722                                                  
   1723                                                  DisplayInfo.TimeOut = MS_TIMER;                                       
   \   000021AC   ........           LDR.W    R0,??DataTable26_11  ;; 0x40000c00
   \   000021B0   ........           BL       TIM_GetCounter
   \   000021B4   ........           LDR.W    R1,??DataTable26_5
   \   000021B8   4880               STRH     R0,[R1, #+2]
   1724                                                  DisplayInfo.HoldingTime = 2000;
   \   000021BA   ........           LDR.W    R0,??DataTable26_5
   \   000021BE   4FF4FA61           MOV      R1,#+2000
   \   000021C2   0180               STRH     R1,[R0, #+0]
   1725                                                  DisplayInfo.Next_View = DisplayInfo.Now_View;
   \   000021C4   ........           LDR.W    R0,??DataTable26_5
   \   000021C8   ........           LDR.W    R1,??DataTable26_5
   \   000021CC   4979               LDRB     R1,[R1, #+5]
   \   000021CE   0171               STRB     R1,[R0, #+4]
   1726                                                  
   1727                                                  DisplayInfo.Now_View = DISP_WAIT;
   \   000021D0   ........           LDR.W    R0,??DataTable26_5
   \   000021D4   0121               MOVS     R1,#+1
   \   000021D6   4171               STRB     R1,[R0, #+5]
   1728                                                  SFLASH_Memory.IO_Reverser = INPUT_REVERSE_DATA;        
   \   000021D8   ........           LDR.W    R0,??DataTable26_2
   \   000021DC   ........           LDR.W    R1,??DataTable26_14
   \   000021E0   0988               LDRH     R1,[R1, #+0]
   \   000021E2   A0F8A010           STRH     R1,[R0, #+160]
   1729                                                  Set_Info.IO_Reverser = INPUT_REVERSE_DATA;   
   \   000021E6   ........           LDR.W    R0,??DataTable26_17
   \   000021EA   ........           LDR.W    R1,??DataTable26_14
   \   000021EE   0988               LDRH     R1,[R1, #+0]
   \   000021F0   C181               STRH     R1,[R0, #+14]
   1730                                                  Save_SFLASH();
   \   000021F2   ........           BL       Save_SFLASH
   1731                                             }
   1732                                        }
   1733                                   }break;
   \                     ??KeyProcess_362:
   \   000021F6   19E1               B.N      ??KeyProcess_250
   \                     ??KeyProcess_284:
   \   000021F8   ........           DC32     VIEW_Header
   \   000021FC   ........           DC32     USBH_USR_ApplicationState
   \   00002200   ........           DC32     USBH_USR_ActionFlag
   \   00002204   ........           DC32     Input_Index_1
   \   00002208   ........           DC32     NAND_Header_Index
   1734                              case DISP_MENU4_16:     // GPS 차고지설정
   1735                                   {
   1736                                        if( Input_Mode == 0 ) // 뷰모드
   \                     ??KeyProcess_279:
   \   0000220C   ........           LDR.W    R0,??DataTable26_1
   \   00002210   0078               LDRB     R0,[R0, #+0]
   \   00002212   0028               CMP      R0,#+0
   \   00002214   28D1               BNE.N    ??KeyProcess_363
   1737                                        {
   1738                                             HomeCheck();
   \   00002216   ........           BL       HomeCheck
   1739                                             Input_Mode = 0;					   
   \   0000221A   ........           LDR.W    R0,??DataTable26_1
   \   0000221E   0021               MOVS     R1,#+0
   \   00002220   0170               STRB     R1,[R0, #+0]
   1740                                             SetCursor(0,0,0);
   \   00002222   0022               MOVS     R2,#+0
   \   00002224   0021               MOVS     R1,#+0
   \   00002226   0020               MOVS     R0,#+0
   \   00002228   ........           BL       SetCursor
   1741                                             Write_Word(0,16,"  정보수정완료      " );
   \   0000222C   ........           LDR.W    R2,??DataTable26
   \   00002230   1021               MOVS     R1,#+16
   \   00002232   0020               MOVS     R0,#+0
   \   00002234   ........           BL       Write_Word
   1742                                                  
   1743                                             DisplayInfo.TimeOut = MS_TIMER;                                       
   \   00002238   ........           LDR.W    R0,??DataTable26_11  ;; 0x40000c00
   \   0000223C   ........           BL       TIM_GetCounter
   \   00002240   ........           LDR.W    R1,??DataTable26_5
   \   00002244   4880               STRH     R0,[R1, #+2]
   1744                                             DisplayInfo.HoldingTime = 2000;
   \   00002246   ........           LDR.W    R0,??DataTable26_5
   \   0000224A   4FF4FA61           MOV      R1,#+2000
   \   0000224E   0180               STRH     R1,[R0, #+0]
   1745                                             DisplayInfo.Next_View = DisplayInfo.Now_View;                                  
   \   00002250   ........           LDR.W    R0,??DataTable26_5
   \   00002254   ........           LDR.W    R1,??DataTable26_5
   \   00002258   4979               LDRB     R1,[R1, #+5]
   \   0000225A   0171               STRB     R1,[R0, #+4]
   1746                                             DisplayInfo.Now_View = DISP_WAIT;
   \   0000225C   ........           LDR.W    R0,??DataTable26_5
   \   00002260   0121               MOVS     R1,#+1
   \   00002262   4171               STRB     R1,[R0, #+5]
   1747          
   1748                                             Save_SFLASH();
   \   00002264   ........           BL       Save_SFLASH
   1749                                        }break;	
   \                     ??KeyProcess_363:
   \   00002268   E0E0               B.N      ??KeyProcess_250
   1750                                   }
   1751                              case DISP_MENU4_17:     // EMS 동작범위
   1752                                   {
   1753                                        if( Input_Mode == 0 )
   \                     ??KeyProcess_280:
   \   0000226A   ........           LDR.W    R0,??DataTable26_1
   \   0000226E   0078               LDRB     R0,[R0, #+0]
   \   00002270   0028               CMP      R0,#+0
   \   00002272   09D1               BNE.N    ??KeyProcess_364
   1754                                        {
   1755                                             Input_Mode = 1;
   \   00002274   ........           LDR.W    R0,??DataTable26_1
   \   00002278   0121               MOVS     R1,#+1
   \   0000227A   0170               STRB     R1,[R0, #+0]
   1756                                             SetCursor(0,26,3);
   \   0000227C   0322               MOVS     R2,#+3
   \   0000227E   1A21               MOVS     R1,#+26
   \   00002280   0020               MOVS     R0,#+0
   \   00002282   ........           BL       SetCursor
   \   00002286   2BE0               B.N      ??KeyProcess_365
   1757                                        }
   1758                                        else if(Input_Mode == 1)
   \                     ??KeyProcess_364:
   \   00002288   ........           LDR.W    R0,??DataTable26_1
   \   0000228C   0078               LDRB     R0,[R0, #+0]
   \   0000228E   0128               CMP      R0,#+1
   \   00002290   26D1               BNE.N    ??KeyProcess_365
   1759                                        {
   1760                                             Input_Mode = 0;					   
   \   00002292   ........           LDR.W    R0,??DataTable26_1
   \   00002296   0021               MOVS     R1,#+0
   \   00002298   0170               STRB     R1,[R0, #+0]
   1761                                             SetCursor(0,0,0);
   \   0000229A   0022               MOVS     R2,#+0
   \   0000229C   0021               MOVS     R1,#+0
   \   0000229E   0020               MOVS     R0,#+0
   \   000022A0   ........           BL       SetCursor
   1762                                             Write_Word(0,16,"  정보수정완료      " );
   \   000022A4   ........           LDR.W    R2,??DataTable26
   \   000022A8   1021               MOVS     R1,#+16
   \   000022AA   0020               MOVS     R0,#+0
   \   000022AC   ........           BL       Write_Word
   1763                                             
   1764                                             DisplayInfo.TimeOut = MS_TIMER;                                       
   \   000022B0   ........           LDR.W    R0,??DataTable26_11  ;; 0x40000c00
   \   000022B4   ........           BL       TIM_GetCounter
   \   000022B8   ........           LDR.W    R1,??DataTable26_5
   \   000022BC   4880               STRH     R0,[R1, #+2]
   1765                                             DisplayInfo.HoldingTime = 2000;
   \   000022BE   ........           LDR.W    R0,??DataTable26_5
   \   000022C2   4FF4FA61           MOV      R1,#+2000
   \   000022C6   0180               STRH     R1,[R0, #+0]
   1766                                             DisplayInfo.Next_View = DisplayInfo.Now_View;
   \   000022C8   ........           LDR.W    R0,??DataTable26_5
   \   000022CC   ........           LDR.W    R1,??DataTable26_5
   \   000022D0   4979               LDRB     R1,[R1, #+5]
   \   000022D2   0171               STRB     R1,[R0, #+4]
   1767                                             
   1768                                             DisplayInfo.Now_View = DISP_WAIT;
   \   000022D4   ........           LDR.W    R0,??DataTable26_5
   \   000022D8   0121               MOVS     R1,#+1
   \   000022DA   4171               STRB     R1,[R0, #+5]
   1769                                             Save_SFLASH();                                
   \   000022DC   ........           BL       Save_SFLASH
   1770                                             
   1771                                        }						
   1772                                        
   1773                                   }break;
   \                     ??KeyProcess_365:
   \   000022E0   A4E0               B.N      ??KeyProcess_250
   1774                              case DISP_MENU4_18:     // EMS 스타트 모터 설정
   1775                                   {
   1776                                        if( Input_Mode == 0 )
   \                     ??KeyProcess_281:
   \   000022E2   ........           LDR.W    R0,??DataTable26_1
   \   000022E6   0078               LDRB     R0,[R0, #+0]
   \   000022E8   0028               CMP      R0,#+0
   \   000022EA   1BD1               BNE.N    ??KeyProcess_366
   1777                                        {
   1778                                             Input_Mode = 1;
   \   000022EC   ........           LDR.W    R0,??DataTable26_1
   \   000022F0   0121               MOVS     R1,#+1
   \   000022F2   0170               STRB     R1,[R0, #+0]
   1779                                             Input_Index_2 = 5;
   \   000022F4   DFF8F003           LDR.W    R0,??KeyProcess_331
   \   000022F8   0521               MOVS     R1,#+5
   \   000022FA   0170               STRB     R1,[R0, #+0]
   1780                                             SetCursor(7 + Input_Index_2,31,1);
   \   000022FC   0122               MOVS     R2,#+1
   \   000022FE   1F21               MOVS     R1,#+31
   \   00002300   DFF8E403           LDR.W    R0,??KeyProcess_331
   \   00002304   0078               LDRB     R0,[R0, #+0]
   \   00002306   C01D               ADDS     R0,R0,#+7
   \   00002308   C0B2               UXTB     R0,R0            ;; ZeroExt  R0,R0,#+24,#+24
   \   0000230A   ........           BL       SetCursor
   1781                                             Temp = ACC_Drive_Value.Total_StartMotor ;
   \   0000230E   ........           LDR.W    R0,??DataTable26_18
   \   00002312   0088               LDRH     R0,[R0, #+0]
   1782                                             sprintf( (char *) Input_Word,"%06d",Temp );                                    
   \   00002314   0200               MOVS     R2,R0
   \   00002316   ........           LDR.W    R1,??DataTable26_4
   \   0000231A   DFF8EC03           LDR.W    R0,??KeyProcess_332
   \   0000231E   ........           BL       sprintf
   \   00002322   48E0               B.N      ??KeyProcess_367
   1783                                        }
   1784                                        else if (Input_Mode == 1)
   \                     ??KeyProcess_366:
   \   00002324   ........           LDR.W    R0,??DataTable26_1
   \   00002328   0078               LDRB     R0,[R0, #+0]
   \   0000232A   0128               CMP      R0,#+1
   \   0000232C   43D1               BNE.N    ??KeyProcess_367
   1785                                        {
   1786                                             if(Input_Index_2 == 0)// 마지막 버튼을 누르면
   \   0000232E   DFF8B803           LDR.W    R0,??KeyProcess_331
   \   00002332   0078               LDRB     R0,[R0, #+0]
   \   00002334   0028               CMP      R0,#+0
   \   00002336   2ED1               BNE.N    ??KeyProcess_368
   1787                                             {
   1788                                                  Temp = atoi((char*)Input_Word);
   \   00002338   DFF8CC03           LDR.W    R0,??KeyProcess_332
   \   0000233C   ........           BL       atoi
   1789                                                  ACC_Drive_Value.Total_StartMotor = Temp;
   \   00002340   ........           LDR.W    R1,??DataTable26_18
   \   00002344   0880               STRH     R0,[R1, #+0]
   1790                                                  Input_Mode = 0;
   \   00002346   ........           LDR.W    R0,??DataTable26_1
   \   0000234A   0021               MOVS     R1,#+0
   \   0000234C   0170               STRB     R1,[R0, #+0]
   1791                                                  Write_Header_EMS();
   \   0000234E   ........           BL       Write_Header_EMS
   1792                                                  Write_Word(0,16,"  정보수정완료      ");
   \   00002352   ........           LDR.W    R2,??DataTable26
   \   00002356   1021               MOVS     R1,#+16
   \   00002358   0020               MOVS     R0,#+0
   \   0000235A   ........           BL       Write_Word
   1793                                                  DisplayInfo.TimeOut = MS_TIMER;
   \   0000235E   ........           LDR.W    R0,??DataTable26_11  ;; 0x40000c00
   \   00002362   ........           BL       TIM_GetCounter
   \   00002366   ........           LDR.W    R1,??DataTable26_5
   \   0000236A   4880               STRH     R0,[R1, #+2]
   1794                                                  DisplayInfo.HoldingTime = 2000;
   \   0000236C   ........           LDR.W    R0,??DataTable26_5
   \   00002370   4FF4FA61           MOV      R1,#+2000
   \   00002374   0180               STRH     R1,[R0, #+0]
   1795                                                  DisplayInfo.Next_View = DisplayInfo.Now_View;
   \   00002376   ........           LDR.W    R0,??DataTable26_5
   \   0000237A   ........           LDR.W    R1,??DataTable26_5
   \   0000237E   4979               LDRB     R1,[R1, #+5]
   \   00002380   0171               STRB     R1,[R0, #+4]
   1796                                                  DisplayInfo.Now_View = DISP_WAIT;
   \   00002382   ........           LDR.W    R0,??DataTable26_5
   \   00002386   0121               MOVS     R1,#+1
   \   00002388   4171               STRB     R1,[R0, #+5]
   1797                                                  SetCursor(0,0,0);
   \   0000238A   0022               MOVS     R2,#+0
   \   0000238C   0021               MOVS     R1,#+0
   \   0000238E   0020               MOVS     R0,#+0
   \   00002390   ........           BL       SetCursor
   \   00002394   0FE0               B.N      ??KeyProcess_367
   1798                                                  
   1799                                             }else
   1800                                             {
   1801                                                  Input_Index_2 --;
   \                     ??KeyProcess_368:
   \   00002396   DFF85003           LDR.W    R0,??KeyProcess_331
   \   0000239A   0078               LDRB     R0,[R0, #+0]
   \   0000239C   401E               SUBS     R0,R0,#+1
   \   0000239E   DFF84813           LDR.W    R1,??KeyProcess_331
   \   000023A2   0870               STRB     R0,[R1, #+0]
   1802                                                  SetCursor(7 + Input_Index_2,31,1);
   \   000023A4   0122               MOVS     R2,#+1
   \   000023A6   1F21               MOVS     R1,#+31
   \   000023A8   DFF83C03           LDR.W    R0,??KeyProcess_331
   \   000023AC   0078               LDRB     R0,[R0, #+0]
   \   000023AE   C01D               ADDS     R0,R0,#+7
   \   000023B0   C0B2               UXTB     R0,R0            ;; ZeroExt  R0,R0,#+24,#+24
   \   000023B2   ........           BL       SetCursor
   1803                                             }
   1804                                        }                                 
   1805           
   1806                                   }break;	 
   \                     ??KeyProcess_367:
   \   000023B6   39E0               B.N      ??KeyProcess_250
   \                     ??KeyProcess_312:
   \   000023B8   ........           DC32     Pass_Index
   1807                              case DISP_MENU4_19:     // EMS 속도범위
   1808                                   {
   1809                                        if( Input_Mode == 0 )
   \                     ??KeyProcess_282:
   \   000023BC   ........           LDR.W    R0,??DataTable26_1
   \   000023C0   0078               LDRB     R0,[R0, #+0]
   \   000023C2   0028               CMP      R0,#+0
   \   000023C4   09D1               BNE.N    ??KeyProcess_369
   1810                                        {
   1811                                             Input_Mode = 1;
   \   000023C6   ........           LDR.W    R0,??DataTable26_1
   \   000023CA   0121               MOVS     R1,#+1
   \   000023CC   0170               STRB     R1,[R0, #+0]
   1812                                             SetCursor(0,26,3);
   \   000023CE   0322               MOVS     R2,#+3
   \   000023D0   1A21               MOVS     R1,#+26
   \   000023D2   0020               MOVS     R0,#+0
   \   000023D4   ........           BL       SetCursor
   \   000023D8   28E0               B.N      ??KeyProcess_370
   1813                                        }
   1814                                        else if(Input_Mode == 1)
   \                     ??KeyProcess_369:
   \   000023DA   ........           LDR.W    R0,??DataTable26_1
   \   000023DE   0078               LDRB     R0,[R0, #+0]
   \   000023E0   0128               CMP      R0,#+1
   \   000023E2   23D1               BNE.N    ??KeyProcess_370
   1815                                        {
   1816                                             Input_Mode = 0;					   
   \   000023E4   ........           LDR.W    R0,??DataTable26_1
   \   000023E8   0021               MOVS     R1,#+0
   \   000023EA   0170               STRB     R1,[R0, #+0]
   1817                                             SetCursor(0,0,0);
   \   000023EC   0022               MOVS     R2,#+0
   \   000023EE   0021               MOVS     R1,#+0
   \   000023F0   0020               MOVS     R0,#+0
   \   000023F2   ........           BL       SetCursor
   1818                                             Write_Word(0,16,"  정보수정완료      " );
   \   000023F6   ........           LDR.W    R2,??DataTable26
   \   000023FA   1021               MOVS     R1,#+16
   \   000023FC   0020               MOVS     R0,#+0
   \   000023FE   ........           BL       Write_Word
   1819                                             
   1820                                             DisplayInfo.TimeOut = MS_TIMER;                                       
   \   00002402   ........           LDR.W    R0,??DataTable26_11  ;; 0x40000c00
   \   00002406   ........           BL       TIM_GetCounter
   \   0000240A   ........           LDR.W    R1,??DataTable26_5
   \   0000240E   4880               STRH     R0,[R1, #+2]
   1821                                             DisplayInfo.HoldingTime = 2000;
   \   00002410   ........           LDR.W    R0,??DataTable26_5
   \   00002414   4FF4FA61           MOV      R1,#+2000
   \   00002418   0180               STRH     R1,[R0, #+0]
   1822                                             DisplayInfo.Next_View = DisplayInfo.Now_View;
   \   0000241A   ....               LDR.N    R0,??DataTable26_5
   \   0000241C   ....               LDR.N    R1,??DataTable26_5
   \   0000241E   4979               LDRB     R1,[R1, #+5]
   \   00002420   0171               STRB     R1,[R0, #+4]
   1823                                             
   1824                                             DisplayInfo.Now_View = DISP_WAIT;
   \   00002422   ....               LDR.N    R0,??DataTable26_5
   \   00002424   0121               MOVS     R1,#+1
   \   00002426   4171               STRB     R1,[R0, #+5]
   1825                                             Save_SFLASH();
   \   00002428   ........           BL       Save_SFLASH
   1826                                        }
   1827                                   }break;
   1828                              }
   1829                         }
   1830                    }  // end of Key_MODE
   1831                    break;
   \                     ??KeyProcess_370:
   \                     ??KeyProcess_250:
   \   0000242C   6AE1               B.N      ??KeyProcess_13
   1832                    
   1833               case Key_ESC:
   1834                    {
   1835                         GLCD_Refresh_Flag = 1;
   \                     ??KeyProcess_4:
   \   0000242E   ........           LDR.W    R0,??DataTable26_19
   \   00002432   0121               MOVS     R1,#+1
   \   00002434   0170               STRB     R1,[R0, #+0]
   1836                         if( DisplayInfo.Mode == DISPMODE_ENGINER )
   \   00002436   ....               LDR.N    R0,??DataTable26_5
   \   00002438   8079               LDRB     R0,[R0, #+6]
   \   0000243A   0428               CMP      R0,#+4
   \   0000243C   06D1               BNE.N    ??KeyProcess_371
   1837                         {
   1838                              // 차량 데이터 저장
   1839          
   1840                              DisplayInfo.Now_View = DISP_IDLE;
   \   0000243E   ....               LDR.N    R0,??DataTable26_5
   \   00002440   0321               MOVS     R1,#+3
   \   00002442   4171               STRB     R1,[R0, #+5]
   1841                              DisplayInfo.Mode = DISPMODE_VIEW;
   \   00002444   ....               LDR.N    R0,??DataTable26_5
   \   00002446   0121               MOVS     R1,#+1
   \   00002448   8171               STRB     R1,[R0, #+6]
   \   0000244A   4CE1               B.N      ??KeyProcess_372
   1842                         }               
   1843                         else if( DisplayInfo.Mode == DISPMODE_VIEW )               
   \                     ??KeyProcess_371:
   \   0000244C   ....               LDR.N    R0,??DataTable26_5
   \   0000244E   8079               LDRB     R0,[R0, #+6]
   \   00002450   0128               CMP      R0,#+1
   \   00002452   2BD1               BNE.N    ??KeyProcess_373
   1844                         {
   1845                              if(DisplayInfo.Now_View == DISP_MENU2_1_1)
   \   00002454   ....               LDR.N    R0,??DataTable26_5
   \   00002456   4079               LDRB     R0,[R0, #+5]
   \   00002458   1F28               CMP      R0,#+31
   \   0000245A   0BD1               BNE.N    ??KeyProcess_374
   1846                              {
   1847                                   Input_Mode = 0;
   \   0000245C   ....               LDR.N    R0,??DataTable26_1
   \   0000245E   0021               MOVS     R1,#+0
   \   00002460   0170               STRB     R1,[R0, #+0]
   1848                                   SetCursor(0,0,0);
   \   00002462   0022               MOVS     R2,#+0
   \   00002464   0021               MOVS     R1,#+0
   \   00002466   0020               MOVS     R0,#+0
   \   00002468   ........           BL       SetCursor
   1849                                   DisplayInfo.Now_View = DISP_IDLE;
   \   0000246C   ....               LDR.N    R0,??DataTable26_5
   \   0000246E   0321               MOVS     R1,#+3
   \   00002470   4171               STRB     R1,[R0, #+5]
   \   00002472   38E1               B.N      ??KeyProcess_372
   1850                              }
   1851                              else if(DisplayInfo.Now_View != DISP_MENU5_1 )
   \                     ??KeyProcess_374:
   \   00002474   ....               LDR.N    R0,??DataTable26_5
   \   00002476   4079               LDRB     R0,[R0, #+5]
   \   00002478   3528               CMP      R0,#+53
   \   0000247A   0BD0               BEQ.N    ??KeyProcess_375
   1852                              {
   1853                                   DisplayInfo.Now_View = DISP_MENU5_1 ;
   \   0000247C   ....               LDR.N    R0,??DataTable26_5
   \   0000247E   3521               MOVS     R1,#+53
   \   00002480   4171               STRB     R1,[R0, #+5]
   1854                                   SetCursor(0,26,3);
   \   00002482   0322               MOVS     R2,#+3
   \   00002484   1A21               MOVS     R1,#+26
   \   00002486   0020               MOVS     R0,#+0
   \   00002488   ........           BL       SetCursor
   1855                                   Input_Mode = 1;
   \   0000248C   ....               LDR.N    R0,??DataTable26_1
   \   0000248E   0121               MOVS     R1,#+1
   \   00002490   0170               STRB     R1,[R0, #+0]
   \   00002492   28E1               B.N      ??KeyProcess_372
   1856          
   1857                              }
   1858                              else {
   1859                                   Input_Mode = 0;
   \                     ??KeyProcess_375:
   \   00002494   ....               LDR.N    R0,??DataTable26_1
   \   00002496   0021               MOVS     R1,#+0
   \   00002498   0170               STRB     R1,[R0, #+0]
   1860                                   SetCursor(0,0,0);
   \   0000249A   0022               MOVS     R2,#+0
   \   0000249C   0021               MOVS     R1,#+0
   \   0000249E   0020               MOVS     R0,#+0
   \   000024A0   ........           BL       SetCursor
   1861                                   DisplayInfo.Now_View = DISP_IDLE;                         
   \   000024A4   ....               LDR.N    R0,??DataTable26_5
   \   000024A6   0321               MOVS     R1,#+3
   \   000024A8   4171               STRB     R1,[R0, #+5]
   \   000024AA   1CE1               B.N      ??KeyProcess_372
   1862                              }
   1863          
   1864                         }          	                    
   1865          
   1866                         else if( DisplayInfo.Mode == DISPMODE_MENU )
   \                     ??KeyProcess_373:
   \   000024AC   ....               LDR.N    R0,??DataTable26_5
   \   000024AE   8079               LDRB     R0,[R0, #+6]
   \   000024B0   0228               CMP      R0,#+2
   \   000024B2   40F01881           BNE.W    ??KeyProcess_372
   1867                         {
   1868                              switch(DisplayInfo.Now_View)
   \   000024B6   ....               LDR.N    R0,??DataTable26_5
   \   000024B8   4079               LDRB     R0,[R0, #+5]
   \   000024BA   1038               SUBS     R0,R0,#+16
   \   000024BC   2CD0               BEQ.N    ??KeyProcess_376
   \   000024BE   401E               SUBS     R0,R0,#+1
   \   000024C0   3CD0               BEQ.N    ??KeyProcess_377
   \   000024C2   401E               SUBS     R0,R0,#+1
   \   000024C4   6BD0               BEQ.N    ??KeyProcess_378
   \   000024C6   401E               SUBS     R0,R0,#+1
   \   000024C8   00F08280           BEQ.W    ??KeyProcess_379
   \   000024CC   401E               SUBS     R0,R0,#+1
   \   000024CE   00F08480           BEQ.W    ??KeyProcess_380
   \   000024D2   401E               SUBS     R0,R0,#+1
   \   000024D4   00F0D880           BEQ.W    ??KeyProcess_381
   \   000024D8   401E               SUBS     R0,R0,#+1
   \   000024DA   00F0E180           BEQ.W    ??KeyProcess_382
   \   000024DE   401E               SUBS     R0,R0,#+1
   \   000024E0   00F0EA80           BEQ.W    ??KeyProcess_383
   \   000024E4   401E               SUBS     R0,R0,#+1
   \   000024E6   00F0F380           BEQ.W    ??KeyProcess_384
   \   000024EA   801E               SUBS     R0,R0,#+2
   \   000024EC   27D0               BEQ.N    ??KeyProcess_385
   \   000024EE   401E               SUBS     R0,R0,#+1
   \   000024F0   31D0               BEQ.N    ??KeyProcess_386
   \   000024F2   401E               SUBS     R0,R0,#+1
   \   000024F4   3BD0               BEQ.N    ??KeyProcess_387
   \   000024F6   401E               SUBS     R0,R0,#+1
   \   000024F8   45D0               BEQ.N    ??KeyProcess_388
   \   000024FA   401E               SUBS     R0,R0,#+1
   \   000024FC   4FD0               BEQ.N    ??KeyProcess_378
   \   000024FE   401E               SUBS     R0,R0,#+1
   \   00002500   58D0               BEQ.N    ??KeyProcess_389
   \   00002502   401E               SUBS     R0,R0,#+1
   \   00002504   65D0               BEQ.N    ??KeyProcess_390
   \   00002506   401E               SUBS     R0,R0,#+1
   \   00002508   68D0               BEQ.N    ??KeyProcess_391
   \   0000250A   401E               SUBS     R0,R0,#+1
   \   0000250C   6DD0               BEQ.N    ??KeyProcess_392
   \   0000250E   401E               SUBS     R0,R0,#+1
   \   00002510   1128               CMP      R0,#+17
   \   00002512   40F29080           BLS.W    ??KeyProcess_393
   \   00002516   E6E0               B.N      ??KeyProcess_372
   1869                              {
   1870                              case DISP_MENU_USECOM:
   1871                                   {
   1872                                        Delay(300);
   \                     ??KeyProcess_376:
   \   00002518   4FF49670           MOV      R0,#+300
   \   0000251C   ........           BL       Delay
   1873                                        NVIC_SystemReset();           // 시스템 재시작
   \   00002520   ........           BL       NVIC_SystemReset
   1874          //                              USB_MODE_SELECT(0);      // HOST
   1875                                        Input_Mode = 0;
   \   00002524   ....               LDR.N    R0,??DataTable26_1
   \   00002526   0021               MOVS     R1,#+0
   \   00002528   0170               STRB     R1,[R0, #+0]
   1876                                        SetCursor(0,0,0);
   \   0000252A   0022               MOVS     R2,#+0
   \   0000252C   0021               MOVS     R1,#+0
   \   0000252E   0020               MOVS     R0,#+0
   \   00002530   ........           BL       SetCursor
   1877                                        DisplayInfo.Now_View = DISP_IDLE;                              
   \   00002534   ....               LDR.N    R0,??DataTable26_5
   \   00002536   0321               MOVS     R1,#+3
   \   00002538   4171               STRB     R1,[R0, #+5]
   1878                                   }break;
   \   0000253A   D4E0               B.N      ??KeyProcess_372
   1879                              case DISP_MENU1:
   1880                                   {
   1881          //                              Driver_End();                              
   1882                                   }break;
   \                     ??KeyProcess_377:
   \   0000253C   D3E0               B.N      ??KeyProcess_372
   1883                              case DISP_MENU1_1:     // 지정기간 백업
   1884                                   {                         
   1885                                        DisplayInfo.Now_View = DISP_MENU1;
   \                     ??KeyProcess_385:
   \   0000253E   ....               LDR.N    R0,??DataTable26_5
   \   00002540   1121               MOVS     R1,#+17
   \   00002542   4171               STRB     R1,[R0, #+5]
   1886                                        Input_Mode = 0;
   \   00002544   ....               LDR.N    R0,??DataTable26_1
   \   00002546   0021               MOVS     R1,#+0
   \   00002548   0170               STRB     R1,[R0, #+0]
   1887                                        SetCursor(0,0,0);
   \   0000254A   0022               MOVS     R2,#+0
   \   0000254C   0021               MOVS     R1,#+0
   \   0000254E   0020               MOVS     R0,#+0
   \   00002550   ........           BL       SetCursor
   1888                                   }break;
   \   00002554   C7E0               B.N      ??KeyProcess_372
   1889                              case DISP_MENU1_2:     //  전체 백업
   1890                                   {                         
   1891                                        DisplayInfo.Now_View = DISP_MENU1;    
   \                     ??KeyProcess_386:
   \   00002556   ....               LDR.N    R0,??DataTable26_5
   \   00002558   1121               MOVS     R1,#+17
   \   0000255A   4171               STRB     R1,[R0, #+5]
   1892                                        Input_Mode = 0;
   \   0000255C   ....               LDR.N    R0,??DataTable26_1
   \   0000255E   0021               MOVS     R1,#+0
   \   00002560   0170               STRB     R1,[R0, #+0]
   1893                                        SetCursor(0,0,0);
   \   00002562   0022               MOVS     R2,#+0
   \   00002564   0021               MOVS     R1,#+0
   \   00002566   0020               MOVS     R0,#+0
   \   00002568   ........           BL       SetCursor
   1894                                   }break;
   \   0000256C   BBE0               B.N      ??KeyProcess_372
   1895                              case DISP_MENU1_3:     //  전체 백업
   1896                                   {                         
   1897                                        DisplayInfo.Now_View = DISP_MENU1;                                 
   \                     ??KeyProcess_387:
   \   0000256E   ....               LDR.N    R0,??DataTable26_5
   \   00002570   1121               MOVS     R1,#+17
   \   00002572   4171               STRB     R1,[R0, #+5]
   1898                                        Input_Mode = 0;         
   \   00002574   ....               LDR.N    R0,??DataTable26_1
   \   00002576   0021               MOVS     R1,#+0
   \   00002578   0170               STRB     R1,[R0, #+0]
   1899                                        SetCursor(0,0,0);
   \   0000257A   0022               MOVS     R2,#+0
   \   0000257C   0021               MOVS     R1,#+0
   \   0000257E   0020               MOVS     R0,#+0
   \   00002580   ........           BL       SetCursor
   1900                                   }break;             
   \   00002584   AFE0               B.N      ??KeyProcess_372
   1901                              case DISP_MENU1_4:     //  이벤트 백업
   1902                                   {                         
   1903                                        DisplayInfo.Now_View = DISP_MENU1;                                 
   \                     ??KeyProcess_388:
   \   00002586   ....               LDR.N    R0,??DataTable26_5
   \   00002588   1121               MOVS     R1,#+17
   \   0000258A   4171               STRB     R1,[R0, #+5]
   1904                                        Input_Mode = 0;     
   \   0000258C   ....               LDR.N    R0,??DataTable26_1
   \   0000258E   0021               MOVS     R1,#+0
   \   00002590   0170               STRB     R1,[R0, #+0]
   1905                                        SetCursor(0,0,0);
   \   00002592   0022               MOVS     R2,#+0
   \   00002594   0021               MOVS     R1,#+0
   \   00002596   0020               MOVS     R0,#+0
   \   00002598   ........           BL       SetCursor
   1906                                   }break;                             
   \   0000259C   A3E0               B.N      ??KeyProcess_372
   1907                              case DISP_MENU2:       // 운전자 변경
   1908                              case DISP_MENU2_1:     // 운전자 선택
   1909                                   {
   1910                                        GLcd_Clear(); 
   \                     ??KeyProcess_378:
   \   0000259E   ........           BL       GLcd_Clear
   1911                                        DisplayInfo.Now_View = DISP_MENU2; 
   \   000025A2   ....               LDR.N    R0,??DataTable26_5
   \   000025A4   1221               MOVS     R1,#+18
   \   000025A6   4171               STRB     R1,[R0, #+5]
   1912                                        SetCursor(0,0,0);
   \   000025A8   0022               MOVS     R2,#+0
   \   000025AA   0021               MOVS     R1,#+0
   \   000025AC   0020               MOVS     R0,#+0
   \   000025AE   ........           BL       SetCursor
   1913                                   }break;
   \   000025B2   98E0               B.N      ??KeyProcess_372
   1914                              case DISP_MENU2_1_1:     // 운전자 선택
   1915                                   {
   1916                                        GLcd_Clear(); 
   \                     ??KeyProcess_389:
   \   000025B4   ........           BL       GLcd_Clear
   1917                                        DisplayInfo.Now_View = DISP_IDLE;
   \   000025B8   ....               LDR.N    R0,??DataTable26_5
   \   000025BA   0321               MOVS     R1,#+3
   \   000025BC   4171               STRB     R1,[R0, #+5]
   1918                                        DisplayInfo.Mode = DISPMODE_VIEW;
   \   000025BE   ....               LDR.N    R0,??DataTable26_5
   \   000025C0   0121               MOVS     R1,#+1
   \   000025C2   8171               STRB     R1,[R0, #+6]
   1919                                        SetCursor(0,0,0);
   \   000025C4   0022               MOVS     R2,#+0
   \   000025C6   0021               MOVS     R1,#+0
   \   000025C8   0020               MOVS     R0,#+0
   \   000025CA   ........           BL       SetCursor
   1920                                   }break;                         
   \   000025CE   8AE0               B.N      ??KeyProcess_372
   1921                              case DISP_MENU3:     // 차량번호 확인
   1922                                   {
   1923                                        
   1924                                   }break;
   \                     ??KeyProcess_379:
   \   000025D0   89E0               B.N      ??KeyProcess_372
   1925                              case DISP_MENU3_1:     // 차량번호 확인
   1926                                   {
   1927                                        DisplayInfo.Now_View = DISP_MENU3;
   \                     ??KeyProcess_390:
   \   000025D2   ....               LDR.N    R0,??DataTable26_5
   \   000025D4   1321               MOVS     R1,#+19
   \   000025D6   4171               STRB     R1,[R0, #+5]
   1928                                   }break;                            
   \   000025D8   85E0               B.N      ??KeyProcess_372
   1929                              case DISP_MENU4:       // 환경설정
   1930                                   {
   1931                                        
   1932                                   }break;                            
   \                     ??KeyProcess_380:
   \   000025DA   84E0               B.N      ??KeyProcess_372
   1933                              case DISP_MENU4_0:     // 암호코드 입력
   1934                                   {
   1935                                        DisplayInfo.Now_View = DISP_MENU4;
   \                     ??KeyProcess_391:
   \   000025DC   ....               LDR.N    R0,??DataTable26_5
   \   000025DE   1421               MOVS     R1,#+20
   \   000025E0   4171               STRB     R1,[R0, #+5]
   1936                                        Input_Mode = 1;  
   \   000025E2   ....               LDR.N    R0,??DataTable26_1
   \   000025E4   0121               MOVS     R1,#+1
   \   000025E6   0170               STRB     R1,[R0, #+0]
   1937                                   }break;                            
   \   000025E8   7DE0               B.N      ??KeyProcess_372
   1938                              case DISP_MENU4_1:     // 암호코드 입력 
   1939                                   {
   1940                                        if(Input_Mode == 2)
   \                     ??KeyProcess_392:
   \   000025EA   ....               LDR.N    R0,??DataTable26_1
   \   000025EC   0078               LDRB     R0,[R0, #+0]
   \   000025EE   0228               CMP      R0,#+2
   \   000025F0   08D1               BNE.N    ??KeyProcess_394
   1941                                        {
   1942                                             Input_Mode = 1; 
   \   000025F2   ....               LDR.N    R0,??DataTable26_1
   \   000025F4   0121               MOVS     R1,#+1
   \   000025F6   0170               STRB     R1,[R0, #+0]
   1943                                             SetCursor(0,31,1);
   \   000025F8   0122               MOVS     R2,#+1
   \   000025FA   1F21               MOVS     R1,#+31
   \   000025FC   0020               MOVS     R0,#+0
   \   000025FE   ........           BL       SetCursor
   \   00002602   17E0               B.N      ??KeyProcess_395
   1944                                        }                         
   1945                                        else if(Input_Mode == 1)
   \                     ??KeyProcess_394:
   \   00002604   ....               LDR.N    R0,??DataTable26_1
   \   00002606   0078               LDRB     R0,[R0, #+0]
   \   00002608   0128               CMP      R0,#+1
   \   0000260A   08D1               BNE.N    ??KeyProcess_396
   1946                                        {
   1947                                             SetCursor(0,0,0);
   \   0000260C   0022               MOVS     R2,#+0
   \   0000260E   0021               MOVS     R1,#+0
   \   00002610   0020               MOVS     R0,#+0
   \   00002612   ........           BL       SetCursor
   1948                                             Input_Mode = 0;
   \   00002616   ....               LDR.N    R0,??DataTable26_1
   \   00002618   0021               MOVS     R1,#+0
   \   0000261A   0170               STRB     R1,[R0, #+0]
   \   0000261C   0AE0               B.N      ??KeyProcess_395
   1949                                        }
   1950                                        else
   1951                                        {		    
   1952                                             Input_Mode = 0;
   \                     ??KeyProcess_396:
   \   0000261E   ....               LDR.N    R0,??DataTable26_1
   \   00002620   0021               MOVS     R1,#+0
   \   00002622   0170               STRB     R1,[R0, #+0]
   1953                                             DisplayInfo.Now_View = DISP_MENU4;
   \   00002624   ....               LDR.N    R0,??DataTable26_5
   \   00002626   1421               MOVS     R1,#+20
   \   00002628   4171               STRB     R1,[R0, #+5]
   1954                                             SetCursor(0,0,0);
   \   0000262A   0022               MOVS     R2,#+0
   \   0000262C   0021               MOVS     R1,#+0
   \   0000262E   0020               MOVS     R0,#+0
   \   00002630   ........           BL       SetCursor
   1955                                        }                              
   1956                                        
   1957                                   }break;
   \                     ??KeyProcess_395:
   \   00002634   57E0               B.N      ??KeyProcess_372
   1958                              case DISP_MENU4_2:     // 운전자 코드
   1959                              case DISP_MENU4_3:     // 속도센서 상수
   1960                              case DISP_MENU4_4:     // RPM 센서 상수
   1961                              case DISP_MENU4_5:     // 속도 Reference
   1962                              case DISP_MENU4_6:     // RPM Reference
   1963                              case DISP_MENU4_7:     // 차량 정지시간
   1964                              case DISP_MENU4_8:     // 냉각수 온도
   1965                              case DISP_MENU4_9:      // 과속
   1966                              case DISP_MENU4_10:		// 급정지
   1967                              case DISP_MENU4_11:		// 급가속
   1968                              case DISP_MENU4_12:		// 과부하				     
   1969                              case DISP_MENU4_13:		// 기울기	
   1970                              case DISP_MENU4_14:		// 볼륨				 
   1971                              case DISP_MENU4_15:		// 볼륨			
   1972                              case DISP_MENU4_16:		// 볼륨			
   1973                              case DISP_MENU4_17:		// 볼륨	                         
   1974                              case DISP_MENU4_18:		// 스타트모터 설정
   1975                              case DISP_MENU4_19:		// 속도제한                          
   1976                                   {
   1977                                        if(Input_Mode == 2)
   \                     ??KeyProcess_393:
   \   00002636   ....               LDR.N    R0,??DataTable26_1
   \   00002638   0078               LDRB     R0,[R0, #+0]
   \   0000263A   0228               CMP      R0,#+2
   \   0000263C   08D1               BNE.N    ??KeyProcess_397
   1978                                        {
   1979                                             Input_Mode = 1; 
   \   0000263E   ....               LDR.N    R0,??DataTable26_1
   \   00002640   0121               MOVS     R1,#+1
   \   00002642   0170               STRB     R1,[R0, #+0]
   1980                                             SetCursor(2,2,1);
   \   00002644   0122               MOVS     R2,#+1
   \   00002646   0221               MOVS     R1,#+2
   \   00002648   0220               MOVS     R0,#+2
   \   0000264A   ........           BL       SetCursor
   \   0000264E   1AE0               B.N      ??KeyProcess_398
   1981                                        }
   1982                                        else if(Input_Mode == 1)
   \                     ??KeyProcess_397:
   \   00002650   ....               LDR.N    R0,??DataTable26_1
   \   00002652   0078               LDRB     R0,[R0, #+0]
   \   00002654   0128               CMP      R0,#+1
   \   00002656   0BD1               BNE.N    ??KeyProcess_399
   1983                                        {
   1984                                             SetCursor(0,0,0);
   \   00002658   0022               MOVS     R2,#+0
   \   0000265A   0021               MOVS     R1,#+0
   \   0000265C   0020               MOVS     R0,#+0
   \   0000265E   ........           BL       SetCursor
   1985                                             Input_Mode = 0;
   \   00002662   ....               LDR.N    R0,??DataTable26_1
   \   00002664   0021               MOVS     R1,#+0
   \   00002666   0170               STRB     R1,[R0, #+0]
   \   00002668   0DE0               B.N      ??KeyProcess_398
   \   0000266A   00BF               Nop      
   \                     ??KeyProcess_324:
   \   0000266C   ........           DC32     ??Password
   1986                                        }else
   1987                                        {		    
   1988                                             Input_Mode = 0;
   \                     ??KeyProcess_399:
   \   00002670   ....               LDR.N    R0,??DataTable26_1
   \   00002672   0021               MOVS     R1,#+0
   \   00002674   0170               STRB     R1,[R0, #+0]
   1989                                             DisplayInfo.Now_View = DISP_MENU4;
   \   00002676   ....               LDR.N    R0,??DataTable26_5
   \   00002678   1421               MOVS     R1,#+20
   \   0000267A   4171               STRB     R1,[R0, #+5]
   1990                                             SetCursor(0,0,0);
   \   0000267C   0022               MOVS     R2,#+0
   \   0000267E   0021               MOVS     R1,#+0
   \   00002680   0020               MOVS     R0,#+0
   \   00002682   ........           BL       SetCursor
   1991                                        }
   1992                                        
   1993                                   }break;
   \                     ??KeyProcess_398:
   \   00002686   2EE0               B.N      ??KeyProcess_372
   1994                                   
   1995                              case DISP_MENU5:
   1996                                   {
   1997                                        Input_Mode = 0;
   \                     ??KeyProcess_381:
   \   00002688   ....               LDR.N    R0,??DataTable26_1
   \   0000268A   0021               MOVS     R1,#+0
   \   0000268C   0170               STRB     R1,[R0, #+0]
   1998                                        DisplayInfo.Now_View = DISP_MENU5;     
   \   0000268E   ....               LDR.N    R0,??DataTable26_5
   \   00002690   1521               MOVS     R1,#+21
   \   00002692   4171               STRB     R1,[R0, #+5]
   1999                                        SetCursor(0,0,0);
   \   00002694   0022               MOVS     R2,#+0
   \   00002696   0021               MOVS     R1,#+0
   \   00002698   0020               MOVS     R0,#+0
   \   0000269A   ........           BL       SetCursor
   2000                                   }break;                         
   \   0000269E   22E0               B.N      ??KeyProcess_372
   2001                              case DISP_MENU6:
   2002                                   {
   2003                                        Input_Mode = 0;
   \                     ??KeyProcess_382:
   \   000026A0   ....               LDR.N    R0,??DataTable26_1
   \   000026A2   0021               MOVS     R1,#+0
   \   000026A4   0170               STRB     R1,[R0, #+0]
   2004                                        DisplayInfo.Now_View = DISP_MENU6;    
   \   000026A6   ....               LDR.N    R0,??DataTable26_5
   \   000026A8   1621               MOVS     R1,#+22
   \   000026AA   4171               STRB     R1,[R0, #+5]
   2005                                        SetCursor(0,0,0);
   \   000026AC   0022               MOVS     R2,#+0
   \   000026AE   0021               MOVS     R1,#+0
   \   000026B0   0020               MOVS     R0,#+0
   \   000026B2   ........           BL       SetCursor
   2006                                        
   2007                                   }break;         
   \   000026B6   16E0               B.N      ??KeyProcess_372
   2008                              case DISP_MENU7:
   2009                                   {
   2010                                        Input_Mode = 0;
   \                     ??KeyProcess_383:
   \   000026B8   ....               LDR.N    R0,??DataTable26_1
   \   000026BA   0021               MOVS     R1,#+0
   \   000026BC   0170               STRB     R1,[R0, #+0]
   2011                                        DisplayInfo.Now_View = DISP_MENU7;       
   \   000026BE   ....               LDR.N    R0,??DataTable26_5
   \   000026C0   1721               MOVS     R1,#+23
   \   000026C2   4171               STRB     R1,[R0, #+5]
   2012                                        SetCursor(0,0,0);
   \   000026C4   0022               MOVS     R2,#+0
   \   000026C6   0021               MOVS     R1,#+0
   \   000026C8   0020               MOVS     R0,#+0
   \   000026CA   ........           BL       SetCursor
   2013                                        
   2014                                   }break;         
   \   000026CE   0AE0               B.N      ??KeyProcess_372
   2015                              case DISP_MENU8:
   2016                                   {
   2017                                        Input_Mode = 0;
   \                     ??KeyProcess_384:
   \   000026D0   ....               LDR.N    R0,??DataTable26_1
   \   000026D2   0021               MOVS     R1,#+0
   \   000026D4   0170               STRB     R1,[R0, #+0]
   2018                                        DisplayInfo.Now_View = DISP_MENU8;          
   \   000026D6   ....               LDR.N    R0,??DataTable26_5
   \   000026D8   1821               MOVS     R1,#+24
   \   000026DA   4171               STRB     R1,[R0, #+5]
   2019                                        SetCursor(0,0,0);
   \   000026DC   0022               MOVS     R2,#+0
   \   000026DE   0021               MOVS     R1,#+0
   \   000026E0   0020               MOVS     R0,#+0
   \   000026E2   ........           BL       SetCursor
   2020                                        
   2021                                   }break;                                  
   2022                              } // end of Switch
   2023                         }  // end of If
   2024                         
   2025                    }  // end of Key_MODE
   2026                    break;             
   \                     ??KeyProcess_372:
   \   000026E6   0DE0               B.N      ??KeyProcess_13
   \                     ??KeyProcess_331:
   \   000026E8   ........           DC32     Input_Index_2
   2027               default:
   2028                    {
   2029                         if(LOGWRITE & LOG_KEY)
   \                     ??KeyProcess_11:
   \   000026EC   ....               LDR.N    R0,??DataTable26_20
   \   000026EE   0078               LDRB     R0,[R0, #+0]
   \   000026F0   0007               LSLS     R0,R0,#+28
   \   000026F2   07D5               BPL.N    ??KeyProcess_400
   2030                         {
   2031                              sprintf((char *)Buffer,"KEY-UNKWON IN\r\n");
   \   000026F4   ....               LDR.N    R1,??DataTable26_21
   \   000026F6   ....               LDR.N    R0,??DataTable26_22
   \   000026F8   ........           BL       sprintf
   2032                              Write_Log(Buffer, ERROR_LOG);
   \   000026FC   0421               MOVS     R1,#+4
   \   000026FE   ....               LDR.N    R0,??DataTable26_22
   \   00002700   ........           BL       Write_Log
   2033                         }     
   2034                         break;
   2035                    }
   2036          	}   // end of Switch
   2037          }
   \                     ??KeyProcess_400:
   \                     ??KeyProcess_13:
   \                     ??KeyProcess_1:
   \   00002704   06B0               ADD      SP,SP,#+24
   \   00002706   10BD               POP      {R4,PC}          ;; return
   \                     ??KeyProcess_332:
   \   00002708   ........           DC32     Input_Word

   \                                 In section .bss, align 2
   \                     ??KeyTime:
   \   00000000                      DS8 2

   \                                 In section .bss, align 4
   \                     ??Password:
   \   00000000                      DS8 4

   \                                 In section .text, align 4, keep-with-next
   \                     ??DataTable25:
   \   00000000   0CED00E0           DC32     0xe000ed0c

   \                                 In section .text, align 4, keep-with-next
   \                     ??DataTable25_1:
   \   00000000   0400FA05           DC32     0x5fa0004

   \                                 In section .text, align 4, keep-with-next
   \                     ??DataTable25_2:
   \   00000000   00100240           DC32     0x40021000

   \                                 In section .text, align 4, keep-with-next
   \                     ??DataTable25_3:
   \   00000000   00080240           DC32     0x40020800

   \                                 In section .text, align 4, keep-with-next
   \                     ??DataTable25_4:
   \   00000000   00180240           DC32     0x40021800

   \                                 In section .text, align 4, keep-with-next
   \                     ??DataTable25_5:
   \   00000000   ........           DC32     ??KeyPush_Flag

   \                                 In section .text, align 4, keep-with-next
   \                     ??DataTable25_6:
   \   00000000   000C0040           DC32     0x40000c00

   \                                 In section .text, align 4, keep-with-next
   \                     ??DataTable25_7:
   \   00000000   ........           DC32     ??KeyPush_Timer

   \                                 In section .text, align 4, keep-with-next
   \                     ??DataTable25_8:
   \   00000000   ........           DC32     ??KeyCount

   \                                 In section .text, align 4, keep-with-next
   \                     ??DataTable25_9:
   \   00000000   ........           DC32     ??isPush

   \                                 In section .text, align 4, keep-with-next
   \                     ??DataTable25_10:
   \   00000000   ........           DC32     Voice_Error_Out

   \                                 In section .text, align 4, keep-with-next
   \                     ??DataTable25_11:
   \   00000000   ........           DC32     DisplayInfo

   \                                 In section .text, align 4, keep-with-next
   \                     ??DataTable25_12:
   \   00000000   ........           DC32     ??OldKeyData

   \                                 In section .text, align 4, keep-with-next
   \                     `?<Constant {6, 6, 6, 6}>`:
   \   00000000                      ; Initializer data, 4 bytes
   \   00000000   06060606           DC8 6, 6, 6, 6

   \                                 In section .text, align 4, keep-with-next
   \                     `?<Constant "KEY-ECO Done\\r\\n">`:
   \   00000000                      ; Initializer data, 16 bytes
   \   00000000   4B45592D4543       DC8 75, 69, 89, 45, 69, 67, 79, 32, 68, 111
   \              4F20446F    
   \   0000000A   6E650D0A0000       DC8 110, 101, 13, 10, 0, 0

   \                                 In section .text, align 4, keep-with-next
   \                     `?<Constant "KEY-MODE Done\\r\\n">`:
   \   00000000                      ; Initializer data, 16 bytes
   \   00000000   4B45592D4D4F       DC8 75, 69, 89, 45, 77, 79, 68, 69, 32, 68
   \              44452044    
   \   0000000A   6F6E650D0A00       DC8 111, 110, 101, 13, 10, 0

   \                                 In section .text, align 4, keep-with-next
   \                     `?<Constant "KEY-UP Done\\r\\n">`:
   \   00000000                      ; Initializer data, 16 bytes
   \   00000000   4B45592D5550       DC8 75, 69, 89, 45, 85, 80, 32, 68, 111, 110
   \              20446F6E    
   \   0000000A   650D0A000000       DC8 101, 13, 10, 0, 0, 0

   \                                 In section .text, align 4, keep-with-next
   \                     ??DataTable26:
   \   00000000   ........           DC32     `?<Constant "  \\301\\244\\272\\270\\274\\366\\301\\244_1`

   \                                 In section .text, align 4, keep-with-next
   \                     ??DataTable26_1:
   \   00000000   ........           DC32     Input_Mode

   \                                 In section .text, align 4, keep-with-next
   \                     ??DataTable26_2:
   \   00000000   ........           DC32     SFLASH_Memory

   \                                 In section .text, align 4, keep-with-next
   \                     ??DataTable26_3:
   \   00000000   40420F00           DC32     0xf4240

   \                                 In section .text, align 4, keep-with-next
   \                     ??DataTable26_4:
   \   00000000   ........           DC32     `?<Constant "%06d">`

   \                                 In section .text, align 4, keep-with-next
   \                     ??DataTable26_5:
   \   00000000   ........           DC32     DisplayInfo

   \                                 In section .text, align 4, keep-with-next
   \                     ??DataTable26_6:
   \   00000000   ........           DC32     `?<Constant "    \\301\\244\\272\\270\\274\\366\\301\\2`

   \                                 In section .text, align 4, keep-with-next
   \                     ??DataTable26_7:
   \   00000000   ........           DC32     Reference_Channel1

   \                                 In section .text, align 4, keep-with-next
   \                     ??DataTable26_8:
   \   00000000   ........           DC32     `?<Constant "    \\301\\244\\272\\270\\274\\366\\301\\2_1`

   \                                 In section .text, align 4, keep-with-next
   \                     ??DataTable26_9:
   \   00000000   ........           DC32     Reference_Channel2

   \                                 In section .text, align 4, keep-with-next
   \                     ??DataTable26_10:
   \   00000000   ........           DC32     `?<Constant "    \\301\\244\\272\\270\\274\\366\\301\\2_2`

   \                                 In section .text, align 4, keep-with-next
   \                     ??DataTable26_11:
   \   00000000   000C0040           DC32     0x40000c00

   \                                 In section .text, align 4, keep-with-next
   \                     ??DataTable26_12:
   \   00000000   ........           DC32     `?<Constant "  \\301\\244\\272\\270\\274\\366\\301\\244`

   \                                 In section .text, align 4, keep-with-next
   \                     ??DataTable26_13:
   \   00000000   ........           DC32     `?<Constant "  \\301\\244\\272\\270\\274\\366\\301\\244_2`

   \                                 In section .text, align 4, keep-with-next
   \                     ??DataTable26_14:
   \   00000000   ........           DC32     INPUT_REVERSE_DATA

   \                                 In section .text, align 4, keep-with-next
   \                     ??DataTable26_15:
   \   00000000   ........           DC32     IOReverse_Count

   \                                 In section .text, align 4, keep-with-next
   \                     ??DataTable26_16:
   \   00000000   ........           DC32     `?<Constant "  < \\305\\260\\300\\324\\267\\302\\274\\3`

   \                                 In section .text, align 4, keep-with-next
   \                     ??DataTable26_17:
   \   00000000   ........           DC32     Set_Info

   \                                 In section .text, align 4, keep-with-next
   \                     ??DataTable26_18:
   \   00000000   ........           DC32     ACC_Drive_Value

   \                                 In section .text, align 4, keep-with-next
   \                     ??DataTable26_19:
   \   00000000   ........           DC32     GLCD_Refresh_Flag

   \                                 In section .text, align 4, keep-with-next
   \                     ??DataTable26_20:
   \   00000000   ........           DC32     LOGWRITE

   \                                 In section .text, align 4, keep-with-next
   \                     ??DataTable26_21:
   \   00000000   ........           DC32     `?<Constant "KEY-UNKWON IN\\r\\n">`

   \                                 In section .text, align 4, keep-with-next
   \                     ??DataTable26_22:
   \   00000000   ........           DC32     Buffer

   \                                 In section .text, align 4, keep-with-next
   \                     `?<Constant "  \\301\\244\\272\\270\\274\\366\\301\\244`:
   \   00000000                      ; Initializer data, 20 bytes
   \   00000000   2020C1A4BAB8       DC8 32, 32, 193, 164, 186, 184, 188, 246, 193, 164
   \              BCF6C1A4    
   \   0000000A   BFCFB7E12020       DC8 191, 207, 183, 225, 32, 32, 0, 0, 0, 0
   \              00000000    

   \                                 In section .text, align 4, keep-with-next
   \                     `?<Constant "\\277\\356\\300\\374\\300\\332\\301\\244\\2`:
   \   00000000                      ; Initializer data, 24 bytes
   \   00000000   BFEEC0FCC0DA       DC8 191, 238, 192, 252, 192, 218, 193, 164, 186, 184
   \              C1A4BAB8    
   \   0000000A   BCF6C1A4BFCF       DC8 188, 246, 193, 164, 191, 207, 183, 225, 32, 32
   \              B7E12020    
   \   00000014   00000000           DC8 0, 0, 0, 0

   \                                 In section .text, align 4, keep-with-next
   \                     `?<Constant "  \\301\\244\\272\\270\\274\\366\\301\\244_1`:
   \   00000000                      ; Initializer data, 24 bytes
   \   00000000   2020C1A4BAB8       DC8 32, 32, 193, 164, 186, 184, 188, 246, 193, 164
   \              BCF6C1A4    
   \   0000000A   BFCFB7E12020       DC8 191, 207, 183, 225, 32, 32, 32, 32, 32, 32
   \              20202020    
   \   00000014   00000000           DC8 0, 0, 0, 0

   \                                 In section .text, align 4, keep-with-next
   \                     `?<Constant "%06d">`:
   \   00000000                      ; Initializer data, 8 bytes
   \   00000000   253036640000       DC8 37, 48, 54, 100, 0, 0, 0, 0
   \              0000        

   \                                 In section .text, align 4, keep-with-next
   \                     `?<Constant "    \\301\\244\\272\\270\\274\\366\\301\\2`:
   \   00000000                      ; Initializer data, 20 bytes
   \   00000000   20202020C1A4       DC8 32, 32, 32, 32, 193, 164, 186, 184, 188, 246
   \              BAB8BCF6    
   \   0000000A   C1A4BFCFB7E1       DC8 193, 164, 191, 207, 183, 225, 32, 32, 0, 0
   \              20200000    

   \                                 In section .text, align 4, keep-with-next
   \                     `?<Constant "    \\301\\244\\272\\270\\274\\366\\301\\2_1`:
   \   00000000                      ; Initializer data, 20 bytes
   \   00000000   20202020C1A4       DC8 32, 32, 32, 32, 193, 164, 186, 184, 188, 246
   \              BAB8BCF6    
   \   0000000A   C1A4BFCFB7E1       DC8 193, 164, 191, 207, 183, 225, 32, 32, 32, 0
   \              20202000    

   \                                 In section .text, align 4, keep-with-next
   \                     `?<Constant "    \\301\\244\\272\\270\\274\\366\\301\\2_2`:
   \   00000000                      ; Initializer data, 24 bytes
   \   00000000   20202020C1A4       DC8 32, 32, 32, 32, 193, 164, 186, 184, 188, 246
   \              BAB8BCF6    
   \   0000000A   C1A4BFCFB7E1       DC8 193, 164, 191, 207, 183, 225, 32, 32, 32, 32
   \              20202020    
   \   00000014   20000000           DC8 32, 0, 0, 0

   \                                 In section .text, align 4, keep-with-next
   \                     `?<Constant "  \\301\\244\\272\\270\\274\\366\\301\\244_2`:
   \   00000000                      ; Initializer data, 20 bytes
   \   00000000   2020C1A4BAB8       DC8 32, 32, 193, 164, 186, 184, 188, 246, 193, 164
   \              BCF6C1A4    
   \   0000000A   BFCFB7E12020       DC8 191, 207, 183, 225, 32, 32, 32, 0, 0, 0
   \              20000000    

   \                                 In section .text, align 4, keep-with-next
   \                     `?<Constant "  < \\305\\260\\300\\324\\267\\302\\274\\3`:
   \   00000000                      ; Initializer data, 24 bytes
   \   00000000   20203C20C5B0       DC8 32, 32, 60, 32, 197, 176, 192, 212, 183, 194
   \              C0D4B7C2    
   \   0000000A   BCF6C1A4203E       DC8 188, 246, 193, 164, 32, 62, 32, 32, 32, 32
   \              20202020    
   \   00000014   20202000           DC8 32, 32, 32, 0

   \                                 In section .text, align 4, keep-with-next
   \                     `?<Constant "KEY-UNKWON IN\\r\\n">`:
   \   00000000                      ; Initializer data, 16 bytes
   \   00000000   4B45592D554E       DC8 75, 69, 89, 45, 85, 78, 75, 87, 79, 78
   \              4B574F4E    
   \   0000000A   20494E0D0A00       DC8 32, 73, 78, 13, 10, 0

   \                                 In section .text, align 4, keep-with-next
   \                     `?<Constant "KEY-DOWN Done\\r\\n">`:
   \   00000000                      ; Initializer data, 16 bytes
   \   00000000   4B45592D444F       DC8 75, 69, 89, 45, 68, 79, 87, 78, 32, 68
   \              574E2044    
   \   0000000A   6F6E650D0A00       DC8 111, 110, 101, 13, 10, 0

   Maximum stack usage in bytes:

     Function         .cstack
     --------         -------
     GetKey                8
     IsKey_DOWN            8
     IsKey_ECO             8
     IsKey_ESC             8
     IsKey_MODE            8
     IsKey_OK              8
     IsKey_UP              8
     KeyProcess           32
     Key_Config           16
     LED1_OFF              8
     LED1_RED              8
     NVIC_SystemReset      0
     memcpy                8
     memset                8


   Section sizes:

     Function/Label                                   Bytes
     --------------                                   -----
     NVIC_SystemReset                                   22
     IsKey_ECO                                          22
     IsKey_MODE                                         22
     IsKey_UP                                           22
     IsKey_DOWN                                         22
     IsKey_OK                                           22
     IsKey_ESC                                          24
     memcpy                                             14
     memset                                             20
     LED1_OFF                                           24
     LED1_RED                                           24
     Input_Mode                                          1
     Input_Word                                         20
     Input_Index_1                                       1
     Input_Index_2                                       1
     Pass_Index                                          1
     Key_Config                                         64
     GetKey                                            364
     KeyPush_Timer                                       2
     KeyPush_Flag                                        1
     KeyCount                                            2
     OldKeyData                                          1
     isPush                                              1
     KeyProcess                                       9996
     KeyTime                                             2
     Password                                            4
     ??DataTable25                                       4
     ??DataTable25_1                                     4
     ??DataTable25_2                                     4
     ??DataTable25_3                                     4
     ??DataTable25_4                                     4
     ??DataTable25_5                                     4
     ??DataTable25_6                                     4
     ??DataTable25_7                                     4
     ??DataTable25_8                                     4
     ??DataTable25_9                                     4
     ??DataTable25_10                                    4
     ??DataTable25_11                                    4
     ??DataTable25_12                                    4
     ?<Constant {6, 6, 6, 6}>                            4
     ?<Constant "KEY-ECO Done\r\n">                     16
     ?<Constant "KEY-MODE Done\r\n">                    16
     ?<Constant "KEY-UP Done\r\n">                      16
     ??DataTable26                                       4
     ??DataTable26_1                                     4
     ??DataTable26_2                                     4
     ??DataTable26_3                                     4
     ??DataTable26_4                                     4
     ??DataTable26_5                                     4
     ??DataTable26_6                                     4
     ??DataTable26_7                                     4
     ??DataTable26_8                                     4
     ??DataTable26_9                                     4
     ??DataTable26_10                                    4
     ??DataTable26_11                                    4
     ??DataTable26_12                                    4
     ??DataTable26_13                                    4
     ??DataTable26_14                                    4
     ??DataTable26_15                                    4
     ??DataTable26_16                                    4
     ??DataTable26_17                                    4
     ??DataTable26_18                                    4
     ??DataTable26_19                                    4
     ??DataTable26_20                                    4
     ??DataTable26_21                                    4
     ??DataTable26_22                                    4
     ?<Constant "  \301\244\272\270\274\366\301\244     20
     ?<Constant "\277\356\300\374\300\332\301\244\2     24
     ?<Constant "  \301\244\272\270\274\366\301\244_1   24
     ?<Constant "%06d">                                  8
     ?<Constant "    \301\244\272\270\274\366\301\2     20
     ?<Constant "    \301\244\272\270\274\366\301\2_1   20
     ?<Constant "    \301\244\272\270\274\366\301\2_2   24
     ?<Constant "  \301\244\272\270\274\366\301\244_2   20
     ?<Constant "  < \305\260\300\324\267\302\274\3     24
     ?<Constant "KEY-UNKWON IN\r\n">                    16
     ?<Constant "KEY-DOWN Done\r\n">                    16

 
     37 bytes in section .bss
 11 074 bytes in section .text
 
 11 040 bytes of CODE memory (+ 34 bytes shared)
     37 bytes of DATA memory

Errors: none
Warnings: none
