###############################################################################
#                                                                             #
# IAR ANSI C/C++ Compiler V6.10.1.52143/W32 for ARM     19/Jan/2012  11:08:50 #
# Copyright 1999-2010 IAR Systems AB.                                         #
#                                                                             #
#    Cpu mode     =  thumb                                                    #
#    Endian       =  little                                                   #
#    Source file  =  F:\Work\S&G2000\Firmware\DTG_EMS_SYSTEM\Project\main.c   #
#    Command line =  F:\Work\S&G2000\Firmware\DTG_EMS_SYSTEM\Project\main.c   #
#                    -D USE_STDPERIPH_DRIVER -D STM32F2XX -D                  #
#                    USE_STM3220F_EVAL -D USE_USB_OTG_FS -D                   #
#                    RTC_CLOCK_SOURCE_LSE -lC F:\Work\S&G2000\Firmware\DTG_EM #
#                    S_SYSTEM\Project\EWARM\STM3220F_EVAL\List\ -lA           #
#                    F:\Work\S&G2000\Firmware\DTG_EMS_SYSTEM\Project\EWARM\ST #
#                    M3220F_EVAL\List\ -o F:\Work\S&G2000\Firmware\DTG_EMS_SY #
#                    STEM\Project\EWARM\STM3220F_EVAL\Obj\ --no_cse           #
#                    --no_unroll --no_inline --no_code_motion --no_tbaa       #
#                    --no_clustering --no_scheduling --debug --endian=little  #
#                    --cpu=Cortex-M3 -e --fpu=None --dlib_config "C:\Program  #
#                    Files\IAR Systems\Embedded Workbench                     #
#                    6.0\arm\INC\c\DLib_Config_Full.h" -I                     #
#                    F:\Work\S&G2000\Firmware\DTG_EMS_SYSTEM\Project\EWARM\.. #
#                    \ -I F:\Work\S&G2000\Firmware\DTG_EMS_SYSTEM\Project\EWA #
#                    RM\..\..\Libraries\CMSIS\CM3\CoreSupport\ -I             #
#                    F:\Work\S&G2000\Firmware\DTG_EMS_SYSTEM\Project\EWARM\.. #
#                    \..\Libraries\CMSIS\CM3\DeviceSupport\ST\STM32F2xx\ -I   #
#                    F:\Work\S&G2000\Firmware\DTG_EMS_SYSTEM\Project\EWARM\.. #
#                    \..\Libraries\STM32F2xx_StdPeriph_Driver\inc\ -I         #
#                    F:\Work\S&G2000\Firmware\DTG_EMS_SYSTEM\Project\EWARM\.. #
#                    \..\Utilities\STM32_EVAL\ -I                             #
#                    F:\Work\S&G2000\Firmware\DTG_EMS_SYSTEM\Project\EWARM\.. #
#                    \..\Utilities\STM32_EVAL\Common\ -I                      #
#                    F:\Work\S&G2000\Firmware\DTG_EMS_SYSTEM\Project\EWARM\.. #
#                    \..\Utilities\STM32_EVAL\STM3220F_EVAL\ -I               #
#                    F:\Work\S&G2000\Firmware\DTG_EMS_SYSTEM\Project\EWARM\.. #
#                    \..\Libraries\STM32_USB_OTG_Driver\inc\ -I               #
#                    F:\Work\S&G2000\Firmware\DTG_EMS_SYSTEM\Project\EWARM\.. #
#                    \..\Libraries\STM32_USB_Device_Library\Core\inc\ -I      #
#                    F:\Work\S&G2000\Firmware\DTG_EMS_SYSTEM\Project\EWARM\.. #
#                    \..\Libraries\STM32_USB_Device_Library\Class\msc\inc\    #
#                    -I F:\Work\S&G2000\Firmware\DTG_EMS_SYSTEM\Project\EWARM #
#                    \..\Usb\ -I F:\Work\S&G2000\Firmware\DTG_EMS_SYSTEM\Proj #
#                    ect\EWARM\..\Usb\Inc\ -I F:\Work\S&G2000\Firmware\DTG_EM #
#                    S_SYSTEM\Project\EWARM\..\Usb\src\ -I                    #
#                    F:\Work\S&G2000\Firmware\DTG_EMS_SYSTEM\Project\EWARM\.. #
#                    \..\Libraries\STM32_USB_HOST_Library\Core\inc\ -I        #
#                    F:\Work\S&G2000\Firmware\DTG_EMS_SYSTEM\Project\EWARM\.. #
#                    \..\Libraries\STM32_USB_HOST_Library\Class\MSC\inc\ -I   #
#                    F:\Work\S&G2000\Firmware\DTG_EMS_SYSTEM\Project\EWARM\.. #
#                    \..\Libraries\STM32_USB_Device_Library\Class\cdc\inc\    #
#                    -Ol --use_c++_inline                                     #
#    List file    =  F:\Work\S&G2000\Firmware\DTG_EMS_SYSTEM\Project\EWARM\ST #
#                    M3220F_EVAL\List\main.lst                                #
#    Object file  =  F:\Work\S&G2000\Firmware\DTG_EMS_SYSTEM\Project\EWARM\ST #
#                    M3220F_EVAL\Obj\main.o                                   #
#                                                                             #
#                                                                             #
###############################################################################

F:\Work\S&G2000\Firmware\DTG_EMS_SYSTEM\Project\main.c
      1          /**
      2          ******************************************************************************
      3          * @file    Project/STM32F2xx_StdPeriph_Template/main.c 
      4          * @author  MCD Application Team
      5          * @version V0.0.4
      6          * @date    13-January-2011
      7          * @brief   Main program body
      8          ******************************************************************************
      9          * @attention
     10          *
     11          * THE PRESENT FIRMWARE WHICH IS FOR GUIDANCE ONLY AIMS AT PROVIDING CUSTOMERS
     12          * WITH CODING INFORMATION REGARDING THEIR PRODUCTS IN ORDER FOR THEM TO SAVE
     13          * TIME. AS A RESULT, STMICROELECTRONICS SHALL NOT BE HELD LIABLE FOR ANY
     14          * DIRECT, INDIRECT OR CONSEQUENTIAL DAMAGES WITH RESPECT TO ANY CLAIMS ARISING
     15          * FROM THE CONTENT OF SUCH FIRMWARE AND/OR THE USE MADE BY CUSTOMERS OF THE
     16          * CODING INFORMATION CONTAINED HEREIN IN CONNECTION WITH THEIR PRODUCTS.
     17          *
     18          * <h2><center>&copy; COPYRIGHT 2011 STMicroelectronics</center></h2>
     19          ******************************************************************************
     20          */ 
     21          
     22          /* Includes ------------------------------------------------------------------*/
     23          #include "main.h"

   \                                 In section .text, align 2, keep-with-next
   \   static __interwork __softfp void NVIC_SetPriority(IRQn_Type, uint32_t)
   \                     NVIC_SetPriority:
   \   00000000   40B2               SXTB     R0,R0            ;; SignExt  R0,R0,#+24,#+24
   \   00000002   0028               CMP      R0,#+0
   \   00000004   09D5               BPL.N    ??NVIC_SetPriority_0
   \   00000006   40B2               SXTB     R0,R0            ;; SignExt  R0,R0,#+24,#+24
   \   00000008   10F00F00           ANDS     R0,R0,#0xF
   \   0000000C   ........           LDR.W    R2,??DataTable31  ;; 0xe000ed18
   \   00000010   8018               ADDS     R0,R0,R2
   \   00000012   0901               LSLS     R1,R1,#+4
   \   00000014   00F8041C           STRB     R1,[R0, #-4]
   \   00000018   04E0               B.N      ??NVIC_SetPriority_1
   \                     ??NVIC_SetPriority_0:
   \   0000001A   40B2               SXTB     R0,R0            ;; SignExt  R0,R0,#+24,#+24
   \   0000001C   ........           LDR.W    R2,??DataTable31_1  ;; 0xe000e400
   \   00000020   0901               LSLS     R1,R1,#+4
   \   00000022   8154               STRB     R1,[R0, R2]
   \                     ??NVIC_SetPriority_1:
   \   00000024   7047               BX       LR               ;; return

   \                                 In section .text, align 2, keep-with-next
   \   static __interwork __softfp uint32_t SysTick_Config(uint32_t)
   \                     SysTick_Config:
   \   00000000   80B5               PUSH     {R7,LR}
   \   00000002   B0F1807F           CMP      R0,#+16777216
   \   00000006   01D3               BCC.N    ??SysTick_Config_0
   \   00000008   0120               MOVS     R0,#+1
   \   0000000A   13E0               B.N      ??SysTick_Config_1
   \                     ??SysTick_Config_0:
   \   0000000C   0002               LSLS     R0,R0,#+8
   \   0000000E   000A               LSRS     R0,R0,#+8
   \   00000010   401E               SUBS     R0,R0,#+1
   \   00000012   ........           LDR.W    R1,??DataTable31_2  ;; 0xe000e014
   \   00000016   0860               STR      R0,[R1, #+0]
   \   00000018   0F21               MOVS     R1,#+15
   \   0000001A   5FF0FF30           MOVS     R0,#-1
   \   0000001E   ........           BL       NVIC_SetPriority
   \   00000022   ........           LDR.W    R0,??DataTable31_3  ;; 0xe000e018
   \   00000026   0021               MOVS     R1,#+0
   \   00000028   0160               STR      R1,[R0, #+0]
   \   0000002A   ........           LDR.W    R0,??DataTable31_4  ;; 0xe000e010
   \   0000002E   0721               MOVS     R1,#+7
   \   00000030   0160               STR      R1,[R0, #+0]
   \   00000032   0020               MOVS     R0,#+0
   \                     ??SysTick_Config_1:
   \   00000034   02BD               POP      {R1,PC}          ;; return

   \                                 In section .text, align 2
   \   __intrinsic __interwork __softfp void *memcpy(void *, void const *, size_t)
   \                     memcpy:
   \   00000000   10B5               PUSH     {R4,LR}
   \   00000002   0400               MOVS     R4,R0
   \   00000004   2000               MOVS     R0,R4
   \   00000006   ........           BL       __aeabi_memcpy
   \   0000000A   2000               MOVS     R0,R4
   \   0000000C   10BD               POP      {R4,PC}          ;; return

   \                                 In section .text, align 2
   \   __intrinsic __interwork __softfp void *memset(void *, int, size_t)
   \                     memset:
   \   00000000   10B5               PUSH     {R4,LR}
   \   00000002   0400               MOVS     R4,R0
   \   00000004   1000               MOVS     R0,R2
   \   00000006   0A00               MOVS     R2,R1
   \   00000008   0100               MOVS     R1,R0
   \   0000000A   2000               MOVS     R0,R4
   \   0000000C   ........           BL       __aeabi_memset
   \   00000010   2000               MOVS     R0,R4
   \   00000012   10BD               POP      {R4,PC}          ;; return

   \                                 In section .text, align 2, keep-with-next
   \   static __interwork __softfp void LED1_OFF(void)
   \                     LED1_OFF:
   \   00000000   80B5               PUSH     {R7,LR}
   \   00000002   4FF40051           MOV      R1,#+8192
   \   00000006   ........           LDR.W    R0,??DataTable31_5  ;; 0x40021800
   \   0000000A   ........           BL       GPIO_SetBits
   \   0000000E   4FF48041           MOV      R1,#+16384
   \   00000012   ........           LDR.W    R0,??DataTable31_5  ;; 0x40021800
   \   00000016   ........           BL       GPIO_SetBits
   \   0000001A   01BD               POP      {R0,PC}          ;; return

   \                                 In section .text, align 2, keep-with-next
   \   static __interwork __softfp void LED2_OFF(void)
   \                     LED2_OFF:
   \   00000000   80B5               PUSH     {R7,LR}
   \   00000002   4FF40061           MOV      R1,#+2048
   \   00000006   ........           LDR.W    R0,??DataTable31_5  ;; 0x40021800
   \   0000000A   ........           BL       GPIO_SetBits
   \   0000000E   4FF48051           MOV      R1,#+4096
   \   00000012   ........           LDR.W    R0,??DataTable31_5  ;; 0x40021800
   \   00000016   ........           BL       GPIO_SetBits
   \   0000001A   01BD               POP      {R0,PC}          ;; return
     24          #include "stm32f2xx_gpio.h"
     25          
     26          #include "spi_flash.h"
     27          #include "fsmc_nand.h"
     28          #include "Tilt.h"
     29          #include "Key_Switch.h"
     30          #include "RTC.h"
     31          #include "GraphicLcd.h"
     32          #include "Voice.h"
     33          #include "Key_Process.h"
     34          #include "DAC_Control.h"
     35          
     36          #include "Memory.h"
     37          #include "Display.h"
     38          
     39          #include "Serial.h"
     40          
     41          #include "Log.h"
     42          #include "Ems_System.h"
     43          #include "GPSLIB.h"
     44          
     45          #include "Adc_Process.h"
     46          
     47          #include "usbh_core.h"
     48          #include "usbh_usr.h"
     49          #include "usbh_msc_core.h"
     50          
     51          #include "Wifi.h"
     52          #include "PC_COM.h"
     53          
     54          #include "i2c_ee.h"
     55          
     56          #include "nand_if.h"
     57          
     58          #include "Drive_Process.h"
     59          #include "Eeprom.h"
     60          
     61          #include "TestMode.h"
     62          #include  "usbd_cdc_core.h"
     63          #include  "usbd_usr.h"
     64          
     65          #include "stm322xg_eval_i2c_ee.h"
     66          /** @addtogroup Template_Project
     67          * @{
     68          */
     69          
     70          /* Private typedef -----------------------------------------------------------*/
     71          /* Private define ------------------------------------------------------------*/
     72          
     73          
     74          /* Private macro -------------------------------------------------------------*/
     75          /* Private variables ---------------------------------------------------------*/
     76          

   \                                 In section .bss, align 4
     77          EMS_DRIVE_VALUE EMS_Drive_Value;
   \                     EMS_Drive_Value:
   \   00000000                      DS8 40
     78          

   \                                 In section .bss, align 4
     79          ACC_DRIVE_VALUE ACC_Drive_Value;
   \                     ACC_Drive_Value:
   \   00000000                      DS8 12
     80          
     81          //typedef enum {FAILED = 0, PASSED = !FAILED} TestStatus;
     82          

   \                                 In section .bss, align 4
     83          static __IO uint32_t TimingDelay;
   \                     TimingDelay:
   \   00000000                      DS8 4

   \                                 In section .bss, align 4
     84          RCC_ClocksTypeDef RCC_Clocks;
   \                     RCC_Clocks:
   \   00000000                      DS8 16
     85          
     86          /* Private macro -------------------------------------------------------------*/
     87          
     88          
     89          //volatile TestStatus TransferStatus1 = FAILED, TransferStatus2 = FAILED;

   \                                 In section .bss, align 1
     90          ErrorStatus HSEStartUpStatus;
   \                     HSEStartUpStatus:
   \   00000000                      DS8 1
     91          
     92          /* Private function prototypes -----------------------------------------------*/
     93          #ifdef __GNUC__
     94          /* With GCC/RAISONANCE, small printf (option LD Linker->Libraries->Small printf
     95          set to 'Yes') calls __io_putchar() */
     96          #define PUTCHAR_PROTOTYPE int __io_putchar(int ch)
     97          #else
     98          #define PUTCHAR_PROTOTYPE int fputc(int ch, FILE *f)
     99          #endif /* __GNUC__ */
    100          
    101          /* Private functions ---------------------------------------------------------*/
    102          /**
    103          * @brief  Main program.
    104          * @param  None
    105          * @retval None
    106          */
    107          
    108          //__IO uint32_t FLASH_ID = 0;

   \                                 In section .bss, align 2
    109          u16 Timer_1Sec;			// 1초 타이머 만들기
   \                     Timer_1Sec:
   \   00000000                      DS8 2
    110          

   \                                 In section .bss, align 4
    111          struct __flag Flag;
   \                     Flag:
   \   00000000                      DS8 24
    112          

   \                                 In section .bss, align 1
    113          u8 ERROR_Status;			// 에러 상태를 보여준다.
   \                     ERROR_Status:
   \   00000000                      DS8 1
    114          

   \                                 In section .bss, align 4
    115          u8 Buffer [512];
   \                     Buffer:
   \   00000000                      DS8 512
    116          

   \                                 In section .bss, align 2
    117          u16 BuffCnt = 0 ;
   \                     BuffCnt:
   \   00000000                      DS8 2
    118          

   \                                 In section .bss, align 2
    119          u16 SYSTEM_STEP;
   \                     SYSTEM_STEP:
   \   00000000                      DS8 2

   \                                 In section .bss, align 4
    120          u32 SPEED_PULS_Count;				// 스피드에 들어오는 펄스 카운트 수 - 거리 개산용으로 사용
   \                     SPEED_PULS_Count:
   \   00000000                      DS8 4
    121          

   \                                 In section .bss, align 2
    122          u16 m_sec;
   \                     m_sec:
   \   00000000                      DS8 2
    123          

   \                                 In section .bss, align 4
    124          struct _SERIALFLASH_CarInfo SFLASH_CarInfo;
   \                     SFLASH_CarInfo:
   \   00000000                      DS8 96
    125          

   \                                 In section .bss, align 4
    126          struct _SERIALFLASH_Data SFLASH_Memory;      //  SFLASH에 저장되고 불러올 데이터
   \                     SFLASH_Memory:
   \   00000000                      DS8 180
    127          

   \                                 In section .bss, align 4
    128          struct _GPS_Check GPS_RouteCheck; 
   \                     GPS_RouteCheck:
   \   00000000                      DS8 68
    129          

   \                                 In section .bss, align 4
    130          struct _SERIALFLASH_Wifi SFLASH_Wifi; 
   \                     SFLASH_Wifi:
   \   00000000                      DS8 76
    131          

   \                                 In section .bss, align 4
    132          struct _Setting_Information Set_Info;	// 기본적으로 세팅되어져있는 값
   \                     Set_Info:
   \   00000000                      DS8 16
    133          

   \                                 In section .bss, align 4
    134          struct _Info Info;                      // 현재 메모리에 가지고 있는 총체적인 데이터
   \                     Info:
   \   00000000                      DS8 96
    135          

   \                                 In section .bss, align 4
    136          struct _ACCIDENT Accident_Buffer[1000];
   \                     Accident_Buffer:
   \   00000000                      DS8 8000

   \                                 In section .bss, align 4
    137          struct _ACCIDENT2 Accident2_Buffer[10]; 
   \                     Accident2_Buffer:
   \   00000000                      DS8 172
    138          

   \                                 In section .bss, align 4
    139          struct _ACCIDENT Accident_SaveBuffer[1000];
   \                     Accident_SaveBuffer:
   \   00000000                      DS8 8000

   \                                 In section .bss, align 4
    140          struct _ACCIDENT2 Accident2_SaveBuffer[10]; 
   \                     Accident2_SaveBuffer:
   \   00000000                      DS8 172
    141          

   \                                 In section .bss, align 4
    142          u8 Accident_Time[13];
   \                     Accident_Time:
   \   00000000                      DS8 16
    143          

   \                                 In section .bss, align 2
    144          u16 AccidentPoint;
   \                     AccidentPoint:
   \   00000000                      DS8 2

   \                                 In section .bss, align 2
    145          u16 AccidentPoint2;
   \                     AccidentPoint2:
   \   00000000                      DS8 2

   \                                 In section .bss, align 4
    146          struct _ECO_Driving ECO_Driving;
   \                     ECO_Driving:
   \   00000000                      DS8 12
    147          
    148          /* Private function prototypes -----------------------------------------------*/
    149          void TIM6_Config(void);    // 타이머 => DAC 에 클럭 공급한다.
    150          
    151          #ifdef USB_OTG_HS_INTERNAL_DMA_ENABLEDFlash_size
    152          #pragma data_alignment = 4 
    153          #endif

   \                                 In section .bss, align 4
    154          USB_OTG_CORE_HANDLE           USB_OTG_Core;
   \                     USB_OTG_Core:
   \   00000000                      DS8 2444

   \                                 In section .bss, align 4
    155          USBH_HOST                     USB_Host;
   \                     USB_Host:
   \   00000000                      DS8 132

   \                                 In section .bss, align 4
    156          USB_OTG_CORE_HANDLE           USB_OTG_dev;
   \                     USB_OTG_dev:
   \   00000000                      DS8 2444

   \                                 In section .bss, align 1
    157          u8 USB_Device;
   \                     USB_Device:
   \   00000000                      DS8 1
    158          
    159          
    160          /*************************************************************************************
    161          와치독을 초기화한다.
    162          *************************************************************************************/

   \                                 In section .text, align 2, keep-with-next
    163          void InitIWDG(void)
    164          {
   \                     InitIWDG:
   \   00000000   80B5               PUSH     {R7,LR}
    165          /* IWDG timeout equal to 280 ms (the timeout may varies due to LSI frequency
    166                dispersion) -------------------------------------------------------------*/
    167          	/* Enable write access to IWDG_PR and IWDG_RLR registers */
    168               
    169              if (RCC_GetFlagStatus(RCC_FLAG_IWDGRST) != RESET)
   \   00000002   7D20               MOVS     R0,#+125
   \   00000004   ........           BL       RCC_GetFlagStatus
   \   00000008   0028               CMP      R0,#+0
   \   0000000A   0AD0               BEQ.N    ??InitIWDG_0
    170              {
    171                   printf("IWDGRST flag set ...\n");
   \   0000000C   ........           LDR.W    R0,??DataTable31_6
   \   00000010   ........           BL       printf
    172                  /* IWDGRST flag set */
    173                  /* Clear reset flags */
    174                  Flag.WatchDog = 1;
   \   00000014   ........           LDR.W    R0,??DataTable31_7
   \   00000018   0121               MOVS     R1,#+1
   \   0000001A   0172               STRB     R1,[R0, #+8]
    175          
    176                  RCC_ClearFlag();
   \   0000001C   ........           BL       RCC_ClearFlag
   \   00000020   07E0               B.N      ??InitIWDG_1
    177              }
    178              else
    179              {
    180                  printf("IWDGRST flag is not set ...\n");
   \                     ??InitIWDG_0:
   \   00000022   ........           LDR.W    R0,??DataTable31_8
   \   00000026   ........           BL       printf
    181                  Flag.WatchDog = 0;
   \   0000002A   ........           LDR.W    R0,??DataTable31_7
   \   0000002E   0021               MOVS     R1,#+0
   \   00000030   0172               STRB     R1,[R0, #+8]
    182              }
    183          	IWDG_WriteAccessCmd(IWDG_WriteAccess_Enable);
   \                     ??InitIWDG_1:
   \   00000032   45F25550           MOVW     R0,#+21845
   \   00000036   ........           BL       IWDG_WriteAccessCmd
    184          	
    185          	/* IWDG counter clock: 40KHz(LSI) / 32 = 1.25 KHz */
    186          	IWDG_SetPrescaler(IWDG_Prescaler_256);
   \   0000003A   0620               MOVS     R0,#+6
   \   0000003C   ........           BL       IWDG_SetPrescaler
    187          
    188          	/* Set counter reload value to 349 */
    189          	IWDG_SetReload(349);
   \   00000040   40F25D10           MOVW     R0,#+349
   \   00000044   ........           BL       IWDG_SetReload
    190          	
    191          	/* Reload IWDG counter */
    192          	IWDG_ReloadCounter();
   \   00000048   ........           BL       IWDG_ReloadCounter
    193          	
    194          	/* Enable IWDG (the LSI oscillator will be enabled by hardware) */
    195          	IWDG_Enable();
   \   0000004C   ........           BL       IWDG_Enable
    196          }
   \   00000050   01BD               POP      {R0,PC}          ;; return
    197          

   \                                 In section .text, align 2, keep-with-next
    198          void InitWWDG(void)
    199          {
   \                     InitWWDG:
   \   00000000   80B5               PUSH     {R7,LR}
    200               NVIC_InitTypeDef NVIC_InitStructure;
    201               if (RCC_GetFlagStatus(RCC_FLAG_WWDGRST) != RESET)
   \   00000002   7E20               MOVS     R0,#+126
   \   00000004   ........           BL       RCC_GetFlagStatus
   \   00000008   0028               CMP      R0,#+0
   \   0000000A   06D0               BEQ.N    ??InitWWDG_0
    202               {
    203                    printf(" WatchDog Reset !!!!!!!!!!!!!!!!! \r\n");
   \   0000000C   ........           LDR.W    R0,??DataTable31_9
   \   00000010   ........           BL       printf
    204                    RCC_ClearFlag();
   \   00000014   ........           BL       RCC_ClearFlag
   \   00000018   03E0               B.N      ??InitWWDG_1
    205               }else
    206               {
    207                    printf(" Normal BootOn WatchDog Start \r\n");
   \                     ??InitWWDG_0:
   \   0000001A   ........           LDR.W    R0,??DataTable32
   \   0000001E   ........           BL       printf
    208               }
    209              /* Enable the WWDG Interrupt */
    210               NVIC_InitStructure.NVIC_IRQChannel = WWDG_IRQn;
   \                     ??InitWWDG_1:
   \   00000022   0020               MOVS     R0,#+0
   \   00000024   8DF80000           STRB     R0,[SP, #+0]
    211               NVIC_InitStructure.NVIC_IRQChannelPreemptionPriority = 1;
   \   00000028   0120               MOVS     R0,#+1
   \   0000002A   8DF80100           STRB     R0,[SP, #+1]
    212               NVIC_InitStructure.NVIC_IRQChannelSubPriority = 1;
   \   0000002E   0120               MOVS     R0,#+1
   \   00000030   8DF80200           STRB     R0,[SP, #+2]
    213               NVIC_InitStructure.NVIC_IRQChannelCmd = ENABLE;
   \   00000034   0120               MOVS     R0,#+1
   \   00000036   8DF80300           STRB     R0,[SP, #+3]
    214               NVIC_Init(&NVIC_InitStructure);
   \   0000003A   00A8               ADD      R0,SP,#+0
   \   0000003C   ........           BL       NVIC_Init
    215               
    216               RCC_APB1PeriphClockCmd(RCC_APB1Periph_WWDG, ENABLE); 
   \   00000040   0121               MOVS     R1,#+1
   \   00000042   4FF40060           MOV      R0,#+2048
   \   00000046   ........           BL       RCC_APB1PeriphClockCmd
    217               
    218               WWDG_SetPrescaler(WWDG_Prescaler_8);     
   \   0000004A   4FF4C070           MOV      R0,#+384
   \   0000004E   ........           BL       WWDG_SetPrescaler
    219               WWDG_SetWindowValue(65);
   \   00000052   4120               MOVS     R0,#+65
   \   00000054   ........           BL       WWDG_SetWindowValue
    220               
    221               WWDG_Enable(127);
   \   00000058   7F20               MOVS     R0,#+127
   \   0000005A   ........           BL       WWDG_Enable
    222              /* Clear EWI flag */
    223               WWDG_ClearFlag();     
   \   0000005E   ........           BL       WWDG_ClearFlag
    224               WWDG_EnableIT();     
   \   00000062   ........           BL       WWDG_EnableIT
    225              // while(1);
    226               
    227          }
   \   00000066   01BD               POP      {R0,PC}          ;; return
    228          
    229          /**********************************************************************/
    230          

   \                                 In section .text, align 2, keep-with-next
    231          void GPIO_Configuration()
    232          {    
   \                     GPIO_Configuration:
   \   00000000   00B5               PUSH     {LR}
   \   00000002   83B0               SUB      SP,SP,#+12
    233          	RCC_AHB1PeriphClockCmd( RCC_AHB1Periph_GPIOG , ENABLE);
   \   00000004   0121               MOVS     R1,#+1
   \   00000006   4020               MOVS     R0,#+64
   \   00000008   ........           BL       RCC_AHB1PeriphClockCmd
    234          	GPIO_InitTypeDef GPIO_InitStructure;
    235          	// LED 초기화 3색 
    236          	GPIO_InitStructure.GPIO_Pin = GPIO_Pin_11 | GPIO_Pin_12 | GPIO_Pin_13 | GPIO_Pin_14 ;
   \   0000000C   4FF4F040           MOV      R0,#+30720
   \   00000010   0090               STR      R0,[SP, #+0]
    237          	GPIO_InitStructure.GPIO_Mode = GPIO_Mode_OUT;
   \   00000012   0120               MOVS     R0,#+1
   \   00000014   8DF80400           STRB     R0,[SP, #+4]
    238          	GPIO_InitStructure.GPIO_OType = GPIO_OType_PP;
   \   00000018   0020               MOVS     R0,#+0
   \   0000001A   8DF80600           STRB     R0,[SP, #+6]
    239          	GPIO_InitStructure.GPIO_PuPd = GPIO_PuPd_NOPULL;     
   \   0000001E   0020               MOVS     R0,#+0
   \   00000020   8DF80700           STRB     R0,[SP, #+7]
    240          	GPIO_InitStructure.GPIO_Speed = GPIO_Speed_50MHz;
   \   00000024   0220               MOVS     R0,#+2
   \   00000026   8DF80500           STRB     R0,[SP, #+5]
    241          	GPIO_Init(GPIOG, &GPIO_InitStructure);
   \   0000002A   00A9               ADD      R1,SP,#+0
   \   0000002C   ........           LDR.W    R0,??DataTable31_5  ;; 0x40021800
   \   00000030   ........           BL       GPIO_Init
    242          }
   \   00000034   07BD               POP      {R0-R2,PC}       ;; return
    243          /**********************************************************************/
    244          

   \                                 In section .text, align 2, keep-with-next
    245          void GPIO_Configuration2()
    246          {
   \                     GPIO_Configuration2:
   \   00000000   00B5               PUSH     {LR}
   \   00000002   83B0               SUB      SP,SP,#+12
    247          	RCC_AHB1PeriphClockCmd(RCC_AHB1Periph_GPIOB, ENABLE);     
   \   00000004   0121               MOVS     R1,#+1
   \   00000006   0220               MOVS     R0,#+2
   \   00000008   ........           BL       RCC_AHB1PeriphClockCmd
    248          	RCC_AHB1PeriphClockCmd(RCC_AHB1Periph_GPIOC, ENABLE);
   \   0000000C   0121               MOVS     R1,#+1
   \   0000000E   0420               MOVS     R0,#+4
   \   00000010   ........           BL       RCC_AHB1PeriphClockCmd
    249          	RCC_AHB1PeriphClockCmd(RCC_AHB1Periph_GPIOD, ENABLE);  
   \   00000014   0121               MOVS     R1,#+1
   \   00000016   0820               MOVS     R0,#+8
   \   00000018   ........           BL       RCC_AHB1PeriphClockCmd
    250          	RCC_AHB1PeriphClockCmd(RCC_AHB1Periph_GPIOE, ENABLE);
   \   0000001C   0121               MOVS     R1,#+1
   \   0000001E   1020               MOVS     R0,#+16
   \   00000020   ........           BL       RCC_AHB1PeriphClockCmd
    251          	RCC_AHB1PeriphClockCmd(RCC_AHB1Periph_GPIOG, ENABLE);  
   \   00000024   0121               MOVS     R1,#+1
   \   00000026   4020               MOVS     R0,#+64
   \   00000028   ........           BL       RCC_AHB1PeriphClockCmd
    252          	GPIO_InitTypeDef GPIO_InitStructure;
    253          	
    254          	/* Configure the GPIO_LED pin */
    255          	GPIO_InitStructure.GPIO_Pin = IN_CPU_GEAR_STATUS_FLAG|IN_CPU_BREAK_LAMP_STATUS_FLAG|IN_CPU_PARKING_BREAK_STATUS_FLAG;
   \   0000002C   4FF46070           MOV      R0,#+896
   \   00000030   0090               STR      R0,[SP, #+0]
    256          	GPIO_InitStructure.GPIO_Mode = GPIO_Mode_IN;
   \   00000032   0020               MOVS     R0,#+0
   \   00000034   8DF80400           STRB     R0,[SP, #+4]
    257          	GPIO_InitStructure.GPIO_OType = GPIO_OType_PP;
   \   00000038   0020               MOVS     R0,#+0
   \   0000003A   8DF80600           STRB     R0,[SP, #+6]
    258          	GPIO_InitStructure.GPIO_PuPd = GPIO_PuPd_UP;
   \   0000003E   0120               MOVS     R0,#+1
   \   00000040   8DF80700           STRB     R0,[SP, #+7]
    259          	GPIO_InitStructure.GPIO_Speed = GPIO_Speed_100MHz;
   \   00000044   0320               MOVS     R0,#+3
   \   00000046   8DF80500           STRB     R0,[SP, #+5]
    260          	GPIO_Init(IN_CPU_EMS_PORT, &GPIO_InitStructure);        // 기어 상태 초기화
   \   0000004A   00A9               ADD      R1,SP,#+0
   \   0000004C   ........           LDR.W    R0,??DataTable31_10  ;; 0x40020800
   \   00000050   ........           BL       GPIO_Init
    261          	
    262          	
    263          	GPIO_InitStructure.GPIO_Pin = IN_CPU_F_DOOR_STATUS_FLAG;
   \   00000054   4FF40070           MOV      R0,#+512
   \   00000058   0090               STR      R0,[SP, #+0]
    264          	GPIO_Init(IN_CPU_F_DOOR_PORT, &GPIO_InitStructure);        // 도어 프론트
   \   0000005A   00A9               ADD      R1,SP,#+0
   \   0000005C   ........           LDR.W    R0,??DataTable31_5  ;; 0x40021800
   \   00000060   ........           BL       GPIO_Init
    265          	
    266          	GPIO_InitStructure.GPIO_Pin = IN_CPU_R_DOOR_STATUS_FLAG;
   \   00000064   4FF48070           MOV      R0,#+256
   \   00000068   0090               STR      R0,[SP, #+0]
    267          	GPIO_Init(IN_CPU_R_DOOR_PORT, &GPIO_InitStructure);        // 도어 옆문
   \   0000006A   00A9               ADD      R1,SP,#+0
   \   0000006C   ........           LDR.W    R0,??DataTable31_5  ;; 0x40021800
   \   00000070   ........           BL       GPIO_Init
    268          	
    269          	
    270          	GPIO_InitStructure.GPIO_Pin = IN_CPU_KEY_STATUS_FLAG | IN_CPU_R_DISTANCE_STATUS_FLAG;
   \   00000074   4FF44070           MOV      R0,#+768
   \   00000078   0090               STR      R0,[SP, #+0]
    271          	GPIO_Init(IN_CPU_DISTANCE_PORT, &GPIO_InitStructure);       
   \   0000007A   00A9               ADD      R1,SP,#+0
   \   0000007C   ........           LDR.W    R0,??DataTable31_11  ;; 0x40020c00
   \   00000080   ........           BL       GPIO_Init
    272          	
    273          	
    274          	GPIO_InitStructure.GPIO_Pin = IN_CPU_R_LIGHT_STATUS_FLAG;			// 깜박이 R신호
   \   00000084   4FF48050           MOV      R0,#+4096
   \   00000088   0090               STR      R0,[SP, #+0]
    275          	GPIO_Init(IN_CPU_RLIGHT_PORT, &GPIO_InitStructure);        
   \   0000008A   00A9               ADD      R1,SP,#+0
   \   0000008C   ........           LDR.W    R0,??DataTable31_10  ;; 0x40020800
   \   00000090   ........           BL       GPIO_Init
    276               
    277          	GPIO_InitStructure.GPIO_Pin = IN_CPU_L_LIGHT_STATUS_FLAG ;			// 깜박이 L 신호
   \   00000094   4FF48070           MOV      R0,#+256
   \   00000098   0090               STR      R0,[SP, #+0]
    278          	GPIO_Init(IN_CPU_LLIGHT_PORT, &GPIO_InitStructure);      	
   \   0000009A   00A9               ADD      R1,SP,#+0
   \   0000009C   ........           LDR.W    R0,??DataTable31_12  ;; 0x40020000
   \   000000A0   ........           BL       GPIO_Init
    279          	
    280          	
    281          	
    282          	GPIO_InitStructure.GPIO_Pin = OUT_CPU_ENGINE_ON |OUT_CPU_ENGINE_OFF;
   \   000000A4   4FF4C050           MOV      R0,#+6144
   \   000000A8   0090               STR      R0,[SP, #+0]
    283          	GPIO_InitStructure.GPIO_Mode = GPIO_Mode_OUT;
   \   000000AA   0120               MOVS     R0,#+1
   \   000000AC   8DF80400           STRB     R0,[SP, #+4]
    284          	GPIO_InitStructure.GPIO_OType = GPIO_OType_PP;
   \   000000B0   0020               MOVS     R0,#+0
   \   000000B2   8DF80600           STRB     R0,[SP, #+6]
    285          	GPIO_InitStructure.GPIO_PuPd = GPIO_PuPd_UP;
   \   000000B6   0120               MOVS     R0,#+1
   \   000000B8   8DF80700           STRB     R0,[SP, #+7]
    286          	GPIO_InitStructure.GPIO_Speed = GPIO_Speed_50MHz;
   \   000000BC   0220               MOVS     R0,#+2
   \   000000BE   8DF80500           STRB     R0,[SP, #+5]
    287          	GPIO_Init(OUT_CPU_ENGINE_PORT, &GPIO_InitStructure);  
   \   000000C2   00A9               ADD      R1,SP,#+0
   \   000000C4   ........           LDR.W    R0,??DataTable31_13  ;; 0x40021000
   \   000000C8   ........           BL       GPIO_Init
    288          	
    289          	GPIO_InitStructure.GPIO_Pin = OUT_CPU_LIGHT_ON;
   \   000000CC   4FF40050           MOV      R0,#+8192
   \   000000D0   0090               STR      R0,[SP, #+0]
    290          	GPIO_Init(OUT_CPU_LIGHT_PORT, &GPIO_InitStructure);        // 전조등 세팅
   \   000000D2   00A9               ADD      R1,SP,#+0
   \   000000D4   ........           LDR.W    R0,??DataTable31_13  ;; 0x40021000
   \   000000D8   ........           BL       GPIO_Init
    291          	
    292          	GPIO_InitStructure.GPIO_Pin = OUT_CPU_AIRCON_ON;
   \   000000DC   2020               MOVS     R0,#+32
   \   000000DE   0090               STR      R0,[SP, #+0]
    293          	GPIO_Init(OUT_CPU_AIRCON_PORT, &GPIO_InitStructure);        // 도어 옆문
   \   000000E0   00A9               ADD      R1,SP,#+0
   \   000000E2   ........           LDR.W    R0,??DataTable31_5  ;; 0x40021800
   \   000000E6   ........           BL       GPIO_Init
    294          	
    295          	GPIO_InitStructure.GPIO_Pin = OUT_CPU_L_TURN_POWER | OUT_CPU_R_TURN_POWER;
   \   000000EA   1820               MOVS     R0,#+24
   \   000000EC   0090               STR      R0,[SP, #+0]
    296          	GPIO_Init(OUT_CPU_TURNPOWER_PORT, &GPIO_InitStructure);        // 도어 옆문
   \   000000EE   00A9               ADD      R1,SP,#+0
   \   000000F0   ........           LDR.W    R0,??DataTable31_5  ;; 0x40021800
   \   000000F4   ........           BL       GPIO_Init
    297          	
    298          	
    299          	GPIO_InitStructure.GPIO_Pin = OUT_CPU_HITER;
   \   000000F8   0420               MOVS     R0,#+4
   \   000000FA   0090               STR      R0,[SP, #+0]
    300          	GPIO_Init(OUT_CPU_HITER_PORT, &GPIO_InitStructure);        // 도어 옆문
   \   000000FC   00A9               ADD      R1,SP,#+0
   \   000000FE   ........           LDR.W    R0,??DataTable31_5  ;; 0x40021800
   \   00000102   ........           BL       GPIO_Init
    301          	
    302          	GPIO_InitStructure.GPIO_Pin = OUT_CPU_RESERVE2;
   \   00000106   4FF40050           MOV      R0,#+8192
   \   0000010A   0090               STR      R0,[SP, #+0]
    303          	GPIO_Init(OUT_CPU_RESERVE2_PORT, &GPIO_InitStructure);        // 도어 옆문  
   \   0000010C   00A9               ADD      R1,SP,#+0
   \   0000010E   ........           LDR.W    R0,??DataTable31_11  ;; 0x40020c00
   \   00000112   ........           BL       GPIO_Init
    304          }
   \   00000116   07BD               POP      {R0-R2,PC}       ;; return
    305          /**********************************************************************/
    306          
    307          
    308          /**
    309          * @brief  DAC  Channel2 SineWave Configuration
    310          * @param  None
    311          * @retval None
    312          */
    313          

   \                                 In section .text, align 2, keep-with-next
    314          void EXTILine1_Config(void)
    315          {
   \                     EXTILine1_Config:
   \   00000000   00B5               PUSH     {LR}
   \   00000002   85B0               SUB      SP,SP,#+20
    316          	EXTI_InitTypeDef   EXTI_InitStructure;
    317          	GPIO_InitTypeDef   GPIO_InitStructure;
    318          	NVIC_InitTypeDef   NVIC_InitStructure;
    319          	
    320          	/* Enable GPIOA clock */
    321          	RCC_AHB1PeriphClockCmd(RCC_AHB1Periph_GPIOD, ENABLE);
   \   00000004   0121               MOVS     R1,#+1
   \   00000006   0820               MOVS     R0,#+8
   \   00000008   ........           BL       RCC_AHB1PeriphClockCmd
    322          	RCC_AHB1PeriphClockCmd(RCC_AHB1Periph_GPIOB, ENABLE);  
   \   0000000C   0121               MOVS     R1,#+1
   \   0000000E   0220               MOVS     R0,#+2
   \   00000010   ........           BL       RCC_AHB1PeriphClockCmd
    323          	RCC_AHB1PeriphClockCmd(RCC_AHB1Periph_GPIOG, ENABLE);    
   \   00000014   0121               MOVS     R1,#+1
   \   00000016   4020               MOVS     R0,#+64
   \   00000018   ........           BL       RCC_AHB1PeriphClockCmd
    324          	/* Enable SYSCFG clock */
    325          	RCC_APB2PeriphClockCmd(RCC_APB2Periph_SYSCFG, ENABLE);
   \   0000001C   0121               MOVS     R1,#+1
   \   0000001E   4FF48040           MOV      R0,#+16384
   \   00000022   ........           BL       RCC_APB2PeriphClockCmd
    326          	
    327          	/* Configure PA0 pin as input floating */
    328          	GPIO_InitStructure.GPIO_Speed = GPIO_Speed_100MHz;
   \   00000026   0320               MOVS     R0,#+3
   \   00000028   8DF81100           STRB     R0,[SP, #+17]
    329          	GPIO_InitStructure.GPIO_Mode = GPIO_Mode_IN;
   \   0000002C   0020               MOVS     R0,#+0
   \   0000002E   8DF81000           STRB     R0,[SP, #+16]
    330          	GPIO_InitStructure.GPIO_OType = GPIO_OType_PP;     
   \   00000032   0020               MOVS     R0,#+0
   \   00000034   8DF81200           STRB     R0,[SP, #+18]
    331          	GPIO_InitStructure.GPIO_PuPd = GPIO_PuPd_NOPULL;
   \   00000038   0020               MOVS     R0,#+0
   \   0000003A   8DF81300           STRB     R0,[SP, #+19]
    332          	GPIO_InitStructure.GPIO_Pin = GPIO_Pin_10;
   \   0000003E   4FF48060           MOV      R0,#+1024
   \   00000042   0390               STR      R0,[SP, #+12]
    333          	GPIO_Init(GPIOD, &GPIO_InitStructure);
   \   00000044   03A9               ADD      R1,SP,#+12
   \   00000046   ........           LDR.W    R0,??DataTable31_11  ;; 0x40020c00
   \   0000004A   ........           BL       GPIO_Init
    334          	
    335          	GPIO_InitStructure.GPIO_Pin = GPIO_Pin_6;
   \   0000004E   4020               MOVS     R0,#+64
   \   00000050   0390               STR      R0,[SP, #+12]
    336          	GPIO_Init(GPIOB, &GPIO_InitStructure);
   \   00000052   03A9               ADD      R1,SP,#+12
   \   00000054   ........           LDR.W    R0,??DataTable32_1  ;; 0x40020400
   \   00000058   ........           BL       GPIO_Init
    337          	
    338          	GPIO_InitStructure.GPIO_Pin = GPIO_Pin_15;
   \   0000005C   4FF40040           MOV      R0,#+32768
   \   00000060   0390               STR      R0,[SP, #+12]
    339          	GPIO_Init(GPIOG, &GPIO_InitStructure);
   \   00000062   03A9               ADD      R1,SP,#+12
   \   00000064   ........           LDR.W    R0,??DataTable31_5  ;; 0x40021800
   \   00000068   ........           BL       GPIO_Init
    340          	/* Connect EXTI Line0 to PA0 pin */
    341          	
    342          	SYSCFG_EXTILineConfig(EXTI_PortSourceGPIOD, EXTI_PinSource10);     // LPG PWM 	
   \   0000006C   0A21               MOVS     R1,#+10
   \   0000006E   0320               MOVS     R0,#+3
   \   00000070   ........           BL       SYSCFG_EXTILineConfig
    343          	SYSCFG_EXTILineConfig(EXTI_PortSourceGPIOB, EXTI_PinSource6);     // SPEED PIN
   \   00000074   0621               MOVS     R1,#+6
   \   00000076   0120               MOVS     R0,#+1
   \   00000078   ........           BL       SYSCFG_EXTILineConfig
    344          	SYSCFG_EXTILineConfig(EXTI_PortSourceGPIOG, EXTI_PinSource15);    // RPM PIN
   \   0000007C   0F21               MOVS     R1,#+15
   \   0000007E   0620               MOVS     R0,#+6
   \   00000080   ........           BL       SYSCFG_EXTILineConfig
    345          	
    346          	// Configure EXTI Line0 
    347          	EXTI_InitStructure.EXTI_Line = EXTI_Line10;
   \   00000084   4FF48060           MOV      R0,#+1024
   \   00000088   0190               STR      R0,[SP, #+4]
    348          	EXTI_InitStructure.EXTI_Mode = EXTI_Mode_Interrupt;
   \   0000008A   0020               MOVS     R0,#+0
   \   0000008C   8DF80800           STRB     R0,[SP, #+8]
    349          	EXTI_InitStructure.EXTI_Trigger = EXTI_Trigger_Rising_Falling;   // PWM 측정을 위해 라이징 폴링 엣지
   \   00000090   1020               MOVS     R0,#+16
   \   00000092   8DF80900           STRB     R0,[SP, #+9]
    350          	EXTI_InitStructure.EXTI_LineCmd = ENABLE;
   \   00000096   0120               MOVS     R0,#+1
   \   00000098   8DF80A00           STRB     R0,[SP, #+10]
    351          	EXTI_Init(&EXTI_InitStructure);
   \   0000009C   01A8               ADD      R0,SP,#+4
   \   0000009E   ........           BL       EXTI_Init
    352          	
    353          	// Configure EXTI Line6 
    354          	// 외부 스피드 입력 설정
    355          	EXTI_InitStructure.EXTI_Line = EXTI_Line6;                  //  Speed 입력핀
   \   000000A2   4020               MOVS     R0,#+64
   \   000000A4   0190               STR      R0,[SP, #+4]
    356          	EXTI_InitStructure.EXTI_Mode = EXTI_Mode_Interrupt;         // 외부 인터럽트
   \   000000A6   0020               MOVS     R0,#+0
   \   000000A8   8DF80800           STRB     R0,[SP, #+8]
    357          	EXTI_InitStructure.EXTI_Trigger = EXTI_Trigger_Rising;  // 
   \   000000AC   0820               MOVS     R0,#+8
   \   000000AE   8DF80900           STRB     R0,[SP, #+9]
    358          	EXTI_InitStructure.EXTI_LineCmd = ENABLE;
   \   000000B2   0120               MOVS     R0,#+1
   \   000000B4   8DF80A00           STRB     R0,[SP, #+10]
    359          	EXTI_Init(&EXTI_InitStructure);
   \   000000B8   01A8               ADD      R0,SP,#+4
   \   000000BA   ........           BL       EXTI_Init
    360          	
    361          	// Configure EXTI Line6 
    362          	// 외부 RPM 입력 설정
    363          	EXTI_InitStructure.EXTI_Line = EXTI_Line15;                 //  RPM 입력핀  /
   \   000000BE   4FF40040           MOV      R0,#+32768
   \   000000C2   0190               STR      R0,[SP, #+4]
    364          	EXTI_InitStructure.EXTI_Mode = EXTI_Mode_Interrupt;         // 외부 인터럽트
   \   000000C4   0020               MOVS     R0,#+0
   \   000000C6   8DF80800           STRB     R0,[SP, #+8]
    365          	EXTI_InitStructure.EXTI_Trigger = EXTI_Trigger_Rising;  // 
   \   000000CA   0820               MOVS     R0,#+8
   \   000000CC   8DF80900           STRB     R0,[SP, #+9]
    366          	EXTI_InitStructure.EXTI_LineCmd = ENABLE;
   \   000000D0   0120               MOVS     R0,#+1
   \   000000D2   8DF80A00           STRB     R0,[SP, #+10]
    367          	EXTI_Init(&EXTI_InitStructure);
   \   000000D6   01A8               ADD      R0,SP,#+4
   \   000000D8   ........           BL       EXTI_Init
    368          	
    369          
    370          	NVIC_InitStructure.NVIC_IRQChannel = EXTI9_5_IRQn;
   \   000000DC   1720               MOVS     R0,#+23
   \   000000DE   8DF80000           STRB     R0,[SP, #+0]
    371          	NVIC_InitStructure.NVIC_IRQChannelPreemptionPriority = 0x0F;
   \   000000E2   0F20               MOVS     R0,#+15
   \   000000E4   8DF80100           STRB     R0,[SP, #+1]
    372          	NVIC_InitStructure.NVIC_IRQChannelSubPriority = 0x0F;
   \   000000E8   0F20               MOVS     R0,#+15
   \   000000EA   8DF80200           STRB     R0,[SP, #+2]
    373          	NVIC_InitStructure.NVIC_IRQChannelCmd = ENABLE;
   \   000000EE   0120               MOVS     R0,#+1
   \   000000F0   8DF80300           STRB     R0,[SP, #+3]
    374          	NVIC_Init(&NVIC_InitStructure);
   \   000000F4   00A8               ADD      R0,SP,#+0
   \   000000F6   ........           BL       NVIC_Init
    375          	
    376          	NVIC_InitStructure.NVIC_IRQChannel = EXTI15_10_IRQn;
   \   000000FA   2820               MOVS     R0,#+40
   \   000000FC   8DF80000           STRB     R0,[SP, #+0]
    377          	NVIC_InitStructure.NVIC_IRQChannelPreemptionPriority = 0x01;
   \   00000100   0120               MOVS     R0,#+1
   \   00000102   8DF80100           STRB     R0,[SP, #+1]
    378          	NVIC_InitStructure.NVIC_IRQChannelSubPriority = 0x0F;
   \   00000106   0F20               MOVS     R0,#+15
   \   00000108   8DF80200           STRB     R0,[SP, #+2]
    379          	NVIC_InitStructure.NVIC_IRQChannelCmd = ENABLE;
   \   0000010C   0120               MOVS     R0,#+1
   \   0000010E   8DF80300           STRB     R0,[SP, #+3]
    380          	NVIC_Init(&NVIC_InitStructure);  
   \   00000112   00A8               ADD      R0,SP,#+0
   \   00000114   ........           BL       NVIC_Init
    381          	
    382          	EXTI_GenerateSWInterrupt(EXTI_Line10);       // LPG_PWM
   \   00000118   4FF48060           MOV      R0,#+1024
   \   0000011C   ........           BL       EXTI_GenerateSWInterrupt
    383          	EXTI_GenerateSWInterrupt(EXTI_Line6);    
   \   00000120   4020               MOVS     R0,#+64
   \   00000122   ........           BL       EXTI_GenerateSWInterrupt
    384          	EXTI_GenerateSWInterrupt(EXTI_Line15);          
   \   00000126   4FF40040           MOV      R0,#+32768
   \   0000012A   ........           BL       EXTI_GenerateSWInterrupt
    385          }
   \   0000012E   05B0               ADD      SP,SP,#+20
   \   00000130   00BD               POP      {PC}             ;; return
    386          
    387          

   \                                 In section .text, align 2, keep-with-next
    388          void TIM3_Config(void)
    389          {
   \                     TIM3_Config:
   \   00000000   E0B5               PUSH     {R5-R7,LR}
    390               TIM_TimeBaseInitTypeDef  TIM_TimeBaseStructure;
    391               RCC_APB1PeriphClockCmd(RCC_APB1Periph_TIM3, ENABLE);
   \   00000002   0121               MOVS     R1,#+1
   \   00000004   0220               MOVS     R0,#+2
   \   00000006   ........           BL       RCC_APB1PeriphClockCmd
    392               
    393               // 72Mhz use scale : 72Mhz / 7200 = 10Khz > 100us 
    394               // scale      
    395               
    396               TIM_TimeBaseStructure.TIM_Period = 0xffff ; // 오버플로워 한계값 1000;    // 1000us 1ms
   \   0000000A   4FF6FF70           MOVW     R0,#+65535
   \   0000000E   0190               STR      R0,[SP, #+4]
    397               // Prescaler 의 변수크기가 16 Bit 이므로 72000은 값이 들어가지 안음
    398               // 프로그램 오차로 인해 90은 99.5khz 고 89는 100.0 khz이므로 측정시 89로 세팅해야
    399               // 10us가 나옴
    400               // 450 = 25us / 900 = 50us / 1800 = 100us
    401               // 
    402               
    403               TIM_TimeBaseStructure.TIM_Prescaler = 1800 - 1;   // 72hz / 7200 / 1000 
   \   00000010   40F20770           MOVW     R0,#+1799
   \   00000014   ADF80000           STRH     R0,[SP, #+0]
    404               TIM_TimeBaseStructure.TIM_ClockDivision = TIM_CKD_DIV1;
   \   00000018   0020               MOVS     R0,#+0
   \   0000001A   ADF80800           STRH     R0,[SP, #+8]
    405               TIM_TimeBaseStructure.TIM_CounterMode = TIM_CounterMode_Up;
   \   0000001E   0020               MOVS     R0,#+0
   \   00000020   ADF80200           STRH     R0,[SP, #+2]
    406               //  TIM_PrescalerConfig(TIM3, 4, TIM_PSCReloadMode_Update);
    407               TIM_TimeBaseInit(TIM3, &TIM_TimeBaseStructure);
   \   00000024   00A9               ADD      R1,SP,#+0
   \   00000026   ........           LDR.W    R0,??DataTable35  ;; 0x40000400
   \   0000002A   ........           BL       TIM_TimeBaseInit
    408               TIM_ITConfig(TIM3, TIM_IT_Update, ENABLE);  
   \   0000002E   0122               MOVS     R2,#+1
   \   00000030   0121               MOVS     R1,#+1
   \   00000032   ........           LDR.W    R0,??DataTable35  ;; 0x40000400
   \   00000036   ........           BL       TIM_ITConfig
    409               TIM_ClearFlag(TIM3,TIM_FLAG_Update);
   \   0000003A   0121               MOVS     R1,#+1
   \   0000003C   ........           LDR.W    R0,??DataTable35  ;; 0x40000400
   \   00000040   ........           BL       TIM_ClearFlag
    410               TIM_Cmd(TIM3, ENABLE);
   \   00000044   0121               MOVS     R1,#+1
   \   00000046   ........           LDR.W    R0,??DataTable35  ;; 0x40000400
   \   0000004A   ........           BL       TIM_Cmd
    411               
    412               /*
    413               NVIC_InitStructure.NVIC_IRQChannel = TIM3_IRQn;
    414               NVIC_InitStructure.NVIC_IRQChannelPreemptionPriority = 0;
    415               NVIC_InitStructure.NVIC_IRQChannelSubPriority = 1;
    416               NVIC_InitStructure.NVIC_IRQChannelCmd = ENABLE;
    417               NVIC_Init(&NVIC_InitStructure);
    418               */
    419          }
   \   0000004E   07BD               POP      {R0-R2,PC}       ;; return
    420          
    421          

   \                                 In section .text, align 2, keep-with-next
    422          void TIM4_Config(void)			// 대우 구형 타이머 // 사용하지 않음
    423          {
    424          	/*NVIC_InitTypeDef   NVIC_InitStructure;
    425               TIM_TimeBaseInitTypeDef  TIM_TimeBaseStructure;
    426               RCC_APB1PeriphClockCmd(RCC_APB1Periph_TIM4, ENABLE);
    427               
    428               TIM_TimeBaseStructure.TIM_Period = 9 ; // 오버플로워 한계값 1000;    // 1000us 1ms
    429               TIM_TimeBaseStructure.TIM_Prescaler = 36000-1;   // 72hz / 72000 / 1000 
    430               TIM_TimeBaseStructure.TIM_ClockDivision = TIM_CKD_DIV2;
    431               TIM_TimeBaseStructure.TIM_CounterMode = TIM_CounterMode_Up;
    432               //  TIM_PrescalerConfig(TIM3, 4, TIM_PSCReloadMode_Update);
    433               TIM_TimeBaseInit(TIM4, &TIM_TimeBaseStructure);
    434               TIM_ITConfig(TIM4, TIM_IT_Update, ENABLE);  
    435               TIM_ClearFlag(TIM4,TIM_FLAG_Update);  
    436               TIM_Cmd(TIM4, ENABLE);    
    437               NVIC_InitStructure.NVIC_IRQChannel = TIM4_IRQn;
    438               NVIC_InitStructure.NVIC_IRQChannelPreemptionPriority = 0;
    439               NVIC_InitStructure.NVIC_IRQChannelSubPriority = 1;
    440               NVIC_InitStructure.NVIC_IRQChannelCmd = ENABLE;
    441               NVIC_Init(&NVIC_InitStructure);*/
    442          
    443          }
   \                     TIM4_Config:
   \   00000000   7047               BX       LR               ;; return
    444          
    445          

   \                                 In section .text, align 2, keep-with-next
    446          void TIM5_Config(void)
    447          {     
   \                     TIM5_Config:
   \   00000000   E0B5               PUSH     {R5-R7,LR}
    448               TIM_TimeBaseInitTypeDef  TIM_TimeBaseStructure;
    449               RCC_APB1PeriphClockCmd(RCC_APB1Periph_TIM5, ENABLE);
   \   00000002   0121               MOVS     R1,#+1
   \   00000004   0820               MOVS     R0,#+8
   \   00000006   ........           BL       RCC_APB1PeriphClockCmd
    450               
    451               TIM_TimeBaseStructure.TIM_Period = 0xffff ; // 오버플로워 한계값 1000;    // 1000us 1ms
   \   0000000A   4FF6FF70           MOVW     R0,#+65535
   \   0000000E   0190               STR      R0,[SP, #+4]
    452          //     TIM_TimeBaseStructure.TIM_Period = 1 ; // 오버플로워 한계값 1000;    // 1000us 1ms     
    453               TIM_TimeBaseStructure.TIM_Prescaler = 36000-1;   // 72hz / 72000 / 1000 
   \   00000010   48F69F40           MOVW     R0,#+35999
   \   00000014   ADF80000           STRH     R0,[SP, #+0]
    454               TIM_TimeBaseStructure.TIM_ClockDivision = TIM_CKD_DIV2;
   \   00000018   4FF48070           MOV      R0,#+256
   \   0000001C   ADF80800           STRH     R0,[SP, #+8]
    455               TIM_TimeBaseStructure.TIM_CounterMode = TIM_CounterMode_Up;
   \   00000020   0020               MOVS     R0,#+0
   \   00000022   ADF80200           STRH     R0,[SP, #+2]
    456               //  TIM_PrescalerConfig(TIM3, 4, TIM_PSCReloadMode_Update);
    457               TIM_TimeBaseInit(TIM5, &TIM_TimeBaseStructure);
   \   00000026   00A9               ADD      R1,SP,#+0
   \   00000028   ........           LDR.W    R0,??DataTable35_1  ;; 0x40000c00
   \   0000002C   ........           BL       TIM_TimeBaseInit
    458               //  TIM_ITConfig(TIM5, TIM_IT_Update, ENABLE);  
    459               TIM_ClearFlag(TIM5,TIM_FLAG_Update);  
   \   00000030   0121               MOVS     R1,#+1
   \   00000032   ........           LDR.W    R0,??DataTable35_1  ;; 0x40000c00
   \   00000036   ........           BL       TIM_ClearFlag
    460               
    461               TIM_Cmd(TIM5, ENABLE);        
   \   0000003A   0121               MOVS     R1,#+1
   \   0000003C   ........           LDR.W    R0,??DataTable35_1  ;; 0x40000c00
   \   00000040   ........           BL       TIM_Cmd
    462          }
   \   00000044   07BD               POP      {R0-R2,PC}       ;; return
    463          

   \                                 In section .text, align 2, keep-with-next
    464          void TIM6_Config(void)    // 타이머 => DAC 에 클럭 공급한다.
    465          {
   \                     TIM6_Config:
   \   00000000   E0B5               PUSH     {R5-R7,LR}
    466          	TIM_TimeBaseInitTypeDef    TIM_TimeBaseStructure;
    467          	/* TIM6 Periph clock enable */
    468          	RCC_APB1PeriphClockCmd(RCC_APB1Periph_TIM6, ENABLE);
   \   00000002   0121               MOVS     R1,#+1
   \   00000004   1020               MOVS     R0,#+16
   \   00000006   ........           BL       RCC_APB1PeriphClockCmd
    469          	
    470          	/* Time base configuration */
    471          	TIM_TimeBaseStructInit(&TIM_TimeBaseStructure); 
   \   0000000A   00A8               ADD      R0,SP,#+0
   \   0000000C   ........           BL       TIM_TimeBaseStructInit
    472          	TIM_TimeBaseStructure.TIM_Period = 0xFF;          
   \   00000010   FF20               MOVS     R0,#+255
   \   00000012   0190               STR      R0,[SP, #+4]
    473          	TIM_TimeBaseStructure.TIM_Prescaler = 0;       
   \   00000014   0020               MOVS     R0,#+0
   \   00000016   ADF80000           STRH     R0,[SP, #+0]
    474          	TIM_TimeBaseStructure.TIM_ClockDivision = 0;    
   \   0000001A   0020               MOVS     R0,#+0
   \   0000001C   ADF80800           STRH     R0,[SP, #+8]
    475          	TIM_TimeBaseStructure.TIM_CounterMode = TIM_CounterMode_Up;  
   \   00000020   0020               MOVS     R0,#+0
   \   00000022   ADF80200           STRH     R0,[SP, #+2]
    476          	TIM_TimeBaseInit(TIM6, &TIM_TimeBaseStructure);
   \   00000026   00A9               ADD      R1,SP,#+0
   \   00000028   ........           LDR.W    R0,??DataTable35_2  ;; 0x40001000
   \   0000002C   ........           BL       TIM_TimeBaseInit
    477          	
    478          	/* TIM6 TRGO selection */
    479          	TIM_SelectOutputTrigger(TIM6, TIM_TRGOSource_Update);
   \   00000030   2021               MOVS     R1,#+32
   \   00000032   ........           LDR.W    R0,??DataTable35_2  ;; 0x40001000
   \   00000036   ........           BL       TIM_SelectOutputTrigger
    480          	
    481          	/* TIM6 enable counter */
    482          	TIM_Cmd(TIM6, ENABLE);
   \   0000003A   0121               MOVS     R1,#+1
   \   0000003C   ........           LDR.W    R0,??DataTable35_2  ;; 0x40001000
   \   00000040   ........           BL       TIM_Cmd
    483          }
   \   00000044   07BD               POP      {R0-R2,PC}       ;; return

   \                                 In section .text, align 2, keep-with-next
    484          void TIM7_Config(void)		// 2us
    485          {     
   \                     TIM7_Config:
   \   00000000   E0B5               PUSH     {R5-R7,LR}
    486               TIM_TimeBaseInitTypeDef  TIM_TimeBaseStructure;
    487               RCC_APB1PeriphClockCmd(RCC_APB1Periph_TIM7, ENABLE);
   \   00000002   0121               MOVS     R1,#+1
   \   00000004   2020               MOVS     R0,#+32
   \   00000006   ........           BL       RCC_APB1PeriphClockCmd
    488               
    489               TIM_TimeBaseStructure.TIM_Period = 0xffff ;                      // 오버플로워 한계값 1000;    // 1000us 1ms
   \   0000000A   4FF6FF70           MOVW     R0,#+65535
   \   0000000E   0190               STR      R0,[SP, #+4]
    490               TIM_TimeBaseStructure.TIM_Prescaler = 18-1;                      // 72hz / 72000 / 1000 // 2us
   \   00000010   1120               MOVS     R0,#+17
   \   00000012   ADF80000           STRH     R0,[SP, #+0]
    491               TIM_TimeBaseStructure.TIM_ClockDivision = TIM_CKD_DIV1;
   \   00000016   0020               MOVS     R0,#+0
   \   00000018   ADF80800           STRH     R0,[SP, #+8]
    492               TIM_TimeBaseStructure.TIM_CounterMode = TIM_CounterMode_Up;
   \   0000001C   0020               MOVS     R0,#+0
   \   0000001E   ADF80200           STRH     R0,[SP, #+2]
    493               TIM_TimeBaseInit(TIM7, &TIM_TimeBaseStructure);
   \   00000022   00A9               ADD      R1,SP,#+0
   \   00000024   ........           LDR.W    R0,??DataTable35_3  ;; 0x40001400
   \   00000028   ........           BL       TIM_TimeBaseInit
    494               
    495               TIM_ClearFlag(TIM7,TIM_FLAG_Update);  
   \   0000002C   0121               MOVS     R1,#+1
   \   0000002E   ........           LDR.W    R0,??DataTable35_3  ;; 0x40001400
   \   00000032   ........           BL       TIM_ClearFlag
    496               
    497               TIM_Cmd(TIM7, ENABLE);     
   \   00000036   0121               MOVS     R1,#+1
   \   00000038   ........           LDR.W    R0,??DataTable35_3  ;; 0x40001400
   \   0000003C   ........           BL       TIM_Cmd
    498          }
   \   00000040   07BD               POP      {R0-R2,PC}       ;; return

   \                                 In section .text, align 2, keep-with-next
    499          void TIM8_Config(void)
    500          {
   \                     TIM8_Config:
   \   00000000   00B5               PUSH     {LR}
   \   00000002   8BB0               SUB      SP,SP,#+44
    501               GPIO_InitTypeDef GPIO_InitStructure;
    502               TIM_TimeBaseInitTypeDef  TIM_TimeBaseStructure;
    503               TIM_OCInitTypeDef  TIM_OCInitStructure;     
    504               /* TIM3 clock enable */
    505               RCC_APB2PeriphClockCmd(RCC_APB2Periph_TIM8, ENABLE);
   \   00000004   0121               MOVS     R1,#+1
   \   00000006   0220               MOVS     R0,#+2
   \   00000008   ........           BL       RCC_APB2PeriphClockCmd
    506               /* GPIOC clock enable */
    507               RCC_AHB1PeriphClockCmd(RCC_AHB1Periph_GPIOC, ENABLE);
   \   0000000C   0121               MOVS     R1,#+1
   \   0000000E   0420               MOVS     R0,#+4
   \   00000010   ........           BL       RCC_AHB1PeriphClockCmd
    508               
    509               /* GPIOC Configuration: TIM3 CH1 (PC6), TIM3 CH2 (PC7), TIM3 CH3 (PC8) and TIM3 CH4 (PC9) */
    510               GPIO_InitStructure.GPIO_Pin = GPIO_Pin_6 ;
   \   00000014   4020               MOVS     R0,#+64
   \   00000016   0090               STR      R0,[SP, #+0]
    511               GPIO_InitStructure.GPIO_Mode = GPIO_Mode_AF;
   \   00000018   0220               MOVS     R0,#+2
   \   0000001A   8DF80400           STRB     R0,[SP, #+4]
    512               GPIO_InitStructure.GPIO_Speed = GPIO_Speed_100MHz;
   \   0000001E   0320               MOVS     R0,#+3
   \   00000020   8DF80500           STRB     R0,[SP, #+5]
    513               GPIO_InitStructure.GPIO_OType = GPIO_OType_PP;
   \   00000024   0020               MOVS     R0,#+0
   \   00000026   8DF80600           STRB     R0,[SP, #+6]
    514               GPIO_InitStructure.GPIO_PuPd = GPIO_PuPd_UP ;
   \   0000002A   0120               MOVS     R0,#+1
   \   0000002C   8DF80700           STRB     R0,[SP, #+7]
    515               GPIO_Init(GPIOC, &GPIO_InitStructure); 
   \   00000030   00A9               ADD      R1,SP,#+0
   \   00000032   ........           LDR.W    R0,??DataTable31_10  ;; 0x40020800
   \   00000036   ........           BL       GPIO_Init
    516               
    517               /* Connect TIM3 pins to AF2 */  
    518               GPIO_PinAFConfig(GPIOC, GPIO_PinSource6, GPIO_AF_TIM8);
   \   0000003A   0322               MOVS     R2,#+3
   \   0000003C   0621               MOVS     R1,#+6
   \   0000003E   ........           LDR.W    R0,??DataTable31_10  ;; 0x40020800
   \   00000042   ........           BL       GPIO_PinAFConfig
    519               /* -----------------------------------------------------------------------
    520               TIM3 Configuration: generate 4 PWM signals with 4 different duty cycles:
    521               The TIM3CLK frequency is set to SystemCoreClock / 2  (Hz), to get TIM3 counter
    522               clock at 20 MHz the Prescaler is computed as following:
    523               - Prescaler = (TIM3CLK / TIM3 counter clock) - 1
    524               SystemCoreClock is set to 120 MHz for STM32F2xx devices
    525               
    526               The TIM3 is running at 30 KHz: TIM3 Frequency = TIM3 counter clock/(ARR + 1)
    527               = 20 MHz / 666 = 30 KHz
    528               TIM3 Channel1 duty cycle = (TIM3_CCR1/ TIM3_ARR)* 100 = 50%
    529               
    530               ----------------------------------------------------------------------- */     
    531               
    532               /* Compute the prescaler value */
    533               //PrescalerValue = (uint16_t) (SystemCoreClock / 20000000) - 1;
    534               
    535               /* Time base configuration */
    536               TIM_TimeBaseStructure.TIM_Period = 65535;
   \   00000046   4FF6FF70           MOVW     R0,#+65535
   \   0000004A   0890               STR      R0,[SP, #+32]
    537               TIM_TimeBaseStructure.TIM_Prescaler = 7200 -1;
   \   0000004C   41F61F40           MOVW     R0,#+7199
   \   00000050   ADF81C00           STRH     R0,[SP, #+28]
    538               TIM_TimeBaseStructure.TIM_ClockDivision = 0;
   \   00000054   0020               MOVS     R0,#+0
   \   00000056   ADF82400           STRH     R0,[SP, #+36]
    539               TIM_TimeBaseStructure.TIM_CounterMode = TIM_CounterMode_Up;
   \   0000005A   0020               MOVS     R0,#+0
   \   0000005C   ADF81E00           STRH     R0,[SP, #+30]
    540               
    541               TIM_TimeBaseInit(TIM8, &TIM_TimeBaseStructure);
   \   00000060   07A9               ADD      R1,SP,#+28
   \   00000062   ........           LDR.W    R0,??DataTable35_4  ;; 0x40010400
   \   00000066   ........           BL       TIM_TimeBaseInit
    542               
    543               /* PWM1 Mode configuration: Channel1 */
    544               TIM_OCInitStructure.TIM_OCMode = TIM_OCMode_Toggle;
   \   0000006A   3020               MOVS     R0,#+48
   \   0000006C   ADF80800           STRH     R0,[SP, #+8]
    545               TIM_OCInitStructure.TIM_OutputState = TIM_OutputState_Enable;
   \   00000070   0120               MOVS     R0,#+1
   \   00000072   ADF80A00           STRH     R0,[SP, #+10]
    546               TIM_OCInitStructure.TIM_Pulse = 0;
   \   00000076   0020               MOVS     R0,#+0
   \   00000078   0490               STR      R0,[SP, #+16]
    547               TIM_OCInitStructure.TIM_OCPolarity = TIM_OCPolarity_High;
   \   0000007A   0020               MOVS     R0,#+0
   \   0000007C   ADF81400           STRH     R0,[SP, #+20]
    548          
    549               TIM_OCInitStructure.TIM_OutputNState = TIM_OutputNState_Enable;
   \   00000080   0420               MOVS     R0,#+4
   \   00000082   ADF80C00           STRH     R0,[SP, #+12]
    550               TIM_OCInitStructure.TIM_OCNPolarity = TIM_OCNPolarity_High;
   \   00000086   0020               MOVS     R0,#+0
   \   00000088   ADF81600           STRH     R0,[SP, #+22]
    551               TIM_OCInitStructure.TIM_OCIdleState = TIM_OCIdleState_Set;
   \   0000008C   4FF48070           MOV      R0,#+256
   \   00000090   ADF81800           STRH     R0,[SP, #+24]
    552               TIM_OCInitStructure.TIM_OCNIdleState = TIM_OCIdleState_Reset;
   \   00000094   0020               MOVS     R0,#+0
   \   00000096   ADF81A00           STRH     R0,[SP, #+26]
    553               
    554               TIM_OC1Init(TIM8, &TIM_OCInitStructure);
   \   0000009A   02A9               ADD      R1,SP,#+8
   \   0000009C   ........           LDR.W    R0,??DataTable35_4  ;; 0x40010400
   \   000000A0   ........           BL       TIM_OC1Init
    555               
    556               TIM_OC1PreloadConfig(TIM8, TIM_OCPreload_Enable);
   \   000000A4   0821               MOVS     R1,#+8
   \   000000A6   ........           LDR.W    R0,??DataTable35_4  ;; 0x40010400
   \   000000AA   ........           BL       TIM_OC1PreloadConfig
    557               
    558               TIM_ARRPreloadConfig(TIM8, ENABLE);
   \   000000AE   0121               MOVS     R1,#+1
   \   000000B0   ........           LDR.W    R0,??DataTable35_4  ;; 0x40010400
   \   000000B4   ........           BL       TIM_ARRPreloadConfig
    559               
    560               /* TIM8 enable counter */
    561               TIM_Cmd(TIM8, ENABLE);
   \   000000B8   0121               MOVS     R1,#+1
   \   000000BA   ........           LDR.W    R0,??DataTable35_4  ;; 0x40010400
   \   000000BE   ........           BL       TIM_Cmd
    562               TIM_CtrlPWMOutputs(TIM8, ENABLE);
   \   000000C2   0121               MOVS     R1,#+1
   \   000000C4   ........           LDR.W    R0,??DataTable35_4  ;; 0x40010400
   \   000000C8   ........           BL       TIM_CtrlPWMOutputs
    563          
    564               
    565          }
   \   000000CC   0BB0               ADD      SP,SP,#+44
   \   000000CE   00BD               POP      {PC}             ;; return
    566          
    567          //***************************************************************************************************************
    568          //  주어진 시간이 경과되었는지 확인한다. 1ms 단위 
    569          //***************************************************************************************************************
    570          

   \                                 In section .text, align 2, keep-with-next
    571          unsigned char CheckTimeOver(u16 ms, u16 OldTime)
    572          {
   \                     CheckTimeOver:
   \   00000000   38B5               PUSH     {R3-R5,LR}
   \   00000002   0400               MOVS     R4,R0
   \   00000004   0D00               MOVS     R5,R1
    573               volatile u32 timer;
    574               
    575               timer = MS_TIMER;               
   \   00000006   ........           LDR.W    R0,??DataTable35_1  ;; 0x40000c00
   \   0000000A   ........           BL       TIM_GetCounter
   \   0000000E   0090               STR      R0,[SP, #+0]
    576               
    577               if (OldTime > timer) {
   \   00000010   0098               LDR      R0,[SP, #+0]
   \   00000012   ADB2               UXTH     R5,R5            ;; ZeroExt  R5,R5,#+16,#+16
   \   00000014   A842               CMP      R0,R5
   \   00000016   0CD2               BCS.N    ??CheckTimeOver_0
    578                    return (((u32) timer + 0x10000) >= ((u32) OldTime + ms)) ? 1:0;
   \   00000018   0098               LDR      R0,[SP, #+0]
   \   0000001A   10F58030           ADDS     R0,R0,#+65536
   \   0000001E   ADB2               UXTH     R5,R5            ;; ZeroExt  R5,R5,#+16,#+16
   \   00000020   A4B2               UXTH     R4,R4            ;; ZeroExt  R4,R4,#+16,#+16
   \   00000022   6119               ADDS     R1,R4,R5
   \   00000024   8842               CMP      R0,R1
   \   00000026   01D3               BCC.N    ??CheckTimeOver_1
   \   00000028   0120               MOVS     R0,#+1
   \   0000002A   00E0               B.N      ??CheckTimeOver_2
   \                     ??CheckTimeOver_1:
   \   0000002C   0020               MOVS     R0,#+0
   \                     ??CheckTimeOver_2:
   \   0000002E   C0B2               UXTB     R0,R0            ;; ZeroExt  R0,R0,#+24,#+24
   \   00000030   09E0               B.N      ??CheckTimeOver_3
    579               }
    580               else
    581               {
    582                    return ((u32) timer >= ((u32) OldTime + ms)) ? 1:0;
   \                     ??CheckTimeOver_0:
   \   00000032   0098               LDR      R0,[SP, #+0]
   \   00000034   ADB2               UXTH     R5,R5            ;; ZeroExt  R5,R5,#+16,#+16
   \   00000036   A4B2               UXTH     R4,R4            ;; ZeroExt  R4,R4,#+16,#+16
   \   00000038   6119               ADDS     R1,R4,R5
   \   0000003A   8842               CMP      R0,R1
   \   0000003C   01D3               BCC.N    ??CheckTimeOver_4
   \   0000003E   0120               MOVS     R0,#+1
   \   00000040   00E0               B.N      ??CheckTimeOver_5
   \                     ??CheckTimeOver_4:
   \   00000042   0020               MOVS     R0,#+0
   \                     ??CheckTimeOver_5:
   \   00000044   C0B2               UXTB     R0,R0            ;; ZeroExt  R0,R0,#+24,#+24
   \                     ??CheckTimeOver_3:
   \   00000046   32BD               POP      {R1,R4,R5,PC}    ;; return
    583               }
    584          }
    585          

   \                                 In section .text, align 2, keep-with-next
    586          unsigned char CheckTimeOver1Sec(u16 ms, u16 OldTime)
    587          {
   \                     CheckTimeOver1Sec:
   \   00000000   81B0               SUB      SP,SP,#+4
    588               volatile u32 timer;
    589               
    590               timer = MS_TIMER_1sec;               
   \   00000002   ........           LDR.W    R2,??DataTable35_5
   \   00000006   1288               LDRH     R2,[R2, #+0]
   \   00000008   0092               STR      R2,[SP, #+0]
    591               
    592               if (OldTime > timer) {
   \   0000000A   009A               LDR      R2,[SP, #+0]
   \   0000000C   89B2               UXTH     R1,R1            ;; ZeroExt  R1,R1,#+16,#+16
   \   0000000E   8A42               CMP      R2,R1
   \   00000010   0CD2               BCS.N    ??CheckTimeOver1Sec_0
    593                    return (((u32) timer + 0x10000) >= ((u32) OldTime + ms)) ? 1:0;
   \   00000012   009A               LDR      R2,[SP, #+0]
   \   00000014   12F58032           ADDS     R2,R2,#+65536
   \   00000018   89B2               UXTH     R1,R1            ;; ZeroExt  R1,R1,#+16,#+16
   \   0000001A   80B2               UXTH     R0,R0            ;; ZeroExt  R0,R0,#+16,#+16
   \   0000001C   4018               ADDS     R0,R0,R1
   \   0000001E   8242               CMP      R2,R0
   \   00000020   01D3               BCC.N    ??CheckTimeOver1Sec_1
   \   00000022   0120               MOVS     R0,#+1
   \   00000024   00E0               B.N      ??CheckTimeOver1Sec_2
   \                     ??CheckTimeOver1Sec_1:
   \   00000026   0020               MOVS     R0,#+0
   \                     ??CheckTimeOver1Sec_2:
   \   00000028   C0B2               UXTB     R0,R0            ;; ZeroExt  R0,R0,#+24,#+24
   \   0000002A   09E0               B.N      ??CheckTimeOver1Sec_3
    594               }
    595               else
    596               {
    597                    return ((u32) timer >= ((u32) OldTime + ms)) ? 1:0;
   \                     ??CheckTimeOver1Sec_0:
   \   0000002C   009A               LDR      R2,[SP, #+0]
   \   0000002E   89B2               UXTH     R1,R1            ;; ZeroExt  R1,R1,#+16,#+16
   \   00000030   80B2               UXTH     R0,R0            ;; ZeroExt  R0,R0,#+16,#+16
   \   00000032   4018               ADDS     R0,R0,R1
   \   00000034   8242               CMP      R2,R0
   \   00000036   01D3               BCC.N    ??CheckTimeOver1Sec_4
   \   00000038   0120               MOVS     R0,#+1
   \   0000003A   00E0               B.N      ??CheckTimeOver1Sec_5
   \                     ??CheckTimeOver1Sec_4:
   \   0000003C   0020               MOVS     R0,#+0
   \                     ??CheckTimeOver1Sec_5:
   \   0000003E   C0B2               UXTB     R0,R0            ;; ZeroExt  R0,R0,#+24,#+24
   \                     ??CheckTimeOver1Sec_3:
   \   00000040   01B0               ADD      SP,SP,#+4
   \   00000042   7047               BX       LR               ;; return
    598               }
    599          }
    600          
    601          //***************************************************************************************************************
    602          //  경과된 시간을 리턴한다. 100us 단위 
    603          //***************************************************************************************************************

   \                                 In section .text, align 2, keep-with-next
    604          u32 CheckTimeInterval_100us(u16 OldTime)
    605          {
   \                     CheckTimeInterval_100us:
   \   00000000   10B5               PUSH     {R4,LR}
   \   00000002   82B0               SUB      SP,SP,#+8
   \   00000004   0400               MOVS     R4,R0
    606               volatile u32 timer;
    607               
    608               timer = MS_TIMER_100us;               
   \   00000006   ........           LDR.W    R0,??DataTable35  ;; 0x40000400
   \   0000000A   ........           BL       TIM_GetCounter
   \   0000000E   0090               STR      R0,[SP, #+0]
    609               
    610               if (OldTime > timer) {
   \   00000010   0098               LDR      R0,[SP, #+0]
   \   00000012   A4B2               UXTH     R4,R4            ;; ZeroExt  R4,R4,#+16,#+16
   \   00000014   A042               CMP      R0,R4
   \   00000016   05D2               BCS.N    ??CheckTimeInterval_100us_0
    611                    return (((u32) timer + 0x10000) - (u32)OldTime );
   \   00000018   0098               LDR      R0,[SP, #+0]
   \   0000001A   10F58030           ADDS     R0,R0,#+65536
   \   0000001E   A4B2               UXTH     R4,R4            ;; ZeroExt  R4,R4,#+16,#+16
   \   00000020   001B               SUBS     R0,R0,R4
   \   00000022   02E0               B.N      ??CheckTimeInterval_100us_1
    612               }
    613               else
    614               {
    615                    return ((u32)timer - (u32)OldTime);
   \                     ??CheckTimeInterval_100us_0:
   \   00000024   0098               LDR      R0,[SP, #+0]
   \   00000026   A4B2               UXTH     R4,R4            ;; ZeroExt  R4,R4,#+16,#+16
   \   00000028   001B               SUBS     R0,R0,R4
   \                     ??CheckTimeInterval_100us_1:
   \   0000002A   16BD               POP      {R1,R2,R4,PC}    ;; return
    616               }
    617          }
    618          

   \                                 In section .text, align 2, keep-with-next
    619          u32 CheckTimeInterval_1us(u16 OldTime)
    620          {
   \                     CheckTimeInterval_1us:
   \   00000000   10B5               PUSH     {R4,LR}
   \   00000002   82B0               SUB      SP,SP,#+8
   \   00000004   0400               MOVS     R4,R0
    621               volatile u32 timer;
    622               
    623               timer = MS_TIMER_2us;               
   \   00000006   ........           LDR.W    R0,??DataTable35_3  ;; 0x40001400
   \   0000000A   ........           BL       TIM_GetCounter
   \   0000000E   0090               STR      R0,[SP, #+0]
    624               
    625               if (OldTime > timer) {
   \   00000010   0098               LDR      R0,[SP, #+0]
   \   00000012   A4B2               UXTH     R4,R4            ;; ZeroExt  R4,R4,#+16,#+16
   \   00000014   A042               CMP      R0,R4
   \   00000016   05D2               BCS.N    ??CheckTimeInterval_1us_0
    626                    return (((u32) timer + 0x10000) - (u32)OldTime );
   \   00000018   0098               LDR      R0,[SP, #+0]
   \   0000001A   10F58030           ADDS     R0,R0,#+65536
   \   0000001E   A4B2               UXTH     R4,R4            ;; ZeroExt  R4,R4,#+16,#+16
   \   00000020   001B               SUBS     R0,R0,R4
   \   00000022   02E0               B.N      ??CheckTimeInterval_1us_1
    627               }
    628               else
    629               {
    630                    return ((u32)timer - (u32)OldTime);
   \                     ??CheckTimeInterval_1us_0:
   \   00000024   0098               LDR      R0,[SP, #+0]
   \   00000026   A4B2               UXTH     R4,R4            ;; ZeroExt  R4,R4,#+16,#+16
   \   00000028   001B               SUBS     R0,R0,R4
   \                     ??CheckTimeInterval_1us_1:
   \   0000002A   16BD               POP      {R1,R2,R4,PC}    ;; return
    631               }
    632          }
    633          
    634          //***************************************************************************************************************
    635          //  문자열을 찾아서 지작점을 받환한다.
    636          //***************************************************************************************************************

   \                                 In section .text, align 2, keep-with-next
    637          u16 FindString( char *string, int StartPoint, char Search )
    638          {
   \                     FindString:
   \   00000000   10B4               PUSH     {R4}
    639          	u16 Point = 0;
   \   00000002   0023               MOVS     R3,#+0
   \   00000004   01E0               B.N      ??FindString_0
    640          //     string += StartPoint;
    641          	while(*string)
    642          	{
    643          		if ( Point >= StartPoint ) 
    644          		{
    645          			if( *string == Search )
    646          			{
    647          				return Point;
    648          			}
    649          		}
    650          		Point ++;	
   \                     ??FindString_1:
   \   00000006   5B1C               ADDS     R3,R3,#+1
    651          		string ++;
   \   00000008   401C               ADDS     R0,R0,#+1
   \                     ??FindString_0:
   \   0000000A   0478               LDRB     R4,[R0, #+0]
   \   0000000C   002C               CMP      R4,#+0
   \   0000000E   09D0               BEQ.N    ??FindString_2
   \   00000010   9BB2               UXTH     R3,R3            ;; ZeroExt  R3,R3,#+16,#+16
   \   00000012   8B42               CMP      R3,R1
   \   00000014   F7DB               BLT.N    ??FindString_1
   \   00000016   0478               LDRB     R4,[R0, #+0]
   \   00000018   D2B2               UXTB     R2,R2            ;; ZeroExt  R2,R2,#+24,#+24
   \   0000001A   9442               CMP      R4,R2
   \   0000001C   F3D1               BNE.N    ??FindString_1
   \   0000001E   1800               MOVS     R0,R3
   \   00000020   80B2               UXTH     R0,R0            ;; ZeroExt  R0,R0,#+16,#+16
   \   00000022   01E0               B.N      ??FindString_3
    652          	}
    653          	return -1;
   \                     ??FindString_2:
   \   00000024   4FF6FF70           MOVW     R0,#+65535
   \                     ??FindString_3:
   \   00000028   10BC               POP      {R4}
   \   0000002A   7047               BX       LR               ;; return
    654          }
    655          /*=============================================================================
    656          
    657          속도는 50hz 일때 27km / 100hz 일때 54km
    658          
    659          =============================================================================*/
    660          

   \                                 In section .text, align 2, keep-with-next
    661          void SpeedCheck2(void)
    662          {
   \                     SpeedCheck2:
   \   00000000   38B5               PUSH     {R3-R5,LR}
    663               static u16 SPEED_Timer = 0;
    664               
    665               static u16 RPM_Timer = 0;
                                 ^
Warning[Pe177]: variable "RPM_Timer" was declared but never referenced
    666               static u8 Low_Count = 0;
                                ^
Warning[Pe177]: variable "Low_Count" was declared but never referenced
    667          
    668               u8 i;
    669               float Speed_Avr;
    670               float Speed_Hz;
    671               u16 Speed_Change;
                          ^
Warning[Pe177]: variable "Speed_Change" was declared but never referenced
    672          
    673               u8 error_flg ;
                         ^
Warning[Pe177]: variable "error_flg" was declared but never referenced
    674               float compare_value ;
                            ^
Warning[Pe177]: variable "compare_value" was declared but never referenced
    675               
    676          //     static u8 Speed_Check_Count = 0;
    677               //-------------------------------------------------------------------------
    678               // 500ms 마다 검사 하는데 낮은 주파수를 정확히 측정하기 위해서는
    679               // 일정 이상의 값을 넣어줘야 한다.
    680               
    681               if(!CheckTimeOver(100,SPEED_Timer))
   \   00000002   ........           LDR.W    R0,??DataTable35_6
   \   00000006   0188               LDRH     R1,[R0, #+0]
   \   00000008   6420               MOVS     R0,#+100
   \   0000000A   ........           BL       CheckTimeOver
   \   0000000E   0028               CMP      R0,#+0
   \   00000010   3DD0               BEQ.N    ??SpeedCheck2_0
    682                    return;      
    683               
    684               SPEED_Timer = MS_TIMER;  
   \                     ??SpeedCheck2_1:
   \   00000012   ........           LDR.W    R0,??DataTable35_1  ;; 0x40000c00
   \   00000016   ........           BL       TIM_GetCounter
   \   0000001A   ........           LDR.W    R1,??DataTable35_6
   \   0000001E   0880               STRH     R0,[R1, #+0]
    685               printf("[%d] ",SPEED_Count);
   \   00000020   ........           LDR.W    R0,??DataTable35_7
   \   00000024   0168               LDR      R1,[R0, #+0]
   \   00000026   ........           LDR.W    R0,??DataTable35_8
   \   0000002A   ........           BL       printf
    686               for( i = 0 ; i < SPEED_Count ; i++)
   \   0000002E   0025               MOVS     R5,#+0
   \   00000030   12E0               B.N      ??SpeedCheck2_2
    687               {          
    688                    Speed_Avr += SPEED_Buffer[i];
   \                     ??SpeedCheck2_3:
   \   00000032   EDB2               UXTB     R5,R5            ;; ZeroExt  R5,R5,#+24,#+24
   \   00000034   ........           LDR.W    R0,??DataTable35_9
   \   00000038   50F82500           LDR      R0,[R0, R5, LSL #+2]
   \   0000003C   ........           BL       __aeabi_ui2f
   \   00000040   0100               MOVS     R1,R0
   \   00000042   2000               MOVS     R0,R4
   \   00000044   ........           BL       __aeabi_fadd
   \   00000048   0400               MOVS     R4,R0
    689                    SPEED_Buffer[i] = 0;
   \   0000004A   EDB2               UXTB     R5,R5            ;; ZeroExt  R5,R5,#+24,#+24
   \   0000004C   ........           LDR.W    R0,??DataTable35_9
   \   00000050   0021               MOVS     R1,#+0
   \   00000052   40F82510           STR      R1,[R0, R5, LSL #+2]
    690          //          printf("%d ", SPEED_Buffer[i] );
    691               }
   \   00000056   6D1C               ADDS     R5,R5,#+1
   \                     ??SpeedCheck2_2:
   \   00000058   EDB2               UXTB     R5,R5            ;; ZeroExt  R5,R5,#+24,#+24
   \   0000005A   ........           LDR.W    R0,??DataTable35_7
   \   0000005E   0068               LDR      R0,[R0, #+0]
   \   00000060   8542               CMP      R5,R0
   \   00000062   E6D3               BCC.N    ??SpeedCheck2_3
    692          
    693               Speed_Hz =  Speed_Avr / SPEED_Count ;
   \   00000064   ........           LDR.W    R0,??DataTable35_7
   \   00000068   0068               LDR      R0,[R0, #+0]
   \   0000006A   ........           BL       __aeabi_ui2f
   \   0000006E   0100               MOVS     R1,R0
   \   00000070   2000               MOVS     R0,R4
   \   00000072   ........           BL       __aeabi_fdiv
    694               SPEED_Count = 0;
   \   00000076   ........           LDR.W    R1,??DataTable35_7
   \   0000007A   0022               MOVS     R2,#+0
   \   0000007C   0A60               STR      R2,[R1, #+0]
    695          //     Speed_Hz = 1 / Speed_Hz;
    696               
    697               printf("%.1f \r\n",Speed_Hz);
   \   0000007E   ........           BL       __aeabi_f2d
   \   00000082   0200               MOVS     R2,R0
   \   00000084   0B00               MOVS     R3,R1
   \   00000086   ........           LDR.W    R0,??DataTable35_10
   \   0000008A   ........           BL       printf
    698               
    699          
    700               // 실제 Speed 처리루틴     
    701          }
   \                     ??SpeedCheck2_0:
   \   0000008E   31BD               POP      {R0,R4,R5,PC}    ;; return

   \                                 In section .bss, align 2
   \                     ??SPEED_Timer:
   \   00000000                      DS8 2
    702          

   \                                 In section .text, align 2, keep-with-next
    703          void SpeedCheck(void)
    704          {
   \                     SpeedCheck:
   \   00000000   2DE9F843           PUSH     {R3-R9,LR}
    705               static u16 SPEED_Timer = 0;
    706               
    707               static u16 RPM_Timer = 0;
    708               static u8 Low_Count = 0;
    709          
    710               u8 i;
    711               u32 Speed_Avr;
    712               u32 Speed_Avr2;     
    713               u32 Speed_Hz;
    714               u32 Speed_Hz2;     
    715               u16 Speed_Change;
    716          
    717          
    718               u8 error_flg ;
    719               u8 error_flg2 = 0 ;
   \   00000004   0026               MOVS     R6,#+0
    720               static u8 error_flg3 = 0 ;
    721               float compare_value ;
    722          //     static u8 Speed_Check_Count = 0;
    723               //-------------------------------------------------------------------------
    724               // 500ms 마다 검사 하는데 낮은 주파수를 정확히 측정하기 위해서는
    725               // 일정 이상의 값을 넣어줘야 한다.
    726               
    727               if(!CheckTimeOver(100,SPEED_Timer))
   \   00000006   ........           LDR.W    R0,??DataTable35_11
   \   0000000A   0188               LDRH     R1,[R0, #+0]
   \   0000000C   6420               MOVS     R0,#+100
   \   0000000E   ........           BL       CheckTimeOver
   \   00000012   0028               CMP      R0,#+0
   \   00000014   00F03481           BEQ.W    ??SpeedCheck_0
    728                    return;      
    729               
    730               SPEED_Timer = MS_TIMER;  
   \                     ??SpeedCheck_1:
   \   00000018   ........           LDR.W    R0,??DataTable35_1  ;; 0x40000c00
   \   0000001C   ........           BL       TIM_GetCounter
   \   00000020   ........           LDR.W    R1,??DataTable35_11
   \   00000024   0880               STRH     R0,[R1, #+0]
    731               // 실제 Speed 처리루틴
    732               
    733               Speed_Avr = 0;
   \   00000026   0024               MOVS     R4,#+0
    734               Speed_Avr2 = 0;
   \   00000028   0027               MOVS     R7,#+0
    735          //     Count = SPEED_Count;
    736               
    737               error_flg = 0 ;
   \   0000002A   0025               MOVS     R5,#+0
    738               error_flg2 = 0 ;
   \   0000002C   0026               MOVS     R6,#+0
    739               for( i = 0 ; i < MAX_SPEED_BUFFERCOUNT  ; i++)
   \   0000002E   5FF00008           MOVS     R8,#+0
   \   00000032   08E0               B.N      ??SpeedCheck_2
    740               {
    741                    Speed_Avr2 +=SPEED_Buffer[i];          
   \                     ??SpeedCheck_3:
   \   00000034   5FFA88F8           UXTB     R8,R8            ;; ZeroExt  R8,R8,#+24,#+24
   \   00000038   ........           LDR.W    R0,??DataTable35_9
   \   0000003C   50F82800           LDR      R0,[R0, R8, LSL #+2]
   \   00000040   C719               ADDS     R7,R0,R7
    742               }
   \   00000042   18F10108           ADDS     R8,R8,#+1
   \                     ??SpeedCheck_2:
   \   00000046   5FFA88F8           UXTB     R8,R8            ;; ZeroExt  R8,R8,#+24,#+24
   \   0000004A   B8F10A0F           CMP      R8,#+10
   \   0000004E   F1D3               BCC.N    ??SpeedCheck_3
    743               Speed_Avr2 /= MAX_SPEED_BUFFERCOUNT;      // 평균값 계산
   \   00000050   0A20               MOVS     R0,#+10
   \   00000052   B7FBF0F7           UDIV     R7,R7,R0
    744               
    745               for( i = 0 ; i < MAX_SPEED_BUFFERCOUNT  ; i++)
   \   00000056   5FF00008           MOVS     R8,#+0
   \   0000005A   08E0               B.N      ??SpeedCheck_4
    746               {          
    747                    if(SPEED_Buffer[i] == 0)
    748                         error_flg2 ++;
    749                    compare_value = (float)((float)SPEED_Buffer[0] / (float)SPEED_Buffer[i]);          
    750          //          if((compare_value > 1.75) || (compare_value < 0.75))
    751                    if((compare_value > 1.5) || (compare_value < 0.5))               
    752                    {   
    753                         error_flg ++ ;
    754                         Speed_Avr += Speed_Avr2; 
    755          //               break ;
    756                    }else
    757                    {
    758                         Speed_Avr += SPEED_Buffer[i];               
   \                     ??SpeedCheck_5:
   \   0000005C   5FFA88F8           UXTB     R8,R8            ;; ZeroExt  R8,R8,#+24,#+24
   \   00000060   ........           LDR.W    R0,??DataTable35_9
   \   00000064   50F82800           LDR      R0,[R0, R8, LSL #+2]
   \   00000068   0419               ADDS     R4,R0,R4
    759                    }
   \                     ??SpeedCheck_6:
   \   0000006A   18F10108           ADDS     R8,R8,#+1
   \                     ??SpeedCheck_4:
   \   0000006E   5FFA88F8           UXTB     R8,R8            ;; ZeroExt  R8,R8,#+24,#+24
   \   00000072   B8F10A0F           CMP      R8,#+10
   \   00000076   27D2               BCS.N    ??SpeedCheck_7
   \   00000078   5FFA88F8           UXTB     R8,R8            ;; ZeroExt  R8,R8,#+24,#+24
   \   0000007C   ........           LDR.W    R0,??DataTable35_9
   \   00000080   50F82800           LDR      R0,[R0, R8, LSL #+2]
   \   00000084   0028               CMP      R0,#+0
   \   00000086   00D1               BNE.N    ??SpeedCheck_8
   \   00000088   761C               ADDS     R6,R6,#+1
   \                     ??SpeedCheck_8:
   \   0000008A   ........           LDR.W    R0,??DataTable35_9
   \   0000008E   0068               LDR      R0,[R0, #+0]
   \   00000090   ........           BL       __aeabi_ui2f
   \   00000094   8146               MOV      R9,R0
   \   00000096   5FFA88F8           UXTB     R8,R8            ;; ZeroExt  R8,R8,#+24,#+24
   \   0000009A   ........           LDR.W    R0,??DataTable35_9
   \   0000009E   50F82800           LDR      R0,[R0, R8, LSL #+2]
   \   000000A2   ........           BL       __aeabi_ui2f
   \   000000A6   0100               MOVS     R1,R0
   \   000000A8   4846               MOV      R0,R9
   \   000000AA   ........           BL       __aeabi_fdiv
   \   000000AE   ........           LDR.W    R1,??DataTable35_12  ;; 0x3fc00001
   \   000000B2   ........           BL       __aeabi_cfrcmple
   \   000000B6   04D9               BLS.N    ??SpeedCheck_9
   \   000000B8   5FF07C51           MOVS     R1,#+1056964608
   \   000000BC   ........           BL       __aeabi_cfcmple
   \   000000C0   CCD2               BCS.N    ??SpeedCheck_5
   \                     ??SpeedCheck_9:
   \   000000C2   6D1C               ADDS     R5,R5,#+1
   \   000000C4   3C19               ADDS     R4,R7,R4
   \   000000C6   D0E7               B.N      ??SpeedCheck_6
    760               }
    761          
    762               if(SPEED_Check == 0 || SPEED_Count != 0 )         // 들어온 펄스가 한개도 없거나 1hz 미만으로 들어왔다면
   \                     ??SpeedCheck_7:
   \   000000C8   ........           LDR.W    R0,??DataTable35_13
   \   000000CC   0078               LDRB     R0,[R0, #+0]
   \   000000CE   0028               CMP      R0,#+0
   \   000000D0   04D0               BEQ.N    ??SpeedCheck_10
   \   000000D2   ........           LDR.W    R0,??DataTable35_7
   \   000000D6   0068               LDR      R0,[R0, #+0]
   \   000000D8   0028               CMP      R0,#+0
   \   000000DA   2FD0               BEQ.N    ??SpeedCheck_11
    763               {
    764                    if(Low_Count++ > 10)          // 2초동안 검사
   \                     ??SpeedCheck_10:
   \   000000DC   ........           LDR.W    R0,??DataTable35_14
   \   000000E0   0078               LDRB     R0,[R0, #+0]
   \   000000E2   411C               ADDS     R1,R0,#+1
   \   000000E4   ........           LDR.W    R2,??DataTable35_14
   \   000000E8   1170               STRB     R1,[R2, #+0]
   \   000000EA   C0B2               UXTB     R0,R0            ;; ZeroExt  R0,R0,#+24,#+24
   \   000000EC   0B28               CMP      R0,#+11
   \   000000EE   16D3               BCC.N    ??SpeedCheck_12
    765                    {
    766                         for( i = 0 ; i < MAX_SPEED_BUFFERCOUNT ; i++)
   \   000000F0   5FF00008           MOVS     R8,#+0
   \   000000F4   08E0               B.N      ??SpeedCheck_13
    767                         {
    768                              SPEED_Buffer[i] = 0;
   \                     ??SpeedCheck_14:
   \   000000F6   5FFA88F8           UXTB     R8,R8            ;; ZeroExt  R8,R8,#+24,#+24
   \   000000FA   ........           LDR.W    R0,??DataTable35_9
   \   000000FE   0021               MOVS     R1,#+0
   \   00000100   40F82810           STR      R1,[R0, R8, LSL #+2]
    769                         }
   \   00000104   18F10108           ADDS     R8,R8,#+1
   \                     ??SpeedCheck_13:
   \   00000108   5FFA88F8           UXTB     R8,R8            ;; ZeroExt  R8,R8,#+24,#+24
   \   0000010C   B8F10A0F           CMP      R8,#+10
   \   00000110   F1D3               BCC.N    ??SpeedCheck_14
    770                         Speed_Avr = 0;
   \   00000112   0024               MOVS     R4,#+0
    771                         error_flg3 = 1;
   \   00000114   ........           LDR.W    R0,??DataTable35_15
   \   00000118   0121               MOVS     R1,#+1
   \   0000011A   0170               STRB     R1,[R0, #+0]
   \   0000011C   2DE0               B.N      ??SpeedCheck_15
    772                    }
    773                    else if( Low_Count % 5 == 0 )          // Hz가 낮을경우 버퍼 동기화
   \                     ??SpeedCheck_12:
   \   0000011E   ........           LDR.W    R0,??DataTable35_14
   \   00000122   0078               LDRB     R0,[R0, #+0]
   \   00000124   0521               MOVS     R1,#+5
   \   00000126   90FBF1F2           SDIV     R2,R0,R1
   \   0000012A   01FB1200           MLS      R0,R1,R2,R0
   \   0000012E   0028               CMP      R0,#+0
   \   00000130   23D1               BNE.N    ??SpeedCheck_15
    774                    {
    775          //               for( i = 0 ; i < MAX_RPMSPEED_BUFFERCOUNT ; i++)
    776          //               {
    777          //                    SPEED_Buffer[i] = Speed_Avr2 ;                    
    778          //               }               
    779                         Speed_Avr = Speed_Avr2 * MAX_SPEED_BUFFERCOUNT * 2;
   \   00000132   1420               MOVS     R0,#+20
   \   00000134   00FB07F4           MUL      R4,R0,R7
    780                         error_flg = 0;
   \   00000138   0025               MOVS     R5,#+0
   \   0000013A   1EE0               B.N      ??SpeedCheck_15
    781                    }
    782               }else
    783               {
    784                    if(error_flg3 == 1)      // 2초간 데이터가 없을 경우 한번 무시
   \                     ??SpeedCheck_11:
   \   0000013C   ........           LDR.W    R0,??DataTable35_15
   \   00000140   0078               LDRB     R0,[R0, #+0]
   \   00000142   0128               CMP      R0,#+1
   \   00000144   15D1               BNE.N    ??SpeedCheck_16
    785                    {
    786                         for( i = 0 ; i < MAX_SPEED_BUFFERCOUNT ; i++)
   \   00000146   5FF00008           MOVS     R8,#+0
   \   0000014A   08E0               B.N      ??SpeedCheck_17
    787                         {
    788                              SPEED_Buffer[i] = 0;
   \                     ??SpeedCheck_18:
   \   0000014C   5FFA88F8           UXTB     R8,R8            ;; ZeroExt  R8,R8,#+24,#+24
   \   00000150   ........           LDR.W    R0,??DataTable35_9
   \   00000154   0021               MOVS     R1,#+0
   \   00000156   40F82810           STR      R1,[R0, R8, LSL #+2]
    789                         }     
   \   0000015A   18F10108           ADDS     R8,R8,#+1
   \                     ??SpeedCheck_17:
   \   0000015E   5FFA88F8           UXTB     R8,R8            ;; ZeroExt  R8,R8,#+24,#+24
   \   00000162   B8F10A0F           CMP      R8,#+10
   \   00000166   F1D3               BCC.N    ??SpeedCheck_18
    790                         Speed_Avr = 0;
   \   00000168   0024               MOVS     R4,#+0
    791                         error_flg3 = 0;
   \   0000016A   ........           LDR.W    R0,??DataTable35_15
   \   0000016E   0021               MOVS     R1,#+0
   \   00000170   0170               STRB     R1,[R0, #+0]
    792                    }               
    793                    Low_Count = 0;
   \                     ??SpeedCheck_16:
   \   00000172   ........           LDR.W    R0,??DataTable35_14
   \   00000176   0021               MOVS     R1,#+0
   \   00000178   0170               STRB     R1,[R0, #+0]
    794               }
    795          //     if(Speed_Avr != 0 )
    796          //          printf("a");
    797               if(error_flg2 > 5)
   \                     ??SpeedCheck_15:
   \   0000017A   F6B2               UXTB     R6,R6            ;; ZeroExt  R6,R6,#+24,#+24
   \   0000017C   062E               CMP      R6,#+6
   \   0000017E   00D3               BCC.N    ??SpeedCheck_19
    798                    Speed_Avr = 0;
   \   00000180   0024               MOVS     R4,#+0
    799               if( Info.RPM_Value == 0 )
   \                     ??SpeedCheck_19:
   \   00000182   ........           LDR.W    R0,??DataTable35_16
   \   00000186   B0F82D00           LDRH     R0,[R0, #+45]
   \   0000018A   0028               CMP      R0,#+0
   \   0000018C   0AD1               BNE.N    ??SpeedCheck_20
    800               {
    801                    RPM_Timer = MS_TIMER;
   \   0000018E   ........           LDR.W    R0,??DataTable35_1  ;; 0x40000c00
   \   00000192   ........           BL       TIM_GetCounter
   \   00000196   ........           LDR.W    R1,??DataTable35_17
   \   0000019A   0880               STRH     R0,[R1, #+0]
    802                    Flag.RPM1Min = 1;
   \   0000019C   ....               LDR.N    R0,??DataTable31_7
   \   0000019E   0121               MOVS     R1,#+1
   \   000001A0   8171               STRB     R1,[R0, #+6]
   \   000001A2   0BE0               B.N      ??SpeedCheck_21
    803               }
    804               else
    805               {
    806                    if(CheckTimeOver(1000,RPM_Timer))
   \                     ??SpeedCheck_20:
   \   000001A4   ........           LDR.W    R0,??DataTable35_17
   \   000001A8   0188               LDRH     R1,[R0, #+0]
   \   000001AA   4FF47A70           MOV      R0,#+1000
   \   000001AE   ........           BL       CheckTimeOver
   \   000001B2   0028               CMP      R0,#+0
   \   000001B4   02D0               BEQ.N    ??SpeedCheck_21
    807                    {
    808                         Flag.RPM1Min = 0;
   \   000001B6   ....               LDR.N    R0,??DataTable31_7
   \   000001B8   0021               MOVS     R1,#+0
   \   000001BA   8171               STRB     R1,[R0, #+6]
    809                    }
    810               }
    811          
    812               if(  error_flg < 2 )// && ( Set_Info.Speed_OUT == 1 )  )                        // SPEED출력일경우 1.4는 상수
   \                     ??SpeedCheck_21:
   \   000001BC   EDB2               UXTB     R5,R5            ;; ZeroExt  R5,R5,#+24,#+24
   \   000001BE   022D               CMP      R5,#+2
   \   000001C0   1DD2               BCS.N    ??SpeedCheck_22
    813               {    
    814                    Speed_Hz = 100000 / Speed_Avr * 2;
   \   000001C2   ........           LDR.W    R0,??DataTable35_18  ;; 0x186a0
   \   000001C6   B0FBF4F0           UDIV     R0,R0,R4
   \   000001CA   4000               LSLS     R0,R0,#+1
    815                    Speed_Hz2 = Speed_Hz / 1.481;
                                     ^
Warning[Pa093]: implicit conversion from floating point to integer
   \   000001CC   ........           BL       __aeabi_ui2d
   \   000001D0   ........           LDR.W    R2,??DataTable35_19  ;; 0xe560419
   \   000001D4   ........           LDR.W    R3,??DataTable35_20  ;; 0x3ff7b22d
   \   000001D8   ........           BL       __aeabi_ddiv
   \   000001DC   ........           BL       __aeabi_d2uiz
    816                    Speed_Change = 5000 / Speed_Hz2;
   \   000001E0   41F28831           MOVW     R1,#+5000
   \   000001E4   B1FBF0F1           UDIV     R1,R1,R0
    817            
    818                    if(Speed_Change < 65535 && Speed_Change > 1)
   \   000001E8   881E               SUBS     R0,R1,#+2
   \   000001EA   4FF6FD72           MOVW     R2,#+65533
   \   000001EE   80B2               UXTH     R0,R0            ;; ZeroExt  R0,R0,#+16,#+16
   \   000001F0   9042               CMP      R0,R2
   \   000001F2   04D2               BCS.N    ??SpeedCheck_22
    819                    {           
    820                         TIM_SetAutoreload(TIM8,Speed_Change);         
   \   000001F4   89B2               UXTH     R1,R1            ;; ZeroExt  R1,R1,#+16,#+16
   \   000001F6   ........           LDR.W    R0,??DataTable35_4  ;; 0x40010400
   \   000001FA   ........           BL       TIM_SetAutoreload
    821                    }
    822               }
    823               
    824               if( error_flg < 2 )
   \                     ??SpeedCheck_22:
   \   000001FE   EDB2               UXTB     R5,R5            ;; ZeroExt  R5,R5,#+24,#+24
   \   00000200   022D               CMP      R5,#+2
   \   00000202   14D2               BCS.N    ??SpeedCheck_23
    825               {
    826                    u32 SpeedTmp ;
    827                    
    828                    SpeedTmp = (unsigned int)( Set_Info.SPEED_Adjust * 1000) / Speed_Avr;   
   \   00000204   ........           LDR.W    R0,??DataTable35_21
   \   00000208   D0F80500           LDR      R0,[R0, #+5]
   \   0000020C   4FF47A71           MOV      R1,#+1000
   \   00000210   4843               MULS     R0,R1,R0
   \   00000212   B0FBF4F0           UDIV     R0,R0,R4
    829                    if(SpeedTmp > 255)
   \   00000216   FF28               CMP      R0,#+255
   \   00000218   05D9               BLS.N    ??SpeedCheck_24
    830                         Info.SPEED_Value = 255;
   \   0000021A   ........           LDR.W    R0,??DataTable35_16
   \   0000021E   FF21               MOVS     R1,#+255
   \   00000220   80F82C10           STRB     R1,[R0, #+44]
   \   00000224   03E0               B.N      ??SpeedCheck_23
    831                    else
    832                         Info.SPEED_Value = SpeedTmp;
   \                     ??SpeedCheck_24:
   \   00000226   ........           LDR.W    R1,??DataTable35_16
   \   0000022A   81F82C00           STRB     R0,[R1, #+44]
    833               }
    834          //     printf("%d %d %d %d\r\n",Speed_Hz, Info.SPEED_Value, Low_Count, error_flg);
    835               if(Speed_Check_Count > 9)
   \                     ??SpeedCheck_23:
   \   0000022E   ........           LDR.W    R0,??DataTable36
   \   00000232   0078               LDRB     R0,[R0, #+0]
   \   00000234   0A28               CMP      R0,#+10
   \   00000236   0AD3               BCC.N    ??SpeedCheck_25
    836               {          
    837                    Speed_Check_Count = 0;
   \   00000238   ........           LDR.W    R0,??DataTable36
   \   0000023C   0021               MOVS     R1,#+0
   \   0000023E   0170               STRB     R1,[R0, #+0]
    838                    memcpy(&Speed_Buffer2,&Speed_Buffer1,sizeof(Speed_Buffer1));          
   \   00000240   0A22               MOVS     R2,#+10
   \   00000242   ........           LDR.W    R1,??DataTable36_1
   \   00000246   ........           LDR.W    R0,??DataTable36_2
   \   0000024A   ........           BL       memcpy
    839               }
    840               Speed_Buffer1[Speed_Check_Count++] = Info.SPEED_Value;
   \                     ??SpeedCheck_25:
   \   0000024E   ........           LDR.W    R0,??DataTable36
   \   00000252   0078               LDRB     R0,[R0, #+0]
   \   00000254   ........           LDR.W    R1,??DataTable36_1
   \   00000258   ........           LDR.W    R2,??DataTable35_16
   \   0000025C   92F82C20           LDRB     R2,[R2, #+44]
   \   00000260   4254               STRB     R2,[R0, R1]
   \   00000262   ........           LDR.W    R0,??DataTable36
   \   00000266   0078               LDRB     R0,[R0, #+0]
   \   00000268   401C               ADDS     R0,R0,#+1
   \   0000026A   ........           LDR.W    R1,??DataTable36
   \   0000026E   0870               STRB     R0,[R1, #+0]
    841               SPEED_Check = 0;
   \   00000270   ........           LDR.W    R0,??DataTable35_13
   \   00000274   0021               MOVS     R1,#+0
   \   00000276   0170               STRB     R1,[R0, #+0]
    842               SPEED_Count = 0;
   \   00000278   ........           LDR.W    R0,??DataTable35_7
   \   0000027C   0021               MOVS     R1,#+0
   \   0000027E   0160               STR      R1,[R0, #+0]
    843               // LOG -------------------------------------------------------------------------
    844               // 로그 기록단위 500ms 
    845               // 1.입력받은 갯수
    846               // 2. 평균 입력값
    847               // 3. SPPED 값          
    848          //     if(LOGWRITE & LOG_SPEED)                       
    849          //     {
    850          //          sprintf((char *)Buffer,"SPEED %03d/%5d/%04d/%d\r\n ",Count,Speed_Avr,Info.SPEED_Value,Set_Info.SPEED_Adjust); 
    851          //          Write_Log(Buffer, NORMAL_LOG);
    852          //     }            
    853               // -----------------------------------------------------------------------------
    854          
    855          }
   \                     ??SpeedCheck_0:
   \   00000280   BDE8F183           POP      {R0,R4-R9,PC}    ;; return

   \                                 In section .bss, align 2
   \                     ??SPEED_Timer_1:
   \   00000000                      DS8 2

   \                                 In section .bss, align 2
   \                     ??RPM_Timer:
   \   00000000                      DS8 2

   \                                 In section .bss, align 1
   \                     ??Low_Count:
   \   00000000                      DS8 1

   \                                 In section .bss, align 1
   \                     ??error_flg3:
   \   00000000                      DS8 1
    856          
    857          /*=============================================================================
    858          
    859          RPM는 50hz 일때 1000rpm / 100hz 일때 2000rpm
    860          
    861          =============================================================================*/
    862          

   \                                 In section .text, align 2, keep-with-next
    863          void RPMCheck(void)
    864          {
   \                     RPMCheck:
   \   00000000   2DE9F041           PUSH     {R4-R8,LR}
    865               //  RPM은 현대 50hz 일때 1000rpm        // 상수 4000000
    866              //        대우 200hz 일때 1000rpm        // 상수 1000000
    867               static u16 RPM_Timer;
    868               u8 Count;
    869               u8 i;
    870               u32 RPM_Avr;  
    871               static u8 Low_Count = 0;
    872          
    873               u8 error_flg ;
    874               float compare_value ;
    875               
    876               if(!CheckTimeOver( 100,RPM_Timer))      // 100ms 이하로 떨어지면 늦은 알피엠이 측정이 안된다. 10일경우 잘안된다.
   \   00000004   ........           LDR.W    R0,??DataTable37
   \   00000008   0188               LDRH     R1,[R0, #+0]
   \   0000000A   6420               MOVS     R0,#+100
   \   0000000C   ........           BL       CheckTimeOver
   \   00000010   0028               CMP      R0,#+0
   \   00000012   7DD0               BEQ.N    ??RPMCheck_0
    877                    return;      
    878               RPM_Timer = MS_TIMER; 
   \                     ??RPMCheck_1:
   \   00000014   ........           LDR.W    R0,??DataTable35_1  ;; 0x40000c00
   \   00000018   ........           BL       TIM_GetCounter
   \   0000001C   ........           LDR.W    R1,??DataTable37
   \   00000020   0880               STRH     R0,[R1, #+0]
    879               // 실제 RPM 처리루틴
    880               RPM_Avr = 0;
   \   00000022   0024               MOVS     R4,#+0
    881               Count = RPM_Count;
   \   00000024   ........           LDR.W    R0,??DataTable37_1
   \   00000028   0568               LDR      R5,[R0, #+0]
    882               
    883               error_flg = 1 ;
   \   0000002A   0126               MOVS     R6,#+1
    884               for( i = 0 ; i < MAX_RPM_BUFFERCOUNT ; i++ )
   \   0000002C   0027               MOVS     R7,#+0
   \   0000002E   00E0               B.N      ??RPMCheck_2
   \                     ??RPMCheck_3:
   \   00000030   7F1C               ADDS     R7,R7,#+1
   \                     ??RPMCheck_2:
   \   00000032   FFB2               UXTB     R7,R7            ;; ZeroExt  R7,R7,#+24,#+24
   \   00000034   142F               CMP      R7,#+20
   \   00000036   2AD2               BCS.N    ??RPMCheck_4
    885               {
    886                    if(Count == 0 )
   \   00000038   EDB2               UXTB     R5,R5            ;; ZeroExt  R5,R5,#+24,#+24
   \   0000003A   002D               CMP      R5,#+0
   \   0000003C   05D1               BNE.N    ??RPMCheck_5
    887                         RPM_Buffer[i] = 0 ;
   \   0000003E   FFB2               UXTB     R7,R7            ;; ZeroExt  R7,R7,#+24,#+24
   \   00000040   ........           LDR.W    R0,??DataTable37_2
   \   00000044   0021               MOVS     R1,#+0
   \   00000046   40F82710           STR      R1,[R0, R7, LSL #+2]
    888                    RPM_Avr += RPM_Buffer[i];
   \                     ??RPMCheck_5:
   \   0000004A   FFB2               UXTB     R7,R7            ;; ZeroExt  R7,R7,#+24,#+24
   \   0000004C   ........           LDR.W    R0,??DataTable37_2
   \   00000050   50F82700           LDR      R0,[R0, R7, LSL #+2]
   \   00000054   0419               ADDS     R4,R0,R4
    889          
    890                    compare_value = (float)((float)RPM_Buffer[0] / (float)RPM_Buffer[i]) ;                         
   \   00000056   ........           LDR.W    R0,??DataTable37_2
   \   0000005A   0068               LDR      R0,[R0, #+0]
   \   0000005C   ........           BL       __aeabi_ui2f
   \   00000060   8046               MOV      R8,R0
   \   00000062   FFB2               UXTB     R7,R7            ;; ZeroExt  R7,R7,#+24,#+24
   \   00000064   ........           LDR.W    R0,??DataTable37_2
   \   00000068   50F82700           LDR      R0,[R0, R7, LSL #+2]
   \   0000006C   ........           BL       __aeabi_ui2f
   \   00000070   0100               MOVS     R1,R0
   \   00000072   4046               MOV      R0,R8
   \   00000074   ........           BL       __aeabi_fdiv
    891                    if((compare_value > 1.5) || (compare_value < 0.5))
   \   00000078   ........           LDR.W    R1,??DataTable35_12  ;; 0x3fc00001
   \   0000007C   ........           BL       __aeabi_cfrcmple
   \   00000080   04D9               BLS.N    ??RPMCheck_6
   \   00000082   5FF07C51           MOVS     R1,#+1056964608
   \   00000086   ........           BL       __aeabi_cfcmple
   \   0000008A   D1D2               BCS.N    ??RPMCheck_3
    892                    {   
    893                      error_flg =  0 ;
   \                     ??RPMCheck_6:
   \   0000008C   0026               MOVS     R6,#+0
    894                      break ;
    895                    }
    896               }
    897          
    898               if(Count == 0)      // 입력이 없을때 반드시 0으로 클리어 시켜줘야한다.
   \                     ??RPMCheck_4:
   \   0000008E   EDB2               UXTB     R5,R5            ;; ZeroExt  R5,R5,#+24,#+24
   \   00000090   002D               CMP      R5,#+0
   \   00000092   11D1               BNE.N    ??RPMCheck_7
    899               {          
    900                    Low_Count++;
   \   00000094   ........           LDR.W    R0,??DataTable37_3
   \   00000098   0078               LDRB     R0,[R0, #+0]
   \   0000009A   401C               ADDS     R0,R0,#+1
   \   0000009C   ........           LDR.W    R1,??DataTable37_3
   \   000000A0   0870               STRB     R0,[R1, #+0]
    901                    if( Low_Count > 30 )
   \   000000A2   ........           LDR.W    R0,??DataTable37_3
   \   000000A6   0078               LDRB     R0,[R0, #+0]
   \   000000A8   1F28               CMP      R0,#+31
   \   000000AA   09D3               BCC.N    ??RPMCheck_8
    902                    {
    903                         Low_Count = 30;
   \   000000AC   ........           LDR.W    R0,??DataTable37_3
   \   000000B0   1E21               MOVS     R1,#+30
   \   000000B2   0170               STRB     R1,[R0, #+0]
    904                         RPM_Avr = 0;
   \   000000B4   0024               MOVS     R4,#+0
   \   000000B6   03E0               B.N      ??RPMCheck_8
    905                    }
    906               }else 
    907               {
    908                    Low_Count = 0;
   \                     ??RPMCheck_7:
   \   000000B8   ........           LDR.W    R0,??DataTable37_3
   \   000000BC   0021               MOVS     R1,#+0
   \   000000BE   0170               STRB     R1,[R0, #+0]
    909               }
    910               
    911               if((error_flg == 1 ) || ( Low_Count >= 30 ))
   \                     ??RPMCheck_8:
   \   000000C0   F6B2               UXTB     R6,R6            ;; ZeroExt  R6,R6,#+24,#+24
   \   000000C2   012E               CMP      R6,#+1
   \   000000C4   04D0               BEQ.N    ??RPMCheck_9
   \   000000C6   ........           LDR.W    R0,??DataTable37_3
   \   000000CA   0078               LDRB     R0,[R0, #+0]
   \   000000CC   1E28               CMP      R0,#+30
   \   000000CE   1BD3               BCC.N    ??RPMCheck_10
    912               {
    913                    if( Set_Info.RPM_Adjust != 0)
   \                     ??RPMCheck_9:
   \   000000D0   ........           LDR.W    R0,??DataTable35_21
   \   000000D4   D0F80100           LDR      R0,[R0, #+1]
   \   000000D8   0028               CMP      R0,#+0
   \   000000DA   0DD0               BEQ.N    ??RPMCheck_11
    914                         Info.RPM_Value =  (unsigned int)(Set_Info.RPM_Adjust * 2000) / RPM_Avr;
   \   000000DC   ........           LDR.W    R0,??DataTable35_21
   \   000000E0   D0F80100           LDR      R0,[R0, #+1]
   \   000000E4   4FF4FA61           MOV      R1,#+2000
   \   000000E8   4843               MULS     R0,R1,R0
   \   000000EA   B0FBF4F0           UDIV     R0,R0,R4
   \   000000EE   ........           LDR.W    R1,??DataTable35_16
   \   000000F2   A1F82D00           STRH     R0,[R1, #+45]
   \   000000F6   07E0               B.N      ??RPMCheck_10
    915                    else
    916                         Info.RPM_Value =  (unsigned int)(1000 * 2000) / RPM_Avr;               
   \                     ??RPMCheck_11:
   \   000000F8   ........           LDR.W    R0,??DataTable37_4  ;; 0x1e8480
   \   000000FC   B0FBF4F0           UDIV     R0,R0,R4
   \   00000100   ........           LDR.W    R1,??DataTable35_16
   \   00000104   A1F82D00           STRH     R0,[R1, #+45]
    917               }
    918          
    919               RPM_Count = 0;
   \                     ??RPMCheck_10:
   \   00000108   ........           LDR.W    R0,??DataTable37_1
   \   0000010C   0021               MOVS     R1,#+0
   \   0000010E   0160               STR      R1,[R0, #+0]
    920               
    921               // LOG -------------------------------------------------------------------------
    922               // 로그 기록단위 500ms 
    923               // 1.입력받은 갯수
    924               // 2. 평균 입력값
    925               // 3. RPM 값
    926          //     if(LOGWRITE & LOG_RPM)
    927          //     {
    928          //          sprintf((char*)Buffer,"RPM %03d/%5d/%04d/%d\r\n ",Count, RPM_Avr, Info.RPM_Value,Set_Info.RPM_Adjust); 
    929          //          Write_Log(Buffer, NORMAL_LOG);
    930          //     }
    931               // -----------------------------------------------------------------------------
    932               
    933          }
   \                     ??RPMCheck_0:
   \   00000110   BDE8F081           POP      {R4-R8,PC}       ;; return

   \                                 In section .bss, align 2
   \                     ??RPM_Timer_1:
   \   00000000                      DS8 2

   \                                 In section .bss, align 1
   \                     ??Low_Count_1:
   \   00000000                      DS8 1

   \                                 In section .text, align 2, keep-with-next
    934          void LPGPWM_Check(void)
    935          {
   \                     LPGPWM_Check:
   \   00000000   80B5               PUSH     {R7,LR}
    936               static u16 LPGPWM_Timer =0;
    937               u8 i;
    938               u32 Avr_Value;
    939               
    940               if(!CheckTimeOver( 1000 , LPGPWM_Timer))
   \   00000002   ........           LDR.W    R0,??DataTable37_5
   \   00000006   0188               LDRH     R1,[R0, #+0]
   \   00000008   4FF47A70           MOV      R0,#+1000
   \   0000000C   ........           BL       CheckTimeOver
   \   00000010   0028               CMP      R0,#+0
   \   00000012   24D0               BEQ.N    ??LPGPWM_Check_0
    941                    return;      
    942               LPGPWM_Timer = MS_TIMER;      
   \                     ??LPGPWM_Check_1:
   \   00000014   ........           LDR.W    R0,??DataTable35_1  ;; 0x40000c00
   \   00000018   ........           BL       TIM_GetCounter
   \   0000001C   ........           LDR.W    R1,??DataTable37_5
   \   00000020   0880               STRH     R0,[R1, #+0]
    943          
    944               Avr_Value = 0;
   \   00000022   0021               MOVS     R1,#+0
    945               for ( i = 0 ; i < 10 ; i++)
   \   00000024   0020               MOVS     R0,#+0
   \   00000026   06E0               B.N      ??LPGPWM_Check_2
    946               {
    947                    Avr_Value += LPGBuffer[i];
   \                     ??LPGPWM_Check_3:
   \   00000028   C0B2               UXTB     R0,R0            ;; ZeroExt  R0,R0,#+24,#+24
   \   0000002A   ........           LDR.W    R2,??DataTable37_6
   \   0000002E   52F82020           LDR      R2,[R2, R0, LSL #+2]
   \   00000032   5118               ADDS     R1,R2,R1
    948               }
   \   00000034   401C               ADDS     R0,R0,#+1
   \                     ??LPGPWM_Check_2:
   \   00000036   C0B2               UXTB     R0,R0            ;; ZeroExt  R0,R0,#+24,#+24
   \   00000038   0A28               CMP      R0,#+10
   \   0000003A   F5D3               BCC.N    ??LPGPWM_Check_3
    949               if(LPG_Count == 0)
   \   0000003C   ........           LDR.W    R0,??DataTable37_7
   \   00000040   0078               LDRB     R0,[R0, #+0]
   \   00000042   0028               CMP      R0,#+0
   \   00000044   00D1               BNE.N    ??LPGPWM_Check_4
    950                    Avr_Value = 0;
   \   00000046   0021               MOVS     R1,#+0
    951               
    952               Info.EMS_Data.LPG_PWM_Value = Avr_Value / 10;	
   \                     ??LPGPWM_Check_4:
   \   00000048   0A20               MOVS     R0,#+10
   \   0000004A   B1FBF0F0           UDIV     R0,R1,R0
   \   0000004E   ........           LDR.W    R1,??DataTable35_16
   \   00000052   A1F84900           STRH     R0,[R1, #+73]
    953               LPG_Count = 0;
   \   00000056   ........           LDR.W    R0,??DataTable37_7
   \   0000005A   0021               MOVS     R1,#+0
   \   0000005C   0170               STRB     R1,[R0, #+0]
    954          }     
   \                     ??LPGPWM_Check_0:
   \   0000005E   01BD               POP      {R0,PC}          ;; return

   \                                 In section .bss, align 2
   \                     ??LPGPWM_Timer:
   \   00000000                      DS8 2
    955          

   \                                 In section .text, align 2, keep-with-next
    956          void Infomation_Process(void)
    957          {
   \                     Infomation_Process:
   \   00000000   70B5               PUSH     {R4-R6,LR}
    958               static u16 IO_Check_Timer = 0;
    959               static u16 IO_Check_Timer2 = 0;
    960          
    961               u16 i;
    962          //     static u8 Count = 0;
    963          //     
    964          //     static u16 InCre = 0;
    965          //     static u16 Accident_Cnt2 = 0;
    966               
    967               if(!CheckTimeOver(10,IO_Check_Timer))
   \   00000002   ........           LDR.W    R0,??DataTable37_8
   \   00000006   0188               LDRH     R1,[R0, #+0]
   \   00000008   0A20               MOVS     R0,#+10
   \   0000000A   ........           BL       CheckTimeOver
   \   0000000E   0028               CMP      R0,#+0
   \   00000010   00F0BA81           BEQ.W    ??Infomation_Process_0
    968                    return;      
    969               IO_Check_Timer = MS_TIMER;
   \                     ??Infomation_Process_1:
   \   00000014   ........           LDR.W    R0,??DataTable35_1  ;; 0x40000c00
   \   00000018   ........           BL       TIM_GetCounter
   \   0000001C   ........           LDR.W    R1,??DataTable37_8
   \   00000020   0880               STRH     R0,[R1, #+0]
    970               // -- 실시간으로 수신해야 하는 목록들
    971               
    972               // 인포 시간 데이터 저장 시간에서 데이터는 u32로 변환한다.
    973               Info.Datetime = SYSTEM_TIME_BINARY;     
   \   00000022   ........           LDR.W    R0,??DataTable35_16
   \   00000026   ........           LDR.W    R1,??DataTable37_9
   \   0000002A   0968               LDR      R1,[R1, #+0]
   \   0000002C   8162               STR      R1,[R0, #+40]
    974               if ( (Info.Input_Status& INPUT_BREAK_FLAG)  )
   \   0000002E   ........           LDR.W    R0,??DataTable35_16
   \   00000032   90F85500           LDRB     R0,[R0, #+85]
   \   00000036   C007               LSLS     R0,R0,#+31
   \   00000038   05D5               BPL.N    ??Infomation_Process_2
    975               {          
    976                    Info.Sign_Break = 1;	
   \   0000003A   ........           LDR.W    R0,??DataTable35_16
   \   0000003E   0121               MOVS     R1,#+1
   \   00000040   80F82F10           STRB     R1,[R0, #+47]
   \   00000044   04E0               B.N      ??Infomation_Process_3
    977               }else
    978               {
    979                    Info.Sign_Break = 0;
   \                     ??Infomation_Process_2:
   \   00000046   ........           LDR.W    R0,??DataTable35_16
   \   0000004A   0021               MOVS     R1,#+0
   \   0000004C   80F82F10           STRB     R1,[R0, #+47]
    980               }
    981               Info.EMS_Data.Tilt_X = TiltInfo.DegX;
   \                     ??Infomation_Process_3:
   \   00000050   ........           LDR.W    R0,??DataTable35_16
   \   00000054   ........           LDR.W    R1,??DataTable37_10
   \   00000058   098A               LDRH     R1,[R1, #+16]
   \   0000005A   80F84B10           STRB     R1,[R0, #+75]
    982               Info.EMS_Data.Tilt_Y = TiltInfo.DegY;
   \   0000005E   ........           LDR.W    R0,??DataTable35_16
   \   00000062   ........           LDR.W    R1,??DataTable37_10
   \   00000066   498A               LDRH     R1,[R1, #+18]
   \   00000068   80F84C10           STRB     R1,[R0, #+76]
    983               
    984               Info.AccelX = TiltInfo.AccelX;
   \   0000006C   ........           LDR.W    R0,??DataTable35_16
   \   00000070   ........           LDR.W    R1,??DataTable37_10
   \   00000074   898A               LDRH     R1,[R1, #+20]
   \   00000076   4187               STRH     R1,[R0, #+58]
    985               Info.AccelY = TiltInfo.AccelY;
   \   00000078   ........           LDR.W    R0,??DataTable35_16
   \   0000007C   ........           LDR.W    R1,??DataTable37_10
   \   00000080   C98A               LDRH     R1,[R1, #+22]
   \   00000082   8187               STRH     R1,[R0, #+60]
    986               
    987               //Info.Input_Status = INPUT_DATA;
    988               Info.Output_Status = OUTPUT_DATA;   
   \   00000084   ........           LDR.W    R0,??DataTable35_16
   \   00000088   ........           LDR.W    R1,??DataTable37_11
   \   0000008C   0978               LDRB     R1,[R1, #+0]
   \   0000008E   80F85710           STRB     R1,[R0, #+87]
    989               
    990               
    991               Accident_Buffer[AccidentPoint].Speed = Info.SPEED_Value;
   \   00000092   ........           LDR.W    R0,??DataTable37_12
   \   00000096   0088               LDRH     R0,[R0, #+0]
   \   00000098   ........           LDR.W    R1,??DataTable37_13
   \   0000009C   ........           LDR.W    R2,??DataTable35_16
   \   000000A0   92F82C20           LDRB     R2,[R2, #+44]
   \   000000A4   01F83020           STRB     R2,[R1, R0, LSL #+3]
    992               Accident_Buffer[AccidentPoint].RPM = Info.RPM_Value;
   \   000000A8   ........           LDR.W    R0,??DataTable37_12
   \   000000AC   0088               LDRH     R0,[R0, #+0]
   \   000000AE   ........           LDR.W    R1,??DataTable37_13
   \   000000B2   11EBC000           ADDS     R0,R1,R0, LSL #+3
   \   000000B6   ........           LDR.W    R1,??DataTable35_16
   \   000000BA   B1F82D10           LDRH     R1,[R1, #+45]
   \   000000BE   A0F80110           STRH     R1,[R0, #+1]
    993               Accident_Buffer[AccidentPoint].Sign_Break = Info.Sign_Break;
   \   000000C2   ........           LDR.W    R0,??DataTable37_12
   \   000000C6   0088               LDRH     R0,[R0, #+0]
   \   000000C8   ........           LDR.W    R1,??DataTable37_13
   \   000000CC   11EBC000           ADDS     R0,R1,R0, LSL #+3
   \   000000D0   ........           LDR.W    R1,??DataTable35_16
   \   000000D4   91F82F10           LDRB     R1,[R1, #+47]
   \   000000D8   C170               STRB     R1,[R0, #+3]
    994               Accident_Buffer[AccidentPoint].AccelX = Info.AccelX;
   \   000000DA   ........           LDR.W    R0,??DataTable37_12
   \   000000DE   0088               LDRH     R0,[R0, #+0]
   \   000000E0   ........           LDR.W    R1,??DataTable37_13
   \   000000E4   11EBC000           ADDS     R0,R1,R0, LSL #+3
   \   000000E8   ........           LDR.W    R1,??DataTable35_16
   \   000000EC   498F               LDRH     R1,[R1, #+58]
   \   000000EE   8180               STRH     R1,[R0, #+4]
    995               Accident_Buffer[AccidentPoint].AccelY = Info.AccelY;
   \   000000F0   ........           LDR.W    R0,??DataTable37_12
   \   000000F4   0088               LDRH     R0,[R0, #+0]
   \   000000F6   ........           LDR.W    R1,??DataTable37_13
   \   000000FA   11EBC000           ADDS     R0,R1,R0, LSL #+3
   \   000000FE   ........           LDR.W    R1,??DataTable35_16
   \   00000102   898F               LDRH     R1,[R1, #+60]
   \   00000104   C180               STRH     R1,[R0, #+6]
    996               AccidentPoint ++ ;     
   \   00000106   ........           LDR.W    R0,??DataTable37_12
   \   0000010A   0088               LDRH     R0,[R0, #+0]
   \   0000010C   401C               ADDS     R0,R0,#+1
   \   0000010E   ........           LDR.W    R1,??DataTable37_12
   \   00000112   0880               STRH     R0,[R1, #+0]
    997               
    998          
    999               if( Flag.Accident_Step == 0 ||  Flag.Accident_Step == 1 )        // 0 은 10초가 모이기전 // 1은 10d 모인후
   \   00000114   ........           LDR.W    R0,??DataTable35_22
   \   00000118   4079               LDRB     R0,[R0, #+5]
   \   0000011A   0028               CMP      R0,#+0
   \   0000011C   04D0               BEQ.N    ??Infomation_Process_4
   \   0000011E   ........           LDR.W    R0,??DataTable35_22
   \   00000122   4079               LDRB     R0,[R0, #+5]
   \   00000124   0128               CMP      R0,#+1
   \   00000126   12D1               BNE.N    ??Infomation_Process_5
   1000               {
   1001                    if(AccidentPoint % 1000 == 0)
   \                     ??Infomation_Process_4:
   \   00000128   ........           LDR.W    R0,??DataTable37_12
   \   0000012C   0088               LDRH     R0,[R0, #+0]
   \   0000012E   4FF47A71           MOV      R1,#+1000
   \   00000132   90FBF1F2           SDIV     R2,R0,R1
   \   00000136   01FB1200           MLS      R0,R1,R2,R0
   \   0000013A   0028               CMP      R0,#+0
   \   0000013C   24D1               BNE.N    ??Infomation_Process_6
   1002                    {
   1003                         AccidentPoint = 0;
   \   0000013E   ........           LDR.W    R0,??DataTable37_12
   \   00000142   0021               MOVS     R1,#+0
   \   00000144   0180               STRH     R1,[R0, #+0]
   1004                         Flag.Accident_Step = 1;               
   \   00000146   ....               LDR.N    R0,??DataTable35_22
   \   00000148   0121               MOVS     R1,#+1
   \   0000014A   4171               STRB     R1,[R0, #+5]
   \   0000014C   1CE0               B.N      ??Infomation_Process_6
   1005                    }
   1006               }
   1007               else if(Flag.Accident_Step == 3)  //    이벤트가 발생했다면
   \                     ??Infomation_Process_5:
   \   0000014E   ....               LDR.N    R0,??DataTable35_22
   \   00000150   4079               LDRB     R0,[R0, #+5]
   \   00000152   0328               CMP      R0,#+3
   \   00000154   18D1               BNE.N    ??Infomation_Process_6
   1008               {
   1009                    AccidentPoint ++ ;
   \   00000156   ........           LDR.W    R0,??DataTable37_12
   \   0000015A   0088               LDRH     R0,[R0, #+0]
   \   0000015C   401C               ADDS     R0,R0,#+1
   \   0000015E   ........           LDR.W    R1,??DataTable37_12
   \   00000162   0880               STRH     R0,[R1, #+0]
   1010                    if(AccidentPoint % 1000 == 0)
   \   00000164   ........           LDR.W    R0,??DataTable37_12
   \   00000168   0088               LDRH     R0,[R0, #+0]
   \   0000016A   4FF47A71           MOV      R1,#+1000
   \   0000016E   90FBF1F2           SDIV     R2,R0,R1
   \   00000172   01FB1200           MLS      R0,R1,R2,R0
   \   00000176   0028               CMP      R0,#+0
   \   00000178   06D1               BNE.N    ??Infomation_Process_6
   1011                    {
   1012                         AccidentPoint = 0;
   \   0000017A   ........           LDR.W    R0,??DataTable37_12
   \   0000017E   0021               MOVS     R1,#+0
   \   00000180   0180               STRH     R1,[R0, #+0]
   1013                         Flag.Accident_Step = 4;               
   \   00000182   ....               LDR.N    R0,??DataTable35_22
   \   00000184   0421               MOVS     R1,#+4
   \   00000186   4171               STRB     R1,[R0, #+5]
   1014                    }
   1015               }
   1016               // ---- 1초에 한번씩 수집하는 데이터 ----------------------------------
   1017               if(!CheckTimeOver(1000,IO_Check_Timer2))
   \                     ??Infomation_Process_6:
   \   00000188   ........           LDR.W    R0,??DataTable37_14
   \   0000018C   0188               LDRH     R1,[R0, #+0]
   \   0000018E   4FF47A70           MOV      R0,#+1000
   \   00000192   ........           BL       CheckTimeOver
   \   00000196   0028               CMP      R0,#+0
   \   00000198   00F0F680           BEQ.W    ??Infomation_Process_0
   1018                    return;
   1019               IO_Check_Timer2 = MS_TIMER;
   \                     ??Infomation_Process_7:
   \   0000019C   ....               LDR.N    R0,??DataTable35_1  ;; 0x40000c00
   \   0000019E   ........           BL       TIM_GetCounter
   \   000001A2   ........           LDR.W    R1,??DataTable37_14
   \   000001A6   0880               STRH     R0,[R1, #+0]
   1020               
   1021               Info.GPSX = GPSInfo.Conv.nLongitude;
   \   000001A8   ....               LDR.N    R0,??DataTable35_16
   \   000001AA   ........           LDR.W    R1,??DataTable37_15
   \   000001AE   D1F8E810           LDR      R1,[R1, #+232]
   \   000001B2   0163               STR      R1,[R0, #+48]
   1022               Info.GPSY = GPSInfo.Conv.nLatitude;
   \   000001B4   ....               LDR.N    R0,??DataTable35_16
   \   000001B6   ........           LDR.W    R1,??DataTable37_15
   \   000001BA   D1F8EC10           LDR      R1,[R1, #+236]
   \   000001BE   4163               STR      R1,[R0, #+52]
   1023               Info.Azimuth = GPSInfo.Conv.azimuth;	
   \   000001C0   ....               LDR.N    R0,??DataTable35_16
   \   000001C2   ........           LDR.W    R1,??DataTable37_15
   \   000001C6   B1F8F010           LDRH     R1,[R1, #+240]
   \   000001CA   0187               STRH     R1,[R0, #+56]
   1024               
   1025               Info.EMS_Data.Gps_HDOP = GPSInfo.Conv.HDOP;
   \   000001CC   ....               LDR.N    R0,??DataTable35_16
   \   000001CE   ........           LDR.W    R1,??DataTable37_15
   \   000001D2   B1F8F210           LDRH     R1,[R1, #+242]
   \   000001D6   A0F84F10           STRH     R1,[R0, #+79]
   1026               Info.EMS_Data.GPS_Speed = GPSInfo.Conv.GPS_Speed / 100;
   \   000001DA   ........           LDR.W    R0,??DataTable37_15
   \   000001DE   B0F8F400           LDRH     R0,[R0, #+244]
   \   000001E2   6421               MOVS     R1,#+100
   \   000001E4   90FBF1F0           SDIV     R0,R0,R1
   \   000001E8   ....               LDR.N    R1,??DataTable35_16
   \   000001EA   A1F84D00           STRH     R0,[R1, #+77]
   1027               
   1028               
   1029               
   1030               Info.DayDriveLength = (u32)( EMS_Drive_Value.Today_Speed_PulsCount * Set_Info.Distance_Adjust ) / 1000;
   \   000001EE   ....               LDR.N    R0,??DataTable35_21
   \   000001F0   D0F80940           LDR      R4,[R0, #+9]
   \   000001F4   ........           LDR.W    R0,??DataTable37_16
   \   000001F8   8068               LDR      R0,[R0, #+8]
   \   000001FA   ........           BL       __aeabi_ui2f
   \   000001FE   0100               MOVS     R1,R0
   \   00000200   2000               MOVS     R0,R4
   \   00000202   ........           BL       __aeabi_fmul
   \   00000206   ........           BL       __aeabi_f2uiz
   \   0000020A   4FF47A71           MOV      R1,#+1000
   \   0000020E   B0FBF1F0           UDIV     R0,R0,R1
   \   00000212   ....               LDR.N    R1,??DataTable35_16
   \   00000214   4883               STRH     R0,[R1, #+26]
   1031               
   1032               if(Info.EMS3Sec_Count != 0)
   \   00000216   ....               LDR.N    R0,??DataTable35_16
   \   00000218   90F85D00           LDRB     R0,[R0, #+93]
   \   0000021C   0028               CMP      R0,#+0
   \   0000021E   06D0               BEQ.N    ??Infomation_Process_8
   1033                    Info.EMS3Sec_Count --;
   \   00000220   ....               LDR.N    R0,??DataTable35_16
   \   00000222   90F85D00           LDRB     R0,[R0, #+93]
   \   00000226   401E               SUBS     R0,R0,#+1
   \   00000228   ....               LDR.N    R1,??DataTable35_16
   \   0000022A   81F85D00           STRB     R0,[R1, #+93]
   1034               if(Info.EMS3Min_Count != 0)
   \                     ??Infomation_Process_8:
   \   0000022E   ....               LDR.N    R0,??DataTable35_16
   \   00000230   90F85E00           LDRB     R0,[R0, #+94]
   \   00000234   0028               CMP      R0,#+0
   \   00000236   06D0               BEQ.N    ??Infomation_Process_9
   1035                    Info.EMS3Min_Count --;
   \   00000238   ....               LDR.N    R0,??DataTable35_16
   \   0000023A   90F85E00           LDRB     R0,[R0, #+94]
   \   0000023E   401E               SUBS     R0,R0,#+1
   \   00000240   ....               LDR.N    R1,??DataTable35_16
   \   00000242   81F85E00           STRB     R0,[R1, #+94]
   1036               
   1037               if( ACC_Drive_Value.Total_Drive_PulsCount1 > PLUS_DIVIDE)
   \                     ??Infomation_Process_9:
   \   00000246   ........           LDR.W    R0,??DataTable40
   \   0000024A   D0F80200           LDR      R0,[R0, #+2]
   \   0000024E   B0F1805F           CMP      R0,#+268435456
   \   00000252   10D9               BLS.N    ??Infomation_Process_10
   1038               {
   1039                   ACC_Drive_Value.Total_Drive_PulsCount1 -= PLUS_DIVIDE;
   \   00000254   ........           LDR.W    R0,??DataTable40
   \   00000258   D0F80200           LDR      R0,[R0, #+2]
   \   0000025C   B0F18050           SUBS     R0,R0,#+268435456
   \   00000260   ........           LDR.W    R1,??DataTable40
   \   00000264   C1F80200           STR      R0,[R1, #+2]
   1040                   ACC_Drive_Value.Total_Drive_PulsCount2++;
   \   00000268   ........           LDR.W    R0,??DataTable40
   \   0000026C   C088               LDRH     R0,[R0, #+6]
   \   0000026E   401C               ADDS     R0,R0,#+1
   \   00000270   ........           LDR.W    R1,??DataTable40
   \   00000274   C880               STRH     R0,[R1, #+6]
   1041               }     
   1042               Info.TotalDriveLength = (ACC_Drive_Value.Total_Drive_PulsCount1 * Set_Info.Distance_Adjust) / 1000;
                                            ^
Warning[Pa093]: implicit conversion from floating point to integer
   \                     ??Infomation_Process_10:
   \   00000276   ....               LDR.N    R0,??DataTable35_21
   \   00000278   D0F80940           LDR      R4,[R0, #+9]
   \   0000027C   ........           LDR.W    R0,??DataTable40
   \   00000280   D0F80200           LDR      R0,[R0, #+2]
   \   00000284   ........           BL       __aeabi_ui2f
   \   00000288   0100               MOVS     R1,R0
   \   0000028A   2000               MOVS     R0,R4
   \   0000028C   ........           BL       __aeabi_fmul
   \   00000290   ........           LDR.W    R1,??DataTable41  ;; 0x447a0000
   \   00000294   ........           BL       __aeabi_fdiv
   \   00000298   ........           BL       __aeabi_f2uiz
   \   0000029C   ....               LDR.N    R1,??DataTable35_16
   \   0000029E   C861               STR      R0,[R1, #+28]
   1043               for( i = 0 ; i < ACC_Drive_Value.Total_Drive_PulsCount2 ; i++)
   \   000002A0   0024               MOVS     R4,#+0
   \   000002A2   19E0               B.N      ??Infomation_Process_11
   1044               {
   1045                    Info.TotalDriveLength += ( ( PLUS_DIVIDE * Set_Info.Distance_Adjust ) / 1000 );     
   \                     ??Infomation_Process_12:
   \   000002A4   ....               LDR.N    R0,??DataTable35_21
   \   000002A6   D0F80950           LDR      R5,[R0, #+9]
   \   000002AA   ....               LDR.N    R0,??DataTable35_16
   \   000002AC   C069               LDR      R0,[R0, #+28]
   \   000002AE   ........           BL       __aeabi_ui2f
   \   000002B2   0600               MOVS     R6,R0
   \   000002B4   5FF09B41           MOVS     R1,#+1300234240
   \   000002B8   2800               MOVS     R0,R5
   \   000002BA   ........           BL       __aeabi_fmul
   \   000002BE   ........           LDR.W    R1,??DataTable41  ;; 0x447a0000
   \   000002C2   ........           BL       __aeabi_fdiv
   \   000002C6   0100               MOVS     R1,R0
   \   000002C8   3000               MOVS     R0,R6
   \   000002CA   ........           BL       __aeabi_fadd
   \   000002CE   ........           BL       __aeabi_f2uiz
   \   000002D2   ....               LDR.N    R1,??DataTable35_16
   \   000002D4   C861               STR      R0,[R1, #+28]
   1046               }
   \   000002D6   641C               ADDS     R4,R4,#+1
   \                     ??Infomation_Process_11:
   \   000002D8   ........           LDR.W    R0,??DataTable40
   \   000002DC   C088               LDRH     R0,[R0, #+6]
   \   000002DE   A4B2               UXTH     R4,R4            ;; ZeroExt  R4,R4,#+16,#+16
   \   000002E0   8442               CMP      R4,R0
   \   000002E2   DFD3               BCC.N    ??Infomation_Process_12
   1047               
   1048               Accident2_Buffer[AccidentPoint2].DayDriveLength = Info.DayDriveLength;
   \   000002E4   ........           LDR.W    R0,??DataTable41_1
   \   000002E8   0088               LDRH     R0,[R0, #+0]
   \   000002EA   1121               MOVS     R1,#+17
   \   000002EC   ........           LDR.W    R2,??DataTable41_2
   \   000002F0   01FB0020           MLA      R0,R1,R0,R2
   \   000002F4   ....               LDR.N    R1,??DataTable35_16
   \   000002F6   498B               LDRH     R1,[R1, #+26]
   \   000002F8   0180               STRH     R1,[R0, #+0]
   1049               Accident2_Buffer[AccidentPoint2].TotalDriveLength = Info.TotalDriveLength;
   \   000002FA   ........           LDR.W    R0,??DataTable41_1
   \   000002FE   0088               LDRH     R0,[R0, #+0]
   \   00000300   1121               MOVS     R1,#+17
   \   00000302   ........           LDR.W    R2,??DataTable41_2
   \   00000306   01FB0020           MLA      R0,R1,R0,R2
   \   0000030A   ....               LDR.N    R1,??DataTable35_16
   \   0000030C   C969               LDR      R1,[R1, #+28]
   \   0000030E   C0F80210           STR      R1,[R0, #+2]
   1050               Accident2_Buffer[AccidentPoint2].GPSX = Info.GPSX;
   \   00000312   ........           LDR.W    R0,??DataTable41_1
   \   00000316   0088               LDRH     R0,[R0, #+0]
   \   00000318   1121               MOVS     R1,#+17
   \   0000031A   ........           LDR.W    R2,??DataTable41_2
   \   0000031E   01FB0020           MLA      R0,R1,R0,R2
   \   00000322   ....               LDR.N    R1,??DataTable35_16
   \   00000324   096B               LDR      R1,[R1, #+48]
   \   00000326   C0F80610           STR      R1,[R0, #+6]
   1051               Accident2_Buffer[AccidentPoint2].GPSY = Info.GPSY;
   \   0000032A   ........           LDR.W    R0,??DataTable41_1
   \   0000032E   0088               LDRH     R0,[R0, #+0]
   \   00000330   1121               MOVS     R1,#+17
   \   00000332   ........           LDR.W    R2,??DataTable41_2
   \   00000336   01FB0020           MLA      R0,R1,R0,R2
   \   0000033A   ....               LDR.N    R1,??DataTable35_16
   \   0000033C   496B               LDR      R1,[R1, #+52]
   \   0000033E   C0F80A10           STR      R1,[R0, #+10]
   1052               Accident2_Buffer[AccidentPoint2].MachineStatus = Info.MachineStatus;       
   \   00000342   ........           LDR.W    R0,??DataTable41_1
   \   00000346   0088               LDRH     R0,[R0, #+0]
   \   00000348   1121               MOVS     R1,#+17
   \   0000034A   ........           LDR.W    R2,??DataTable41_2
   \   0000034E   01FB0020           MLA      R0,R1,R0,R2
   \   00000352   ....               LDR.N    R1,??DataTable35_16
   \   00000354   91F83E10           LDRB     R1,[R1, #+62]
   \   00000358   0174               STRB     R1,[R0, #+16]
   1053               AccidentPoint2++;     
   \   0000035A   ........           LDR.W    R0,??DataTable41_1
   \   0000035E   0088               LDRH     R0,[R0, #+0]
   \   00000360   401C               ADDS     R0,R0,#+1
   \   00000362   ........           LDR.W    R1,??DataTable41_1
   \   00000366   0880               STRH     R0,[R1, #+0]
   1054               AccidentPoint2 %= 10; 
   \   00000368   ........           LDR.W    R0,??DataTable41_1
   \   0000036C   0088               LDRH     R0,[R0, #+0]
   \   0000036E   0A21               MOVS     R1,#+10
   \   00000370   90FBF1F2           SDIV     R2,R0,R1
   \   00000374   01FB1200           MLS      R0,R1,R2,R0
   \   00000378   ........           LDR.W    R1,??DataTable41_1
   \   0000037C   0880               STRH     R0,[R1, #+0]
   1055               
   1056               // ---------------- 
   1057               // 차량 기기 상태 이상
   1058               
   1059               Info.MachineStatus = MachinStatus();
   \   0000037E   ........           BL       MachinStatus
   \   00000382   ....               LDR.N    R1,??DataTable35_16
   \   00000384   81F83E00           STRB     R0,[R1, #+62]
   1060               
   1061          }
   \                     ??Infomation_Process_0:
   \   00000388   70BD               POP      {R4-R6,PC}       ;; return

   \                                 In section .bss, align 2
   \                     ??IO_Check_Timer:
   \   00000000                      DS8 2

   \                                 In section .bss, align 2
   \                     ??IO_Check_Timer2:
   \   00000000                      DS8 2
   1062          
   1063          
   1064          

   \                                 In section .text, align 2, keep-with-next
   1065          void Battery_Check(void) 			// 자동차 운행 종료
   1066          {
   1067               static u8 Save_Flag = 0;
   1068               if( Flag.Active )return;		// 기기 활성화 플래그
   \                     Battery_Check:
   \   00000000   ....               LDR.N    R0,??DataTable35_22
   \   00000002   C079               LDRB     R0,[R0, #+7]
   \   00000004   0028               CMP      R0,#+0
   \   00000006   08D1               BNE.N    ??Battery_Check_0
   1069               if(Save_Flag == 0 )
   \                     ??Battery_Check_1:
   \   00000008   ........           LDR.W    R0,??DataTable41_3
   \   0000000C   0078               LDRB     R0,[R0, #+0]
   \   0000000E   0028               CMP      R0,#+0
   \   00000010   03D1               BNE.N    ??Battery_Check_2
   1070               {          
   1071          //          Driver_End();
   1072                    Save_Flag = 1;
   \   00000012   ........           LDR.W    R0,??DataTable41_3
   \   00000016   0121               MOVS     R1,#+1
   \   00000018   0170               STRB     R1,[R0, #+0]
   1073               }
   1074               // 현배터리 상태를 확인하여 배터리가 일정 이상 떨어지면 장치 오프로
   1075               // 인식하여 데이터 저장하기 루틴
   1076               // SFLASH 데이터 저장
   1077               // 1초데이터 남은 부분 저장
   1078          }
   \                     ??Battery_Check_2:
   \                     ??Battery_Check_0:
   \   0000001A   7047               BX       LR               ;; return

   \                                 In section .bss, align 1
   \                     ??Save_Flag:
   \   00000000                      DS8 1
   1079          
   1080          

   \                                 In section .text, align 2, keep-with-next
   1081          void Initialize(void)
   1082          {	
   \                     Initialize:
   \   00000000   80B5               PUSH     {R7,LR}
   1083          	// ----딜레이 변수 -------------------------------------------
   1084          	
   1085          	Timer_1ms = 0;  
   \   00000002   ........           LDR.W    R0,??DataTable41_4
   \   00000006   0021               MOVS     R1,#+0
   \   00000008   0180               STRH     R1,[R0, #+0]
   1086          	Timer_1Sec = 0;		// 1초타이머 타이머 5 
   \   0000000A   ....               LDR.N    R0,??DataTable35_5
   \   0000000C   0021               MOVS     R1,#+0
   \   0000000E   0180               STRH     R1,[R0, #+0]
   1087               
   1088               SYSTEM_STEP = 0;
   \   00000010   ........           LDR.W    R0,??DataTable41_5
   \   00000014   0021               MOVS     R1,#+0
   \   00000016   0180               STRH     R1,[R0, #+0]
   1089               // ---- LED 포트 ----------------------------------------------
   1090          	
   1091          	LED1_OFF();
   \   00000018   ........           BL       LED1_OFF
   1092          	LED2_OFF();
   \   0000001C   ........           BL       LED2_OFF
   1093          	
   1094          	// ------ 디스플레이 ------------------------------------------
   1095          		
   1096          	memset(&DisplayInfo,0,sizeof(DisplayInfo));	
   \   00000020   0822               MOVS     R2,#+8
   \   00000022   0021               MOVS     R1,#+0
   \   00000024   ........           LDR.W    R0,??DataTable41_6
   \   00000028   ........           BL       memset
   1097          	
   1098               DisplayInfo.Now_View = DISP_INTRO;     
   \   0000002C   ........           LDR.W    R0,??DataTable41_6
   \   00000030   0221               MOVS     R1,#+2
   \   00000032   4171               STRB     R1,[R0, #+5]
   1099               Voice_Set_Volume(SFLASH_Memory.Voice_Volume);          // SFLASH에 저장된 값으로 세팅
   \   00000034   ........           LDR.W    R0,??DataTable41_7
   \   00000038   90F8A300           LDRB     R0,[R0, #+163]
   \   0000003C   ........           BL       Voice_Set_Volume
   1100               
   1101          	// ---- 시간및 거리 초기화 -----------------------------------
   1102          
   1103          //     Info.Today_Speed_PulsCount = 0;     
   1104               
   1105               // ---------------------------------------------------------------
   1106               
   1107               Flag.Driver_Change = 0;       // 운전자 변경 플래그               
   \   00000040   ........           LDR.W    R0,??DataTable41_8
   \   00000044   0021               MOVS     R1,#+0
   \   00000046   4172               STRB     R1,[R0, #+9]
   1108               Flag.WatchDog = 0;         // 와치독 플래그            
   \   00000048   ........           LDR.W    R0,??DataTable41_8
   \   0000004C   0021               MOVS     R1,#+0
   \   0000004E   0172               STRB     R1,[R0, #+8]
   1109               
   1110               memset(Info.Driver_Num,0x30,sizeof(Info.Driver_Num) - 1);            // 처음 운전자 아이디 0으로 클리어 
   \   00000050   1222               MOVS     R2,#+18
   \   00000052   3021               MOVS     R1,#+48
   \   00000054   ........           LDR.W    R0,??DataTable41_9
   \   00000058   ........           BL       memset
   1111                  
   1112               Info.Driver_Index = NO_DRIVER;    
   \   0000005C   ....               LDR.N    R0,??DataTable35_16
   \   0000005E   FF21               MOVS     R1,#+255
   \   00000060   0170               STRB     R1,[R0, #+0]
   1113               Flag.Machine_Error = 0;                 // 정상
   \   00000062   ........           LDR.W    R0,??DataTable41_8
   \   00000066   0021               MOVS     R1,#+0
   \   00000068   8174               STRB     R1,[R0, #+18]
   1114               
   1115          }
   \   0000006A   01BD               POP      {R0,PC}          ;; return

   \                                 In section .text, align 2, keep-with-next
   1116          u8 MachinStatus(void)
   1117          {
   1118               if (!Info.GPSX) return 11;
   \                     MachinStatus:
   \   00000000   ....               LDR.N    R0,??DataTable35_16
   \   00000002   006B               LDR      R0,[R0, #+48]
   \   00000004   0028               CMP      R0,#+0
   \   00000006   01D1               BNE.N    ??MachinStatus_0
   \   00000008   0B20               MOVS     R0,#+11
   \   0000000A   18E0               B.N      ??MachinStatus_1
   1119               if (Info.SPEED_Value == 0 && Info.EMS_Data.GPS_Speed  != 0) return 12;
   \                     ??MachinStatus_0:
   \   0000000C   ....               LDR.N    R0,??DataTable35_16
   \   0000000E   90F82C00           LDRB     R0,[R0, #+44]
   \   00000012   0028               CMP      R0,#+0
   \   00000014   06D1               BNE.N    ??MachinStatus_2
   \   00000016   ....               LDR.N    R0,??DataTable35_16
   \   00000018   B0F84D00           LDRH     R0,[R0, #+77]
   \   0000001C   0028               CMP      R0,#+0
   \   0000001E   01D0               BEQ.N    ??MachinStatus_2
   \   00000020   0C20               MOVS     R0,#+12
   \   00000022   0CE0               B.N      ??MachinStatus_1
   1120               if (Info.SPEED_Value != 0 && Info.RPM_Value == 0) return 13;
   \                     ??MachinStatus_2:
   \   00000024   ....               LDR.N    R0,??DataTable35_16
   \   00000026   90F82C00           LDRB     R0,[R0, #+44]
   \   0000002A   0028               CMP      R0,#+0
   \   0000002C   06D0               BEQ.N    ??MachinStatus_3
   \   0000002E   ....               LDR.N    R0,??DataTable35_16
   \   00000030   B0F82D00           LDRH     R0,[R0, #+45]
   \   00000034   0028               CMP      R0,#+0
   \   00000036   01D1               BNE.N    ??MachinStatus_3
   \   00000038   0D20               MOVS     R0,#+13
   \   0000003A   00E0               B.N      ??MachinStatus_1
   1121               
   1122          	return 0;  
   \                     ??MachinStatus_3:
   \   0000003C   0020               MOVS     R0,#+0
   \                     ??MachinStatus_1:
   \   0000003E   7047               BX       LR               ;; return
   1123          }
   1124          
   1125          

   \                                 In section .text, align 2, keep-with-next
   1126          void SetCarMaker(u8 CarMaker)
   1127          {
   1128               
   1129               switch (CarMaker)
   \                     SetCarMaker:
   \   00000000   C0B2               UXTB     R0,R0            ;; ZeroExt  R0,R0,#+24,#+24
   \   00000002   0128               CMP      R0,#+1
   \   00000004   21D0               BEQ.N    ??SetCarMaker_0
   \   00000006   C0F0A182           BCC.W    ??SetCarMaker_1
   \   0000000A   0328               CMP      R0,#+3
   \   0000000C   79D0               BEQ.N    ??SetCarMaker_2
   \   0000000E   4AD3               BCC.N    ??SetCarMaker_3
   \   00000010   0528               CMP      R0,#+5
   \   00000012   00F0D280           BEQ.W    ??SetCarMaker_4
   \   00000016   C0F0A280           BCC.W    ??SetCarMaker_5
   \   0000001A   0728               CMP      R0,#+7
   \   0000001C   00F02981           BEQ.W    ??SetCarMaker_6
   \   00000020   C0F0F980           BCC.W    ??SetCarMaker_7
   \   00000024   0928               CMP      R0,#+9
   \   00000026   00F07F81           BEQ.W    ??SetCarMaker_8
   \   0000002A   C0F05081           BCC.W    ??SetCarMaker_9
   \   0000002E   0B28               CMP      R0,#+11
   \   00000030   00F0D581           BEQ.W    ??SetCarMaker_10
   \   00000034   C0F0A581           BCC.W    ??SetCarMaker_11
   \   00000038   0D28               CMP      R0,#+13
   \   0000003A   00F02C82           BEQ.W    ??SetCarMaker_12
   \   0000003E   C0F0FC81           BCC.W    ??SetCarMaker_13
   \   00000042   0E28               CMP      R0,#+14
   \   00000044   00F05582           BEQ.W    ??SetCarMaker_14
   \   00000048   80E2               B.N      ??SetCarMaker_1
   1130               {
   1131               case 1:        // 현대 2006
   1132                    {               
   1133                         SFLASH_Memory.IO_Reverser = INPUT_GEAR_FLAG | INPUT_F_DOOR_FLAG |INPUT_R_DOOR_FLAG| INPUT_RLIGHT_FLAG | INPUT_LLIGHT_FLAG;          
   \                     ??SetCarMaker_0:
   \   0000004A   ........           LDR.W    R0,??DataTable41_7
   \   0000004E   7A21               MOVS     R1,#+122
   \   00000050   A0F8A010           STRH     R1,[R0, #+160]
   1134                         SFLASH_Memory.RPM_Adjust = 4000;             // 1000RPM / 200hz          
   \   00000054   ........           LDR.W    R0,??DataTable41_7
   \   00000058   4FF47A61           MOV      R1,#+4000
   \   0000005C   0166               STR      R1,[R0, #+96]
   1135                         SFLASH_Memory.SPEED_Adjust = 150;
   \   0000005E   ........           LDR.W    R0,??DataTable41_7
   \   00000062   9621               MOVS     R1,#+150
   \   00000064   4166               STR      R1,[R0, #+100]
   1136                         SFLASH_Memory.SPEED_Reference = 50;
   \   00000066   ........           LDR.W    R0,??DataTable41_7
   \   0000006A   3221               MOVS     R1,#+50
   \   0000006C   A0F86C10           STRH     R1,[R0, #+108]
   1137                         SFLASH_Memory.RPM_Reference = 50;
   \   00000070   ........           LDR.W    R0,??DataTable41_7
   \   00000074   3221               MOVS     R1,#+50
   \   00000076   A0F86E10           STRH     R1,[R0, #+110]
   1138                         SFLASH_Memory.Distance_Adjust = 206679;
   \   0000007A   ........           LDR.W    R0,??DataTable41_7
   \   0000007E   ........           LDR.W    R1,??DataTable41_10  ;; 0x32757
   \   00000082   8166               STR      R1,[R0, #+104]
   1139                         SFLASH_Memory.EMS.ColdWaterTemp_Volt = 3000;
   \   00000084   ........           LDR.W    R0,??DataTable41_7
   \   00000088   40F6B831           MOVW     R1,#+3000
   \   0000008C   A0F88D10           STRH     R1,[R0, #+141]
   1140                         SFLASH_Memory.EMS.Air_Volt = 2300;               
   \   00000090   ........           LDR.W    R0,??DataTable41_7
   \   00000094   40F6FC01           MOVW     R1,#+2300
   \   00000098   A0F88F10           STRH     R1,[R0, #+143]
   1141                         Set_Info.Speed_OUT = 0;               
   \   0000009C   ........           LDR.W    R0,??DataTable41_11
   \   000000A0   0021               MOVS     R1,#+0
   \   000000A2   4173               STRB     R1,[R0, #+13]
   1142                         
   1143                    }break;
   \   000000A4   52E2               B.N      ??SetCarMaker_1
   1144               case 2:        // 현대 2007
   1145                    {               
   1146                         SFLASH_Memory.IO_Reverser = INPUT_GEAR_FLAG | INPUT_F_DOOR_FLAG |INPUT_R_DOOR_FLAG| INPUT_RLIGHT_FLAG | INPUT_LLIGHT_FLAG;          
   \                     ??SetCarMaker_3:
   \   000000A6   ........           LDR.W    R0,??DataTable41_7
   \   000000AA   7A21               MOVS     R1,#+122
   \   000000AC   A0F8A010           STRH     R1,[R0, #+160]
   1147                         SFLASH_Memory.RPM_Adjust = 4000;             // 1000RPM / 200hz          
   \   000000B0   ........           LDR.W    R0,??DataTable41_7
   \   000000B4   4FF47A61           MOV      R1,#+4000
   \   000000B8   0166               STR      R1,[R0, #+96]
   1148                         SFLASH_Memory.SPEED_Adjust = 120;
   \   000000BA   ........           LDR.W    R0,??DataTable41_7
   \   000000BE   7821               MOVS     R1,#+120
   \   000000C0   4166               STR      R1,[R0, #+100]
   1149                         SFLASH_Memory.RPM_Reference = 50;
   \   000000C2   ........           LDR.W    R0,??DataTable41_7
   \   000000C6   3221               MOVS     R1,#+50
   \   000000C8   A0F86E10           STRH     R1,[R0, #+110]
   1150                         SFLASH_Memory.SPEED_Reference = 50;               
   \   000000CC   ........           LDR.W    R0,??DataTable41_7
   \   000000D0   3221               MOVS     R1,#+50
   \   000000D2   A0F86C10           STRH     R1,[R0, #+108]
   1151                         SFLASH_Memory.EMS.ColdWaterTemp_Volt = 3000;
   \   000000D6   ........           LDR.W    R0,??DataTable41_7
   \   000000DA   40F6B831           MOVW     R1,#+3000
   \   000000DE   A0F88D10           STRH     R1,[R0, #+141]
   1152                         SFLASH_Memory.EMS.Air_Volt = 2300;                
   \   000000E2   ........           LDR.W    R0,??DataTable41_7
   \   000000E6   40F6FC01           MOVW     R1,#+2300
   \   000000EA   A0F88F10           STRH     R1,[R0, #+143]
   1153                         SFLASH_Memory.Distance_Adjust = 165343;
   \   000000EE   ........           LDR.W    R0,??DataTable41_7
   \   000000F2   ........           LDR.W    R1,??DataTable41_12  ;; 0x285df
   \   000000F6   8166               STR      R1,[R0, #+104]
   1154                         Set_Info.Speed_OUT = 0;               
   \   000000F8   ........           LDR.W    R0,??DataTable41_11
   \   000000FC   0021               MOVS     R1,#+0
   \   000000FE   4173               STRB     R1,[R0, #+13]
   1155                    }break;          
   \   00000100   24E2               B.N      ??SetCarMaker_1
   1156               case 3:        // 현대 2011
   1157                    {               
   1158                         SFLASH_Memory.IO_Reverser = INPUT_GEAR_FLAG | INPUT_F_DOOR_FLAG |INPUT_R_DOOR_FLAG| INPUT_RLIGHT_FLAG | INPUT_LLIGHT_FLAG;          
   \                     ??SetCarMaker_2:
   \   00000102   ........           LDR.W    R0,??DataTable41_7
   \   00000106   7A21               MOVS     R1,#+122
   \   00000108   A0F8A010           STRH     R1,[R0, #+160]
   1159                         SFLASH_Memory.RPM_Adjust = 4000;             // 1000RPM / 200hz          
   \   0000010C   ........           LDR.W    R0,??DataTable41_7
   \   00000110   4FF47A61           MOV      R1,#+4000
   \   00000114   0166               STR      R1,[R0, #+96]
   1160                         SFLASH_Memory.SPEED_Adjust = 150;
   \   00000116   ........           LDR.W    R0,??DataTable41_7
   \   0000011A   9621               MOVS     R1,#+150
   \   0000011C   4166               STR      R1,[R0, #+100]
   1161                         SFLASH_Memory.RPM_Reference = 50;
   \   0000011E   ........           LDR.W    R0,??DataTable41_7
   \   00000122   3221               MOVS     R1,#+50
   \   00000124   A0F86E10           STRH     R1,[R0, #+110]
   1162                         SFLASH_Memory.SPEED_Reference = 25;
   \   00000128   ........           LDR.W    R0,??DataTable41_7
   \   0000012C   1921               MOVS     R1,#+25
   \   0000012E   A0F86C10           STRH     R1,[R0, #+108]
   1163                         SFLASH_Memory.EMS.ColdWaterTemp_Volt = 2000;
   \   00000132   ........           LDR.W    R0,??DataTable41_7
   \   00000136   4FF4FA61           MOV      R1,#+2000
   \   0000013A   A0F88D10           STRH     R1,[R0, #+141]
   1164                         SFLASH_Memory.EMS.Air_Volt = 2300;                
   \   0000013E   ........           LDR.W    R0,??DataTable41_7
   \   00000142   40F6FC01           MOVW     R1,#+2300
   \   00000146   A0F88F10           STRH     R1,[R0, #+143]
   1165                         SFLASH_Memory.Distance_Adjust = 206679;
   \   0000014A   ........           LDR.W    R0,??DataTable41_7
   \   0000014E   ........           LDR.W    R1,??DataTable41_10  ;; 0x32757
   \   00000152   8166               STR      R1,[R0, #+104]
   1166                         Set_Info.Speed_OUT = 0;               
   \   00000154   ........           LDR.W    R0,??DataTable41_11
   \   00000158   0021               MOVS     R1,#+0
   \   0000015A   4173               STRB     R1,[R0, #+13]
   1167                    }break;
   \   0000015C   F6E1               B.N      ??SetCarMaker_1
   1168               case 4:        // 현대 2011저상
   1169                    {               
   1170                         SFLASH_Memory.IO_Reverser = INPUT_F_DOOR_FLAG |INPUT_R_DOOR_FLAG| INPUT_RLIGHT_FLAG | INPUT_LLIGHT_FLAG;          
   \                     ??SetCarMaker_5:
   \   0000015E   ........           LDR.W    R0,??DataTable41_7
   \   00000162   7821               MOVS     R1,#+120
   \   00000164   A0F8A010           STRH     R1,[R0, #+160]
   1171                         SFLASH_Memory.RPM_Adjust = 4000;             // 1000RPM / 200hz          
   \   00000168   ........           LDR.W    R0,??DataTable41_7
   \   0000016C   4FF47A61           MOV      R1,#+4000
   \   00000170   0166               STR      R1,[R0, #+96]
   1172                         SFLASH_Memory.SPEED_Adjust = 145;
   \   00000172   ........           LDR.W    R0,??DataTable41_7
   \   00000176   9121               MOVS     R1,#+145
   \   00000178   4166               STR      R1,[R0, #+100]
   1173                         SFLASH_Memory.RPM_Reference = 50;
   \   0000017A   ........           LDR.W    R0,??DataTable41_7
   \   0000017E   3221               MOVS     R1,#+50
   \   00000180   A0F86E10           STRH     R1,[R0, #+110]
   1174                         SFLASH_Memory.SPEED_Reference = 25;
   \   00000184   ........           LDR.W    R0,??DataTable41_7
   \   00000188   1921               MOVS     R1,#+25
   \   0000018A   A0F86C10           STRH     R1,[R0, #+108]
   1175                         SFLASH_Memory.EMS.ColdWaterTemp_Volt = 2000;
   \   0000018E   ........           LDR.W    R0,??DataTable41_7
   \   00000192   4FF4FA61           MOV      R1,#+2000
   \   00000196   A0F88D10           STRH     R1,[R0, #+141]
   1176                         SFLASH_Memory.EMS.Air_Volt = 2300;                
   \   0000019A   ........           LDR.W    R0,??DataTable41_7
   \   0000019E   40F6FC01           MOVW     R1,#+2300
   \   000001A2   A0F88F10           STRH     R1,[R0, #+143]
   1177                         SFLASH_Memory.Distance_Adjust = 199789;
   \   000001A6   ........           LDR.W    R0,??DataTable41_7
   \   000001AA   ........           LDR.W    R1,??DataTable41_13  ;; 0x30c6d
   \   000001AE   8166               STR      R1,[R0, #+104]
   1178                         Set_Info.Speed_OUT = 0;               
   \   000001B0   ........           LDR.W    R0,??DataTable41_11
   \   000001B4   0021               MOVS     R1,#+0
   \   000001B6   4173               STRB     R1,[R0, #+13]
   1179                    }break;
   \   000001B8   C8E1               B.N      ??SetCarMaker_1
   1180          
   1181               case 5:        // 현대 구형저상
   1182                    {               
   1183                         SFLASH_Memory.IO_Reverser = INPUT_GEAR_FLAG | INPUT_F_DOOR_FLAG |INPUT_R_DOOR_FLAG| INPUT_RLIGHT_FLAG | INPUT_LLIGHT_FLAG;          
   \                     ??SetCarMaker_4:
   \   000001BA   ........           LDR.W    R0,??DataTable41_7
   \   000001BE   7A21               MOVS     R1,#+122
   \   000001C0   A0F8A010           STRH     R1,[R0, #+160]
   1184                         SFLASH_Memory.RPM_Adjust = 4000;             // 1000RPM / 200hz          
   \   000001C4   ........           LDR.W    R0,??DataTable41_7
   \   000001C8   4FF47A61           MOV      R1,#+4000
   \   000001CC   0166               STR      R1,[R0, #+96]
   1185                         SFLASH_Memory.SPEED_Adjust = 70;
   \   000001CE   ........           LDR.W    R0,??DataTable41_7
   \   000001D2   4621               MOVS     R1,#+70
   \   000001D4   4166               STR      R1,[R0, #+100]
   1186                         SFLASH_Memory.RPM_Reference = 50;
   \   000001D6   ........           LDR.W    R0,??DataTable41_7
   \   000001DA   3221               MOVS     R1,#+50
   \   000001DC   A0F86E10           STRH     R1,[R0, #+110]
   1187                         SFLASH_Memory.SPEED_Reference = 50;
   \   000001E0   ........           LDR.W    R0,??DataTable41_7
   \   000001E4   3221               MOVS     R1,#+50
   \   000001E6   A0F86C10           STRH     R1,[R0, #+108]
   1188                         SFLASH_Memory.EMS.ColdWaterTemp_Volt = 3000;
   \   000001EA   ........           LDR.W    R0,??DataTable41_7
   \   000001EE   40F6B831           MOVW     R1,#+3000
   \   000001F2   A0F88D10           STRH     R1,[R0, #+141]
   1189                         SFLASH_Memory.EMS.Air_Volt = 2800;                
   \   000001F6   ........           LDR.W    R0,??DataTable41_7
   \   000001FA   4FF42F61           MOV      R1,#+2800
   \   000001FE   A0F88F10           STRH     R1,[R0, #+143]
   1190                         SFLASH_Memory.Distance_Adjust = 96450;
   \   00000202   ........           LDR.W    R0,??DataTable41_7
   \   00000206   ........           LDR.W    R1,??DataTable41_14  ;; 0x178c2
   \   0000020A   8166               STR      R1,[R0, #+104]
   1191                         Set_Info.Speed_OUT = 0;               
   \   0000020C   ........           LDR.W    R0,??DataTable41_11
   \   00000210   0021               MOVS     R1,#+0
   \   00000212   4173               STRB     R1,[R0, #+13]
   1192                    }break;
   \   00000214   9AE1               B.N      ??SetCarMaker_1
   1193               case 6:        // 현대 신형
   1194                    {               
   1195                         SFLASH_Memory.IO_Reverser = INPUT_GEAR_FLAG | INPUT_F_DOOR_FLAG |INPUT_R_DOOR_FLAG| INPUT_RLIGHT_FLAG | INPUT_LLIGHT_FLAG;          
   \                     ??SetCarMaker_7:
   \   00000216   ........           LDR.W    R0,??DataTable41_7
   \   0000021A   7A21               MOVS     R1,#+122
   \   0000021C   A0F8A010           STRH     R1,[R0, #+160]
   1196                         SFLASH_Memory.RPM_Adjust = 4000;             // 1000RPM / 200hz          
   \   00000220   ........           LDR.W    R0,??DataTable41_7
   \   00000224   4FF47A61           MOV      R1,#+4000
   \   00000228   0166               STR      R1,[R0, #+96]
   1197                         SFLASH_Memory.SPEED_Adjust = 108;
   \   0000022A   ........           LDR.W    R0,??DataTable41_7
   \   0000022E   6C21               MOVS     R1,#+108
   \   00000230   4166               STR      R1,[R0, #+100]
   1198                         SFLASH_Memory.RPM_Reference = 50;
   \   00000232   ........           LDR.W    R0,??DataTable41_7
   \   00000236   3221               MOVS     R1,#+50
   \   00000238   A0F86E10           STRH     R1,[R0, #+110]
   1199                         SFLASH_Memory.SPEED_Reference = 50;
   \   0000023C   ........           LDR.W    R0,??DataTable41_7
   \   00000240   3221               MOVS     R1,#+50
   \   00000242   A0F86C10           STRH     R1,[R0, #+108]
   1200                         SFLASH_Memory.EMS.ColdWaterTemp_Volt = 2000;
   \   00000246   ........           LDR.W    R0,??DataTable41_7
   \   0000024A   4FF4FA61           MOV      R1,#+2000
   \   0000024E   A0F88D10           STRH     R1,[R0, #+141]
   1201                         SFLASH_Memory.EMS.Air_Volt = 2800;                
   \   00000252   ........           LDR.W    R0,??DataTable41_7
   \   00000256   4FF42F61           MOV      R1,#+2800
   \   0000025A   A0F88F10           STRH     R1,[R0, #+143]
   1202                         SFLASH_Memory.Distance_Adjust = 148809;
   \   0000025E   ........           LDR.W    R0,??DataTable41_7
   \   00000262   ........           LDR.W    R1,??DataTable41_15  ;; 0x24549
   \   00000266   8166               STR      R1,[R0, #+104]
   1203                         Set_Info.Speed_OUT = 0;               
   \   00000268   ........           LDR.W    R0,??DataTable41_11
   \   0000026C   0021               MOVS     R1,#+0
   \   0000026E   4173               STRB     R1,[R0, #+13]
   1204                    }break;
   \   00000270   6CE1               B.N      ??SetCarMaker_1
   1205               case 7:        // 현대 신형저상
   1206                    {               
   1207                         SFLASH_Memory.IO_Reverser = INPUT_F_DOOR_FLAG |INPUT_R_DOOR_FLAG| INPUT_RLIGHT_FLAG | INPUT_LLIGHT_FLAG;          
   \                     ??SetCarMaker_6:
   \   00000272   ........           LDR.W    R0,??DataTable41_7
   \   00000276   7821               MOVS     R1,#+120
   \   00000278   A0F8A010           STRH     R1,[R0, #+160]
   1208                         SFLASH_Memory.RPM_Adjust = 4000;             // 1000RPM / 200hz          
   \   0000027C   ........           LDR.W    R0,??DataTable41_7
   \   00000280   4FF47A61           MOV      R1,#+4000
   \   00000284   0166               STR      R1,[R0, #+96]
   1209                         SFLASH_Memory.SPEED_Adjust = 83;
   \   00000286   ........           LDR.W    R0,??DataTable41_7
   \   0000028A   5321               MOVS     R1,#+83
   \   0000028C   4166               STR      R1,[R0, #+100]
   1210                         SFLASH_Memory.RPM_Reference = 50;
   \   0000028E   ........           LDR.W    R0,??DataTable41_7
   \   00000292   3221               MOVS     R1,#+50
   \   00000294   A0F86E10           STRH     R1,[R0, #+110]
   1211                         SFLASH_Memory.SPEED_Reference = 25;
   \   00000298   ........           LDR.W    R0,??DataTable41_7
   \   0000029C   1921               MOVS     R1,#+25
   \   0000029E   A0F86C10           STRH     R1,[R0, #+108]
   1212                         SFLASH_Memory.EMS.ColdWaterTemp_Volt = 2000;
   \   000002A2   ........           LDR.W    R0,??DataTable41_7
   \   000002A6   4FF4FA61           MOV      R1,#+2000
   \   000002AA   A0F88D10           STRH     R1,[R0, #+141]
   1213                         SFLASH_Memory.EMS.Air_Volt = 2300;                
   \   000002AE   ........           LDR.W    R0,??DataTable41_7
   \   000002B2   40F6FC01           MOVW     R1,#+2300
   \   000002B6   A0F88F10           STRH     R1,[R0, #+143]
   1214                         SFLASH_Memory.Distance_Adjust = 114362;
   \   000002BA   ........           LDR.W    R0,??DataTable41_7
   \   000002BE   ........           LDR.W    R1,??DataTable41_16  ;; 0x1beba
   \   000002C2   8166               STR      R1,[R0, #+104]
   1215                         Set_Info.Speed_OUT = 0;               
   \   000002C4   ........           LDR.W    R0,??DataTable41_11
   \   000002C8   0021               MOVS     R1,#+0
   \   000002CA   4173               STRB     R1,[R0, #+13]
   1216                    }break;
   \   000002CC   3EE1               B.N      ??SetCarMaker_1
   1217               case 8:        // 대우구형
   1218                    {               
   1219                         SFLASH_Memory.IO_Reverser = INPUT_F_DOOR_FLAG |INPUT_R_DOOR_FLAG| INPUT_RLIGHT_FLAG | INPUT_LLIGHT_FLAG;          
   \                     ??SetCarMaker_9:
   \   000002CE   ........           LDR.W    R0,??DataTable41_7
   \   000002D2   7821               MOVS     R1,#+120
   \   000002D4   A0F8A010           STRH     R1,[R0, #+160]
   1220                         SFLASH_Memory.RPM_Adjust = 80;             // 1000RPM / 200hz          
   \   000002D8   ........           LDR.W    R0,??DataTable41_7
   \   000002DC   5021               MOVS     R1,#+80
   \   000002DE   0166               STR      R1,[R0, #+96]
   1221                         SFLASH_Memory.SPEED_Adjust = 140;
   \   000002E0   ........           LDR.W    R0,??DataTable41_7
   \   000002E4   8C21               MOVS     R1,#+140
   \   000002E6   4166               STR      R1,[R0, #+100]
   1222                         SFLASH_Memory.RPM_Reference = 10;
   \   000002E8   ........           LDR.W    R0,??DataTable41_7
   \   000002EC   0A21               MOVS     R1,#+10
   \   000002EE   A0F86E10           STRH     R1,[R0, #+110]
   1223                         SFLASH_Memory.SPEED_Reference = 25;
   \   000002F2   ........           LDR.W    R0,??DataTable41_7
   \   000002F6   1921               MOVS     R1,#+25
   \   000002F8   A0F86C10           STRH     R1,[R0, #+108]
   1224                         SFLASH_Memory.EMS.ColdWaterTemp_Volt = 5000;
   \   000002FC   ........           LDR.W    R0,??DataTable41_7
   \   00000300   41F28831           MOVW     R1,#+5000
   \   00000304   A0F88D10           STRH     R1,[R0, #+141]
   1225                         SFLASH_Memory.EMS.Air_Volt = 4700;                
   \   00000308   ........           LDR.W    R0,??DataTable41_7
   \   0000030C   41F25C21           MOVW     R1,#+4700
   \   00000310   A0F88F10           STRH     R1,[R0, #+143]
   1226                         SFLASH_Memory.Distance_Adjust = 192900;
   \   00000314   ........           LDR.W    R0,??DataTable41_7
   \   00000318   ........           LDR.W    R1,??DataTable41_17  ;; 0x2f184
   \   0000031C   8166               STR      R1,[R0, #+104]
   1227                         Set_Info.Speed_OUT = 0;               
   \   0000031E   ........           LDR.W    R0,??DataTable41_11
   \   00000322   0021               MOVS     R1,#+0
   \   00000324   4173               STRB     R1,[R0, #+13]
   1228                    }break;
   \   00000326   11E1               B.N      ??SetCarMaker_1
   1229               case 9:        // 대우 구형저상
   1230                    {               
   1231                         SFLASH_Memory.IO_Reverser = INPUT_BREAK_FLAG | INPUT_F_DOOR_FLAG |INPUT_R_DOOR_FLAG| INPUT_RLIGHT_FLAG | INPUT_LLIGHT_FLAG;          
   \                     ??SetCarMaker_8:
   \   00000328   ........           LDR.W    R0,??DataTable41_7
   \   0000032C   7921               MOVS     R1,#+121
   \   0000032E   A0F8A010           STRH     R1,[R0, #+160]
   1232                         SFLASH_Memory.RPM_Adjust = 80;             // 1000RPM / 200hz          
   \   00000332   ........           LDR.W    R0,??DataTable41_7
   \   00000336   5021               MOVS     R1,#+80
   \   00000338   0166               STR      R1,[R0, #+96]
   1233                         SFLASH_Memory.SPEED_Adjust = 85;
   \   0000033A   ........           LDR.W    R0,??DataTable41_7
   \   0000033E   5521               MOVS     R1,#+85
   \   00000340   4166               STR      R1,[R0, #+100]
   1234                         SFLASH_Memory.RPM_Reference = 10;
   \   00000342   ........           LDR.W    R0,??DataTable41_7
   \   00000346   0A21               MOVS     R1,#+10
   \   00000348   A0F86E10           STRH     R1,[R0, #+110]
   1235                         SFLASH_Memory.SPEED_Reference = 25;
   \   0000034C   ........           LDR.W    R0,??DataTable41_7
   \   00000350   1921               MOVS     R1,#+25
   \   00000352   A0F86C10           STRH     R1,[R0, #+108]
   1236                         SFLASH_Memory.EMS.ColdWaterTemp_Volt = 5000;
   \   00000356   ........           LDR.W    R0,??DataTable41_7
   \   0000035A   41F28831           MOVW     R1,#+5000
   \   0000035E   A0F88D10           STRH     R1,[R0, #+141]
   1237                         SFLASH_Memory.EMS.Air_Volt = 3700;                
   \   00000362   ........           LDR.W    R0,??DataTable41_7
   \   00000366   40F67461           MOVW     R1,#+3700
   \   0000036A   A0F88F10           STRH     R1,[R0, #+143]
   1238                         SFLASH_Memory.Distance_Adjust = 117118;
   \   0000036E   ........           LDR.W    R0,??DataTable41_7
   \   00000372   ........           LDR.W    R1,??DataTable41_18  ;; 0x1c97e
   \   00000376   8166               STR      R1,[R0, #+104]
   1239                         Set_Info.Speed_OUT = 0;               
   \   00000378   ........           LDR.W    R0,??DataTable41_11
   \   0000037C   0021               MOVS     R1,#+0
   \   0000037E   4173               STRB     R1,[R0, #+13]
   1240                    }break;          
   \   00000380   E4E0               B.N      ??SetCarMaker_1
   1241               case 10:        // 대우 신형
   1242                    {               
   1243                         SFLASH_Memory.IO_Reverser = INPUT_RLIGHT_FLAG | INPUT_LLIGHT_FLAG;          
   \                     ??SetCarMaker_11:
   \   00000382   ........           LDR.W    R0,??DataTable41_7
   \   00000386   1821               MOVS     R1,#+24
   \   00000388   A0F8A010           STRH     R1,[R0, #+160]
   1244                         SFLASH_Memory.RPM_Adjust = 1000;             // 1000RPM / 200hz          
   \   0000038C   ........           LDR.W    R0,??DataTable41_7
   \   00000390   4FF47A71           MOV      R1,#+1000
   \   00000394   0166               STR      R1,[R0, #+96]
   1245                         SFLASH_Memory.SPEED_Adjust = 100;
   \   00000396   ........           LDR.W    R0,??DataTable41_7
   \   0000039A   6421               MOVS     R1,#+100
   \   0000039C   4166               STR      R1,[R0, #+100]
   1246                         SFLASH_Memory.RPM_Reference = 50;
   \   0000039E   ........           LDR.W    R0,??DataTable41_7
   \   000003A2   3221               MOVS     R1,#+50
   \   000003A4   A0F86E10           STRH     R1,[R0, #+110]
   1247                         SFLASH_Memory.SPEED_Reference = 50;
   \   000003A8   ........           LDR.W    R0,??DataTable41_7
   \   000003AC   3221               MOVS     R1,#+50
   \   000003AE   A0F86C10           STRH     R1,[R0, #+108]
   1248                         SFLASH_Memory.EMS.ColdWaterTemp_Volt = 5000;
   \   000003B2   ........           LDR.W    R0,??DataTable41_7
   \   000003B6   41F28831           MOVW     R1,#+5000
   \   000003BA   A0F88D10           STRH     R1,[R0, #+141]
   1249                         SFLASH_Memory.EMS.Air_Volt = 4700;                
   \   000003BE   ........           LDR.W    R0,??DataTable41_7
   \   000003C2   41F25C21           MOVW     R1,#+4700
   \   000003C6   A0F88F10           STRH     R1,[R0, #+143]
   1250                         SFLASH_Memory.Distance_Adjust = 137786;
   \   000003CA   ........           LDR.W    R0,??DataTable41_7
   \   000003CE   ........           LDR.W    R1,??DataTable41_19  ;; 0x21a3a
   \   000003D2   8166               STR      R1,[R0, #+104]
   1251                         Set_Info.Speed_OUT = 0;               
   \   000003D4   ........           LDR.W    R0,??DataTable41_11
   \   000003D8   0021               MOVS     R1,#+0
   \   000003DA   4173               STRB     R1,[R0, #+13]
   1252                    }break;          
   \   000003DC   B6E0               B.N      ??SetCarMaker_1
   1253               case 11:        // 대우 신형 초저상
   1254                    {               
   1255                         SFLASH_Memory.IO_Reverser = INPUT_BREAK_FLAG | INPUT_GEAR_FLAG | INPUT_F_DOOR_FLAG |INPUT_R_DOOR_FLAG| INPUT_RLIGHT_FLAG | INPUT_LLIGHT_FLAG;
   \                     ??SetCarMaker_10:
   \   000003DE   ........           LDR.W    R0,??DataTable41_7
   \   000003E2   7B21               MOVS     R1,#+123
   \   000003E4   A0F8A010           STRH     R1,[R0, #+160]
   1256                         SFLASH_Memory.RPM_Adjust = 1000;             // 1000RPM / 200hz          
   \   000003E8   ........           LDR.W    R0,??DataTable41_7
   \   000003EC   4FF47A71           MOV      R1,#+1000
   \   000003F0   0166               STR      R1,[R0, #+96]
   1257                         SFLASH_Memory.SPEED_Adjust = 148;
   \   000003F2   ........           LDR.W    R0,??DataTable41_7
   \   000003F6   9421               MOVS     R1,#+148
   \   000003F8   4166               STR      R1,[R0, #+100]
   1258                         SFLASH_Memory.RPM_Reference = 50;
   \   000003FA   ........           LDR.W    R0,??DataTable41_7
   \   000003FE   3221               MOVS     R1,#+50
   \   00000400   A0F86E10           STRH     R1,[R0, #+110]
   1259                         SFLASH_Memory.SPEED_Reference = 50;
   \   00000404   ........           LDR.W    R0,??DataTable41_7
   \   00000408   3221               MOVS     R1,#+50
   \   0000040A   A0F86C10           STRH     R1,[R0, #+108]
   1260                         SFLASH_Memory.EMS.ColdWaterTemp_Volt = 5000;
   \   0000040E   ........           LDR.W    R0,??DataTable41_7
   \   00000412   41F28831           MOVW     R1,#+5000
   \   00000416   A0F88D10           STRH     R1,[R0, #+141]
   1261                         SFLASH_Memory.EMS.Air_Volt = 5000;                
   \   0000041A   ........           LDR.W    R0,??DataTable41_7
   \   0000041E   41F28831           MOVW     R1,#+5000
   \   00000422   A0F88F10           STRH     R1,[R0, #+143]
   1262                         SFLASH_Memory.Distance_Adjust = 203923;
   \   00000426   ........           LDR.W    R0,??DataTable41_7
   \   0000042A   ........           LDR.W    R1,??DataTable41_20  ;; 0x31c93
   \   0000042E   8166               STR      R1,[R0, #+104]
   1263                         Set_Info.Speed_OUT = 0;               
   \   00000430   ........           LDR.W    R0,??DataTable41_11
   \   00000434   0021               MOVS     R1,#+0
   \   00000436   4173               STRB     R1,[R0, #+13]
   1264                    }break;          
   \   00000438   88E0               B.N      ??SetCarMaker_1
   1265               case 12:        // 글로벌
   1266                    {               
   1267                         SFLASH_Memory.IO_Reverser = INPUT_GEAR_FLAG | INPUT_F_DOOR_FLAG |INPUT_R_DOOR_FLAG| INPUT_RLIGHT_FLAG | INPUT_LLIGHT_FLAG;
   \                     ??SetCarMaker_13:
   \   0000043A   ........           LDR.W    R0,??DataTable41_7
   \   0000043E   7A21               MOVS     R1,#+122
   \   00000440   A0F8A010           STRH     R1,[R0, #+160]
   1268                         SFLASH_Memory.RPM_Adjust = 4000;             // 1000RPM / 200hz          
   \   00000444   ........           LDR.W    R0,??DataTable41_7
   \   00000448   4FF47A61           MOV      R1,#+4000
   \   0000044C   0166               STR      R1,[R0, #+96]
   1269                         SFLASH_Memory.SPEED_Adjust = 158;
   \   0000044E   ........           LDR.W    R0,??DataTable41_7
   \   00000452   9E21               MOVS     R1,#+158
   \   00000454   4166               STR      R1,[R0, #+100]
   1270                         SFLASH_Memory.RPM_Reference = 50;
   \   00000456   ........           LDR.W    R0,??DataTable41_7
   \   0000045A   3221               MOVS     R1,#+50
   \   0000045C   A0F86E10           STRH     R1,[R0, #+110]
   1271                         SFLASH_Memory.SPEED_Reference = 50;
   \   00000460   ........           LDR.W    R0,??DataTable41_7
   \   00000464   3221               MOVS     R1,#+50
   \   00000466   A0F86C10           STRH     R1,[R0, #+108]
   1272                         SFLASH_Memory.EMS.ColdWaterTemp_Volt = 2000;
   \   0000046A   ........           LDR.W    R0,??DataTable41_7
   \   0000046E   4FF4FA61           MOV      R1,#+2000
   \   00000472   A0F88D10           STRH     R1,[R0, #+141]
   1273                         SFLASH_Memory.EMS.Air_Volt = 2500;                
   \   00000476   ........           LDR.W    R0,??DataTable41_7
   \   0000047A   40F6C411           MOVW     R1,#+2500
   \   0000047E   A0F88F10           STRH     R1,[R0, #+143]
   1274                         SFLASH_Memory.Distance_Adjust = 217702;
   \   00000482   ........           LDR.W    R0,??DataTable41_7
   \   00000486   ........           LDR.W    R1,??DataTable41_21  ;; 0x35266
   \   0000048A   8166               STR      R1,[R0, #+104]
   1275                         Set_Info.Speed_OUT = 0;               
   \   0000048C   ........           LDR.W    R0,??DataTable41_11
   \   00000490   0021               MOVS     R1,#+0
   \   00000492   4173               STRB     R1,[R0, #+13]
   1276                    }break;          
   \   00000494   5AE0               B.N      ??SetCarMaker_1
   1277               case 13:        // 카운티 구형
   1278                    {               
   1279                         SFLASH_Memory.IO_Reverser = INPUT_GEAR_FLAG | INPUT_F_DOOR_FLAG |INPUT_R_DOOR_FLAG| INPUT_RLIGHT_FLAG | INPUT_LLIGHT_FLAG;
   \                     ??SetCarMaker_12:
   \   00000496   ........           LDR.W    R0,??DataTable41_7
   \   0000049A   7A21               MOVS     R1,#+122
   \   0000049C   A0F8A010           STRH     R1,[R0, #+160]
   1280                         SFLASH_Memory.RPM_Adjust = 4000;             // 1000RPM / 200hz          
   \   000004A0   ........           LDR.W    R0,??DataTable41_7
   \   000004A4   4FF47A61           MOV      R1,#+4000
   \   000004A8   0166               STR      R1,[R0, #+96]
   1281                         SFLASH_Memory.SPEED_Adjust = 148;
   \   000004AA   ........           LDR.W    R0,??DataTable41_7
   \   000004AE   9421               MOVS     R1,#+148
   \   000004B0   4166               STR      R1,[R0, #+100]
   1282                         SFLASH_Memory.RPM_Reference = 50;
   \   000004B2   ........           LDR.W    R0,??DataTable41_7
   \   000004B6   3221               MOVS     R1,#+50
   \   000004B8   A0F86E10           STRH     R1,[R0, #+110]
   1283                         SFLASH_Memory.SPEED_Reference = 25;
   \   000004BC   ........           LDR.W    R0,??DataTable41_7
   \   000004C0   1921               MOVS     R1,#+25
   \   000004C2   A0F86C10           STRH     R1,[R0, #+108]
   1284                         SFLASH_Memory.EMS.ColdWaterTemp_Volt = 5000;
   \   000004C6   ........           LDR.W    R0,??DataTable41_7
   \   000004CA   41F28831           MOVW     R1,#+5000
   \   000004CE   A0F88D10           STRH     R1,[R0, #+141]
   1285                         SFLASH_Memory.EMS.Air_Volt = 4700;                
   \   000004D2   ........           LDR.W    R0,??DataTable41_7
   \   000004D6   41F25C21           MOVW     R1,#+4700
   \   000004DA   A0F88F10           STRH     R1,[R0, #+143]
   1286                         SFLASH_Memory.Distance_Adjust = 203923;
   \   000004DE   ........           LDR.W    R0,??DataTable41_7
   \   000004E2   ........           LDR.W    R1,??DataTable41_20  ;; 0x31c93
   \   000004E6   8166               STR      R1,[R0, #+104]
   1287                         Set_Info.Speed_OUT = 0;               
   \   000004E8   ........           LDR.W    R0,??DataTable41_11
   \   000004EC   0021               MOVS     R1,#+0
   \   000004EE   4173               STRB     R1,[R0, #+13]
   1288                    }break;  
   \   000004F0   2CE0               B.N      ??SetCarMaker_1
   1289               case 14:        // 카운티 신형
   1290                    {               
   1291                         SFLASH_Memory.IO_Reverser = INPUT_BREAK_FLAG | INPUT_GEAR_FLAG | INPUT_F_DOOR_FLAG |INPUT_R_DOOR_FLAG| INPUT_RLIGHT_FLAG | INPUT_LLIGHT_FLAG;
   \                     ??SetCarMaker_14:
   \   000004F2   ........           LDR.W    R0,??DataTable41_7
   \   000004F6   7B21               MOVS     R1,#+123
   \   000004F8   A0F8A010           STRH     R1,[R0, #+160]
   1292                         SFLASH_Memory.RPM_Adjust = 4000;             // 1000RPM / 200hz          
   \   000004FC   ........           LDR.W    R0,??DataTable41_7
   \   00000500   4FF47A61           MOV      R1,#+4000
   \   00000504   0166               STR      R1,[R0, #+96]
   1293                         SFLASH_Memory.SPEED_Adjust = 148;
   \   00000506   ........           LDR.W    R0,??DataTable41_7
   \   0000050A   9421               MOVS     R1,#+148
   \   0000050C   4166               STR      R1,[R0, #+100]
   1294                         SFLASH_Memory.RPM_Reference = 50;
   \   0000050E   ........           LDR.W    R0,??DataTable41_7
   \   00000512   3221               MOVS     R1,#+50
   \   00000514   A0F86E10           STRH     R1,[R0, #+110]
   1295                         SFLASH_Memory.SPEED_Reference = 25;
   \   00000518   ........           LDR.W    R0,??DataTable41_7
   \   0000051C   1921               MOVS     R1,#+25
   \   0000051E   A0F86C10           STRH     R1,[R0, #+108]
   1296                         SFLASH_Memory.EMS.ColdWaterTemp_Volt = 5000;
   \   00000522   ........           LDR.W    R0,??DataTable41_7
   \   00000526   41F28831           MOVW     R1,#+5000
   \   0000052A   A0F88D10           STRH     R1,[R0, #+141]
   1297                         SFLASH_Memory.EMS.Air_Volt = 4700;                
   \   0000052E   ........           LDR.W    R0,??DataTable41_7
   \   00000532   41F25C21           MOVW     R1,#+4700
   \   00000536   A0F88F10           STRH     R1,[R0, #+143]
   1298                         SFLASH_Memory.Distance_Adjust = 203923;
   \   0000053A   ........           LDR.W    R0,??DataTable41_7
   \   0000053E   ........           LDR.W    R1,??DataTable41_20  ;; 0x31c93
   \   00000542   8166               STR      R1,[R0, #+104]
   1299                         Set_Info.Speed_OUT = 0;               
   \   00000544   ........           LDR.W    R0,??DataTable41_11
   \   00000548   0021               MOVS     R1,#+0
   \   0000054A   4173               STRB     R1,[R0, #+13]
   1300                    }break;            
   1301               }// end of Switch     
   1302          }
   \                     ??SetCarMaker_1:
   \   0000054C   7047               BX       LR               ;; return

   \                                 In section .text, align 2, keep-with-next
   1303          void USB_MODE_SELECT(u8 Mode)
   1304          {
   \                     USB_MODE_SELECT:
   \   00000000   80B5               PUSH     {R7,LR}
   1305               if(Mode == 0)
   \   00000002   C0B2               UXTB     R0,R0            ;; ZeroExt  R0,R0,#+24,#+24
   \   00000004   0028               CMP      R0,#+0
   \   00000006   10D1               BNE.N    ??USB_MODE_SELECT_0
   1306               {
   1307                    USB_Device = 0;
   \   00000008   ........           LDR.W    R0,??DataTable41_22
   \   0000000C   0021               MOVS     R1,#+0
   \   0000000E   0170               STRB     R1,[R0, #+0]
   1308                    USBH_Init(&USB_OTG_Core, 
   1309          #ifdef USE_USB_OTG_FS  
   1310                         USB_OTG_FS_CORE_ID,
   1311          #else 
   1312                         USB_OTG_HS_CORE_ID,
   1313          #endif 
   1314                         &USB_Host,
   1315                         &USBH_MSC_cb, 		
   1316                         &USR_cb);		          
   \   00000010   ........           LDR.W    R0,??DataTable41_23
   \   00000014   0090               STR      R0,[SP, #+0]
   \   00000016   ........           LDR.W    R3,??DataTable41_24
   \   0000001A   ........           LDR.W    R2,??DataTable41_25
   \   0000001E   0121               MOVS     R1,#+1
   \   00000020   ........           LDR.W    R0,??DataTable41_26
   \   00000024   ........           BL       USBH_Init
   \   00000028   0CE0               B.N      ??USB_MODE_SELECT_1
   1317               }else
   1318               {
   1319                    USB_Device = 1;
   \                     ??USB_MODE_SELECT_0:
   \   0000002A   ........           LDR.W    R0,??DataTable41_22
   \   0000002E   0121               MOVS     R1,#+1
   \   00000030   0170               STRB     R1,[R0, #+0]
   1320                    USBD_Init(&USB_OTG_dev,
   1321          #ifdef USE_USB_OTG_HS 
   1322                         USB_OTG_HS_CORE_ID,
   1323          #else            
   1324                         USB_OTG_FS_CORE_ID,
   1325          #endif            
   1326                         &USBD_CDC_cb, 
   1327                         &USR_cb2);               
   \   00000032   ........           LDR.W    R3,??DataTable41_27
   \   00000036   ........           LDR.W    R2,??DataTable41_28
   \   0000003A   0121               MOVS     R1,#+1
   \   0000003C   ........           LDR.W    R0,??DataTable41_29
   \   00000040   ........           BL       USBD_Init
   1328               }     
   1329          }
   \                     ??USB_MODE_SELECT_1:
   \   00000044   01BD               POP      {R0,PC}          ;; return
   1330          

   \                                 In section .text, align 2, keep-with-next
   1331          int main(void) 
   1332          {
   \                     main:
   \   00000000   10B5               PUSH     {R4,LR}
   1333               
   1334               static u16 Main_Timer;
   1335               u16 FLASH_ID;
   1336               
   1337               u8 First_Setting;
   1338          #ifdef DEBUG   
   1339          	debug();  
   1340          #endif
   1341          	/* 기본적인 새팅하기 */
   1342          	
   1343          	SystemInit();
   \   00000002   ........           BL       SystemInit
   1344               
   1345               NVIC_SetVectorTable(NVIC_VectTab_FLASH,0x10000);   	          // 업데이트 백터 설정
   \   00000006   5FF48031           MOVS     R1,#+65536
   \   0000000A   5FF00060           MOVS     R0,#+134217728
   \   0000000E   ........           BL       NVIC_SetVectorTable
   1346               
   1347          	RCC_GetClocksFreq(&RCC_Clocks);
   \   00000012   ........           LDR.W    R0,??DataTable41_30
   \   00000016   ........           BL       RCC_GetClocksFreq
   1348               
   1349          	SysTick_Config(RCC_Clocks.HCLK_Frequency / 10000);			//  [10000 = 1일은 100us ]   [1000 = 1 일은 1ms] [ 100 = 1 일은 10ms ]
   \   0000001A   ........           LDR.W    R0,??DataTable41_30
   \   0000001E   4068               LDR      R0,[R0, #+4]
   \   00000020   42F21071           MOVW     R1,#+10000
   \   00000024   B0FBF1F0           UDIV     R0,R0,R1
   \   00000028   ........           BL       SysTick_Config
   1350          	
   1351                  /*       
   1352                  
   1353                  */
   1354                       
   1355          	////////////////////// GPIO 핀 초기화 //////////////////////////////////////
   1356          	
   1357          	GPIO_Configuration();     // LED와 스위치 초기화
   \   0000002C   ........           BL       GPIO_Configuration
   1358          	
   1359          	GPIO_Configuration2();    // IO 세팅
   \   00000030   ........           BL       GPIO_Configuration2
   1360               
   1361               
   1362               EMS_Config();     	     // EMS 변수 초기화	
   \   00000034   ........           BL       EMS_Config
   1363               
   1364               I2C_EE_Init();      // I2c를 사용해서 NAND헤더를 작업해야 한다.
   \   00000038   ........           BL       I2C_EE_Init
   1365               
   1366          
   1367               FSMC_NAND_Init();
   \   0000003C   ........           BL       FSMC_NAND_Init
   1368               
   1369               GLcd_Config();
   \   00000040   ........           BL       GLcd_Config
   1370               
   1371               // -----------------------------------------------------------------------------
   1372          	
   1373          	Key_Config();            // 키초기화
   \   00000044   ........           BL       Key_Config
   1374          	
   1375          	//////////////////////// Serial 세팅 ///////////////////////////////////////
   1376          	
   1377          	Serial_Config();    
   \   00000048   ........           BL       Serial_Config
   1378          	
   1379          	////////////////////////  ADC 세팅 //////////////////////////////////////////
   1380          	
   1381          	ADC_Config();      
   \   0000004C   ........           BL       ADC_Config
   1382          	
   1383          	////////////////////////  [SPI] 통신 설정 초기화 /////////////////////////////
   1384          	
   1385          	sFLASH_Init();    
   \   00000050   ........           BL       sFLASH_Init
   1386          	
   1387          	///////////////////////  [SPI] MEMS 초기화 ////////////////////////////////
   1388          	
   1389          	MEMS_Config();          
   \   00000054   ........           BL       MEMS_Config
   1390          	
   1391          	////////////////////// [SPI] 음성 IC 초기화 ///////////////////////////////
   1392          	
   1393          	Voice_Config();
   \   00000058   ........           BL       Voice_Config
   1394          	
   1395               Voice_Init();       // 설정
   \   0000005C   ........           BL       Voice_Init
   1396          	
   1397          	//////////////////////   인터럽트 초기화 ////////////////////////////////
   1398          	
   1399          	EXTILine1_Config();
   \   00000060   ........           BL       EXTILine1_Config
   1400          	
   1401          	/////////////////////// DAC Config      
   1402          	
   1403          	DAC_GPIO_Config();
   \   00000064   ........           BL       DAC_GPIO_Config
   1404               
   1405          	TIM6_Config();           // 타이머 6 DAC
   \   00000068   ........           BL       TIM6_Config
   1406               
   1407          	DAC_DeInit();
   \   0000006C   ........           BL       DAC_DeInit
   1408          	
   1409          	///////////////////////////////////////////////////////////////////////
   1410          	// Timer Settings
   1411          	//      TIM1_Config();
   1412          	//     TIM2_Config();
   1413          	/////////////////////////////////////////////////////////////////
   1414               
   1415               TIM3_Config();
   \   00000070   ........           BL       TIM3_Config
   1416          	
   1417               TIM4_Config();      // 입력 RPM,SPEED 계산 타이머
   \   00000074   ........           BL       TIM4_Config
   1418          	
   1419               TIM5_Config();      // 1ms 내부 타이머 설정Timer	
   \   00000078   ........           BL       TIM5_Config
   1420               
   1421          	TIM7_Config();
   \   0000007C   ........           BL       TIM7_Config
   1422          	
   1423          	TIM8_Config();
   \   00000080   ........           BL       TIM8_Config
   1424               USB_Device = 0;
   \   00000084   ........           LDR.W    R0,??DataTable41_22
   \   00000088   0021               MOVS     R1,#+0
   \   0000008A   0170               STRB     R1,[R0, #+0]
   1425               // Init Host Library 
   1426               USB_MODE_SELECT(USB_Device);
   \   0000008C   ........           LDR.W    R0,??DataTable41_22
   \   00000090   0078               LDRB     R0,[R0, #+0]
   \   00000092   ........           BL       USB_MODE_SELECT
   1427               printf(" Start \r\n");
   \   00000096   ........           ADR.W    R0,`?<Constant " Start \\r\\n">`
   \   0000009A   ........           BL       printf
   1428             	FLASH_ID = sFLASH_ReadID();    
   \   0000009E   ........           BL       sFLASH_ReadID
   1429          	if (FLASH_ID == M25P64_FLASH_ID)
   \   000000A2   42F21501           MOVW     R1,#+8213
   \   000000A6   80B2               UXTH     R0,R0            ;; ZeroExt  R0,R0,#+16,#+16
   \   000000A8   8842               CMP      R0,R1
   \   000000AA   03D1               BNE.N    ??main_0
   1430               {
   1431                    //          Flag.SerialFlash = 1;
   1432                    printf(" SFLASH OK \r\n"); 
   \   000000AC   ........           ADR.W    R0,`?<Constant " SFLASH OK \\r\\n">`
   \   000000B0   ........           BL       printf
   1433               }
   1434               Log_Config();     	// 로그 초기화     	
   \                     ??main_0:
   \   000000B4   ........           BL       Log_Config
   1435               
   1436               Read_SFLASH();
   \   000000B8   ........           BL       Read_SFLASH
   1437               
   1438               // ------------ DAC 설정한다.
   1439               
   1440          	DAC_Config();	     
   \   000000BC   ........           BL       DAC_Config
   1441               
   1442          	DAC_Ch2_Config();
   \   000000C0   ........           BL       DAC_Ch2_Config
   1443               
   1444               DAC_Ch1_Config();     
   \   000000C4   ........           BL       DAC_Ch1_Config
   1445               
   1446               ///////////////////////////////////////////////////////////////////////////
   1447               
   1448               Main_Timer = MS_TIMER;
   \   000000C8   ........           LDR.W    R0,??DataTable41_31  ;; 0x40000c00
   \   000000CC   ........           BL       TIM_GetCounter
   \   000000D0   ........           LDR.W    R1,??DataTable41_32
   \   000000D4   0880               STRH     R0,[R1, #+0]
   1449               
   1450               GLcd_Init();
   \   000000D6   ........           BL       GLcd_Init
   1451          
   1452               InitIWDG();              // 와치독 초기화
   \   000000DA   ........           BL       InitIWDG
   1453               
   1454               //   NAND_BuildLUT(0);
   1455               //   NAND_If_Init();
   1456               
   1457               FSMC_NAND_Reset();
   \   000000DE   ........           BL       FSMC_NAND_Reset
   1458               
   1459               RTC_Setting(); 		// RTC 초기화
   \   000000E2   ........           BL       RTC_Setting
   1460               
   1461               //RTC_TimeRegulate();         // 시간 초기화
   1462               
   1463               //     EMS_Config();     	     // EMS 변수 초기화	
   1464               
   1465               Memory_Config();		// NAND 해더를 읽어오기
   \   000000E6   ........           BL       Memory_Config
   1466               
   1467               MEMS_Init();   
   \   000000EA   ........           BL       MEMS_Init
   1468               
   1469               IWDG_ReloadCounter();                   // Clear IWDG
   \   000000EE   ........           BL       IWDG_ReloadCounter
   1470               RTC_TimeShow(); 		// RTC 시간을 읽어서 변수에 저장 
   \   000000F2   ........           BL       RTC_TimeShow
   1471               
   1472               Initialize();		     // 각종 변수들 초기화		
   \   000000F6   ........           BL       Initialize
   1473               
   1474               Driver_Start();		// 전원이 온이 된다면 온전 시작을 세팅한다.
   \   000000FA   ........           BL       Driver_Start
   1475               
   1476               Wifi_Config();           // 와아파이 초기화     
   \   000000FE   ........           BL       Wifi_Config
   1477               
   1478               Kmap_init();
   \   00000102   ........           BL       Kmap_init
   1479               First_Setting = 0;
   \   00000106   0024               MOVS     R4,#+0
   1480               if( GetKey() == Key_UPESC )        // TEST MODE
   \   00000108   ........           BL       GetKey
   \   0000010C   0728               CMP      R0,#+7
   \   0000010E   35D1               BNE.N    ??main_1
   1481               {	
   1482                    sprintf( (char *)Buffer,"  DEMO PROGRAM v1 ");            
   \   00000110   ........           ADR.W    R1,`?<Constant "  DEMO PROGRAM v1 ">`
   \   00000114   ........           LDR.W    R0,??DataTable41_33
   \   00000118   ........           BL       sprintf
   1483                    GLcd_PutString2(0,0,Buffer ,1);
   \   0000011C   0123               MOVS     R3,#+1
   \   0000011E   ........           LDR.W    R2,??DataTable41_33
   \   00000122   0021               MOVS     R1,#+0
   \   00000124   0020               MOVS     R0,#+0
   \   00000126   ........           BL       GLcd_PutString2
   1484                    sprintf( (char *)Buffer,"  WIFI_RELAY TEST  ");        
   \   0000012A   ........           ADR.W    R1,`?<Constant "  WIFI_RELAY TEST  ">`
   \   0000012E   ........           LDR.W    R0,??DataTable41_33
   \   00000132   ........           BL       sprintf
   1485                    GLcd_PutString2(0,16,Buffer,1);          
   \   00000136   0123               MOVS     R3,#+1
   \   00000138   ........           LDR.W    R2,??DataTable41_33
   \   0000013C   1021               MOVS     R1,#+16
   \   0000013E   0020               MOVS     R0,#+0
   \   00000140   ........           BL       GLcd_PutString2
   \   00000144   FFE7               B.N      ??main_2
   1486                    
   1487                    while(1)
   1488                    {
   1489                         Wifi_Send();
   1490                         RF_TestCommuncation();                      // RF 모듈 데이터 처리 실시간 처리               
   1491                         SendMessage();			               // 시리얼 데이터를 처리한다.                         
   1492                         if(!CheckTimeOver(10,Main_Timer))       // 없을 경우 
   1493                              continue;
   \                     ??main_3:
   \                     ??main_2:
   \   00000146   ........           BL       Wifi_Send
   \   0000014A   ........           BL       RF_TestCommuncation
   \   0000014E   ........           BL       SendMessage
   \   00000152   ....               LDR.N    R0,??DataTable41_32
   \   00000154   0188               LDRH     R1,[R0, #+0]
   \   00000156   0A20               MOVS     R0,#+10
   \   00000158   ........           BL       CheckTimeOver
   \   0000015C   0028               CMP      R0,#+0
   \   0000015E   F2D0               BEQ.N    ??main_3
   1494                         
   1495                         Main_Timer = MS_TIMER;  	// 타이머 5               
   \   00000160   ....               LDR.N    R0,??DataTable41_31  ;; 0x40000c00
   \   00000162   ........           BL       TIM_GetCounter
   \   00000166   ....               LDR.N    R1,??DataTable41_32
   \   00000168   0880               STRH     R0,[R1, #+0]
   1496          //               if( First_Setting == 0 )      // 전원 온시 와이파이 세팅 한번하기
   1497          //               {
   1498          ////                    SettingWIFI("118.107.161.68,9513,TAEHO,taeho9901");
   1499          //                    First_Setting = 1;
   1500          //               }
   1501                         IWDG_ReloadCounter();
   \   0000016A   ........           BL       IWDG_ReloadCounter
   1502                         
   1503                         TestKey();               
   \   0000016E   ........           BL       TestKey
   1504          
   1505                         Wifi_TestProcess();
   \   00000172   ........           BL       Wifi_TestProcess
   1506                         
   1507                         Voice_Process();
   \   00000176   ........           BL       Voice_Process
   \   0000017A   E4E7               B.N      ??main_2
   1508                    }
   1509               }
   1510               
   1511          
   1512               
   1513               while(1)
   1514               {    
   1515                    IWDG_ReloadCounter();                   // Clear IWDG
   1516                    SYSTEM_STEP = 0;
   1517                    
   1518                    GraphicOUT_Process();                   // LCD화면 디스플레이 실제처리          
   1519                    SYSTEM_STEP++;          
   1520                    
   1521                    RF_Communcation();                      // RF 모듈 데이터 처리 실시간 처리
   1522                    SYSTEM_STEP++;          
   1523                    
   1524                    SendMessage();			               // 시리얼 데이터를 처리한다.
   1525                    SYSTEM_STEP++;          
   1526                    
   1527                    Ems_realtime_Check();                   // I/O 체크
   1528                    SYSTEM_STEP++;
   1529                    
   1530                    //---------- GPS_Recieve -------------------------------------------
   1531                    
   1532                    GPS_Process();
   1533                    SYSTEM_STEP++;       
   1534                    
   1535                    //--------------------------------------------------------------------
   1536          
   1537                    Wifi_Send();
   1538                    SYSTEM_STEP++;         
   1539          
   1540                    PC_Serial();
   1541                    SYSTEM_STEP++;          
   1542          //          WWDG_SetCounter(127);
   1543                    
   1544                    // ---------- USB Process -------------------------------------------         
   1545                    // Host Task handler 
   1546                    if(USB_Device == 0)
   1547                         USBH_Process(&USB_OTG_Core, &USB_Host);
   1548                    SYSTEM_STEP++;
   1549                    
   1550                    if(!CheckTimeOver(10,Main_Timer))       // 없을 경우 
   1551                         continue;
   \                     ??main_4:
   \                     ??main_1:
   \   0000017C   ........           BL       IWDG_ReloadCounter
   \   00000180   ....               LDR.N    R0,??DataTable41_5
   \   00000182   0021               MOVS     R1,#+0
   \   00000184   0180               STRH     R1,[R0, #+0]
   \   00000186   ........           BL       GraphicOUT_Process
   \   0000018A   ....               LDR.N    R0,??DataTable41_5
   \   0000018C   0088               LDRH     R0,[R0, #+0]
   \   0000018E   401C               ADDS     R0,R0,#+1
   \   00000190   ....               LDR.N    R1,??DataTable41_5
   \   00000192   0880               STRH     R0,[R1, #+0]
   \   00000194   ........           BL       RF_Communcation
   \   00000198   ....               LDR.N    R0,??DataTable41_5
   \   0000019A   0088               LDRH     R0,[R0, #+0]
   \   0000019C   401C               ADDS     R0,R0,#+1
   \   0000019E   ....               LDR.N    R1,??DataTable41_5
   \   000001A0   0880               STRH     R0,[R1, #+0]
   \   000001A2   ........           BL       SendMessage
   \   000001A6   ....               LDR.N    R0,??DataTable41_5
   \   000001A8   0088               LDRH     R0,[R0, #+0]
   \   000001AA   401C               ADDS     R0,R0,#+1
   \   000001AC   ....               LDR.N    R1,??DataTable41_5
   \   000001AE   0880               STRH     R0,[R1, #+0]
   \   000001B0   ........           BL       Ems_realtime_Check
   \   000001B4   ....               LDR.N    R0,??DataTable41_5
   \   000001B6   0088               LDRH     R0,[R0, #+0]
   \   000001B8   401C               ADDS     R0,R0,#+1
   \   000001BA   ....               LDR.N    R1,??DataTable41_5
   \   000001BC   0880               STRH     R0,[R1, #+0]
   \   000001BE   ........           BL       GPS_Process
   \   000001C2   ....               LDR.N    R0,??DataTable41_5
   \   000001C4   0088               LDRH     R0,[R0, #+0]
   \   000001C6   401C               ADDS     R0,R0,#+1
   \   000001C8   ....               LDR.N    R1,??DataTable41_5
   \   000001CA   0880               STRH     R0,[R1, #+0]
   \   000001CC   ........           BL       Wifi_Send
   \   000001D0   ....               LDR.N    R0,??DataTable41_5
   \   000001D2   0088               LDRH     R0,[R0, #+0]
   \   000001D4   401C               ADDS     R0,R0,#+1
   \   000001D6   ....               LDR.N    R1,??DataTable41_5
   \   000001D8   0880               STRH     R0,[R1, #+0]
   \   000001DA   ........           BL       PC_Serial
   \   000001DE   ....               LDR.N    R0,??DataTable41_5
   \   000001E0   0088               LDRH     R0,[R0, #+0]
   \   000001E2   401C               ADDS     R0,R0,#+1
   \   000001E4   ....               LDR.N    R1,??DataTable41_5
   \   000001E6   0880               STRH     R0,[R1, #+0]
   \   000001E8   ....               LDR.N    R0,??DataTable41_22
   \   000001EA   0078               LDRB     R0,[R0, #+0]
   \   000001EC   0028               CMP      R0,#+0
   \   000001EE   03D1               BNE.N    ??main_5
   \   000001F0   ....               LDR.N    R1,??DataTable41_25
   \   000001F2   ....               LDR.N    R0,??DataTable41_26
   \   000001F4   ........           BL       USBH_Process
   \                     ??main_5:
   \   000001F8   ....               LDR.N    R0,??DataTable41_5
   \   000001FA   0088               LDRH     R0,[R0, #+0]
   \   000001FC   401C               ADDS     R0,R0,#+1
   \   000001FE   ....               LDR.N    R1,??DataTable41_5
   \   00000200   0880               STRH     R0,[R1, #+0]
   \   00000202   ....               LDR.N    R0,??DataTable41_32
   \   00000204   0188               LDRH     R1,[R0, #+0]
   \   00000206   0A20               MOVS     R0,#+10
   \   00000208   ........           BL       CheckTimeOver
   \   0000020C   0028               CMP      R0,#+0
   \   0000020E   B5D0               BEQ.N    ??main_4
   1552          
   1553                    Main_Timer = MS_TIMER;  	// 타이머 5
   \   00000210   ....               LDR.N    R0,??DataTable41_31  ;; 0x40000c00
   \   00000212   ........           BL       TIM_GetCounter
   \   00000216   ....               LDR.N    R1,??DataTable41_32
   \   00000218   0880               STRH     R0,[R1, #+0]
   1554          
   1555                    //---------- ADC 읽기 -------------------------------------------
   1556                    
   1557                    Get_ADC_Data();	   // ADC에서 데이를 읽어온다.
   \   0000021A   ........           BL       Get_ADC_Data
   1558                    SYSTEM_STEP++;
   \   0000021E   ....               LDR.N    R0,??DataTable41_5
   \   00000220   0088               LDRH     R0,[R0, #+0]
   \   00000222   401C               ADDS     R0,R0,#+1
   \   00000224   ....               LDR.N    R1,??DataTable41_5
   \   00000226   0880               STRH     R0,[R1, #+0]
   1559                    //---------- 차량운행종료  -------------------------------------------
   1560                    
   1561                    Battery_Check(); 			// 자동차 운행 종료시 처리 할일을 처리한다.
   \   00000228   ........           BL       Battery_Check
   1562                    SYSTEM_STEP++;
   \   0000022C   ....               LDR.N    R0,??DataTable41_5
   \   0000022E   0088               LDRH     R0,[R0, #+0]
   \   00000230   401C               ADDS     R0,R0,#+1
   \   00000232   ....               LDR.N    R1,??DataTable41_5
   \   00000234   0880               STRH     R0,[R1, #+0]
   1563                    // --------- 기본 기능 ----------------------------------------------
   1564          
   1565                    KeyProcess();			// 키입력을 처리한다.
   \   00000236   ........           BL       KeyProcess
   1566                    SYSTEM_STEP++;
   \   0000023A   ....               LDR.N    R0,??DataTable41_5
   \   0000023C   0088               LDRH     R0,[R0, #+0]
   \   0000023E   401C               ADDS     R0,R0,#+1
   \   00000240   ....               LDR.N    R1,??DataTable41_5
   \   00000242   0880               STRH     R0,[R1, #+0]
   1567                    
   1568                    Display();			// LCD화면에 디스플레이 한다.
   \   00000244   ........           BL       Display
   1569                    SYSTEM_STEP++;           //10
   \   00000248   ....               LDR.N    R0,??DataTable41_5
   \   0000024A   0088               LDRH     R0,[R0, #+0]
   \   0000024C   401C               ADDS     R0,R0,#+1
   \   0000024E   ....               LDR.N    R1,??DataTable41_5
   \   00000250   0880               STRH     R0,[R1, #+0]
   1570                    
   1571                    //---------- 타이머 --------------------------------------------------
   1572                          
   1573                    RTC_TimeShow(); 		// RTC 시간을 읽어서 변수에 저장 
   \   00000252   ........           BL       RTC_TimeShow
   1574                    SYSTEM_STEP++;      //10
   \   00000256   ....               LDR.N    R0,??DataTable41_5
   \   00000258   0088               LDRH     R0,[R0, #+0]
   \   0000025A   401C               ADDS     R0,R0,#+1
   \   0000025C   ....               LDR.N    R1,??DataTable41_5
   \   0000025E   0880               STRH     R0,[R1, #+0]
   1575          
   1576                    // --------- TILT Check ----------------------------------------------		
   1577                            
   1578                    Tilt_Check();
   \   00000260   ........           BL       Tilt_Check
   1579                    SYSTEM_STEP++;
   \   00000264   ....               LDR.N    R0,??DataTable41_5
   \   00000266   0088               LDRH     R0,[R0, #+0]
   \   00000268   401C               ADDS     R0,R0,#+1
   \   0000026A   ....               LDR.N    R1,??DataTable41_5
   \   0000026C   0880               STRH     R0,[R1, #+0]
   1580                    
   1581                    //--------- [인터럽트 ] SPEED & RPM & LPG_PWM 검사 -------------------
   1582                    
   1583                    SpeedCheck();			// 속도를 읽어온다.
   \   0000026E   ........           BL       SpeedCheck
   1584                    SYSTEM_STEP++;
   \   00000272   ....               LDR.N    R0,??DataTable41_5
   \   00000274   0088               LDRH     R0,[R0, #+0]
   \   00000276   401C               ADDS     R0,R0,#+1
   \   00000278   ....               LDR.N    R1,??DataTable41_5
   \   0000027A   0880               STRH     R0,[R1, #+0]
   1585                    
   1586                    RPMCheck();			// RPM을 읽어온다.	   
   \   0000027C   ........           BL       RPMCheck
   1587                    SYSTEM_STEP++;
   \   00000280   ....               LDR.N    R0,??DataTable41_5
   \   00000282   0088               LDRH     R0,[R0, #+0]
   \   00000284   401C               ADDS     R0,R0,#+1
   \   00000286   ....               LDR.N    R1,??DataTable41_5
   \   00000288   0880               STRH     R0,[R1, #+0]
   1588                    
   1589                    LPGPWM_Check();
   \   0000028A   ........           BL       LPGPWM_Check
   1590                    SYSTEM_STEP++;
   \   0000028E   ....               LDR.N    R0,??DataTable41_5
   \   00000290   0088               LDRH     R0,[R0, #+0]
   \   00000292   401C               ADDS     R0,R0,#+1
   \   00000294   ....               LDR.N    R1,??DataTable41_5
   \   00000296   0880               STRH     R0,[R1, #+0]
   1591                    
   1592                    //---------- 보이스 출력 ----- -------------------------------------
   1593                    
   1594                    Voice_Process();
   \   00000298   ........           BL       Voice_Process
   1595                    SYSTEM_STEP++;
   \   0000029C   ....               LDR.N    R0,??DataTable41_5
   \   0000029E   0088               LDRH     R0,[R0, #+0]
   \   000002A0   401C               ADDS     R0,R0,#+1
   \   000002A2   ....               LDR.N    R1,??DataTable41_5
   \   000002A4   0880               STRH     R0,[R1, #+0]
   1596                    
   1597                    //---------- 와이파이 데이터 처리 ------------------------------------
   1598                    
   1599                    Wifi_Process();
   \   000002A6   ........           BL       Wifi_Process
   1600                    SYSTEM_STEP++;
   \   000002AA   ....               LDR.N    R0,??DataTable41_5
   \   000002AC   0088               LDRH     R0,[R0, #+0]
   \   000002AE   401C               ADDS     R0,R0,#+1
   \   000002B0   ....               LDR.N    R1,??DataTable41_5
   \   000002B2   0880               STRH     R0,[R1, #+0]
   1601                              
   1602                    //---------- Serial 데이터 처리 ------------------------------------
   1603                                     
   1604                    PC_Communication();
   \   000002B4   ........           BL       PC_Communication
   1605                    SYSTEM_STEP++;
   \   000002B8   ....               LDR.N    R0,??DataTable41_5
   \   000002BA   0088               LDRH     R0,[R0, #+0]
   \   000002BC   401C               ADDS     R0,R0,#+1
   \   000002BE   ....               LDR.N    R1,??DataTable41_5
   \   000002C0   0880               STRH     R0,[R1, #+0]
   1606                    // ----------  운행 관려하여 데이터 처리 ----------------------------
   1607                    
   1608                    Drive_Process();
   \   000002C2   ........           BL       Drive_Process
   1609                    SYSTEM_STEP++;
   \   000002C6   ....               LDR.N    R0,??DataTable41_5
   \   000002C8   0088               LDRH     R0,[R0, #+0]
   \   000002CA   401C               ADDS     R0,R0,#+1
   \   000002CC   ....               LDR.N    R1,??DataTable41_5
   \   000002CE   0880               STRH     R0,[R1, #+0]
   1610                    
   1611                    //---------- Memroy [NAND] -------------------------------------------
   1612                    
   1613                    Infomation_Process();
   \   000002D0   ........           BL       Infomation_Process
   1614                    SYSTEM_STEP++;           // 메모리 저장 20
   \   000002D4   ....               LDR.N    R0,??DataTable41_5
   \   000002D6   0088               LDRH     R0,[R0, #+0]
   \   000002D8   401C               ADDS     R0,R0,#+1
   \   000002DA   ....               LDR.N    R1,??DataTable41_5
   \   000002DC   0880               STRH     R0,[R1, #+0]
   1615                    
   1616                    Drive_Acceident_Check();
                           ^
Warning[Pe223]: function "Drive_Acceident_Check" declared implicitly
   \   000002DE   ........           BL       Drive_Acceident_Check
   1617                    SYSTEM_STEP++;           // 메모리 저장 20
   \   000002E2   ....               LDR.N    R0,??DataTable41_5
   \   000002E4   0088               LDRH     R0,[R0, #+0]
   \   000002E6   401C               ADDS     R0,R0,#+1
   \   000002E8   ....               LDR.N    R1,??DataTable41_5
   \   000002EA   0880               STRH     R0,[R1, #+0]
   1618                    
   1619                    Memory_Process();	     // NAND에 저장 한다.
                           ^
Warning[Pe223]: function "Memory_Process" declared implicitly

       u8 First_Setting;
          ^
"F:\Work\S&G2000\Firmware\DTG_EMS_SYSTEM\Project\main.c",1337  Warning[Pe550]: 
          variable "First_Setting" was set but never used
   \   000002EC   ........           BL       Memory_Process
   1620                    SYSTEM_STEP++;
   \   000002F0   ....               LDR.N    R0,??DataTable41_5
   \   000002F2   0088               LDRH     R0,[R0, #+0]
   \   000002F4   401C               ADDS     R0,R0,#+1
   \   000002F6   ....               LDR.N    R1,??DataTable41_5
   \   000002F8   0880               STRH     R0,[R1, #+0]
   1621                    
   1622                    // -------- ECO 드라이빙 ---------------------------------------------
   1623                    
   1624                    ECO_Driving_Check();          // 
   \   000002FA   ........           BL       ECO_Driving_Check
   1625                    SYSTEM_STEP++;
   \   000002FE   ....               LDR.N    R0,??DataTable41_5
   \   00000300   0088               LDRH     R0,[R0, #+0]
   \   00000302   401C               ADDS     R0,R0,#+1
   \   00000304   ....               LDR.N    R1,??DataTable41_5
   \   00000306   0880               STRH     R0,[R1, #+0]
   1626                    
   1627                    Emergency();                       // 스타트 출력이 3초이상 계속 나가고 있을경우 강제 클리어
   \   00000308   ........           BL       Emergency
   1628                    SYSTEM_STEP++;
   \   0000030C   ....               LDR.N    R0,??DataTable41_5
   \   0000030E   0088               LDRH     R0,[R0, #+0]
   \   00000310   401C               ADDS     R0,R0,#+1
   \   00000312   ....               LDR.N    R1,??DataTable41_5
   \   00000314   0880               STRH     R0,[R1, #+0]
   1629                    
   1630                    Ems_Port_Check();			     // 입력 포트를 검사한다.
   \   00000316   ........           BL       Ems_Port_Check
   1631                    SYSTEM_STEP++;         
   \   0000031A   ....               LDR.N    R0,??DataTable41_5
   \   0000031C   0088               LDRH     R0,[R0, #+0]
   \   0000031E   401C               ADDS     R0,R0,#+1
   \   00000320   ....               LDR.N    R1,??DataTable41_5
   \   00000322   0880               STRH     R0,[R1, #+0]
   1632                         EMS_Driving_Check();
   \   00000324   ........           BL       EMS_Driving_Check
   1633                         SYSTEM_STEP++;          
   \   00000328   ....               LDR.N    R0,??DataTable41_5
   \   0000032A   0088               LDRH     R0,[R0, #+0]
   \   0000032C   401C               ADDS     R0,R0,#+1
   \   0000032E   ....               LDR.N    R1,??DataTable41_5
   \   00000330   0880               STRH     R0,[R1, #+0]
   1634                    // --------- EMS ----------------------------------------------------
   1635                    if(SFLASH_Memory.EMS.USE_Enable && ( Flag.Machine_Error == 0 ) )         // EMS를 사용할지 확인한다. 
   \   00000332   ....               LDR.N    R0,??DataTable41_7
   \   00000334   90F88A00           LDRB     R0,[R0, #+138]
   \   00000338   0028               CMP      R0,#+0
   \   0000033A   3FF41FAF           BEQ.W    ??main_1
   \   0000033E   ....               LDR.N    R0,??DataTable41_8
   \   00000340   807C               LDRB     R0,[R0, #+18]
   \   00000342   0028               CMP      R0,#+0
   \   00000344   7FF41AAF           BNE.W    ??main_1
   1636                    {
   1637          
   1638                         EngineOn_EMSCheck(); 			// 현재 시동온동작인지 체크 한다.
   \   00000348   ........           BL       EngineOn_EMSCheck
   1639                         SYSTEM_STEP++;
   \   0000034C   ....               LDR.N    R0,??DataTable41_5
   \   0000034E   0088               LDRH     R0,[R0, #+0]
   \   00000350   401C               ADDS     R0,R0,#+1
   \   00000352   ....               LDR.N    R1,??DataTable41_5
   \   00000354   0880               STRH     R0,[R1, #+0]
   1640                         EngineOn_Action();				// 시동온 동작을 시항한다.
   \   00000356   ........           BL       EngineOn_Action
   1641                         SYSTEM_STEP++;
   \   0000035A   ....               LDR.N    R0,??DataTable41_5
   \   0000035C   0088               LDRH     R0,[R0, #+0]
   \   0000035E   401C               ADDS     R0,R0,#+1
   \   00000360   ....               LDR.N    R1,??DataTable41_5
   \   00000362   0880               STRH     R0,[R1, #+0]
   1642                         Relay_Off_Clear();                 // 동작 온시                
   \   00000364   ........           BL       Relay_Off_Clear
   1643                         SYSTEM_STEP++;
   \   00000368   ....               LDR.N    R0,??DataTable41_5
   \   0000036A   0088               LDRH     R0,[R0, #+0]
   \   0000036C   401C               ADDS     R0,R0,#+1
   \   0000036E   ....               LDR.N    R1,??DataTable41_5
   \   00000370   0880               STRH     R0,[R1, #+0]
   1644                         EngineOff_EMSCheck();			// 시동오프 동작체크한다.
   \   00000372   ........           BL       EngineOff_EMSCheck
   1645                         SYSTEM_STEP++;
   \   00000376   ....               LDR.N    R0,??DataTable41_5
   \   00000378   0088               LDRH     R0,[R0, #+0]
   \   0000037A   401C               ADDS     R0,R0,#+1
   \   0000037C   ....               LDR.N    R1,??DataTable41_5
   \   0000037E   0880               STRH     R0,[R1, #+0]
   1646                         EngineOff_Action();				// 시동오프 동작을 실행한다.               
   \   00000380   ........           BL       EngineOff_Action
   1647                         SYSTEM_STEP++;
   \   00000384   ....               LDR.N    R0,??DataTable41_5
   \   00000386   0088               LDRH     R0,[R0, #+0]
   \   00000388   401C               ADDS     R0,R0,#+1
   \   0000038A   ....               LDR.N    R1,??DataTable41_5
   \   0000038C   0880               STRH     R0,[R1, #+0]
   1648                         EMS_Watching();				// EMS 기능을 이외의 변수(키를 검사)해서 처리
   \   0000038E   ........           BL       EMS_Watching
   1649                         SYSTEM_STEP++;
   \   00000392   ....               LDR.N    R0,??DataTable41_5
   \   00000394   0088               LDRH     R0,[R0, #+0]
   \   00000396   401C               ADDS     R0,R0,#+1
   \   00000398   ....               LDR.N    R1,??DataTable41_5
   \   0000039A   0880               STRH     R0,[R1, #+0]
   \   0000039C   EEE6               B.N      ??main_1
   1650          
   1651                    }
   1652                     //-------------------------------------------------------------------
   1653               }
   1654          }      

   \                                 In section .bss, align 2
   \                     ??Main_Timer:
   \   00000000                      DS8 2
   1655          
   1656          ///////////////////////////////////////////////////////////////////////////////////////// 
   1657          /////////////////////////////////////////////////////////////////////////////////////////
   1658          
   1659          /**
   1660          * @brief  Retargets the C library printf function to the USART.
   1661          * @param  None
   1662          * @retval None
   1663          */

   \                                 In section .text, align 2, keep-with-next
   1664          PUTCHAR_PROTOTYPE
   1665          {
   \                     fputc:
   \   00000000   10B5               PUSH     {R4,LR}
   \   00000002   0400               MOVS     R4,R0
   1666          	/* Place your implementation of fputc here */
   1667          	/* e.g. write a character to the USART */
   1668          	//  USART_SendData(EVAL_COM1, (uint8_t) ch);
   1669          	USART_SendData(USART1, (uint8_t) ch); 
   \   00000004   2100               MOVS     R1,R4
   \   00000006   C9B2               UXTB     R1,R1            ;; ZeroExt  R1,R1,#+24,#+24
   \   00000008   89B2               UXTH     R1,R1            ;; ZeroExt  R1,R1,#+16,#+16
   \   0000000A   ....               LDR.N    R0,??DataTable41_34  ;; 0x40011000
   \   0000000C   ........           BL       USART_SendData
   1670          	
   1671          	/* Loop until the end of transmission */
   1672          	//  while (USART_GetFlagStatus(EVAL_COM1, USART_FLAG_TC) == RESET)
   1673          	while (USART_GetFlagStatus(USART1, USART_FLAG_TC) == RESET)  
   \                     ??fputc_0:
   \   00000010   4021               MOVS     R1,#+64
   \   00000012   ....               LDR.N    R0,??DataTable41_34  ;; 0x40011000
   \   00000014   ........           BL       USART_GetFlagStatus
   \   00000018   0028               CMP      R0,#+0
   \   0000001A   F9D0               BEQ.N    ??fputc_0
   1674          	{}
   1675          	
   1676          	return ch;
   \   0000001C   2000               MOVS     R0,R4
   \   0000001E   10BD               POP      {R4,PC}          ;; return
   1677          }
   1678          
   1679          /**
   1680          * @brief  Inserts a delay time.
   1681          * @param  nTime: specifies the delay time length, in 10 ms.
   1682          * @retval None
   1683          */

   \                                 In section .text, align 2, keep-with-next
   1684          void Delay(__IO uint32_t nTime)
   1685          {
   \                     Delay:
   \   00000000   01B4               PUSH     {R0}
   1686          	//uint32_t i;
   1687          	//for(i=0; nTime > i; i++);   
   1688          	Timer_1ms = 0;
   \   00000002   ....               LDR.N    R0,??DataTable41_4
   \   00000004   0021               MOVS     R1,#+0
   \   00000006   0180               STRH     R1,[R0, #+0]
   1689          	TimingDelay = nTime;
   \   00000008   ....               LDR.N    R0,??DataTable41_35
   \   0000000A   0099               LDR      R1,[SP, #+0]
   \   0000000C   0160               STR      R1,[R0, #+0]
   1690          	
   1691          	while(TimingDelay > Timer_1ms);
   \                     ??Delay_0:
   \   0000000E   ....               LDR.N    R0,??DataTable41_4
   \   00000010   0088               LDRH     R0,[R0, #+0]
   \   00000012   ....               LDR.N    R1,??DataTable41_35
   \   00000014   0968               LDR      R1,[R1, #+0]
   \   00000016   8842               CMP      R0,R1
   \   00000018   F9D3               BCC.N    ??Delay_0
   1692          }
   \   0000001A   01B0               ADD      SP,SP,#+4
   \   0000001C   7047               BX       LR               ;; return
   1693          
   1694          /**
   1695          * @brief  Decrements the TimingDelay variable.
   1696          * @param  None
   1697          * @retval None
   1698          */

   \                                 In section .text, align 2, keep-with-next
   1699          void TimingDelay_Decrement(void)
   1700          {
   1701          	if (TimingDelay != 0x00)
   \                     TimingDelay_Decrement:
   \   00000000   ....               LDR.N    R0,??DataTable41_35
   \   00000002   0068               LDR      R0,[R0, #+0]
   \   00000004   0028               CMP      R0,#+0
   \   00000006   04D0               BEQ.N    ??TimingDelay_Decrement_0
   1702          	{ 
   1703          		TimingDelay--;
   \   00000008   ....               LDR.N    R0,??DataTable41_35
   \   0000000A   0068               LDR      R0,[R0, #+0]
   \   0000000C   401E               SUBS     R0,R0,#+1
   \   0000000E   ....               LDR.N    R1,??DataTable41_35
   \   00000010   0860               STR      R0,[R1, #+0]
   1704          	}
   1705          }
   \                     ??TimingDelay_Decrement_0:
   \   00000012   7047               BX       LR               ;; return

   \                                 In section .text, align 4, keep-with-next
   \                     ??DataTable31:
   \   00000000   18ED00E0           DC32     0xe000ed18

   \                                 In section .text, align 4, keep-with-next
   \                     ??DataTable31_1:
   \   00000000   00E400E0           DC32     0xe000e400

   \                                 In section .text, align 4, keep-with-next
   \                     ??DataTable31_2:
   \   00000000   14E000E0           DC32     0xe000e014

   \                                 In section .text, align 4, keep-with-next
   \                     ??DataTable31_3:
   \   00000000   18E000E0           DC32     0xe000e018

   \                                 In section .text, align 4, keep-with-next
   \                     ??DataTable31_4:
   \   00000000   10E000E0           DC32     0xe000e010

   \                                 In section .text, align 4, keep-with-next
   \                     ??DataTable31_5:
   \   00000000   00180240           DC32     0x40021800

   \                                 In section .text, align 4, keep-with-next
   \                     ??DataTable31_6:
   \   00000000   ........           DC32     `?<Constant "IWDGRST flag set ...\\n">`

   \                                 In section .text, align 4, keep-with-next
   \                     ??DataTable31_7:
   \   00000000   ........           DC32     Flag

   \                                 In section .text, align 4, keep-with-next
   \                     ??DataTable31_8:
   \   00000000   ........           DC32     `?<Constant "IWDGRST flag is not s...">`

   \                                 In section .text, align 4, keep-with-next
   \                     ??DataTable31_9:
   \   00000000   ........           DC32     `?<Constant " WatchDog Reset !!!!!...">`

   \                                 In section .text, align 4, keep-with-next
   \                     ??DataTable31_10:
   \   00000000   00080240           DC32     0x40020800

   \                                 In section .text, align 4, keep-with-next
   \                     ??DataTable31_11:
   \   00000000   000C0240           DC32     0x40020c00

   \                                 In section .text, align 4, keep-with-next
   \                     ??DataTable31_12:
   \   00000000   00000240           DC32     0x40020000

   \                                 In section .text, align 4, keep-with-next
   \                     ??DataTable31_13:
   \   00000000   00100240           DC32     0x40021000

   \                                 In section .text, align 4, keep-with-next
   \                     ??DataTable32:
   \   00000000   ........           DC32     `?<Constant " Normal BootOn WatchD...">`

   \                                 In section .text, align 4, keep-with-next
   \                     ??DataTable32_1:
   \   00000000   00040240           DC32     0x40020400

   \                                 In section .text, align 4, keep-with-next
   \                     ??DataTable35:
   \   00000000   00040040           DC32     0x40000400

   \                                 In section .text, align 4, keep-with-next
   \                     ??DataTable35_1:
   \   00000000   000C0040           DC32     0x40000c00

   \                                 In section .text, align 4, keep-with-next
   \                     ??DataTable35_2:
   \   00000000   00100040           DC32     0x40001000

   \                                 In section .text, align 4, keep-with-next
   \                     ??DataTable35_3:
   \   00000000   00140040           DC32     0x40001400

   \                                 In section .text, align 4, keep-with-next
   \                     ??DataTable35_4:
   \   00000000   00040140           DC32     0x40010400

   \                                 In section .text, align 4, keep-with-next
   \                     ??DataTable35_5:
   \   00000000   ........           DC32     Timer_1Sec

   \                                 In section .text, align 4, keep-with-next
   \                     ??DataTable35_6:
   \   00000000   ........           DC32     ??SPEED_Timer

   \                                 In section .text, align 4, keep-with-next
   \                     ??DataTable35_7:
   \   00000000   ........           DC32     SPEED_Count

   \                                 In section .text, align 4, keep-with-next
   \                     ??DataTable35_8:
   \   00000000   ........           DC32     `?<Constant "[%d] ">`

   \                                 In section .text, align 4, keep-with-next
   \                     ??DataTable35_9:
   \   00000000   ........           DC32     SPEED_Buffer

   \                                 In section .text, align 4, keep-with-next
   \                     ??DataTable35_10:
   \   00000000   ........           DC32     `?<Constant "%.1f \\r\\n">`

   \                                 In section .text, align 4, keep-with-next
   \                     ??DataTable35_11:
   \   00000000   ........           DC32     ??SPEED_Timer_1

   \                                 In section .text, align 4, keep-with-next
   \                     ??DataTable35_12:
   \   00000000   0100C03F           DC32     0x3fc00001

   \                                 In section .text, align 4, keep-with-next
   \                     ??DataTable35_13:
   \   00000000   ........           DC32     SPEED_Check

   \                                 In section .text, align 4, keep-with-next
   \                     ??DataTable35_14:
   \   00000000   ........           DC32     ??Low_Count

   \                                 In section .text, align 4, keep-with-next
   \                     ??DataTable35_15:
   \   00000000   ........           DC32     ??error_flg3

   \                                 In section .text, align 4, keep-with-next
   \                     ??DataTable35_16:
   \   00000000   ........           DC32     Info

   \                                 In section .text, align 4, keep-with-next
   \                     ??DataTable35_17:
   \   00000000   ........           DC32     ??RPM_Timer

   \                                 In section .text, align 4, keep-with-next
   \                     ??DataTable35_18:
   \   00000000   A0860100           DC32     0x186a0

   \                                 In section .text, align 4, keep-with-next
   \                     ??DataTable35_19:
   \   00000000   1904560E           DC32     0xe560419

   \                                 In section .text, align 4, keep-with-next
   \                     ??DataTable35_20:
   \   00000000   2DB2F73F           DC32     0x3ff7b22d

   \                                 In section .text, align 4, keep-with-next
   \                     ??DataTable35_21:
   \   00000000   ........           DC32     Set_Info

   \                                 In section .text, align 4, keep-with-next
   \                     ??DataTable35_22:
   \   00000000   ........           DC32     Flag

   \                                 In section .text, align 4, keep-with-next
   \                     `?<Constant "IWDGRST flag set ...\\n">`:
   \   00000000                      ; Initializer data, 24 bytes
   \   00000000   495744475253       DC8 73, 87, 68, 71, 82, 83, 84, 32, 102, 108
   \              5420666C    
   \   0000000A   616720736574       DC8 97, 103, 32, 115, 101, 116, 32, 46, 46, 46
   \              202E2E2E    
   \   00000014   0A000000           DC8 10, 0, 0, 0

   \                                 In section .text, align 4, keep-with-next
   \                     `?<Constant "IWDGRST flag is not s...">`:
   \   00000000                      ; Initializer data, 32 bytes
   \   00000000   495744475253       DC8 73, 87, 68, 71, 82, 83, 84, 32, 102, 108
   \              5420666C    
   \   0000000A   616720697320       DC8 97, 103, 32, 105, 115, 32, 110, 111, 116, 32
   \              6E6F7420    
   \   00000014   736574202E2E       DC8 115, 101, 116, 32, 46, 46, 46, 10, 0, 0
   \              2E0A0000    
   \   0000001E   0000               DC8 0, 0

   \                                 In section .text, align 4, keep-with-next
   \                     `?<Constant " WatchDog Reset !!!!!...">`:
   \   00000000                      ; Initializer data, 40 bytes
   \   00000000   205761746368       DC8 32, 87, 97, 116, 99, 104, 68, 111, 103, 32
   \              446F6720    
   \   0000000A   526573657420       DC8 82, 101, 115, 101, 116, 32, 33, 33, 33, 33
   \              21212121    
   \   00000014   212121212121       DC8 33, 33, 33, 33, 33, 33, 33, 33, 33, 33
   \              21212121    
   \   0000001E   212121200D0A       DC8 33, 33, 33, 32, 13, 10, 0, 0, 0, 0
   \              00000000    

   \                                 In section .text, align 4, keep-with-next
   \                     `?<Constant " Normal BootOn WatchD...">`:
   \   00000000                      ; Initializer data, 36 bytes
   \   00000000   204E6F726D61       DC8 32, 78, 111, 114, 109, 97, 108, 32, 66, 111
   \              6C20426F    
   \   0000000A   6F744F6E2057       DC8 111, 116, 79, 110, 32, 87, 97, 116, 99, 104
   \              61746368    
   \   00000014   446F67205374       DC8 68, 111, 103, 32, 83, 116, 97, 114, 116, 32
   \              61727420    
   \   0000001E   0D0A00000000       DC8 13, 10, 0, 0, 0, 0

   \                                 In section .text, align 4, keep-with-next
   \                     ??DataTable36:
   \   00000000   ........           DC32     Speed_Check_Count

   \                                 In section .text, align 4, keep-with-next
   \                     ??DataTable36_1:
   \   00000000   ........           DC32     Speed_Buffer1

   \                                 In section .text, align 4, keep-with-next
   \                     ??DataTable36_2:
   \   00000000   ........           DC32     Speed_Buffer2

   \                                 In section .text, align 4, keep-with-next
   \                     ??DataTable37:
   \   00000000   ........           DC32     ??RPM_Timer_1

   \                                 In section .text, align 4, keep-with-next
   \                     ??DataTable37_1:
   \   00000000   ........           DC32     RPM_Count

   \                                 In section .text, align 4, keep-with-next
   \                     ??DataTable37_2:
   \   00000000   ........           DC32     RPM_Buffer

   \                                 In section .text, align 4, keep-with-next
   \                     ??DataTable37_3:
   \   00000000   ........           DC32     ??Low_Count_1

   \                                 In section .text, align 4, keep-with-next
   \                     ??DataTable37_4:
   \   00000000   80841E00           DC32     0x1e8480

   \                                 In section .text, align 4, keep-with-next
   \                     ??DataTable37_5:
   \   00000000   ........           DC32     ??LPGPWM_Timer

   \                                 In section .text, align 4, keep-with-next
   \                     ??DataTable37_6:
   \   00000000   ........           DC32     LPGBuffer

   \                                 In section .text, align 4, keep-with-next
   \                     ??DataTable37_7:
   \   00000000   ........           DC32     LPG_Count

   \                                 In section .text, align 4, keep-with-next
   \                     ??DataTable37_8:
   \   00000000   ........           DC32     ??IO_Check_Timer

   \                                 In section .text, align 4, keep-with-next
   \                     ??DataTable37_9:
   \   00000000   ........           DC32     SYSTEM_TIME_BINARY

   \                                 In section .text, align 4, keep-with-next
   \                     ??DataTable37_10:
   \   00000000   ........           DC32     TiltInfo

   \                                 In section .text, align 4, keep-with-next
   \                     ??DataTable37_11:
   \   00000000   ........           DC32     OUTPUT_DATA

   \                                 In section .text, align 4, keep-with-next
   \                     ??DataTable37_12:
   \   00000000   ........           DC32     AccidentPoint

   \                                 In section .text, align 4, keep-with-next
   \                     ??DataTable37_13:
   \   00000000   ........           DC32     Accident_Buffer

   \                                 In section .text, align 4, keep-with-next
   \                     ??DataTable37_14:
   \   00000000   ........           DC32     ??IO_Check_Timer2

   \                                 In section .text, align 4, keep-with-next
   \                     ??DataTable37_15:
   \   00000000   ........           DC32     GPSInfo

   \                                 In section .text, align 4, keep-with-next
   \                     ??DataTable37_16:
   \   00000000   ........           DC32     EMS_Drive_Value

   \                                 In section .text, align 4, keep-with-next
   \                     `?<Constant "[%d] ">`:
   \   00000000                      ; Initializer data, 8 bytes
   \   00000000   5B25645D2000       DC8 91, 37, 100, 93, 32, 0, 0, 0
   \              0000        

   \                                 In section .text, align 4, keep-with-next
   \                     `?<Constant "%.1f \\r\\n">`:
   \   00000000                      ; Initializer data, 8 bytes
   \   00000000   252E3166200D       DC8 37, 46, 49, 102, 32, 13, 10, 0
   \              0A00        

   \                                 In section .text, align 4, keep-with-next
   \                     ??DataTable40:
   \   00000000   ........           DC32     ACC_Drive_Value

   \                                 In section .text, align 4, keep-with-next
   \                     ??DataTable41:
   \   00000000   00007A44           DC32     0x447a0000

   \                                 In section .text, align 4, keep-with-next
   \                     ??DataTable41_1:
   \   00000000   ........           DC32     AccidentPoint2

   \                                 In section .text, align 4, keep-with-next
   \                     ??DataTable41_2:
   \   00000000   ........           DC32     Accident2_Buffer

   \                                 In section .text, align 4, keep-with-next
   \                     ??DataTable41_3:
   \   00000000   ........           DC32     ??Save_Flag

   \                                 In section .text, align 4, keep-with-next
   \                     ??DataTable41_4:
   \   00000000   ........           DC32     Timer_1ms

   \                                 In section .text, align 4, keep-with-next
   \                     ??DataTable41_5:
   \   00000000   ........           DC32     SYSTEM_STEP

   \                                 In section .text, align 4, keep-with-next
   \                     ??DataTable41_6:
   \   00000000   ........           DC32     DisplayInfo

   \                                 In section .text, align 4, keep-with-next
   \                     ??DataTable41_7:
   \   00000000   ........           DC32     SFLASH_Memory

   \                                 In section .text, align 4, keep-with-next
   \                     ??DataTable41_8:
   \   00000000   ........           DC32     Flag

   \                                 In section .text, align 4, keep-with-next
   \                     ??DataTable41_9:
   \   00000000   ........           DC32     Info+0x1

   \                                 In section .text, align 4, keep-with-next
   \                     ??DataTable41_10:
   \   00000000   57270300           DC32     0x32757

   \                                 In section .text, align 4, keep-with-next
   \                     ??DataTable41_11:
   \   00000000   ........           DC32     Set_Info

   \                                 In section .text, align 4, keep-with-next
   \                     ??DataTable41_12:
   \   00000000   DF850200           DC32     0x285df

   \                                 In section .text, align 4, keep-with-next
   \                     ??DataTable41_13:
   \   00000000   6D0C0300           DC32     0x30c6d

   \                                 In section .text, align 4, keep-with-next
   \                     ??DataTable41_14:
   \   00000000   C2780100           DC32     0x178c2

   \                                 In section .text, align 4, keep-with-next
   \                     ??DataTable41_15:
   \   00000000   49450200           DC32     0x24549

   \                                 In section .text, align 4, keep-with-next
   \                     ??DataTable41_16:
   \   00000000   BABE0100           DC32     0x1beba

   \                                 In section .text, align 4, keep-with-next
   \                     ??DataTable41_17:
   \   00000000   84F10200           DC32     0x2f184

   \                                 In section .text, align 4, keep-with-next
   \                     ??DataTable41_18:
   \   00000000   7EC90100           DC32     0x1c97e

   \                                 In section .text, align 4, keep-with-next
   \                     ??DataTable41_19:
   \   00000000   3A1A0200           DC32     0x21a3a

   \                                 In section .text, align 4, keep-with-next
   \                     ??DataTable41_20:
   \   00000000   931C0300           DC32     0x31c93

   \                                 In section .text, align 4, keep-with-next
   \                     ??DataTable41_21:
   \   00000000   66520300           DC32     0x35266

   \                                 In section .text, align 4, keep-with-next
   \                     ??DataTable41_22:
   \   00000000   ........           DC32     USB_Device

   \                                 In section .text, align 4, keep-with-next
   \                     ??DataTable41_23:
   \   00000000   ........           DC32     USR_cb

   \                                 In section .text, align 4, keep-with-next
   \                     ??DataTable41_24:
   \   00000000   ........           DC32     USBH_MSC_cb

   \                                 In section .text, align 4, keep-with-next
   \                     ??DataTable41_25:
   \   00000000   ........           DC32     USB_Host

   \                                 In section .text, align 4, keep-with-next
   \                     ??DataTable41_26:
   \   00000000   ........           DC32     USB_OTG_Core

   \                                 In section .text, align 4, keep-with-next
   \                     ??DataTable41_27:
   \   00000000   ........           DC32     USR_cb2

   \                                 In section .text, align 4, keep-with-next
   \                     ??DataTable41_28:
   \   00000000   ........           DC32     USBD_CDC_cb

   \                                 In section .text, align 4, keep-with-next
   \                     ??DataTable41_29:
   \   00000000   ........           DC32     USB_OTG_dev

   \                                 In section .text, align 4, keep-with-next
   \                     ??DataTable41_30:
   \   00000000   ........           DC32     RCC_Clocks

   \                                 In section .text, align 4, keep-with-next
   \                     ??DataTable41_31:
   \   00000000   000C0040           DC32     0x40000c00

   \                                 In section .text, align 4, keep-with-next
   \                     ??DataTable41_32:
   \   00000000   ........           DC32     ??Main_Timer

   \                                 In section .text, align 4, keep-with-next
   \                     ??DataTable41_33:
   \   00000000   ........           DC32     Buffer

   \                                 In section .text, align 4, keep-with-next
   \                     ??DataTable41_34:
   \   00000000   00100140           DC32     0x40011000

   \                                 In section .text, align 4, keep-with-next
   \                     ??DataTable41_35:
   \   00000000   ........           DC32     TimingDelay

   \                                 In section .text, align 4, keep-with-next
   \                     `?<Constant " Start \\r\\n">`:
   \   00000000                      ; Initializer data, 12 bytes
   \   00000000   205374617274       DC8 32, 83, 116, 97, 114, 116, 32, 13, 10, 0
   \              200D0A00    
   \   0000000A   0000               DC8 0, 0

   \                                 In section .text, align 4, keep-with-next
   \                     `?<Constant " SFLASH OK \\r\\n">`:
   \   00000000                      ; Initializer data, 16 bytes
   \   00000000   2053464C4153       DC8 32, 83, 70, 76, 65, 83, 72, 32, 79, 75
   \              48204F4B    
   \   0000000A   200D0A000000       DC8 32, 13, 10, 0, 0, 0

   \                                 In section .text, align 4, keep-with-next
   \                     `?<Constant "  DEMO PROGRAM v1 ">`:
   \   00000000                      ; Initializer data, 20 bytes
   \   00000000   202044454D4F       DC8 32, 32, 68, 69, 77, 79, 32, 80, 82, 79
   \              2050524F    
   \   0000000A   4752414D2076       DC8 71, 82, 65, 77, 32, 118, 49, 32, 0, 0
   \              31200000    

   \                                 In section .text, align 4, keep-with-next
   \                     `?<Constant "  WIFI_RELAY TEST  ">`:
   \   00000000                      ; Initializer data, 20 bytes
   \   00000000   202057494649       DC8 32, 32, 87, 73, 70, 73, 95, 82, 69, 76
   \              5F52454C    
   \   0000000A   415920544553       DC8 65, 89, 32, 84, 69, 83, 84, 32, 32, 0
   \              54202000    
   1706          
   1707          #ifdef  USE_FULL_ASSERT
   1708          
   1709          /**
   1710          * @brief  Reports the name of the source file and the source line number
   1711          *   where the assert_param error has occurred.
   1712          * @param  file: pointer to the source file name
   1713          * @param  line: assert_param error line source number
   1714          * @retval None
   1715          */
   1716          void assert_failed(uint8_t* file, uint32_t line)
   1717          { 
   1718               /* User can add his own implementation to report the file name and line number,
   1719               ex: printf("Wrong parameters value: file %s on line %d\r\n", file, line) */
   1720          	
   1721          	/* Infinite loop */
   1722          	while (1)
   1723          	{
   1724          	}
   1725          }
   1726          #endif
   1727          
   1728          /**
   1729          * @}
   1730          */
   1731          
   1732          
   1733          /******************* (C) COPYRIGHT 2011 STMicroelectronics *****END OF FILE****/

   Maximum stack usage in bytes:

     Function                .cstack
     --------                -------
     Battery_Check                0
     CheckTimeInterval_100us     16
     CheckTimeInterval_1us       16
     CheckTimeOver               16
     CheckTimeOver1Sec            4
     Delay                        4
     EXTILine1_Config            24
     FindString                   4
     GPIO_Configuration          16
     GPIO_Configuration2         16
     Infomation_Process          16
     InitIWDG                     8
     InitWWDG                     8
     Initialize                   8
     LED1_OFF                     8
     LED2_OFF                     8
     LPGPWM_Check                 8
     MachinStatus                 0
     NVIC_SetPriority             0
     RPMCheck                    24
     SetCarMaker                  0
     SpeedCheck                  32
     SpeedCheck2                 16
     SysTick_Config               8
     TIM3_Config                 16
     TIM4_Config                  0
     TIM5_Config                 16
     TIM6_Config                 16
     TIM7_Config                 16
     TIM8_Config                 48
     TimingDelay_Decrement        0
     USB_MODE_SELECT              8
     fputc                        8
     main                         8
     memcpy                       8
     memset                       8


   Section sizes:

     Function/Label                         Bytes
     --------------                         -----
     NVIC_SetPriority                         38
     SysTick_Config                           54
     memcpy                                   14
     memset                                   20
     LED1_OFF                                 28
     LED2_OFF                                 28
     EMS_Drive_Value                          40
     ACC_Drive_Value                          12
     TimingDelay                               4
     RCC_Clocks                               16
     HSEStartUpStatus                          1
     Timer_1Sec                                2
     Flag                                     24
     ERROR_Status                              1
     Buffer                                  512
     BuffCnt                                   2
     SYSTEM_STEP                               2
     SPEED_PULS_Count                          4
     m_sec                                     2
     SFLASH_CarInfo                           96
     SFLASH_Memory                           180
     GPS_RouteCheck                           68
     SFLASH_Wifi                              76
     Set_Info                                 16
     Info                                     96
     Accident_Buffer                        8000
     Accident2_Buffer                        172
     Accident_SaveBuffer                    8000
     Accident2_SaveBuffer                    172
     Accident_Time                            16
     AccidentPoint                             2
     AccidentPoint2                            2
     ECO_Driving                              12
     USB_OTG_Core                           2444
     USB_Host                                132
     USB_OTG_dev                            2444
     USB_Device                                1
     InitIWDG                                 82
     InitWWDG                                104
     GPIO_Configuration                       54
     GPIO_Configuration2                     280
     EXTILine1_Config                        306
     TIM3_Config                              80
     TIM4_Config                               2
     TIM5_Config                              70
     TIM6_Config                              70
     TIM7_Config                              66
     TIM8_Config                             208
     CheckTimeOver                            72
     CheckTimeOver1Sec                        68
     CheckTimeInterval_100us                  44
     CheckTimeInterval_1us                    44
     FindString                               44
     SpeedCheck2                             144
     SPEED_Timer                               2
     SpeedCheck                              644
     SPEED_Timer                               2
     RPM_Timer                                 2
     Low_Count                                 1
     error_flg3                                1
     RPMCheck                                276
     RPM_Timer                                 2
     Low_Count                                 1
     LPGPWM_Check                             96
     LPGPWM_Timer                              2
     Infomation_Process                      906
     IO_Check_Timer                            2
     IO_Check_Timer2                           2
     Battery_Check                            28
     Save_Flag                                 1
     Initialize                              108
     MachinStatus                             64
     SetCarMaker                            1358
     USB_MODE_SELECT                          70
     main                                    926
     Main_Timer                                2
     fputc                                    32
     Delay                                    30
     TimingDelay_Decrement                    20
     ??DataTable31                             4
     ??DataTable31_1                           4
     ??DataTable31_2                           4
     ??DataTable31_3                           4
     ??DataTable31_4                           4
     ??DataTable31_5                           4
     ??DataTable31_6                           4
     ??DataTable31_7                           4
     ??DataTable31_8                           4
     ??DataTable31_9                           4
     ??DataTable31_10                          4
     ??DataTable31_11                          4
     ??DataTable31_12                          4
     ??DataTable31_13                          4
     ??DataTable32                             4
     ??DataTable32_1                           4
     ??DataTable35                             4
     ??DataTable35_1                           4
     ??DataTable35_2                           4
     ??DataTable35_3                           4
     ??DataTable35_4                           4
     ??DataTable35_5                           4
     ??DataTable35_6                           4
     ??DataTable35_7                           4
     ??DataTable35_8                           4
     ??DataTable35_9                           4
     ??DataTable35_10                          4
     ??DataTable35_11                          4
     ??DataTable35_12                          4
     ??DataTable35_13                          4
     ??DataTable35_14                          4
     ??DataTable35_15                          4
     ??DataTable35_16                          4
     ??DataTable35_17                          4
     ??DataTable35_18                          4
     ??DataTable35_19                          4
     ??DataTable35_20                          4
     ??DataTable35_21                          4
     ??DataTable35_22                          4
     ?<Constant "IWDGRST flag set ...\n">     24
     ?<Constant "IWDGRST flag is not s...">   32
     ?<Constant " WatchDog Reset !!!!!...">   40
     ?<Constant " Normal BootOn WatchD...">   36
     ??DataTable36                             4
     ??DataTable36_1                           4
     ??DataTable36_2                           4
     ??DataTable37                             4
     ??DataTable37_1                           4
     ??DataTable37_2                           4
     ??DataTable37_3                           4
     ??DataTable37_4                           4
     ??DataTable37_5                           4
     ??DataTable37_6                           4
     ??DataTable37_7                           4
     ??DataTable37_8                           4
     ??DataTable37_9                           4
     ??DataTable37_10                          4
     ??DataTable37_11                          4
     ??DataTable37_12                          4
     ??DataTable37_13                          4
     ??DataTable37_14                          4
     ??DataTable37_15                          4
     ??DataTable37_16                          4
     ?<Constant "[%d] ">                       8
     ?<Constant "%.1f \r\n">                   8
     ??DataTable40                             4
     ??DataTable41                             4
     ??DataTable41_1                           4
     ??DataTable41_2                           4
     ??DataTable41_3                           4
     ??DataTable41_4                           4
     ??DataTable41_5                           4
     ??DataTable41_6                           4
     ??DataTable41_7                           4
     ??DataTable41_8                           4
     ??DataTable41_9                           4
     ??DataTable41_10                          4
     ??DataTable41_11                          4
     ??DataTable41_12                          4
     ??DataTable41_13                          4
     ??DataTable41_14                          4
     ??DataTable41_15                          4
     ??DataTable41_16                          4
     ??DataTable41_17                          4
     ??DataTable41_18                          4
     ??DataTable41_19                          4
     ??DataTable41_20                          4
     ??DataTable41_21                          4
     ??DataTable41_22                          4
     ??DataTable41_23                          4
     ??DataTable41_24                          4
     ??DataTable41_25                          4
     ??DataTable41_26                          4
     ??DataTable41_27                          4
     ??DataTable41_28                          4
     ??DataTable41_29                          4
     ??DataTable41_30                          4
     ??DataTable41_31                          4
     ??DataTable41_32                          4
     ??DataTable41_33                          4
     ??DataTable41_34                          4
     ??DataTable41_35                          4
     ?<Constant " Start \r\n">                12
     ?<Constant " SFLASH OK \r\n">            16
     ?<Constant "  DEMO PROGRAM v1 ">         20
     ?<Constant "  WIFI_RELAY TEST  ">        20

 
 22 571 bytes in section .bss
  7 078 bytes in section .text
 
  7 044 bytes of CODE memory (+ 34 bytes shared)
 22 571 bytes of DATA memory

Errors: none
Warnings: 10
