###############################################################################
#                                                                             #
# IAR ANSI C/C++ Compiler V6.10.1.52143/W32 for ARM     19/Jan/2012  23:50:14 #
# Copyright 1999-2010 IAR Systems AB.                                         #
#                                                                             #
#    Cpu mode     =  thumb                                                    #
#    Endian       =  little                                                   #
#    Source file  =  F:\Work\S&G2000\Firmware\DTG_EMS_SYSTEM\Project\PC_COM.c #
#    Command line =  F:\Work\S&G2000\Firmware\DTG_EMS_SYSTEM\Project\PC_COM.c #
#                     -D USE_STDPERIPH_DRIVER -D STM32F2XX -D                 #
#                    USE_STM3220F_EVAL -D USE_USB_OTG_FS -D                   #
#                    RTC_CLOCK_SOURCE_LSE -lC F:\Work\S&G2000\Firmware\DTG_EM #
#                    S_SYSTEM\Project\EWARM\STM3220F_EVAL\List\ -lA           #
#                    F:\Work\S&G2000\Firmware\DTG_EMS_SYSTEM\Project\EWARM\ST #
#                    M3220F_EVAL\List\ -o F:\Work\S&G2000\Firmware\DTG_EMS_SY #
#                    STEM\Project\EWARM\STM3220F_EVAL\Obj\ --no_cse           #
#                    --no_unroll --no_inline --no_code_motion --no_tbaa       #
#                    --no_clustering --no_scheduling --debug --endian=little  #
#                    --cpu=Cortex-M3 -e --fpu=None --dlib_config "C:\Program  #
#                    Files\IAR Systems\Embedded Workbench                     #
#                    6.0\arm\INC\c\DLib_Config_Full.h" -I                     #
#                    F:\Work\S&G2000\Firmware\DTG_EMS_SYSTEM\Project\EWARM\.. #
#                    \ -I F:\Work\S&G2000\Firmware\DTG_EMS_SYSTEM\Project\EWA #
#                    RM\..\..\Libraries\CMSIS\CM3\CoreSupport\ -I             #
#                    F:\Work\S&G2000\Firmware\DTG_EMS_SYSTEM\Project\EWARM\.. #
#                    \..\Libraries\CMSIS\CM3\DeviceSupport\ST\STM32F2xx\ -I   #
#                    F:\Work\S&G2000\Firmware\DTG_EMS_SYSTEM\Project\EWARM\.. #
#                    \..\Libraries\STM32F2xx_StdPeriph_Driver\inc\ -I         #
#                    F:\Work\S&G2000\Firmware\DTG_EMS_SYSTEM\Project\EWARM\.. #
#                    \..\Utilities\STM32_EVAL\ -I                             #
#                    F:\Work\S&G2000\Firmware\DTG_EMS_SYSTEM\Project\EWARM\.. #
#                    \..\Utilities\STM32_EVAL\Common\ -I                      #
#                    F:\Work\S&G2000\Firmware\DTG_EMS_SYSTEM\Project\EWARM\.. #
#                    \..\Utilities\STM32_EVAL\STM3220F_EVAL\ -I               #
#                    F:\Work\S&G2000\Firmware\DTG_EMS_SYSTEM\Project\EWARM\.. #
#                    \..\Libraries\STM32_USB_OTG_Driver\inc\ -I               #
#                    F:\Work\S&G2000\Firmware\DTG_EMS_SYSTEM\Project\EWARM\.. #
#                    \..\Libraries\STM32_USB_Device_Library\Core\inc\ -I      #
#                    F:\Work\S&G2000\Firmware\DTG_EMS_SYSTEM\Project\EWARM\.. #
#                    \..\Libraries\STM32_USB_Device_Library\Class\msc\inc\    #
#                    -I F:\Work\S&G2000\Firmware\DTG_EMS_SYSTEM\Project\EWARM #
#                    \..\Usb\ -I F:\Work\S&G2000\Firmware\DTG_EMS_SYSTEM\Proj #
#                    ect\EWARM\..\Usb\Inc\ -I F:\Work\S&G2000\Firmware\DTG_EM #
#                    S_SYSTEM\Project\EWARM\..\Usb\src\ -I                    #
#                    F:\Work\S&G2000\Firmware\DTG_EMS_SYSTEM\Project\EWARM\.. #
#                    \..\Libraries\STM32_USB_HOST_Library\Core\inc\ -I        #
#                    F:\Work\S&G2000\Firmware\DTG_EMS_SYSTEM\Project\EWARM\.. #
#                    \..\Libraries\STM32_USB_HOST_Library\Class\MSC\inc\ -I   #
#                    F:\Work\S&G2000\Firmware\DTG_EMS_SYSTEM\Project\EWARM\.. #
#                    \..\Libraries\STM32_USB_Device_Library\Class\cdc\inc\    #
#                    -Ol --use_c++_inline                                     #
#    List file    =  F:\Work\S&G2000\Firmware\DTG_EMS_SYSTEM\Project\EWARM\ST #
#                    M3220F_EVAL\List\PC_COM.lst                              #
#    Object file  =  F:\Work\S&G2000\Firmware\DTG_EMS_SYSTEM\Project\EWARM\ST #
#                    M3220F_EVAL\Obj\PC_COM.o                                 #
#                                                                             #
#                                                                             #
###############################################################################

F:\Work\S&G2000\Firmware\DTG_EMS_SYSTEM\Project\PC_COM.c
      1          #include "main.h"

   \                                 In section .text, align 2
   \   __intrinsic __interwork __softfp void *memcpy(void *, void const *, size_t)
   \                     memcpy:
   \   00000000   10B5               PUSH     {R4,LR}
   \   00000002   0400               MOVS     R4,R0
   \   00000004   2000               MOVS     R0,R4
   \   00000006   ........           BL       __aeabi_memcpy
   \   0000000A   2000               MOVS     R0,R4
   \   0000000C   10BD               POP      {R4,PC}          ;; return

   \                                 In section .text, align 2
   \   __intrinsic __interwork __softfp void *memset(void *, int, size_t)
   \                     memset:
   \   00000000   10B5               PUSH     {R4,LR}
   \   00000002   0400               MOVS     R4,R0
   \   00000004   1000               MOVS     R0,R2
   \   00000006   0A00               MOVS     R2,R1
   \   00000008   0100               MOVS     R1,R0
   \   0000000A   2000               MOVS     R0,R4
   \   0000000C   ........           BL       __aeabi_memset
   \   00000010   2000               MOVS     R0,R4
   \   00000012   10BD               POP      {R4,PC}          ;; return
      2          #include "PC_COM.h"
      3          #include "Serial.h"
      4          #include "EMS_System.h"
      5          #include "rtc.h"
      6          
      7          #include "fsmc_nand.h"
      8          #include "i2c_ee.h"
      9          #include "Memory.h"
     10          #include "WIFI.h"

   \                                 In section .text, align 2, keep-with-next
   \   static __interwork __softfp uint8_t IsAP_Connect(void)
   \                     IsAP_Connect:
   \   00000000   80B5               PUSH     {R7,LR}
   \   00000002   0221               MOVS     R1,#+2
   \   00000004   ........           LDR.W    R0,??DataTable37  ;; 0x40021000
   \   00000008   ........           BL       GPIO_ReadInputDataBit
   \   0000000C   0128               CMP      R0,#+1
   \   0000000E   01D1               BNE.N    ??IsAP_Connect_0
   \   00000010   0120               MOVS     R0,#+1
   \   00000012   00E0               B.N      ??IsAP_Connect_1
   \                     ??IsAP_Connect_0:
   \   00000014   0020               MOVS     R0,#+0
   \                     ??IsAP_Connect_1:
   \   00000016   02BD               POP      {R1,PC}          ;; return

   \                                 In section .text, align 2, keep-with-next
   \   static __interwork __softfp uint8_t IsTCP_Connect(void)
   \                     IsTCP_Connect:
   \   00000000   80B5               PUSH     {R7,LR}
   \   00000002   0121               MOVS     R1,#+1
   \   00000004   ........           LDR.W    R0,??DataTable37  ;; 0x40021000
   \   00000008   ........           BL       GPIO_ReadInputDataBit
   \   0000000C   0128               CMP      R0,#+1
   \   0000000E   01D1               BNE.N    ??IsTCP_Connect_0
   \   00000010   0120               MOVS     R0,#+1
   \   00000012   00E0               B.N      ??IsTCP_Connect_1
   \                     ??IsTCP_Connect_0:
   \   00000014   0020               MOVS     R0,#+0
   \                     ??IsTCP_Connect_1:
   \   00000016   02BD               POP      {R1,PC}          ;; return
     11          
     12          #include "eeprom.h"
     13          #include "nand_if.h"
     14          #include "History.h"
     15          
     16          

   \                                 In section .bss, align 4
     17          u8 Rx_PCBuffer[500];
   \                     Rx_PCBuffer:
   \   00000000                      DS8 500

   \                                 In section .bss, align 2
     18          u16 Rx_PCCount;
   \                     Rx_PCCount:
   \   00000000                      DS8 2

   \                                 In section .bss, align 4
     19          u8 Tx_PCBuffer[500];
   \                     Tx_PCBuffer:
   \   00000000                      DS8 500

   \                                 In section .bss, align 2
     20          u16 Tx_PCCount;
   \                     Tx_PCCount:
   \   00000000                      DS8 2

   \                                 In section .bss, align 1
     21          u8 WIFI_TestMode;
   \                     WIFI_TestMode:
   \   00000000                      DS8 1
     22          

   \                                 In section .bss, align 1
     23          u8 Load_Memory_Flag = 0;
   \                     Load_Memory_Flag:
   \   00000000                      DS8 1

   \                                 In section .bss, align 1
     24          u8 Load_Memory_Flag2 = 0;   
   \                     Load_Memory_Flag2:
   \   00000000                      DS8 1
     25          

   \                                 In section .text, align 2, keep-with-next
     26          void Send_WIFI_Status(void)
     27          {
   \                     Send_WIFI_Status:
   \   00000000   10B5               PUSH     {R4,LR}
     28               u8 WIFI_Flag;
     29              
     30               WIFI_Flag = Flag.Wifi_Check ;     
   \   00000002   ........           LDR.W    R0,??DataTable37_1
   \   00000006   0479               LDRB     R4,[R0, #+4]
     31               WIFI_Flag |= IsAP_Connect() << 1;
   \   00000008   ........           BL       IsAP_Connect
   \   0000000C   54EA4004           ORRS     R4,R4,R0, LSL #+1
     32               WIFI_Flag |= IsTCP_Connect() << 2;
   \   00000010   ........           BL       IsTCP_Connect
   \   00000014   54EA8004           ORRS     R4,R4,R0, LSL #+2
     33               memset(Tx_PCBuffer,0,sizeof(Tx_PCBuffer));
   \   00000018   4FF4FA72           MOV      R2,#+500
   \   0000001C   0021               MOVS     R1,#+0
   \   0000001E   ........           LDR.W    R0,??DataTable37_2
   \   00000022   ........           BL       memset
     34               sprintf((char*)Tx_PCBuffer,"WIFI%d,%d,[OK]\n" ,WIFI_Flag,Wifi_Result);
   \   00000026   ........           LDR.W    R0,??DataTable37_3
   \   0000002A   0378               LDRB     R3,[R0, #+0]
   \   0000002C   E4B2               UXTB     R4,R4            ;; ZeroExt  R4,R4,#+24,#+24
   \   0000002E   2200               MOVS     R2,R4
   \   00000030   ........           LDR.W    R1,??DataTable37_4
   \   00000034   ........           LDR.W    R0,??DataTable37_2
   \   00000038   ........           BL       sprintf
     35               Tx_PCCount = strlen (Tx_PCBuffer);
                                           ^
Warning[Pe167]: argument of type "u8 *" is incompatible with parameter of type
          "char const *"
   \   0000003C   ........           LDR.W    R0,??DataTable37_2
   \   00000040   ........           BL       strlen
   \   00000044   ........           LDR.W    R1,??DataTable38
   \   00000048   0880               STRH     R0,[R1, #+0]
     36          }
   \   0000004A   10BD               POP      {R4,PC}          ;; return
     37          

   \                                 In section .text, align 2, keep-with-next
     38          void Send_Refresh(void)
     39          {      
   \                     Send_Refresh:
   \   00000000   2DE9F041           PUSH     {R4-R8,LR}
   \   00000004   C0B0               SUB      SP,SP,#+256
     40               u8 WIFI_Flag;
     41              
     42               WIFI_Flag = Flag.Wifi_Check ;     
   \   00000006   ........           LDR.W    R0,??DataTable37_1
   \   0000000A   0679               LDRB     R6,[R0, #+4]
     43               WIFI_Flag |= IsAP_Connect() << 1;
   \   0000000C   ........           BL       IsAP_Connect
   \   00000010   56EA4006           ORRS     R6,R6,R0, LSL #+1
     44               WIFI_Flag |= IsTCP_Connect() << 2;
   \   00000014   ........           BL       IsTCP_Connect
   \   00000018   56EA8006           ORRS     R6,R6,R0, LSL #+2
     45               
     46               memset(Tx_PCBuffer,0,sizeof(Tx_PCBuffer));
   \   0000001C   4FF4FA72           MOV      R2,#+500
   \   00000020   0021               MOVS     R1,#+0
   \   00000022   ........           LDR.W    R0,??DataTable37_2
   \   00000026   ........           BL       memset
     47               sprintf((char*)Tx_PCBuffer,"DEBUG%02d/%02d/%02d,%02d:%02d:%02d,"
     48                       "%04d,%07d,%03d,%04d,"
     49                       "%+06.1f,%+06.1f,%+03d,%+03d,%02d,%04d,%04d,"
     50                       "%03d.%05d,%03d.%05d,%03d,%03d,%04.1f,%c,"
     51                       "%04d,%04d,%04d,%04d,%04d,%04d,"  
     52                       "%d,%d,%d,%d,"        // 운행시간
     53                       "%d,%d,%d,%d,%d,"     // ECO 검출
     54                       "%d,%d,%d,"                // 스피드 펄스 카운트
     55                       "%d,%d,%d,%d,%d,%d,%d,"        // 헤더정보
     56                       "%d,%d,%d,"                     // 부가정보
     57                       "%d,%d,%d,%d,"
     58                       "%d,%d,%d,%d,%d,"
     59                       "[OK]\n",
     60                       SYSTEM_TIME.tm_year,SYSTEM_TIME.tm_mon,SYSTEM_TIME.tm_mday,
     61                       SYSTEM_TIME.tm_hour,SYSTEM_TIME.tm_min,SYSTEM_TIME.tm_sec,     
     62                       Info.DayDriveLength,
     63                       Info.TotalDriveLength,
     64                       Info.SPEED_Value,
     65                       Info.RPM_Value,
     66                       (float)Info.AccelX/10.0,
     67                       (float)Info.AccelY/10.0,
     68                       Info.EMS_Data.Tilt_X,
     69                       Info.EMS_Data.Tilt_Y,                
     70                       Info.MachineStatus,              
     71                       
     72                       EMS_Drive_Value.Day_StarterMotor,
     73                       ACC_Drive_Value.Total_StartMotor,
     74                       
     75                       Info.GPSX/ 1000000,
     76                       Info.GPSX% 1000000,
     77                       Info.GPSY/ 1000000,
     78                       Info.GPSY% 1000000,                  
     79                       Info.Azimuth,
     80                       Info.EMS_Data.GPS_Speed,
     81                       (float)Info.EMS_Data.Gps_HDOP/10,
     82                       Flag.GPS_Check,
     83                       
     84                       Info.EMS_Data.CoolWaterTemp_Volt,
     85                       Info.EMS_Data.Battery_Volt,
     86                       Info.EMS_Data.AirPressure_Volt,
     87                       Info.EMS_Data.Acceller_Volt,
     88                       Info.EMS_Data.Fuel_Volt,
     89                       Info.EMS_Data.LPG_PWM_Value,
     90                       
     91                       EMS_Drive_Value.Drive_Time,
     92                       EMS_Drive_Value.DriveStop_Time,
     93                       EMS_Drive_Value.EngineStop_Time,
     94                       EMS_Drive_Value.EcoUse_Time,     
     95                       
     96                       EMS_Drive_Value.QuickStart_Count,
     97                       EMS_Drive_Value.QuickAccel_Count,
     98                       EMS_Drive_Value.QuickStop_Count,
     99                       EMS_Drive_Value.HighRPM_Count,                              
    100                       EMS_Drive_Value.Break_Count,                               
    101                       
    102                       EMS_Drive_Value.Today_Speed_PulsCount,
    103                       ACC_Drive_Value.Total_Drive_PulsCount1,
    104                       ACC_Drive_Value.Total_Drive_PulsCount2,             
    105                       
    106                       NAND_Header_Index.Write_Point,
    107                       NAND_Header_Index.Page_Count,             
    108                       NAND_Data_Transmit.Start_Page,
    109                       NAND_Data_Transmit.End_Page,             
    110                       NAND_Header_Info.Start_Page,
    111                       NAND_Header_Info.End_Page,
    112                       Info.Accident_WritePoint,            
    113          
    114                       Info.EMS3Sec_Count,
    115                       Info.EMS3Min_Count,
    116                       Info.Wifi_ErrorCount,
    117                       
    118                       EMSOn_Check,
    119                       EMSOff_Check,
    120                       EmsOnProgress,
    121                       EmsOffProgress,
    122                       
    123                       Info.Input_Status,
    124                       Info.Output_Status,             
    125                       WIFI_Flag,                        
    126                       Wifi_Result,
    127                       Flag.Machine_Error             
    128                            );   
   \   0000002A   ........           LDR.W    R0,??DataTable37_5
   \   0000002E   446B               LDR      R4,[R0, #+52]
   \   00000030   ........           LDR.W    R5,??DataTable37_6  ;; 0xf4240
   \   00000034   ........           LDR.W    R0,??DataTable37_5
   \   00000038   076B               LDR      R7,[R0, #+48]
   \   0000003A   ........           LDR.W    R8,??DataTable37_6  ;; 0xf4240
   \   0000003E   ........           LDR.W    R0,??DataTable37_1
   \   00000042   807C               LDRB     R0,[R0, #+18]
   \   00000044   3F90               STR      R0,[SP, #+252]
   \   00000046   ........           LDR.W    R0,??DataTable37_3
   \   0000004A   0078               LDRB     R0,[R0, #+0]
   \   0000004C   3E90               STR      R0,[SP, #+248]
   \   0000004E   F6B2               UXTB     R6,R6            ;; ZeroExt  R6,R6,#+24,#+24
   \   00000050   3D96               STR      R6,[SP, #+244]
   \   00000052   ........           LDR.W    R0,??DataTable37_5
   \   00000056   90F85700           LDRB     R0,[R0, #+87]
   \   0000005A   3C90               STR      R0,[SP, #+240]
   \   0000005C   ........           LDR.W    R0,??DataTable37_5
   \   00000060   B0F85500           LDRH     R0,[R0, #+85]
   \   00000064   3B90               STR      R0,[SP, #+236]
   \   00000066   ........           LDR.W    R0,??DataTable37_7
   \   0000006A   0088               LDRH     R0,[R0, #+0]
   \   0000006C   3A90               STR      R0,[SP, #+232]
   \   0000006E   ........           LDR.W    R0,??DataTable37_8
   \   00000072   0088               LDRH     R0,[R0, #+0]
   \   00000074   3990               STR      R0,[SP, #+228]
   \   00000076   ........           LDR.W    R0,??DataTable37_9
   \   0000007A   0078               LDRB     R0,[R0, #+0]
   \   0000007C   3890               STR      R0,[SP, #+224]
   \   0000007E   ........           LDR.W    R0,??DataTable37_10
   \   00000082   0078               LDRB     R0,[R0, #+0]
   \   00000084   3790               STR      R0,[SP, #+220]
   \   00000086   ........           LDR.W    R0,??DataTable37_5
   \   0000008A   90F85F00           LDRB     R0,[R0, #+95]
   \   0000008E   3690               STR      R0,[SP, #+216]
   \   00000090   ........           LDR.W    R0,??DataTable37_5
   \   00000094   90F85E00           LDRB     R0,[R0, #+94]
   \   00000098   3590               STR      R0,[SP, #+212]
   \   0000009A   ........           LDR.W    R0,??DataTable37_5
   \   0000009E   90F85D00           LDRB     R0,[R0, #+93]
   \   000000A2   3490               STR      R0,[SP, #+208]
   \   000000A4   ........           LDR.W    R0,??DataTable37_5
   \   000000A8   C08C               LDRH     R0,[R0, #+38]
   \   000000AA   3390               STR      R0,[SP, #+204]
   \   000000AC   ........           LDR.W    R0,??DataTable37_11
   \   000000B0   8068               LDR      R0,[R0, #+8]
   \   000000B2   3290               STR      R0,[SP, #+200]
   \   000000B4   ........           LDR.W    R0,??DataTable37_11
   \   000000B8   4068               LDR      R0,[R0, #+4]
   \   000000BA   3190               STR      R0,[SP, #+196]
   \   000000BC   ........           LDR.W    R0,??DataTable37_12
   \   000000C0   4068               LDR      R0,[R0, #+4]
   \   000000C2   3090               STR      R0,[SP, #+192]
   \   000000C4   ........           LDR.W    R0,??DataTable37_12
   \   000000C8   0068               LDR      R0,[R0, #+0]
   \   000000CA   2F90               STR      R0,[SP, #+188]
   \   000000CC   ........           LDR.W    R0,??DataTable37_13
   \   000000D0   4068               LDR      R0,[R0, #+4]
   \   000000D2   2E90               STR      R0,[SP, #+184]
   \   000000D4   ........           LDR.W    R0,??DataTable37_13
   \   000000D8   4088               LDRH     R0,[R0, #+2]
   \   000000DA   2D90               STR      R0,[SP, #+180]
   \   000000DC   ........           LDR.W    R0,??DataTable37_14
   \   000000E0   C088               LDRH     R0,[R0, #+6]
   \   000000E2   2C90               STR      R0,[SP, #+176]
   \   000000E4   ........           LDR.W    R0,??DataTable37_14
   \   000000E8   D0F80200           LDR      R0,[R0, #+2]
   \   000000EC   2B90               STR      R0,[SP, #+172]
   \   000000EE   ........           LDR.W    R0,??DataTable37_15
   \   000000F2   8068               LDR      R0,[R0, #+8]
   \   000000F4   2A90               STR      R0,[SP, #+168]
   \   000000F6   ........           LDR.W    R0,??DataTable37_15
   \   000000FA   408C               LDRH     R0,[R0, #+34]
   \   000000FC   2990               STR      R0,[SP, #+164]
   \   000000FE   ........           LDR.W    R0,??DataTable37_15
   \   00000102   008C               LDRH     R0,[R0, #+32]
   \   00000104   2890               STR      R0,[SP, #+160]
   \   00000106   ........           LDR.W    R0,??DataTable37_15
   \   0000010A   C08B               LDRH     R0,[R0, #+30]
   \   0000010C   2790               STR      R0,[SP, #+156]
   \   0000010E   ........           LDR.W    R0,??DataTable37_15
   \   00000112   408B               LDRH     R0,[R0, #+26]
   \   00000114   2690               STR      R0,[SP, #+152]
   \   00000116   ........           LDR.W    R0,??DataTable37_15
   \   0000011A   808B               LDRH     R0,[R0, #+28]
   \   0000011C   2590               STR      R0,[SP, #+148]
   \   0000011E   ........           LDR.W    R0,??DataTable37_15
   \   00000122   4069               LDR      R0,[R0, #+20]
   \   00000124   2490               STR      R0,[SP, #+144]
   \   00000126   ........           LDR.W    R0,??DataTable37_15
   \   0000012A   0069               LDR      R0,[R0, #+16]
   \   0000012C   2390               STR      R0,[SP, #+140]
   \   0000012E   ........           LDR.W    R0,??DataTable37_15
   \   00000132   C068               LDR      R0,[R0, #+12]
   \   00000134   2290               STR      R0,[SP, #+136]
   \   00000136   ........           LDR.W    R0,??DataTable37_15
   \   0000013A   4068               LDR      R0,[R0, #+4]
   \   0000013C   2190               STR      R0,[SP, #+132]
   \   0000013E   ........           LDR.W    R0,??DataTable37_5
   \   00000142   B0F84900           LDRH     R0,[R0, #+73]
   \   00000146   2090               STR      R0,[SP, #+128]
   \   00000148   ........           LDR.W    R0,??DataTable37_5
   \   0000014C   B0F83F00           LDRH     R0,[R0, #+63]
   \   00000150   1F90               STR      R0,[SP, #+124]
   \   00000152   ........           LDR.W    R0,??DataTable37_5
   \   00000156   B0F84700           LDRH     R0,[R0, #+71]
   \   0000015A   1E90               STR      R0,[SP, #+120]
   \   0000015C   ........           LDR.W    R0,??DataTable37_5
   \   00000160   B0F84300           LDRH     R0,[R0, #+67]
   \   00000164   1D90               STR      R0,[SP, #+116]
   \   00000166   ........           LDR.W    R0,??DataTable37_5
   \   0000016A   B0F84100           LDRH     R0,[R0, #+65]
   \   0000016E   1C90               STR      R0,[SP, #+112]
   \   00000170   ........           LDR.W    R0,??DataTable37_5
   \   00000174   B0F84500           LDRH     R0,[R0, #+69]
   \   00000178   1B90               STR      R0,[SP, #+108]
   \   0000017A   ........           LDR.W    R0,??DataTable37_1
   \   0000017E   C078               LDRB     R0,[R0, #+3]
   \   00000180   1A90               STR      R0,[SP, #+104]
   \   00000182   ........           LDR.W    R0,??DataTable37_5
   \   00000186   B0F84F00           LDRH     R0,[R0, #+79]
   \   0000018A   ........           BL       __aeabi_ui2f
   \   0000018E   ........           LDR.W    R1,??DataTable37_16  ;; 0x41200000
   \   00000192   ........           BL       __aeabi_fdiv
   \   00000196   ........           BL       __aeabi_f2d
   \   0000019A   CDE91801           STRD     R0,R1,[SP, #+96]
   \   0000019E   ........           LDR.W    R0,??DataTable37_5
   \   000001A2   B0F84D00           LDRH     R0,[R0, #+77]
   \   000001A6   1690               STR      R0,[SP, #+88]
   \   000001A8   ........           LDR.W    R0,??DataTable37_5
   \   000001AC   008F               LDRH     R0,[R0, #+56]
   \   000001AE   1590               STR      R0,[SP, #+84]
   \   000001B0   B4FBF5F0           UDIV     R0,R4,R5
   \   000001B4   05FB1040           MLS      R0,R5,R0,R4
   \   000001B8   1490               STR      R0,[SP, #+80]
   \   000001BA   ........           LDR.W    R0,??DataTable37_5
   \   000001BE   406B               LDR      R0,[R0, #+52]
   \   000001C0   ........           LDR.W    R1,??DataTable37_6  ;; 0xf4240
   \   000001C4   B0FBF1F0           UDIV     R0,R0,R1
   \   000001C8   1390               STR      R0,[SP, #+76]
   \   000001CA   B7FBF8F0           UDIV     R0,R7,R8
   \   000001CE   08FB1070           MLS      R0,R8,R0,R7
   \   000001D2   1290               STR      R0,[SP, #+72]
   \   000001D4   ........           LDR.W    R0,??DataTable37_5
   \   000001D8   006B               LDR      R0,[R0, #+48]
   \   000001DA   ........           LDR.W    R1,??DataTable37_6  ;; 0xf4240
   \   000001DE   B0FBF1F0           UDIV     R0,R0,R1
   \   000001E2   1190               STR      R0,[SP, #+68]
   \   000001E4   ........           LDR.W    R0,??DataTable37_14
   \   000001E8   0088               LDRH     R0,[R0, #+0]
   \   000001EA   1090               STR      R0,[SP, #+64]
   \   000001EC   ........           LDR.W    R0,??DataTable37_15
   \   000001F0   008B               LDRH     R0,[R0, #+24]
   \   000001F2   0F90               STR      R0,[SP, #+60]
   \   000001F4   ........           LDR.W    R0,??DataTable37_5
   \   000001F8   90F83E00           LDRB     R0,[R0, #+62]
   \   000001FC   0E90               STR      R0,[SP, #+56]
   \   000001FE   ........           LDR.W    R0,??DataTable37_5
   \   00000202   90F94C00           LDRSB    R0,[R0, #+76]
   \   00000206   0D90               STR      R0,[SP, #+52]
   \   00000208   ........           LDR.W    R0,??DataTable37_5
   \   0000020C   90F94B00           LDRSB    R0,[R0, #+75]
   \   00000210   0C90               STR      R0,[SP, #+48]
   \   00000212   ........           LDR.W    R0,??DataTable37_5
   \   00000216   B0F93C00           LDRSH    R0,[R0, #+60]
   \   0000021A   ........           BL       __aeabi_i2f
   \   0000021E   ........           BL       __aeabi_f2d
   \   00000222   0022               MOVS     R2,#+0
   \   00000224   ........           LDR.W    R3,??DataTable38_1  ;; 0x40240000
   \   00000228   ........           BL       __aeabi_ddiv
   \   0000022C   CDE90A01           STRD     R0,R1,[SP, #+40]
   \   00000230   ........           LDR.W    R0,??DataTable37_5
   \   00000234   B0F93A00           LDRSH    R0,[R0, #+58]
   \   00000238   ........           BL       __aeabi_i2f
   \   0000023C   ........           BL       __aeabi_f2d
   \   00000240   0022               MOVS     R2,#+0
   \   00000242   ........           LDR.W    R3,??DataTable38_1  ;; 0x40240000
   \   00000246   ........           BL       __aeabi_ddiv
   \   0000024A   CDE90801           STRD     R0,R1,[SP, #+32]
   \   0000024E   ........           LDR.W    R0,??DataTable37_5
   \   00000252   B0F82D00           LDRH     R0,[R0, #+45]
   \   00000256   0790               STR      R0,[SP, #+28]
   \   00000258   ........           LDR.W    R0,??DataTable37_5
   \   0000025C   90F82C00           LDRB     R0,[R0, #+44]
   \   00000260   0690               STR      R0,[SP, #+24]
   \   00000262   ........           LDR.W    R0,??DataTable37_5
   \   00000266   C069               LDR      R0,[R0, #+28]
   \   00000268   0590               STR      R0,[SP, #+20]
   \   0000026A   ........           LDR.W    R0,??DataTable37_5
   \   0000026E   408B               LDRH     R0,[R0, #+26]
   \   00000270   0490               STR      R0,[SP, #+16]
   \   00000272   ........           LDR.W    R0,??DataTable38_2
   \   00000276   0068               LDR      R0,[R0, #+0]
   \   00000278   0390               STR      R0,[SP, #+12]
   \   0000027A   ........           LDR.W    R0,??DataTable38_2
   \   0000027E   4068               LDR      R0,[R0, #+4]
   \   00000280   0290               STR      R0,[SP, #+8]
   \   00000282   ........           LDR.W    R0,??DataTable38_2
   \   00000286   8068               LDR      R0,[R0, #+8]
   \   00000288   0190               STR      R0,[SP, #+4]
   \   0000028A   ........           LDR.W    R0,??DataTable38_2
   \   0000028E   C068               LDR      R0,[R0, #+12]
   \   00000290   0090               STR      R0,[SP, #+0]
   \   00000292   ........           LDR.W    R0,??DataTable38_2
   \   00000296   0369               LDR      R3,[R0, #+16]
   \   00000298   ........           LDR.W    R0,??DataTable38_2
   \   0000029C   4269               LDR      R2,[R0, #+20]
   \   0000029E   ........           LDR.W    R1,??DataTable38_3
   \   000002A2   ........           LDR.W    R0,??DataTable37_2
   \   000002A6   ........           BL       sprintf
    129               Tx_PCCount = strlen (Tx_PCBuffer);
                                           ^
Warning[Pe167]: argument of type "u8 *" is incompatible with parameter of type
          "char const *"
   \   000002AA   ........           LDR.W    R0,??DataTable37_2
   \   000002AE   ........           BL       strlen
   \   000002B2   ........           LDR.W    R1,??DataTable39
   \   000002B6   0880               STRH     R0,[R1, #+0]
    130          }
   \   000002B8   40B0               ADD      SP,SP,#+256
   \   000002BA   BDE8F081           POP      {R4-R8,PC}       ;; return
    131          

   \                                 In section .text, align 2, keep-with-next
    132          void Send_GPS(void)
    133          {
   \                     Send_GPS:
   \   00000000   00B5               PUSH     {LR}
   \   00000002   91B0               SUB      SP,SP,#+68
    134               sprintf((char *)Tx_PCBuffer,
    135                       "GPS%d,%d,"
    136                       "%d,%d,%d,%d,%d,%d,%d,%d,"
    137                       "%d,%d,%d,%d,%d,%d,%d,%d,[OK]\n",
    138                            GPS_RouteCheck.GPS_RouteEnable,
    139                            GPS_RouteCheck.GPS_RouteSection,
    140          
    141                            GPS_RouteCheck.Route[0].Longitude,
    142                            GPS_RouteCheck.Route[0].Latitude,
    143          
    144                            GPS_RouteCheck.Route[1].Longitude,
    145                            GPS_RouteCheck.Route[1].Latitude,
    146          
    147                            GPS_RouteCheck.Route[2].Longitude,
    148                            GPS_RouteCheck.Route[2].Latitude,
    149          
    150                            GPS_RouteCheck.Route[3].Longitude,
    151                            GPS_RouteCheck.Route[3].Latitude,
    152          
    153                            GPS_RouteCheck.Route[4].Longitude,
    154                            GPS_RouteCheck.Route[4].Latitude,
    155          
    156                            GPS_RouteCheck.Route[5].Longitude,
    157                            GPS_RouteCheck.Route[5].Latitude,
    158          
    159                            GPS_RouteCheck.Route[6].Longitude,
    160                            GPS_RouteCheck.Route[6].Latitude,
    161          
    162                            GPS_RouteCheck.Route[7].Longitude,
    163                            GPS_RouteCheck.Route[7].Latitude
    164                                 );
   \   00000004   ........           LDR.W    R0,??DataTable38_4
   \   00000008   D0F83E00           LDR      R0,[R0, #+62]
   \   0000000C   0F90               STR      R0,[SP, #+60]
   \   0000000E   ........           LDR.W    R0,??DataTable38_4
   \   00000012   D0F83A00           LDR      R0,[R0, #+58]
   \   00000016   0E90               STR      R0,[SP, #+56]
   \   00000018   ........           LDR.W    R0,??DataTable38_4
   \   0000001C   D0F83600           LDR      R0,[R0, #+54]
   \   00000020   0D90               STR      R0,[SP, #+52]
   \   00000022   ........           LDR.W    R0,??DataTable38_4
   \   00000026   D0F83200           LDR      R0,[R0, #+50]
   \   0000002A   0C90               STR      R0,[SP, #+48]
   \   0000002C   ........           LDR.W    R0,??DataTable38_4
   \   00000030   D0F82E00           LDR      R0,[R0, #+46]
   \   00000034   0B90               STR      R0,[SP, #+44]
   \   00000036   ........           LDR.W    R0,??DataTable38_4
   \   0000003A   D0F82A00           LDR      R0,[R0, #+42]
   \   0000003E   0A90               STR      R0,[SP, #+40]
   \   00000040   ........           LDR.W    R0,??DataTable38_4
   \   00000044   D0F82600           LDR      R0,[R0, #+38]
   \   00000048   0990               STR      R0,[SP, #+36]
   \   0000004A   ........           LDR.W    R0,??DataTable38_4
   \   0000004E   D0F82200           LDR      R0,[R0, #+34]
   \   00000052   0890               STR      R0,[SP, #+32]
   \   00000054   ........           LDR.W    R0,??DataTable38_4
   \   00000058   D0F81E00           LDR      R0,[R0, #+30]
   \   0000005C   0790               STR      R0,[SP, #+28]
   \   0000005E   ........           LDR.W    R0,??DataTable38_4
   \   00000062   D0F81A00           LDR      R0,[R0, #+26]
   \   00000066   0690               STR      R0,[SP, #+24]
   \   00000068   ........           LDR.W    R0,??DataTable38_4
   \   0000006C   D0F81600           LDR      R0,[R0, #+22]
   \   00000070   0590               STR      R0,[SP, #+20]
   \   00000072   ........           LDR.W    R0,??DataTable38_4
   \   00000076   D0F81200           LDR      R0,[R0, #+18]
   \   0000007A   0490               STR      R0,[SP, #+16]
   \   0000007C   ........           LDR.W    R0,??DataTable38_4
   \   00000080   D0F80E00           LDR      R0,[R0, #+14]
   \   00000084   0390               STR      R0,[SP, #+12]
   \   00000086   ........           LDR.W    R0,??DataTable38_4
   \   0000008A   D0F80A00           LDR      R0,[R0, #+10]
   \   0000008E   0290               STR      R0,[SP, #+8]
   \   00000090   ........           LDR.W    R0,??DataTable38_4
   \   00000094   D0F80600           LDR      R0,[R0, #+6]
   \   00000098   0190               STR      R0,[SP, #+4]
   \   0000009A   ........           LDR.W    R0,??DataTable38_4
   \   0000009E   D0F80200           LDR      R0,[R0, #+2]
   \   000000A2   0090               STR      R0,[SP, #+0]
   \   000000A4   ........           LDR.W    R0,??DataTable38_4
   \   000000A8   4378               LDRB     R3,[R0, #+1]
   \   000000AA   ........           LDR.W    R0,??DataTable38_4
   \   000000AE   0278               LDRB     R2,[R0, #+0]
   \   000000B0   ........           LDR.W    R1,??DataTable38_5
   \   000000B4   ........           LDR.W    R0,??DataTable37_2
   \   000000B8   ........           BL       sprintf
    165               Tx_PCCount = strlen (Tx_PCBuffer);
                                           ^
Warning[Pe167]: argument of type "u8 *" is incompatible with parameter of type
          "char const *"
   \   000000BC   ........           LDR.W    R0,??DataTable37_2
   \   000000C0   ........           BL       strlen
   \   000000C4   ........           LDR.W    R1,??DataTable39
   \   000000C8   0880               STRH     R0,[R1, #+0]
    166          }
   \   000000CA   11B0               ADD      SP,SP,#+68
   \   000000CC   00BD               POP      {PC}             ;; return
    167          
    168          

   \                                 In section .text, align 2, keep-with-next
    169          void Send_WIFI(void)
    170          {
   \                     Send_WIFI:
   \   00000000   00B5               PUSH     {LR}
   \   00000002   83B0               SUB      SP,SP,#+12
    171            //   u16 Point,Point2;
    172               sprintf((char*)Tx_PCBuffer,
    173                       "WIFE%s,%s,%s,%s,[OK]\n",                                  
    174                       
    175                        SFLASH_Wifi.ServerIP,
    176                        SFLASH_Wifi.ServerPort,
    177                        SFLASH_Wifi.SSID,
    178                        SFLASH_Wifi.WWPA
    179                             );
   \   00000004   ........           LDR.W    R0,??DataTable38_6
   \   00000008   0190               STR      R0,[SP, #+4]
   \   0000000A   ........           LDR.W    R0,??DataTable38_7
   \   0000000E   0090               STR      R0,[SP, #+0]
   \   00000010   ........           LDR.W    R3,??DataTable38_8
   \   00000014   ........           LDR.W    R2,??DataTable38_9
   \   00000018   ........           LDR.W    R1,??DataTable38_10
   \   0000001C   ........           LDR.W    R0,??DataTable37_2
   \   00000020   ........           BL       sprintf
    180               
    181               Tx_PCCount = strlen (Tx_PCBuffer);
                                           ^
Warning[Pe167]: argument of type "u8 *" is incompatible with parameter of type
          "char const *"
   \   00000024   ........           LDR.W    R0,??DataTable37_2
   \   00000028   ........           BL       strlen
   \   0000002C   ........           LDR.W    R1,??DataTable39
   \   00000030   0880               STRH     R0,[R1, #+0]
    182          }
   \   00000032   07BD               POP      {R0-R2,PC}       ;; return
    183          
    184          

   \                                 In section .text, align 2, keep-with-next
    185          void Send_Setting(void)
    186          {
   \                     Send_Setting:
   \   00000000   00B5               PUSH     {LR}
   \   00000002   ADB0               SUB      SP,SP,#+180
    187               sprintf((char*)Tx_PCBuffer,"SETTING%s,%s,%s,%s,%12s,"             
    188                       "%d,%d,%d,%d,%d,%d,"
    189                       "%d,%d,%d,%d,"
    190                       "%d,%d,%d,%d,%d,%d,%d,"
    191                       "%c,%d,%d,%d,%d," 
    192                       "%s,%s,%s,%s,%s,"
    193                       "%d,%d,"
    194                       "%d,%d,%d,%d," // Reserve
    195                       "%d,%d,%d,%d,"
    196                       "NAND%x,%x,%x,%x,[OK]\n",
    197                            
    198                            FirmVersion,//SFLASH_CarInfo.FirmWareVer,
    199                            SFLASH_CarInfo.SerialNumber,
    200                            SFLASH_CarInfo.MachineVer,
    201                            SFLASH_CarInfo.Recognition,
    202                            
    203                            SFLASH_CarInfo.CarNum,                               
    204                            
    205                            SFLASH_Memory.SPEED_Adjust,
    206                            SFLASH_Memory.RPM_Adjust,
    207                            
    208                            SFLASH_Memory.Distance_Adjust,
    209                            SFLASH_Memory.SPEED_Reference,
    210                            SFLASH_Memory.RPM_Reference,                                
    211                            SFLASH_Memory.Voice_Volume,
    212                            
    213                            SFLASH_Memory.FastOverSpeed ,         // 과속 기준
    214                            SFLASH_Memory.QuickStop,			// 급정지 기준
    215                            SFLASH_Memory.QuickAccel,			// 급출발 기준
    216                            SFLASH_Memory.OverloadRPM,			// 과부하 기준
    217                            
    218                            SFLASH_Memory.EMS.Battery_Volt,
    219                            SFLASH_Memory.EMS.ColdWaterTemp_Volt,
    220                            SFLASH_Memory.EMS.Air_Volt,
    221                            SFLASH_Memory.EMS.TILTX_Limit,
    222                            SFLASH_Memory.EMS.TILTY_Limit,
    223                            SFLASH_Memory.EMS.LimitSpeed,
    224                            SFLASH_Memory.EMS.StopTime,
    225                            
    226                            SFLASH_Memory.Tilt_Reference,
    227                            SFLASH_Memory.TiltRefX,
    228                            SFLASH_Memory.TiltRefY,
    229                            SFLASH_Memory.EventRefX,
    230                            SFLASH_Memory.EventRefY,
    231                            
    232                            SFLASH_Memory.Driver[0],
    233                            SFLASH_Memory.Driver[1],
    234                            SFLASH_Memory.Driver[2],
    235                            SFLASH_Memory.Driver[3],
    236                            SFLASH_Memory.Driver[4],
    237                            
    238          
    239                            SFLASH_Memory.Home.Longitude,        //경도 시작
    240                            SFLASH_Memory.Home.Latitude,         //위도 시작
    241          
    242                            SFLASH_Memory.QuickStart,            // 급가속 기준
    243                            SFLASH_Memory.DTG_EMS_Select,        // 
    244                            ACC_Drive_Value.Total_StartMotor,               // 시동모터 횟수
    245                            Info.TotalDriveLength,               // 총운행거리
    246              
    247                            SFLASH_Memory.GPS_EMS_Use,                  
    248                            SFLASH_Memory.IO_Reverser,
    249                            SFLASH_Memory.Car_Maker, 
    250                            SFLASH_Memory.EMS.USE_Enable,
    251                            
    252                            //--------- 메모리 관련                                
    253                            NAND_ID.Maker_ID,
    254                            NAND_ID.Device_ID,
    255                            NAND_ID.Third_ID,
    256                            NAND_ID.Fourth_ID
    257                                 );      
   \   00000004   ........           LDR.W    R0,??DataTable39_1
   \   00000008   C078               LDRB     R0,[R0, #+3]
   \   0000000A   2B90               STR      R0,[SP, #+172]
   \   0000000C   ........           LDR.W    R0,??DataTable39_1
   \   00000010   8078               LDRB     R0,[R0, #+2]
   \   00000012   2A90               STR      R0,[SP, #+168]
   \   00000014   ........           LDR.W    R0,??DataTable39_1
   \   00000018   4078               LDRB     R0,[R0, #+1]
   \   0000001A   2990               STR      R0,[SP, #+164]
   \   0000001C   ........           LDR.W    R0,??DataTable39_1
   \   00000020   0078               LDRB     R0,[R0, #+0]
   \   00000022   2890               STR      R0,[SP, #+160]
   \   00000024   ........           LDR.W    R0,??DataTable39_2
   \   00000028   90F88A00           LDRB     R0,[R0, #+138]
   \   0000002C   2790               STR      R0,[SP, #+156]
   \   0000002E   ........           LDR.W    R0,??DataTable39_2
   \   00000032   0078               LDRB     R0,[R0, #+0]
   \   00000034   2690               STR      R0,[SP, #+152]
   \   00000036   ........           LDR.W    R0,??DataTable39_2
   \   0000003A   B0F8A000           LDRH     R0,[R0, #+160]
   \   0000003E   2590               STR      R0,[SP, #+148]
   \   00000040   ........           LDR.W    R0,??DataTable39_2
   \   00000044   90F88900           LDRB     R0,[R0, #+137]
   \   00000048   2490               STR      R0,[SP, #+144]
   \   0000004A   ........           LDR.W    R0,??DataTable37_5
   \   0000004E   C069               LDR      R0,[R0, #+28]
   \   00000050   2390               STR      R0,[SP, #+140]
   \   00000052   ........           LDR.W    R0,??DataTable37_14
   \   00000056   0088               LDRH     R0,[R0, #+0]
   \   00000058   2290               STR      R0,[SP, #+136]
   \   0000005A   ........           LDR.W    R0,??DataTable39_2
   \   0000005E   90F8A400           LDRB     R0,[R0, #+164]
   \   00000062   2190               STR      R0,[SP, #+132]
   \   00000064   ........           LDR.W    R0,??DataTable39_2
   \   00000068   B0F89C00           LDRH     R0,[R0, #+156]
   \   0000006C   2090               STR      R0,[SP, #+128]
   \   0000006E   ........           LDR.W    R0,??DataTable39_2
   \   00000072   D0F88500           LDR      R0,[R0, #+133]
   \   00000076   1F90               STR      R0,[SP, #+124]
   \   00000078   ........           LDR.W    R0,??DataTable39_2
   \   0000007C   D0F88100           LDR      R0,[R0, #+129]
   \   00000080   1E90               STR      R0,[SP, #+120]
   \   00000082   ........           LDR.W    R0,??DataTable39_3
   \   00000086   1D90               STR      R0,[SP, #+116]
   \   00000088   ........           LDR.W    R0,??DataTable39_4
   \   0000008C   1C90               STR      R0,[SP, #+112]
   \   0000008E   ........           LDR.W    R0,??DataTable39_5
   \   00000092   1B90               STR      R0,[SP, #+108]
   \   00000094   ........           LDR.W    R0,??DataTable39_6
   \   00000098   1A90               STR      R0,[SP, #+104]
   \   0000009A   ........           LDR.W    R0,??DataTable39_7
   \   0000009E   1990               STR      R0,[SP, #+100]
   \   000000A0   ........           LDR.W    R0,??DataTable39_2
   \   000000A4   D0F87D00           LDR      R0,[R0, #+125]
   \   000000A8   1890               STR      R0,[SP, #+96]
   \   000000AA   ........           LDR.W    R0,??DataTable39_2
   \   000000AE   D0F87900           LDR      R0,[R0, #+121]
   \   000000B2   1790               STR      R0,[SP, #+92]
   \   000000B4   ........           LDR.W    R0,??DataTable39_2
   \   000000B8   D0F87500           LDR      R0,[R0, #+117]
   \   000000BC   1690               STR      R0,[SP, #+88]
   \   000000BE   ........           LDR.W    R0,??DataTable39_2
   \   000000C2   D0F87100           LDR      R0,[R0, #+113]
   \   000000C6   1590               STR      R0,[SP, #+84]
   \   000000C8   ........           LDR.W    R0,??DataTable39_2
   \   000000CC   90F87000           LDRB     R0,[R0, #+112]
   \   000000D0   1490               STR      R0,[SP, #+80]
   \   000000D2   ........           LDR.W    R0,??DataTable39_2
   \   000000D6   B0F89400           LDRH     R0,[R0, #+148]
   \   000000DA   1390               STR      R0,[SP, #+76]
   \   000000DC   ........           LDR.W    R0,??DataTable39_2
   \   000000E0   90F89300           LDRB     R0,[R0, #+147]
   \   000000E4   1290               STR      R0,[SP, #+72]
   \   000000E6   ........           LDR.W    R0,??DataTable39_2
   \   000000EA   90F99200           LDRSB    R0,[R0, #+146]
   \   000000EE   1190               STR      R0,[SP, #+68]
   \   000000F0   ........           LDR.W    R0,??DataTable39_2
   \   000000F4   90F99100           LDRSB    R0,[R0, #+145]
   \   000000F8   1090               STR      R0,[SP, #+64]
   \   000000FA   ........           LDR.W    R0,??DataTable39_2
   \   000000FE   B0F88F00           LDRH     R0,[R0, #+143]
   \   00000102   0F90               STR      R0,[SP, #+60]
   \   00000104   ........           LDR.W    R0,??DataTable39_2
   \   00000108   B0F88D00           LDRH     R0,[R0, #+141]
   \   0000010C   0E90               STR      R0,[SP, #+56]
   \   0000010E   ........           LDR.W    R0,??DataTable39_2
   \   00000112   B0F88B00           LDRH     R0,[R0, #+139]
   \   00000116   0D90               STR      R0,[SP, #+52]
   \   00000118   ........           LDR.W    R0,??DataTable39_2
   \   0000011C   B0F89E00           LDRH     R0,[R0, #+158]
   \   00000120   0C90               STR      R0,[SP, #+48]
   \   00000122   ........           LDR.W    R0,??DataTable39_2
   \   00000126   B0F89800           LDRH     R0,[R0, #+152]
   \   0000012A   0B90               STR      R0,[SP, #+44]
   \   0000012C   ........           LDR.W    R0,??DataTable39_2
   \   00000130   B0F89A00           LDRH     R0,[R0, #+154]
   \   00000134   0A90               STR      R0,[SP, #+40]
   \   00000136   ........           LDR.W    R0,??DataTable39_2
   \   0000013A   B0F89600           LDRH     R0,[R0, #+150]
   \   0000013E   0990               STR      R0,[SP, #+36]
   \   00000140   ........           LDR.W    R0,??DataTable39_2
   \   00000144   90F8A300           LDRB     R0,[R0, #+163]
   \   00000148   0890               STR      R0,[SP, #+32]
   \   0000014A   ........           LDR.W    R0,??DataTable39_2
   \   0000014E   B0F86E00           LDRH     R0,[R0, #+110]
   \   00000152   0790               STR      R0,[SP, #+28]
   \   00000154   ........           LDR.W    R0,??DataTable39_2
   \   00000158   B0F86C00           LDRH     R0,[R0, #+108]
   \   0000015C   0690               STR      R0,[SP, #+24]
   \   0000015E   ........           LDR.W    R0,??DataTable39_2
   \   00000162   806E               LDR      R0,[R0, #+104]
   \   00000164   0590               STR      R0,[SP, #+20]
   \   00000166   ........           LDR.W    R0,??DataTable39_2
   \   0000016A   006E               LDR      R0,[R0, #+96]
   \   0000016C   0490               STR      R0,[SP, #+16]
   \   0000016E   ........           LDR.W    R0,??DataTable39_2
   \   00000172   406E               LDR      R0,[R0, #+100]
   \   00000174   0390               STR      R0,[SP, #+12]
   \   00000176   ........           LDR.W    R0,??DataTable39_8
   \   0000017A   0290               STR      R0,[SP, #+8]
   \   0000017C   ........           LDR.W    R0,??DataTable39_9
   \   00000180   0190               STR      R0,[SP, #+4]
   \   00000182   ........           LDR.W    R0,??DataTable39_10
   \   00000186   0090               STR      R0,[SP, #+0]
   \   00000188   ........           LDR.W    R3,??DataTable39_11
   \   0000018C   ........           LDR.W    R2,??DataTable39_12
   \   00000190   ........           LDR.W    R1,??DataTable39_13
   \   00000194   ........           LDR.W    R0,??DataTable37_2
   \   00000198   ........           BL       sprintf
    258               Tx_PCCount = strlen (Tx_PCBuffer);
                                           ^
Warning[Pe167]: argument of type "u8 *" is incompatible with parameter of type
          "char const *"
   \   0000019C   ........           LDR.W    R0,??DataTable37_2
   \   000001A0   ........           BL       strlen
   \   000001A4   ........           LDR.W    R1,??DataTable39
   \   000001A8   0880               STRH     R0,[R1, #+0]
    259          }
   \   000001AA   2DB0               ADD      SP,SP,#+180
   \   000001AC   00BD               POP      {PC}             ;; return
    260          

   \                                 In section .text, align 2, keep-with-next
    261          void Send_Memroy(void)
    262          {                 
    263               
    264          }
   \                     Send_Memroy:
   \   00000000   7047               BX       LR               ;; return
    265          

   \                                 In section .text, align 2, keep-with-next
    266          void SettingGPS(char *String)
    267          {
   \                     SettingGPS:
   \   00000000   2DE9F043           PUSH     {R4-R9,LR}
   \   00000004   99B0               SUB      SP,SP,#+100
   \   00000006   0400               MOVS     R4,R0
    268               u8 TempChar[100];     
    269               int Point;
    270               u16 Point2, Setting_Count;     
    271               
    272               u16 Count,Count2;
    273               
    274               Point = -1;
   \   00000008   5FF0FF38           MOVS     R8,#-1
    275               Setting_Count = 0;    
   \   0000000C   0027               MOVS     R7,#+0
   \   0000000E   13E0               B.N      ??SettingGPS_0
    276                     
    277               while(1)
    278               {
    279                    Point2 = Point + 1;                          // , 다음부터 검사한다.
    280                    Point = FindString(String,Point2,',');
    281                    if(Point == 65535 || Point == -1)
    282                    {
    283                         Save_GPS();                          // 저장
    284                         strcpy((char*)Tx_PCBuffer,"[OK]\n");               
    285                         Tx_PCCount = strlen (Tx_PCBuffer);
                                                     ^
Warning[Pe167]: argument of type "u8 *" is incompatible with parameter of type
          "char const *"
    286                         break;
    287                    }
    288                    memset(TempChar,0,sizeof(TempChar));
    289                    memcpy(TempChar, &String[Point2], Point - Point2 );
    290          
    291                    if(Setting_Count == 0)
    292                    {
    293                         GPS_RouteCheck.GPS_RouteEnable = atoi((char *)TempChar);                 
    294                    }                 
    295                    else if(Setting_Count == 1 )
    296                    {
    297                         GPS_RouteCheck.GPS_RouteSection = atoi((char *)TempChar);     
    298                         Count = 0;
    299                         Count2 = 0;
    300                    }else if( Setting_Count < 18)
    301                    {
    302                         if(Count == 0)
    303                              GPS_RouteCheck.Route[Count2].Longitude = atoi((char *)TempChar);
    304                         else if(Count == 1)
   \                     ??SettingGPS_1:
   \   00000010   B6B2               UXTH     R6,R6            ;; ZeroExt  R6,R6,#+16,#+16
   \   00000012   012E               CMP      R6,#+1
   \   00000014   09D1               BNE.N    ??SettingGPS_2
    305                              GPS_RouteCheck.Route[Count2].Latitude =  atoi((char *)TempChar);
   \   00000016   00A8               ADD      R0,SP,#+0
   \   00000018   ........           BL       atoi
   \   0000001C   ADB2               UXTH     R5,R5            ;; ZeroExt  R5,R5,#+16,#+16
   \   0000001E   ........           LDR.W    R1,??DataTable38_4
   \   00000022   11EBC501           ADDS     R1,R1,R5, LSL #+3
   \   00000026   C1F80600           STR      R0,[R1, #+6]
    306          //               else if(Count == 2)
    307          //                    GPS_RouteCheck.Route[Count2].Latitude2 = atoi(TempChar);
    308          //               else if(Count == 3)
    309          //                    GPS_RouteCheck.Route[Count2].Longitude2 = atoi(TempChar);
    310                         
    311                         Count++;
   \                     ??SettingGPS_2:
   \   0000002A   761C               ADDS     R6,R6,#+1
    312                         if(Count > 1 )
   \   0000002C   B6B2               UXTH     R6,R6            ;; ZeroExt  R6,R6,#+16,#+16
   \   0000002E   022E               CMP      R6,#+2
   \   00000030   01D3               BCC.N    ??SettingGPS_3
    313                         {
    314                              Count2++;
   \   00000032   6D1C               ADDS     R5,R5,#+1
    315                              Count = 0;                    
   \   00000034   0026               MOVS     R6,#+0
    316                         }
    317                    }
    318                    Setting_Count++;
   \                     ??SettingGPS_3:
   \   00000036   7F1C               ADDS     R7,R7,#+1
   \                     ??SettingGPS_0:
   \   00000038   18F10109           ADDS     R9,R8,#+1
   \   0000003C   2C22               MOVS     R2,#+44
   \   0000003E   1FFA89F9           UXTH     R9,R9            ;; ZeroExt  R9,R9,#+16,#+16
   \   00000042   4946               MOV      R1,R9
   \   00000044   2000               MOVS     R0,R4
   \   00000046   ........           BL       FindString
   \   0000004A   8046               MOV      R8,R0
   \   0000004C   4FF6FF70           MOVW     R0,#+65535
   \   00000050   8045               CMP      R8,R0
   \   00000052   02D0               BEQ.N    ??SettingGPS_4
   \   00000054   18F1010F           CMN      R8,#+1
   \   00000058   11D1               BNE.N    ??SettingGPS_5
   \                     ??SettingGPS_4:
   \   0000005A   ........           BL       Save_GPS
   \   0000005E   ........           LDR.W    R1,??DataTable39_14
   \   00000062   ........           LDR.W    R0,??DataTable37_2
   \   00000066   ........           BL       strcpy
   \   0000006A   ........           LDR.W    R0,??DataTable37_2
   \   0000006E   ........           BL       strlen
   \   00000072   ........           LDR.W    R1,??DataTable38
   \   00000076   0880               STRH     R0,[R1, #+0]
    319               }
    320             
    321          }
   \   00000078   19B0               ADD      SP,SP,#+100
   \   0000007A   BDE8F083           POP      {R4-R9,PC}       ;; return
   \                     ??SettingGPS_5:
   \   0000007E   6422               MOVS     R2,#+100
   \   00000080   0021               MOVS     R1,#+0
   \   00000082   00A8               ADD      R0,SP,#+0
   \   00000084   ........           BL       memset
   \   00000088   1FFA89F9           UXTH     R9,R9            ;; ZeroExt  R9,R9,#+16,#+16
   \   0000008C   B8EB0902           SUBS     R2,R8,R9
   \   00000090   1FFA89F9           UXTH     R9,R9            ;; ZeroExt  R9,R9,#+16,#+16
   \   00000094   19EB0401           ADDS     R1,R9,R4
   \   00000098   00A8               ADD      R0,SP,#+0
   \   0000009A   ........           BL       memcpy
   \   0000009E   BFB2               UXTH     R7,R7            ;; ZeroExt  R7,R7,#+16,#+16
   \   000000A0   002F               CMP      R7,#+0
   \   000000A2   06D1               BNE.N    ??SettingGPS_6
   \   000000A4   00A8               ADD      R0,SP,#+0
   \   000000A6   ........           BL       atoi
   \   000000AA   ........           LDR.W    R1,??DataTable38_4
   \   000000AE   0870               STRB     R0,[R1, #+0]
   \   000000B0   C1E7               B.N      ??SettingGPS_3
   \                     ??SettingGPS_6:
   \   000000B2   BFB2               UXTH     R7,R7            ;; ZeroExt  R7,R7,#+16,#+16
   \   000000B4   012F               CMP      R7,#+1
   \   000000B6   08D1               BNE.N    ??SettingGPS_7
   \   000000B8   00A8               ADD      R0,SP,#+0
   \   000000BA   ........           BL       atoi
   \   000000BE   ........           LDR.W    R1,??DataTable38_4
   \   000000C2   4870               STRB     R0,[R1, #+1]
   \   000000C4   0026               MOVS     R6,#+0
   \   000000C6   0025               MOVS     R5,#+0
   \   000000C8   B5E7               B.N      ??SettingGPS_3
   \                     ??SettingGPS_7:
   \   000000CA   BFB2               UXTH     R7,R7            ;; ZeroExt  R7,R7,#+16,#+16
   \   000000CC   122F               CMP      R7,#+18
   \   000000CE   B2D2               BCS.N    ??SettingGPS_3
   \   000000D0   B6B2               UXTH     R6,R6            ;; ZeroExt  R6,R6,#+16,#+16
   \   000000D2   002E               CMP      R6,#+0
   \   000000D4   9CD1               BNE.N    ??SettingGPS_1
   \   000000D6   00A8               ADD      R0,SP,#+0
   \   000000D8   ........           BL       atoi
   \   000000DC   ADB2               UXTH     R5,R5            ;; ZeroExt  R5,R5,#+16,#+16
   \   000000DE   ........           LDR.W    R1,??DataTable38_4
   \   000000E2   11EBC501           ADDS     R1,R1,R5, LSL #+3
   \   000000E6   C1F80200           STR      R0,[R1, #+2]
   \   000000EA   9EE7               B.N      ??SettingGPS_2
    322          

   \                                 In section .text, align 2, keep-with-next
    323          void SettingWIFI(char *String)
    324          {
   \                     SettingWIFI:
   \   00000000   F0B5               PUSH     {R4-R7,LR}
   \   00000002   99B0               SUB      SP,SP,#+100
   \   00000004   0400               MOVS     R4,R0
    325               u8 TempChar[100];     
    326               int Point;
    327               u16 Point2, Setting_Count;     
    328          
    329               Point = -1;
   \   00000006   5FF0FF35           MOVS     R5,#-1
    330               Setting_Count = 0;    
   \   0000000A   0027               MOVS     R7,#+0
   \   0000000C   08E0               B.N      ??SettingWIFI_0
    331               
    332               while(1)
    333               {
    334                    Point2 = Point + 1;                          // , 다음부터 검사한다.
    335                    Point = FindString(String,Point2,',');
    336                    if(Point == 65535 || Point == -1)
    337                    {
    338                         SFLASH_Wifi.Verify = SFLASH_VERIFY3_WIFI;  
    339                         Save_SFLASH_CarInfo();                          // 저장
    340                         //-------------------------------------------------------------------
    341                         // 데이터를 저장하고 WIFI 세팅한다.
    342                         Flag.Wifi_SettingFlag = 1 ;               
    343                         strcpy((char*)Tx_PCBuffer,"[OK]\n");               
    344                         Tx_PCCount = strlen (Tx_PCBuffer);               
                                                     ^
Warning[Pe167]: argument of type "u8 *" is incompatible with parameter of type
          "char const *"
    345                         break;
    346                    }
    347                    memset(TempChar,0,sizeof(TempChar));
    348                    memcpy(TempChar, &String[Point2], Point - Point2 );
    349          
    350                    if(Setting_Count == 0)
    351                    {
    352                         strcpy((char *)SFLASH_Wifi.ServerIP, (char *)TempChar);
    353                    }else if(Setting_Count == 1)
    354                    {
    355                         strcpy((char *)SFLASH_Wifi.ServerPort, (char *)TempChar);
    356                    }else if(Setting_Count == 2)
    357                    {               
    358                         strcpy((char *)SFLASH_Wifi.SSID,(char *)TempChar);               
    359                    }else if(Setting_Count == 3)
   \                     ??SettingWIFI_1:
   \   0000000E   BFB2               UXTH     R7,R7            ;; ZeroExt  R7,R7,#+16,#+16
   \   00000010   032F               CMP      R7,#+3
   \   00000012   04D1               BNE.N    ??SettingWIFI_2
    360                    {
    361                         strcpy((char *)SFLASH_Wifi.WWPA,(char *)TempChar);
   \   00000014   00A9               ADD      R1,SP,#+0
   \   00000016   ........           LDR.W    R0,??DataTable38_6
   \   0000001A   ........           BL       strcpy
    362                    }
    363                    Setting_Count++;         
   \                     ??SettingWIFI_2:
   \   0000001E   7F1C               ADDS     R7,R7,#+1
   \                     ??SettingWIFI_0:
   \   00000020   6E1C               ADDS     R6,R5,#+1
   \   00000022   2C22               MOVS     R2,#+44
   \   00000024   B6B2               UXTH     R6,R6            ;; ZeroExt  R6,R6,#+16,#+16
   \   00000026   3100               MOVS     R1,R6
   \   00000028   2000               MOVS     R0,R4
   \   0000002A   ........           BL       FindString
   \   0000002E   0500               MOVS     R5,R0
   \   00000030   4FF6FF70           MOVW     R0,#+65535
   \   00000034   8542               CMP      R5,R0
   \   00000036   02D0               BEQ.N    ??SettingWIFI_3
   \   00000038   15F1010F           CMN      R5,#+1
   \   0000003C   20D1               BNE.N    ??SettingWIFI_4
   \                     ??SettingWIFI_3:
   \   0000003E   ........           LDR.W    R0,??DataTable38_7
   \   00000042   4AF24731           MOVW     R1,#+41799
   \   00000046   A0F84710           STRH     R1,[R0, #+71]
   \   0000004A   ........           BL       Save_SFLASH_CarInfo
   \   0000004E   ........           LDR.W    R0,??DataTable37_1
   \   00000052   0121               MOVS     R1,#+1
   \   00000054   8173               STRB     R1,[R0, #+14]
   \   00000056   ........           LDR.W    R1,??DataTable39_14
   \   0000005A   ........           LDR.W    R0,??DataTable37_2
   \   0000005E   ........           BL       strcpy
   \   00000062   ........           LDR.W    R0,??DataTable37_2
   \   00000066   ........           BL       strlen
   \   0000006A   ........           LDR.W    R1,??DataTable38
   \   0000006E   0880               STRH     R0,[R1, #+0]
    364               }
    365               strcpy((char *)Buffer,"[OK]\n");
   \   00000070   ........           LDR.W    R1,??DataTable39_14
   \   00000074   ........           LDR.W    R0,??DataTable40
   \   00000078   ........           BL       strcpy
    366             
    367          }
   \   0000007C   19B0               ADD      SP,SP,#+100
   \   0000007E   F0BD               POP      {R4-R7,PC}       ;; return
   \                     ??SettingWIFI_4:
   \   00000080   6422               MOVS     R2,#+100
   \   00000082   0021               MOVS     R1,#+0
   \   00000084   00A8               ADD      R0,SP,#+0
   \   00000086   ........           BL       memset
   \   0000008A   B6B2               UXTH     R6,R6            ;; ZeroExt  R6,R6,#+16,#+16
   \   0000008C   AA1B               SUBS     R2,R5,R6
   \   0000008E   B6B2               UXTH     R6,R6            ;; ZeroExt  R6,R6,#+16,#+16
   \   00000090   3119               ADDS     R1,R6,R4
   \   00000092   00A8               ADD      R0,SP,#+0
   \   00000094   ........           BL       memcpy
   \   00000098   BFB2               UXTH     R7,R7            ;; ZeroExt  R7,R7,#+16,#+16
   \   0000009A   002F               CMP      R7,#+0
   \   0000009C   05D1               BNE.N    ??SettingWIFI_5
   \   0000009E   00A9               ADD      R1,SP,#+0
   \   000000A0   ........           LDR.W    R0,??DataTable38_9
   \   000000A4   ........           BL       strcpy
   \   000000A8   B9E7               B.N      ??SettingWIFI_2
   \                     ??SettingWIFI_5:
   \   000000AA   BFB2               UXTH     R7,R7            ;; ZeroExt  R7,R7,#+16,#+16
   \   000000AC   012F               CMP      R7,#+1
   \   000000AE   05D1               BNE.N    ??SettingWIFI_6
   \   000000B0   00A9               ADD      R1,SP,#+0
   \   000000B2   ........           LDR.W    R0,??DataTable38_8
   \   000000B6   ........           BL       strcpy
   \   000000BA   B0E7               B.N      ??SettingWIFI_2
   \                     ??SettingWIFI_6:
   \   000000BC   BFB2               UXTH     R7,R7            ;; ZeroExt  R7,R7,#+16,#+16
   \   000000BE   022F               CMP      R7,#+2
   \   000000C0   A5D1               BNE.N    ??SettingWIFI_1
   \   000000C2   00A9               ADD      R1,SP,#+0
   \   000000C4   ........           LDR.W    R0,??DataTable38_7
   \   000000C8   ........           BL       strcpy
   \   000000CC   A7E7               B.N      ??SettingWIFI_2

   \                                 In section .text, align 2, keep-with-next
    368          void SettingParameter(char *String)
    369          {
   \                     SettingParameter:
   \   00000000   F0B5               PUSH     {R4-R7,LR}
   \   00000002   99B0               SUB      SP,SP,#+100
   \   00000004   0400               MOVS     R4,R0
    370               u8 TempChar[100];     
    371          
    372               int Point;
    373               u16 Point2, Setting_Count;     
    374                  
    375               Point = -1;
   \   00000006   5FF0FF35           MOVS     R5,#-1
    376               Setting_Count = 0;    
   \   0000000A   0026               MOVS     R6,#+0
    377               IWDG_ReloadCounter();
   \   0000000C   ........           BL       IWDG_ReloadCounter
   \   00000010   04E0               B.N      ??SettingParameter_0
    378               while(1)
    379               {
    380                    Point2 = Point + 1;                          // , 다음부터 검사한다.
    381                    Point = FindString(String,Point2,',');
    382                    if(Point == 65535 || Point == -1)
    383                    {         
    384                 
    385                         SFLASH_CarInfo.Verify = SFLASH_VERIFY0_CARINFO;               
    386                         SFLASH_Memory.Verify = SFLASH_VERIFY1_MEMORY;
    387                         Save_SFLASH_CarInfo();                          // 저장
    388                         Save_SFLASH();                                    // 저장     
    389                         Write_Header_EMS();
    390                         DataSetting();
    391                         strcpy((char*)Tx_PCBuffer,"[OK]\n");               
    392                         Tx_PCCount = strlen (Tx_PCBuffer);                 
                                                     ^
Warning[Pe167]: argument of type "u8 *" is incompatible with parameter of type
          "char const *"
    393                         break;
    394                    }
    395                    memset(TempChar,0,sizeof(TempChar));
    396                    memcpy(TempChar, &String[Point2], Point - Point2 );
    397                              
    398          
    399                    switch(Setting_Count++)
    400                    {
    401                    case 0:
    402                         strcpy((char *)SFLASH_CarInfo.FirmWareVer , (char *)TempChar);
   \                     ??SettingParameter_1:
   \   00000012   00A9               ADD      R1,SP,#+0
   \   00000014   ........           LDR.W    R0,??DataTable40_1
   \   00000018   ........           BL       strcpy
    403                         break;
   \                     ??SettingParameter_0:
   \   0000001C   6F1C               ADDS     R7,R5,#+1
   \   0000001E   2C22               MOVS     R2,#+44
   \   00000020   BFB2               UXTH     R7,R7            ;; ZeroExt  R7,R7,#+16,#+16
   \   00000022   3900               MOVS     R1,R7
   \   00000024   2000               MOVS     R0,R4
   \   00000026   ........           BL       FindString
   \   0000002A   0500               MOVS     R5,R0
   \   0000002C   4FF6FF70           MOVW     R0,#+65535
   \   00000030   8542               CMP      R5,R0
   \   00000032   02D0               BEQ.N    ??SettingParameter_2
   \   00000034   15F1010F           CMN      R5,#+1
   \   00000038   20D1               BNE.N    ??SettingParameter_3
   \                     ??SettingParameter_2:
   \   0000003A   ........           LDR.W    R0,??DataTable40_1
   \   0000003E   4AF24431           MOVW     R1,#+41796
   \   00000042   A0F85D10           STRH     R1,[R0, #+93]
   \   00000046   ........           LDR.W    R0,??DataTable39_2
   \   0000004A   4AF25531           MOVW     R1,#+41813
   \   0000004E   A0F8B010           STRH     R1,[R0, #+176]
   \   00000052   ........           BL       Save_SFLASH_CarInfo
   \   00000056   ........           BL       Save_SFLASH
   \   0000005A   ........           BL       Write_Header_EMS
   \   0000005E   ........           BL       DataSetting
   \   00000062   ........           ADR.W    R1,`?<Constant "[OK]\\n">`
   \   00000066   ....               LDR.N    R0,??DataTable37_2
   \   00000068   ........           BL       strcpy
   \   0000006C   ....               LDR.N    R0,??DataTable37_2
   \   0000006E   ........           BL       strlen
   \   00000072   ........           LDR.W    R1,??DataTable38
   \   00000076   0880               STRH     R0,[R1, #+0]
    404                    case 1:
    405                         strcpy((char *)SFLASH_CarInfo.SerialNumber , (char *)TempChar);
    406                         break;
    407                    case 2:
    408                         strcpy((char *)SFLASH_CarInfo.MachineVer , (char *)TempChar);
    409                         break;
    410                    case 3:
    411                         strcpy((char *)SFLASH_CarInfo.Recognition , (char *)TempChar);
    412                         break;
    413                    case 4:
    414                         strcpy((char *)SFLASH_CarInfo.CarNum , (char *)TempChar);
    415                         break;
    416                    case 5:
    417                         SFLASH_Memory.SPEED_Adjust = atoi((char *)TempChar);
    418                         break;
    419                    case 6:
    420                         SFLASH_Memory.RPM_Adjust = atoi((char *)TempChar);
    421                         break;
    422                    case 7:
    423                         SFLASH_Memory.Distance_Adjust = atoi((char *)TempChar);
    424                         break;
    425                    case 8:
    426                         SFLASH_Memory.SPEED_Reference = atoi((char *)TempChar);
    427                         break;
    428                    case 9:
    429                         SFLASH_Memory.RPM_Reference = atoi((char *)TempChar);
    430                         break;
    431                    case 10:
    432                         SFLASH_Memory.Voice_Volume = atoi((char *)TempChar);
    433                         break;
    434                    case 11:
    435                         SFLASH_Memory.FastOverSpeed = atoi((char *)TempChar);
    436                         break;
    437                    case 12:
    438                         SFLASH_Memory.QuickStop = atoi((char *)TempChar);
    439                         break;
    440                    case 13:
    441                         SFLASH_Memory.QuickAccel = atoi((char *)TempChar);
    442                         break;
    443                    case 14:
    444                         SFLASH_Memory.OverloadRPM = atoi((char *)TempChar);
    445                         break;                    
    446                    case 15:                             
    447                         SFLASH_Memory.EMS.Battery_Volt = atoi((char *)TempChar);
    448                         break;
    449                    case 16:
    450                         SFLASH_Memory.EMS.ColdWaterTemp_Volt = atoi((char *)TempChar);
    451                         break;
    452                    case 17:
    453                         SFLASH_Memory.EMS.Air_Volt = atoi((char *)TempChar);
    454                         break;
    455                    case 18:
    456                         SFLASH_Memory.EMS.TILTX_Limit = atoi((char *)TempChar);
    457                         break;
    458                    case 19:
    459                         SFLASH_Memory.EMS.TILTY_Limit = atoi((char *)TempChar);
    460                         break;
    461                    case 20:
    462                         SFLASH_Memory.EMS.LimitSpeed = atoi((char *)TempChar);
    463                         break;                             
    464                    case 21:
    465                         SFLASH_Memory.EMS.StopTime = atoi((char *)TempChar);
    466                         break;                             
    467                    case 22:
    468                         SFLASH_Memory.Tilt_Reference = TempChar[0];
    469                         break;                             
    470                    case 23:
    471                         SFLASH_Memory.TiltRefX = atoi((char *)TempChar);
    472                         break;                             
    473                    case 24:
    474                         SFLASH_Memory.TiltRefY = atoi((char *)TempChar);
    475                         break;                             
    476                    case 25:
    477                         SFLASH_Memory.EventRefX = atoi((char *)TempChar);
    478                         break;                 
    479                    case 26:
    480                         SFLASH_Memory.EventRefY = atoi((char *)TempChar);
    481                         break;        
    482                    case 27:
    483                         strcpy((char *)SFLASH_Memory.Driver[0] , (char *)TempChar);
    484                         break;        
    485                    case 28:
    486                         strcpy((char *)SFLASH_Memory.Driver[1] , (char *)TempChar);
    487                         break;
    488                    case 29:
    489                         strcpy((char *)SFLASH_Memory.Driver[2] , (char *)TempChar);
    490                         break;                                     
    491                    case 30:
    492                         strcpy((char *)SFLASH_Memory.Driver[3] , (char *)TempChar);
    493                         break;
    494                    case 31:
    495                         strcpy((char *)SFLASH_Memory.Driver[4] , (char *)TempChar);
    496                         break;        
    497                    case 32:
    498                         SFLASH_Memory.Home.Longitude =  atoi((char *)TempChar);
    499                         break;
    500                    case 33:
    501                         SFLASH_Memory.Home.Latitude = atoi((char *)TempChar);
    502                         break;
    503                    case 34:       // Reserve
    504                         SFLASH_Memory.QuickStart = atoi((char *)TempChar);
    505          //               SFLASH_Memory.Home.Longitude2 = atoi(TempChar);
    506                         break;
    507                    case 35:       // Reserve
    508                         SFLASH_Memory.DTG_EMS_Select = atoi((char *)TempChar);
    509          //               SFLASH_Memory.Home.Latitude2 =  atoi(TempChar);               
    510                         break;
    511                    case 36:       // Reserve
    512          //               Info.Total_StartCount = atoi(TempChar);            
    513                         break;
    514                    case 37:       // Reserve               
    515             
    516                         break;
    517                    case 38:
    518                         SFLASH_Memory.GPS_EMS_Use = atoi((char *)TempChar);
    519                         break;                             
    520                    case 39:
    521                         SFLASH_Memory.IO_Reverser = atoi((char *)TempChar);
    522                         break;
    523                    case 40:
    524                         SFLASH_Memory.Car_Maker = atoi((char *)TempChar);
    525                         break;                       
    526                    case 41:
    527                         SFLASH_Memory.EMS.USE_Enable = atoi((char *)TempChar);
    528                         break;  
    529                    }
    530               }
    531          }
   \   00000078   19B0               ADD      SP,SP,#+100
   \   0000007A   F0BD               POP      {R4-R7,PC}       ;; return
   \                     ??SettingParameter_3:
   \   0000007C   6422               MOVS     R2,#+100
   \   0000007E   0021               MOVS     R1,#+0
   \   00000080   00A8               ADD      R0,SP,#+0
   \   00000082   ........           BL       memset
   \   00000086   BFB2               UXTH     R7,R7            ;; ZeroExt  R7,R7,#+16,#+16
   \   00000088   EA1B               SUBS     R2,R5,R7
   \   0000008A   BFB2               UXTH     R7,R7            ;; ZeroExt  R7,R7,#+16,#+16
   \   0000008C   3919               ADDS     R1,R7,R4
   \   0000008E   00A8               ADD      R0,SP,#+0
   \   00000090   ........           BL       memcpy
   \   00000094   3000               MOVS     R0,R6
   \   00000096   461C               ADDS     R6,R0,#+1
   \   00000098   80B2               UXTH     R0,R0            ;; ZeroExt  R0,R0,#+16,#+16
   \   0000009A   0028               CMP      R0,#+0
   \   0000009C   B9D0               BEQ.N    ??SettingParameter_1
   \   0000009E   0228               CMP      R0,#+2
   \   000000A0   64D0               BEQ.N    ??SettingParameter_4
   \   000000A2   5DD3               BCC.N    ??SettingParameter_5
   \   000000A4   0428               CMP      R0,#+4
   \   000000A6   6DD0               BEQ.N    ??SettingParameter_6
   \   000000A8   66D3               BCC.N    ??SettingParameter_7
   \   000000AA   0628               CMP      R0,#+6
   \   000000AC   77D0               BEQ.N    ??SettingParameter_8
   \   000000AE   6FD3               BCC.N    ??SettingParameter_9
   \   000000B0   0828               CMP      R0,#+8
   \   000000B2   00F08280           BEQ.W    ??SettingParameter_10
   \   000000B6   79D3               BCC.N    ??SettingParameter_11
   \   000000B8   0A28               CMP      R0,#+10
   \   000000BA   00F08E80           BEQ.W    ??SettingParameter_12
   \   000000BE   C0F08480           BCC.W    ??SettingParameter_13
   \   000000C2   0C28               CMP      R0,#+12
   \   000000C4   00F09980           BEQ.W    ??SettingParameter_14
   \   000000C8   C0F08F80           BCC.W    ??SettingParameter_15
   \   000000CC   0E28               CMP      R0,#+14
   \   000000CE   00F0A480           BEQ.W    ??SettingParameter_16
   \   000000D2   C0F09A80           BCC.W    ??SettingParameter_17
   \   000000D6   1028               CMP      R0,#+16
   \   000000D8   00F0AF80           BEQ.W    ??SettingParameter_18
   \   000000DC   C0F0A580           BCC.W    ??SettingParameter_19
   \   000000E0   1228               CMP      R0,#+18
   \   000000E2   00F0BA80           BEQ.W    ??SettingParameter_20
   \   000000E6   C0F0B080           BCC.W    ??SettingParameter_21
   \   000000EA   1428               CMP      R0,#+20
   \   000000EC   00F0C580           BEQ.W    ??SettingParameter_22
   \   000000F0   C0F0BB80           BCC.W    ??SettingParameter_23
   \   000000F4   1628               CMP      R0,#+22
   \   000000F6   00F0D080           BEQ.W    ??SettingParameter_24
   \   000000FA   C0F0C680           BCC.W    ??SettingParameter_25
   \   000000FE   1828               CMP      R0,#+24
   \   00000100   00F0DA80           BEQ.W    ??SettingParameter_26
   \   00000104   C0F0D080           BCC.W    ??SettingParameter_27
   \   00000108   1A28               CMP      R0,#+26
   \   0000010A   00F0E580           BEQ.W    ??SettingParameter_28
   \   0000010E   C0F0DB80           BCC.W    ??SettingParameter_29
   \   00000112   1C28               CMP      R0,#+28
   \   00000114   00F0EE80           BEQ.W    ??SettingParameter_30
   \   00000118   C0F0E680           BCC.W    ??SettingParameter_31
   \   0000011C   1E28               CMP      R0,#+30
   \   0000011E   00F0F580           BEQ.W    ??SettingParameter_32
   \   00000122   C0F0ED80           BCC.W    ??SettingParameter_33
   \   00000126   2028               CMP      R0,#+32
   \   00000128   00F0FC80           BEQ.W    ??SettingParameter_34
   \   0000012C   C0F0F480           BCC.W    ??SettingParameter_35
   \   00000130   2228               CMP      R0,#+34
   \   00000132   00F00781           BEQ.W    ??SettingParameter_36
   \   00000136   C0F0FD80           BCC.W    ??SettingParameter_37
   \   0000013A   2428               CMP      R0,#+36
   \   0000013C   00F01281           BEQ.W    ??SettingParameter_38
   \   00000140   C0F00881           BCC.W    ??SettingParameter_39
   \   00000144   2628               CMP      R0,#+38
   \   00000146   00F00F81           BEQ.W    ??SettingParameter_40
   \   0000014A   C0F00C81           BCC.W    ??SettingParameter_41
   \   0000014E   2828               CMP      R0,#+40
   \   00000150   00F01A81           BEQ.W    ??SettingParameter_42
   \   00000154   C0F01081           BCC.W    ??SettingParameter_43
   \   00000158   2928               CMP      R0,#+41
   \   0000015A   00F01C81           BEQ.W    ??SettingParameter_44
   \   0000015E   5DE7               B.N      ??SettingParameter_0
   \                     ??SettingParameter_5:
   \   00000160   00A9               ADD      R1,SP,#+0
   \   00000162   ........           LDR.W    R0,??DataTable39_11
   \   00000166   ........           BL       strcpy
   \   0000016A   57E7               B.N      ??SettingParameter_0
   \                     ??SettingParameter_4:
   \   0000016C   00A9               ADD      R1,SP,#+0
   \   0000016E   ........           LDR.W    R0,??DataTable39_10
   \   00000172   ........           BL       strcpy
   \   00000176   51E7               B.N      ??SettingParameter_0
   \                     ??SettingParameter_7:
   \   00000178   00A9               ADD      R1,SP,#+0
   \   0000017A   ........           LDR.W    R0,??DataTable39_9
   \   0000017E   ........           BL       strcpy
   \   00000182   4BE7               B.N      ??SettingParameter_0
   \                     ??SettingParameter_6:
   \   00000184   00A9               ADD      R1,SP,#+0
   \   00000186   ........           LDR.W    R0,??DataTable39_8
   \   0000018A   ........           BL       strcpy
   \   0000018E   45E7               B.N      ??SettingParameter_0
   \                     ??SettingParameter_9:
   \   00000190   00A8               ADD      R0,SP,#+0
   \   00000192   ........           BL       atoi
   \   00000196   ........           LDR.W    R1,??DataTable39_2
   \   0000019A   4866               STR      R0,[R1, #+100]
   \   0000019C   3EE7               B.N      ??SettingParameter_0
   \                     ??SettingParameter_8:
   \   0000019E   00A8               ADD      R0,SP,#+0
   \   000001A0   ........           BL       atoi
   \   000001A4   ........           LDR.W    R1,??DataTable39_2
   \   000001A8   0866               STR      R0,[R1, #+96]
   \   000001AA   37E7               B.N      ??SettingParameter_0
   \                     ??SettingParameter_11:
   \   000001AC   00A8               ADD      R0,SP,#+0
   \   000001AE   ........           BL       atoi
   \   000001B2   ........           LDR.W    R1,??DataTable39_2
   \   000001B6   8866               STR      R0,[R1, #+104]
   \   000001B8   30E7               B.N      ??SettingParameter_0
   \                     ??SettingParameter_10:
   \   000001BA   00A8               ADD      R0,SP,#+0
   \   000001BC   ........           BL       atoi
   \   000001C0   ........           LDR.W    R1,??DataTable39_2
   \   000001C4   A1F86C00           STRH     R0,[R1, #+108]
   \   000001C8   28E7               B.N      ??SettingParameter_0
   \                     ??SettingParameter_13:
   \   000001CA   00A8               ADD      R0,SP,#+0
   \   000001CC   ........           BL       atoi
   \   000001D0   ........           LDR.W    R1,??DataTable39_2
   \   000001D4   A1F86E00           STRH     R0,[R1, #+110]
   \   000001D8   20E7               B.N      ??SettingParameter_0
   \                     ??SettingParameter_12:
   \   000001DA   00A8               ADD      R0,SP,#+0
   \   000001DC   ........           BL       atoi
   \   000001E0   ........           LDR.W    R1,??DataTable39_2
   \   000001E4   81F8A300           STRB     R0,[R1, #+163]
   \   000001E8   18E7               B.N      ??SettingParameter_0
   \                     ??SettingParameter_15:
   \   000001EA   00A8               ADD      R0,SP,#+0
   \   000001EC   ........           BL       atoi
   \   000001F0   ........           LDR.W    R1,??DataTable39_2
   \   000001F4   A1F89600           STRH     R0,[R1, #+150]
   \   000001F8   10E7               B.N      ??SettingParameter_0
   \                     ??SettingParameter_14:
   \   000001FA   00A8               ADD      R0,SP,#+0
   \   000001FC   ........           BL       atoi
   \   00000200   ........           LDR.W    R1,??DataTable39_2
   \   00000204   A1F89A00           STRH     R0,[R1, #+154]
   \   00000208   08E7               B.N      ??SettingParameter_0
   \                     ??SettingParameter_17:
   \   0000020A   00A8               ADD      R0,SP,#+0
   \   0000020C   ........           BL       atoi
   \   00000210   ........           LDR.W    R1,??DataTable39_2
   \   00000214   A1F89800           STRH     R0,[R1, #+152]
   \   00000218   00E7               B.N      ??SettingParameter_0
   \                     ??SettingParameter_16:
   \   0000021A   00A8               ADD      R0,SP,#+0
   \   0000021C   ........           BL       atoi
   \   00000220   ........           LDR.W    R1,??DataTable39_2
   \   00000224   A1F89E00           STRH     R0,[R1, #+158]
   \   00000228   F8E6               B.N      ??SettingParameter_0
   \                     ??SettingParameter_19:
   \   0000022A   00A8               ADD      R0,SP,#+0
   \   0000022C   ........           BL       atoi
   \   00000230   ........           LDR.W    R1,??DataTable39_2
   \   00000234   A1F88B00           STRH     R0,[R1, #+139]
   \   00000238   F0E6               B.N      ??SettingParameter_0
   \                     ??SettingParameter_18:
   \   0000023A   00A8               ADD      R0,SP,#+0
   \   0000023C   ........           BL       atoi
   \   00000240   ........           LDR.W    R1,??DataTable39_2
   \   00000244   A1F88D00           STRH     R0,[R1, #+141]
   \   00000248   E8E6               B.N      ??SettingParameter_0
   \                     ??SettingParameter_21:
   \   0000024A   00A8               ADD      R0,SP,#+0
   \   0000024C   ........           BL       atoi
   \   00000250   ........           LDR.W    R1,??DataTable39_2
   \   00000254   A1F88F00           STRH     R0,[R1, #+143]
   \   00000258   E0E6               B.N      ??SettingParameter_0
   \                     ??SettingParameter_20:
   \   0000025A   00A8               ADD      R0,SP,#+0
   \   0000025C   ........           BL       atoi
   \   00000260   ........           LDR.W    R1,??DataTable39_2
   \   00000264   81F89100           STRB     R0,[R1, #+145]
   \   00000268   D8E6               B.N      ??SettingParameter_0
   \                     ??SettingParameter_23:
   \   0000026A   00A8               ADD      R0,SP,#+0
   \   0000026C   ........           BL       atoi
   \   00000270   ........           LDR.W    R1,??DataTable39_2
   \   00000274   81F89200           STRB     R0,[R1, #+146]
   \   00000278   D0E6               B.N      ??SettingParameter_0
   \                     ??SettingParameter_22:
   \   0000027A   00A8               ADD      R0,SP,#+0
   \   0000027C   ........           BL       atoi
   \   00000280   ........           LDR.W    R1,??DataTable39_2
   \   00000284   81F89300           STRB     R0,[R1, #+147]
   \   00000288   C8E6               B.N      ??SettingParameter_0
   \                     ??SettingParameter_25:
   \   0000028A   00A8               ADD      R0,SP,#+0
   \   0000028C   ........           BL       atoi
   \   00000290   ........           LDR.W    R1,??DataTable39_2
   \   00000294   A1F89400           STRH     R0,[R1, #+148]
   \   00000298   C0E6               B.N      ??SettingParameter_0
   \                     ??SettingParameter_24:
   \   0000029A   ........           LDR.W    R0,??DataTable39_2
   \   0000029E   9DF80010           LDRB     R1,[SP, #+0]
   \   000002A2   80F87010           STRB     R1,[R0, #+112]
   \   000002A6   B9E6               B.N      ??SettingParameter_0
   \                     ??SettingParameter_27:
   \   000002A8   00A8               ADD      R0,SP,#+0
   \   000002AA   ........           BL       atoi
   \   000002AE   ........           LDR.W    R1,??DataTable39_2
   \   000002B2   C1F87100           STR      R0,[R1, #+113]
   \   000002B6   B1E6               B.N      ??SettingParameter_0
   \                     ??SettingParameter_26:
   \   000002B8   00A8               ADD      R0,SP,#+0
   \   000002BA   ........           BL       atoi
   \   000002BE   ........           LDR.W    R1,??DataTable39_2
   \   000002C2   C1F87500           STR      R0,[R1, #+117]
   \   000002C6   A9E6               B.N      ??SettingParameter_0
   \                     ??SettingParameter_29:
   \   000002C8   00A8               ADD      R0,SP,#+0
   \   000002CA   ........           BL       atoi
   \   000002CE   ........           LDR.W    R1,??DataTable39_2
   \   000002D2   C1F87900           STR      R0,[R1, #+121]
   \   000002D6   A1E6               B.N      ??SettingParameter_0
   \                     ??SettingParameter_28:
   \   000002D8   00A8               ADD      R0,SP,#+0
   \   000002DA   ........           BL       atoi
   \   000002DE   ........           LDR.W    R1,??DataTable39_2
   \   000002E2   C1F87D00           STR      R0,[R1, #+125]
   \   000002E6   99E6               B.N      ??SettingParameter_0
   \                     ??SettingParameter_31:
   \   000002E8   00A9               ADD      R1,SP,#+0
   \   000002EA   ........           LDR.W    R0,??DataTable39_7
   \   000002EE   ........           BL       strcpy
   \   000002F2   93E6               B.N      ??SettingParameter_0
   \                     ??SettingParameter_30:
   \   000002F4   00A9               ADD      R1,SP,#+0
   \   000002F6   ........           LDR.W    R0,??DataTable39_6
   \   000002FA   ........           BL       strcpy
   \   000002FE   8DE6               B.N      ??SettingParameter_0
   \                     ??SettingParameter_33:
   \   00000300   00A9               ADD      R1,SP,#+0
   \   00000302   ........           LDR.W    R0,??DataTable39_5
   \   00000306   ........           BL       strcpy
   \   0000030A   87E6               B.N      ??SettingParameter_0
   \                     ??SettingParameter_32:
   \   0000030C   00A9               ADD      R1,SP,#+0
   \   0000030E   ........           LDR.W    R0,??DataTable39_4
   \   00000312   ........           BL       strcpy
   \   00000316   81E6               B.N      ??SettingParameter_0
   \                     ??SettingParameter_35:
   \   00000318   00A9               ADD      R1,SP,#+0
   \   0000031A   ........           LDR.W    R0,??DataTable39_3
   \   0000031E   ........           BL       strcpy
   \   00000322   7BE6               B.N      ??SettingParameter_0
   \                     ??SettingParameter_34:
   \   00000324   00A8               ADD      R0,SP,#+0
   \   00000326   ........           BL       atoi
   \   0000032A   ........           LDR.W    R1,??DataTable39_2
   \   0000032E   C1F88100           STR      R0,[R1, #+129]
   \   00000332   73E6               B.N      ??SettingParameter_0
   \                     ??SettingParameter_37:
   \   00000334   00A8               ADD      R0,SP,#+0
   \   00000336   ........           BL       atoi
   \   0000033A   ........           LDR.W    R1,??DataTable39_2
   \   0000033E   C1F88500           STR      R0,[R1, #+133]
   \   00000342   6BE6               B.N      ??SettingParameter_0
   \                     ??SettingParameter_36:
   \   00000344   00A8               ADD      R0,SP,#+0
   \   00000346   ........           BL       atoi
   \   0000034A   ........           LDR.W    R1,??DataTable39_2
   \   0000034E   A1F89C00           STRH     R0,[R1, #+156]
   \   00000352   63E6               B.N      ??SettingParameter_0
   \                     ??SettingParameter_39:
   \   00000354   00A8               ADD      R0,SP,#+0
   \   00000356   ........           BL       atoi
   \   0000035A   ........           LDR.W    R1,??DataTable39_2
   \   0000035E   81F8A400           STRB     R0,[R1, #+164]
   \   00000362   5BE6               B.N      ??SettingParameter_0
   \                     ??SettingParameter_38:
   \   00000364   5AE6               B.N      ??SettingParameter_0
   \                     ??SettingParameter_41:
   \   00000366   59E6               B.N      ??SettingParameter_0
   \                     ??SettingParameter_40:
   \   00000368   00A8               ADD      R0,SP,#+0
   \   0000036A   ........           BL       atoi
   \   0000036E   ........           LDR.W    R1,??DataTable39_2
   \   00000372   81F88900           STRB     R0,[R1, #+137]
   \   00000376   51E6               B.N      ??SettingParameter_0
   \                     ??SettingParameter_43:
   \   00000378   00A8               ADD      R0,SP,#+0
   \   0000037A   ........           BL       atoi
   \   0000037E   ........           LDR.W    R1,??DataTable39_2
   \   00000382   A1F8A000           STRH     R0,[R1, #+160]
   \   00000386   49E6               B.N      ??SettingParameter_0
   \                     ??SettingParameter_42:
   \   00000388   00A8               ADD      R0,SP,#+0
   \   0000038A   ........           BL       atoi
   \   0000038E   ........           LDR.W    R1,??DataTable39_2
   \   00000392   0870               STRB     R0,[R1, #+0]
   \   00000394   42E6               B.N      ??SettingParameter_0
   \                     ??SettingParameter_44:
   \   00000396   00A8               ADD      R0,SP,#+0
   \   00000398   ........           BL       atoi
   \   0000039C   ........           LDR.W    R1,??DataTable39_2
   \   000003A0   81F88A00           STRB     R0,[R1, #+138]
   \   000003A4   3AE6               B.N      ??SettingParameter_0

   \                                 In section .text, align 2, keep-with-next
    532          u8 RecieveData(u8 Data)
    533          {
    534          
    535               
    536               if(Data == 0x0a)
   \                     RecieveData:
   \   00000000   C0B2               UXTB     R0,R0            ;; ZeroExt  R0,R0,#+24,#+24
   \   00000002   0A28               CMP      R0,#+10
   \   00000004   03D1               BNE.N    ??RecieveData_0
    537               {
    538                    Flag.Recieve_Data = 1;
   \   00000006   ....               LDR.N    R0,??DataTable37_1
   \   00000008   0121               MOVS     R1,#+1
   \   0000000A   C174               STRB     R1,[R0, #+19]
   \   0000000C   0CE0               B.N      ??RecieveData_1
    539               }     
    540               else       // 0x0a 가 아니면
    541               {              
    542                    Rx_PCBuffer[Rx_PCCount++] = Data;         
   \                     ??RecieveData_0:
   \   0000000E   ........           LDR.W    R1,??DataTable40_3
   \   00000012   0988               LDRH     R1,[R1, #+0]
   \   00000014   ........           LDR.W    R2,??DataTable40_4
   \   00000018   8854               STRB     R0,[R1, R2]
   \   0000001A   ........           LDR.W    R0,??DataTable40_3
   \   0000001E   0088               LDRH     R0,[R0, #+0]
   \   00000020   401C               ADDS     R0,R0,#+1
   \   00000022   ........           LDR.W    R1,??DataTable40_3
   \   00000026   0880               STRH     R0,[R1, #+0]
    543               }               
    544               return 0;
   \                     ??RecieveData_1:
   \   00000028   0020               MOVS     R0,#+0
   \   0000002A   7047               BX       LR               ;; return
    545          }
    546          

   \                                 In section .text, align 2, keep-with-next
    547          void Recieve_Process(void)
    548          {
   \                     Recieve_Process:
   \   00000000   00B5               PUSH     {LR}
   \   00000002   83B0               SUB      SP,SP,#+12
    549               u32 GetData;   
    550               
    551               NAND_ADDRESS NAND_PAGE;     
    552               if(USB_Device == 0)
   \   00000004   ........           LDR.W    R0,??DataTable40_5
   \   00000008   0078               LDRB     R0,[R0, #+0]
   \   0000000A   0028               CMP      R0,#+0
   \   0000000C   01D1               BNE.N    ??Recieve_Process_0
    553                    Clear_Serial1();
   \   0000000E   ........           BL       Clear_Serial1
    554               
    555               if( memcmp(Rx_PCBuffer ,"REFRESH",7) == 0 )       // 0
   \                     ??Recieve_Process_0:
   \   00000012   0722               MOVS     R2,#+7
   \   00000014   ........           ADR.W    R1,`?<Constant "REFRESH">`
   \   00000018   ........           LDR.W    R0,??DataTable40_4
   \   0000001C   ........           BL       memcmp
   \   00000020   0028               CMP      R0,#+0
   \   00000022   01D1               BNE.N    ??Recieve_Process_1
    556               {
    557                    Send_Refresh();
   \   00000024   ........           BL       Send_Refresh
    558               }
    559               if( memcmp(Rx_PCBuffer ,"REFREWIFI",8) == 0 )
   \                     ??Recieve_Process_1:
   \   00000028   0822               MOVS     R2,#+8
   \   0000002A   ........           ADR.W    R1,`?<Constant "REFREWIFI">`
   \   0000002E   ........           LDR.W    R0,??DataTable40_4
   \   00000032   ........           BL       memcmp
   \   00000036   0028               CMP      R0,#+0
   \   00000038   02D1               BNE.N    ??Recieve_Process_2
    560               {
    561                    Send_WIFI_Status();
   \   0000003A   ........           BL       Send_WIFI_Status
   \   0000003E   1BE1               B.N      ??Recieve_Process_3
    562               }                    
    563               else if( memcmp(Rx_PCBuffer ,"LOADSET",7) == 0 )        // 맞으면
   \                     ??Recieve_Process_2:
   \   00000040   0722               MOVS     R2,#+7
   \   00000042   ........           ADR.W    R1,`?<Constant "LOADSET">`
   \   00000046   ........           LDR.W    R0,??DataTable40_4
   \   0000004A   ........           BL       memcmp
   \   0000004E   0028               CMP      R0,#+0
   \   00000050   02D1               BNE.N    ??Recieve_Process_4
    564               {
    565                    Send_Setting();
   \   00000052   ........           BL       Send_Setting
   \   00000056   0FE1               B.N      ??Recieve_Process_3
    566                    
    567               }
    568               else if( memcmp(Rx_PCBuffer ,"LOADMEMORY1",11) == 0 )
   \                     ??Recieve_Process_4:
   \   00000058   0B22               MOVS     R2,#+11
   \   0000005A   ........           ADR.W    R1,`?<Constant "LOADMEMORY1">`
   \   0000005E   ........           LDR.W    R0,??DataTable40_4
   \   00000062   ........           BL       memcmp
   \   00000066   0028               CMP      R0,#+0
   \   00000068   04D1               BNE.N    ??Recieve_Process_5
    569               {
    570                    Load_Memory_Flag = 1;
   \   0000006A   ........           LDR.W    R0,??DataTable40_6
   \   0000006E   0121               MOVS     R1,#+1
   \   00000070   0170               STRB     R1,[R0, #+0]
   \   00000072   01E1               B.N      ??Recieve_Process_3
    571                    
    572               }
    573               else if( memcmp(Rx_PCBuffer ,"LOADMEMORY2",11) == 0 )
   \                     ??Recieve_Process_5:
   \   00000074   0B22               MOVS     R2,#+11
   \   00000076   ........           ADR.W    R1,`?<Constant "LOADMEMORY2">`
   \   0000007A   ........           LDR.W    R0,??DataTable40_4
   \   0000007E   ........           BL       memcmp
   \   00000082   0028               CMP      R0,#+0
   \   00000084   21D1               BNE.N    ??Recieve_Process_6
    574               {
    575                    if(!Load_Memory_Flag)          // 해더를 전송중이 아니면 NAND를 불러온다.
   \   00000086   ........           LDR.W    R0,??DataTable40_6
   \   0000008A   0078               LDRB     R0,[R0, #+0]
   \   0000008C   0028               CMP      R0,#+0
   \   0000008E   40F0F380           BNE.W    ??Recieve_Process_3
    576                    {
    577                         GetData = atoi( (char *)&Rx_PCBuffer[11] );
   \   00000092   ........           LDR.W    R0,??DataTable40_7
   \   00000096   ........           BL       atoi
    578                         NAND_PAGE = Get_NAND_PageAddress(GetData);  
   \   0000009A   0100               MOVS     R1,R0
   \   0000009C   89B2               UXTH     R1,R1            ;; ZeroExt  R1,R1,#+16,#+16
   \   0000009E   00A8               ADD      R0,SP,#+0
   \   000000A0   ........           BL       Get_NAND_PageAddress
    579                         memset(NAND_Buffer, 0 ,sizeof(NAND_Buffer) );
   \   000000A4   42F20102           MOVW     R2,#+8193
   \   000000A8   0021               MOVS     R1,#+0
   \   000000AA   ........           LDR.W    R0,??DataTable40_8
   \   000000AE   ........           BL       memset
    580                         FSMC_NAND_ReadSmallPage( NAND_Buffer, NAND_PAGE, 1);		// 데이터를 기록을 읽는다.
   \   000000B2   0123               MOVS     R3,#+1
   \   000000B4   DDE90012           LDRD     R1,R2,[SP, #+0]
   \   000000B8   ........           LDR.W    R0,??DataTable40_8
   \   000000BC   ........           BL       FSMC_NAND_ReadSmallPage
    581                         Load_Memory_Flag2 = 1;
   \   000000C0   ........           LDR.W    R0,??DataTable40_9
   \   000000C4   0121               MOVS     R1,#+1
   \   000000C6   0170               STRB     R1,[R0, #+0]
   \   000000C8   D6E0               B.N      ??Recieve_Process_3
    582                    }
    583               }
    584               else if( memcmp(Rx_PCBuffer ,"SETTILT",7) == 0 )
   \                     ??Recieve_Process_6:
   \   000000CA   0722               MOVS     R2,#+7
   \   000000CC   ........           ADR.W    R1,`?<Constant "SETTILT">`
   \   000000D0   ........           LDR.W    R0,??DataTable40_4
   \   000000D4   ........           BL       memcmp
   \   000000D8   0028               CMP      R0,#+0
   \   000000DA   04D1               BNE.N    ??Recieve_Process_7
    585               {
    586                    Tilt_Setting_Reference();
                           ^
Warning[Pe223]: function "Tilt_Setting_Reference" declared implicitly
   \   000000DC   ........           BL       Tilt_Setting_Reference
    587                    Send_Setting();
   \   000000E0   ........           BL       Send_Setting
   \   000000E4   C8E0               B.N      ??Recieve_Process_3
    588               }
    589               else if( memcmp(Rx_PCBuffer ,"SETGPS_BASE",8) == 0 )
   \                     ??Recieve_Process_7:
   \   000000E6   0822               MOVS     R2,#+8
   \   000000E8   ........           ADR.W    R1,`?<Constant "SETGPS_BASE">`
   \   000000EC   ........           LDR.W    R0,??DataTable40_4
   \   000000F0   ........           BL       memcmp
   \   000000F4   0028               CMP      R0,#+0
   \   000000F6   06D1               BNE.N    ??Recieve_Process_8
    590               {
    591                    HomeCheck();          
                           ^
Warning[Pe223]: function "HomeCheck" declared implicitly
   \   000000F8   ........           BL       HomeCheck
    592                    Save_SFLASH();
   \   000000FC   ........           BL       Save_SFLASH
    593                    Send_Setting();
   \   00000100   ........           BL       Send_Setting
   \   00000104   B8E0               B.N      ??Recieve_Process_3
    594               }       
    595               else if( memcmp(Rx_PCBuffer ,"SAVESETTING",11) == 0 )
   \                     ??Recieve_Process_8:
   \   00000106   0B22               MOVS     R2,#+11
   \   00000108   ........           ADR.W    R1,`?<Constant "SAVESETTING">`
   \   0000010C   ........           LDR.W    R0,??DataTable40_4
   \   00000110   ........           BL       memcmp
   \   00000114   0028               CMP      R0,#+0
   \   00000116   04D1               BNE.N    ??Recieve_Process_9
    596               {
    597                    SettingParameter((char *)&Rx_PCBuffer[11]);
   \   00000118   ........           LDR.W    R0,??DataTable40_7
   \   0000011C   ........           BL       SettingParameter
   \   00000120   AAE0               B.N      ??Recieve_Process_3
    598                    
    599               }  // end of SaveSetting
    600               else if( memcmp(Rx_PCBuffer ,"SAVEGPS",7) == 0 )
   \                     ??Recieve_Process_9:
   \   00000122   0722               MOVS     R2,#+7
   \   00000124   ........           ADR.W    R1,`?<Constant "SAVEGPS">`
   \   00000128   ........           LDR.W    R0,??DataTable40_4
   \   0000012C   ........           BL       memcmp
   \   00000130   0028               CMP      R0,#+0
   \   00000132   04D1               BNE.N    ??Recieve_Process_10
    601               {
    602                    SettingGPS((char *)&Rx_PCBuffer[7]);
   \   00000134   ........           LDR.W    R0,??DataTable40_10
   \   00000138   ........           BL       SettingGPS
   \   0000013C   9CE0               B.N      ??Recieve_Process_3
    603               }  // end of SaveSetting
    604               else if( memcmp(Rx_PCBuffer ,"SAVEWIFI",8) == 0 )
   \                     ??Recieve_Process_10:
   \   0000013E   0822               MOVS     R2,#+8
   \   00000140   ........           ADR.W    R1,`?<Constant "SAVEWIFI">`
   \   00000144   ........           LDR.W    R0,??DataTable40_4
   \   00000148   ........           BL       memcmp
   \   0000014C   0028               CMP      R0,#+0
   \   0000014E   04D1               BNE.N    ??Recieve_Process_11
    605               {
    606                    SettingWIFI((char *)&Rx_PCBuffer[8]);
   \   00000150   ........           LDR.W    R0,??DataTable40_11
   \   00000154   ........           BL       SettingWIFI
   \   00000158   8EE0               B.N      ??Recieve_Process_3
    607               }  // end of SaveSetting                    
    608               else if( memcmp(Rx_PCBuffer ,"SETLENGTH",9) == 0 )
   \                     ??Recieve_Process_11:
   \   0000015A   0922               MOVS     R2,#+9
   \   0000015C   ........           ADR.W    R1,`?<Constant "SETLENGTH">`
   \   00000160   ........           LDR.W    R0,??DataTable40_4
   \   00000164   ........           BL       memcmp
   \   00000168   0028               CMP      R0,#+0
   \   0000016A   0CD1               BNE.N    ??Recieve_Process_12
    609               {          
    610                    memset(&ACC_Drive_Value , 0, sizeof(ACC_Drive_Value)); 
   \   0000016C   0922               MOVS     R2,#+9
   \   0000016E   0021               MOVS     R1,#+0
   \   00000170   ........           LDR.W    R0,??DataTable40_12
   \   00000174   ........           BL       memset
    611                    memset(&EMS_Drive_Value , 0, sizeof(EMS_Drive_Value));
   \   00000178   2522               MOVS     R2,#+37
   \   0000017A   0021               MOVS     R1,#+0
   \   0000017C   ........           LDR.W    R0,??DataTable40_13
   \   00000180   ........           BL       memset
   \   00000184   78E0               B.N      ??Recieve_Process_3
    612                    // EEPROM 저장
    613               }
    614               else if( memcmp(Rx_PCBuffer ,"WIFIMODE",8) == 0 )
   \                     ??Recieve_Process_12:
   \   00000186   0822               MOVS     R2,#+8
   \   00000188   ........           ADR.W    R1,`?<Constant "WIFIMODE">`
   \   0000018C   ........           LDR.W    R0,??DataTable40_4
   \   00000190   ........           BL       memcmp
   \   00000194   0028               CMP      R0,#+0
   \   00000196   12D1               BNE.N    ??Recieve_Process_13
    615               {
    616                    WIFI_TestMode = 1;
   \   00000198   ........           LDR.W    R0,??DataTable40_14
   \   0000019C   0121               MOVS     R1,#+1
   \   0000019E   0170               STRB     R1,[R0, #+0]
    617                    
    618                    strcpy((char*)Tx_PCBuffer,"[WIFI_O][OK]\n");               
   \   000001A0   ........           ADR.W    R1,`?<Constant "[WIFI_O][OK]\\n">`
   \   000001A4   ........           LDR.W    R0,??DataTable40_15
   \   000001A8   ........           BL       strcpy
    619                    Tx_PCCount = strlen (Tx_PCBuffer);
                                                ^
Warning[Pe167]: argument of type "u8 *" is incompatible with parameter of type
          "char const *"
   \   000001AC   ........           LDR.W    R0,??DataTable40_15
   \   000001B0   ........           BL       strlen
   \   000001B4   ....               LDR.N    R1,??DataTable38
   \   000001B6   0880               STRH     R0,[R1, #+0]
    620                    Wifi_Reset();
   \   000001B8   ........           BL       Wifi_Reset
   \   000001BC   5CE0               B.N      ??Recieve_Process_3
    621               }
    622               else if( memcmp(Rx_PCBuffer ,"LOADGPS",7) == 0 )
   \                     ??Recieve_Process_13:
   \   000001BE   0722               MOVS     R2,#+7
   \   000001C0   ........           ADR.W    R1,`?<Constant "LOADGPS">`
   \   000001C4   ........           LDR.W    R0,??DataTable40_4
   \   000001C8   ........           BL       memcmp
   \   000001CC   0028               CMP      R0,#+0
   \   000001CE   02D1               BNE.N    ??Recieve_Process_14
    623               {
    624                    Send_GPS();
   \   000001D0   ........           BL       Send_GPS
   \   000001D4   50E0               B.N      ??Recieve_Process_3
    625               }                    
    626               else if( memcmp(Rx_PCBuffer ,"LOADWIFI",8) == 0 )
   \                     ??Recieve_Process_14:
   \   000001D6   0822               MOVS     R2,#+8
   \   000001D8   ........           ADR.W    R1,`?<Constant "LOADWIFI">`
   \   000001DC   ........           LDR.W    R0,??DataTable40_4
   \   000001E0   ........           BL       memcmp
   \   000001E4   0028               CMP      R0,#+0
   \   000001E6   02D1               BNE.N    ??Recieve_Process_15
    627               {
    628                    Send_WIFI();
   \   000001E8   ........           BL       Send_WIFI
   \   000001EC   44E0               B.N      ??Recieve_Process_3
    629               }
    630             
    631               else if( memcmp(Rx_PCBuffer ,"CLEARMEMORY",11) == 0 )
   \                     ??Recieve_Process_15:
   \   000001EE   0B22               MOVS     R2,#+11
   \   000001F0   ........           ADR.W    R1,`?<Constant "CLEARMEMORY">`
   \   000001F4   ........           LDR.W    R0,??DataTable40_4
   \   000001F8   ........           BL       memcmp
   \   000001FC   0028               CMP      R0,#+0
   \   000001FE   3BD1               BNE.N    ??Recieve_Process_3
    632               {
    633                    memset(&EMS_Drive_Value ,  0 , sizeof(EMS_Drive_Value));
   \   00000200   2522               MOVS     R2,#+37
   \   00000202   0021               MOVS     R1,#+0
   \   00000204   ........           LDR.W    R0,??DataTable40_13
   \   00000208   ........           BL       memset
    634          
    635                    memset(&I2C_Ems_Accure ,  0 , sizeof(I2C_Ems_Accure));
   \   0000020C   0722               MOVS     R2,#+7
   \   0000020E   0021               MOVS     R1,#+0
   \   00000210   ........           LDR.W    R0,??DataTable40_16
   \   00000214   ........           BL       memset
    636                    memset(&NAND_Header_Info ,  0 , sizeof(NAND_Header_Info));
   \   00000218   1022               MOVS     R2,#+16
   \   0000021A   0021               MOVS     R1,#+0
   \   0000021C   ........           LDR.W    R0,??DataTable40_17
   \   00000220   ........           BL       memset
    637                    memset(&NAND_Header_Index, 0, sizeof(NAND_Header_Index));
   \   00000224   0A22               MOVS     R2,#+10
   \   00000226   0021               MOVS     R1,#+0
   \   00000228   ........           LDR.W    R0,??DataTable40_18
   \   0000022C   ........           BL       memset
    638                    memset(&NAND_Data_Transmit , 0, sizeof(NAND_Data_Transmit));                        
   \   00000230   0A22               MOVS     R2,#+10
   \   00000232   0021               MOVS     R1,#+0
   \   00000234   ........           LDR.W    R0,??DataTable40_19
   \   00000238   ........           BL       memset
    639                    
    640                    Info.AccidentCount = 0 ;                   // 사고 이벤트 카운트
   \   0000023C   ........           LDR.W    R0,??DataTable40_20
   \   00000240   0021               MOVS     R1,#+0
   \   00000242   8184               STRH     R1,[R0, #+36]
    641                    Info.Accident_WritePoint = 0;
   \   00000244   ........           LDR.W    R0,??DataTable40_20
   \   00000248   0021               MOVS     R1,#+0
   \   0000024A   C184               STRH     R1,[R0, #+38]
    642                    
    643                    //memset(&LookUpTable , 0, sizeof(LookUpTable));
    644                    
    645                    FSMC_NAND_EraseBlock(Get_NAND_PageAddress(0));
   \   0000024C   0021               MOVS     R1,#+0
   \   0000024E   00A8               ADD      R0,SP,#+0
   \   00000250   ........           BL       Get_NAND_PageAddress
   \   00000254   DDE90001           LDRD     R0,R1,[SP, #+0]
   \   00000258   ........           BL       FSMC_NAND_EraseBlock
    646                    Write_Header_EMS();                // 누적 거리를 클리어 한다.
   \   0000025C   ........           BL       Write_Header_EMS
    647                    Write_Header_Index();              // NAND 인덱스를 저장
   \   00000260   ........           BL       Write_Header_Index
    648                    Write_Transmit_Header();           // 정송 시작과 끝을 저장한다.
   \   00000264   ........           BL       Write_Transmit_Header
    649                    Write_Header_Information();          // 실제 NAND 데이터를 저장하고 기록 한다.                         
   \   00000268   ........           BL       Write_Header_Information
    650                    sprintf((char *)Tx_PCBuffer,"[OK]\n");
   \   0000026C   ........           ADR.W    R1,`?<Constant "[OK]\\n">`
   \   00000270   ........           LDR.W    R0,??DataTable40_15
   \   00000274   ........           BL       sprintf
    651                    
    652               }        
    653               memset(Rx_PCBuffer,0,sizeof(Rx_PCBuffer));
   \                     ??Recieve_Process_3:
   \   00000278   4FF4FA72           MOV      R2,#+500
   \   0000027C   0021               MOVS     R1,#+0
   \   0000027E   ........           LDR.W    R0,??DataTable40_4
   \   00000282   ........           BL       memset
    654               Rx_PCCount = 0;             
   \   00000286   ........           LDR.W    R0,??DataTable40_3
   \   0000028A   0021               MOVS     R1,#+0
   \   0000028C   0180               STRH     R1,[R0, #+0]
    655               if(USB_Device == 0)
   \   0000028E   ........           LDR.W    R0,??DataTable40_5
   \   00000292   0078               LDRB     R0,[R0, #+0]
   \   00000294   0028               CMP      R0,#+0
   \   00000296   05D1               BNE.N    ??Recieve_Process_16
    656               {
    657                    puts_string(&PC_Comm,(char*)Tx_PCBuffer);                      
   \   00000298   ........           LDR.W    R1,??DataTable40_15
   \   0000029C   ........           LDR.W    R0,??DataTable40_21
   \   000002A0   ........           BL       puts_string
    658               }           
    659          }
   \                     ??Recieve_Process_16:
   \   000002A4   07BD               POP      {R0-R2,PC}       ;; return

   \                                 In section .text, align 2, keep-with-next
    660          void PC_Communication(void)
    661          {
   \                     PC_Communication:
   \   00000000   10B5               PUSH     {R4,LR}
   \   00000002   88B0               SUB      SP,SP,#+32
    662               u16 i;
    663               HEADER_Info Temp_Info;     
    664               static u16 Memeory_SendCount = 0;     
    665               
    666               if(Flag.Recieve_Data == 1)
   \   00000004   ........           LDR.W    R0,??DataTable40_22
   \   00000008   C07C               LDRB     R0,[R0, #+19]
   \   0000000A   0128               CMP      R0,#+1
   \   0000000C   05D1               BNE.N    ??PC_Communication_0
    667               {
    668                    Recieve_Process();
   \   0000000E   ........           BL       Recieve_Process
    669                    Flag.Recieve_Data = 0;          
   \   00000012   ........           LDR.W    R0,??DataTable40_22
   \   00000016   0021               MOVS     R1,#+0
   \   00000018   C174               STRB     R1,[R0, #+19]
    670               }
    671               
    672               if(Load_Memory_Flag)          // 메모리 전송
   \                     ??PC_Communication_0:
   \   0000001A   ........           LDR.W    R0,??DataTable40_6
   \   0000001E   0078               LDRB     R0,[R0, #+0]
   \   00000020   0028               CMP      R0,#+0
   \   00000022   56D0               BEQ.N    ??PC_Communication_1
    673               {
    674                    if( Memeory_SendCount <= NAND_Header_Index.Header_Count )
   \   00000024   ........           LDR.W    R0,??DataTable40_18
   \   00000028   0088               LDRH     R0,[R0, #+0]
   \   0000002A   ........           LDR.W    R1,??DataTable40_23
   \   0000002E   0988               LDRH     R1,[R1, #+0]
   \   00000030   8842               CMP      R0,R1
   \   00000032   2CD3               BCC.N    ??PC_Communication_2
    675                    {          
    676                         Temp_Info = Read_Header_Information(Memeory_SendCount);
   \   00000034   ........           LDR.W    R0,??DataTable40_23
   \   00000038   0188               LDRH     R1,[R0, #+0]
   \   0000003A   03A8               ADD      R0,SP,#+12
   \   0000003C   ........           BL       Read_Header_Information
    677                         if(Temp_Info.Verify == I2C_EEPROM_VERIFY3 )
   \   00000040   BDF81800           LDRH     R0,[SP, #+24]
   \   00000044   4EF60661           MOVW     R1,#+60934
   \   00000048   8842               CMP      R0,R1
   \   0000004A   34D1               BNE.N    ??PC_Communication_3
    678                         {
    679                              //               memcpy(&Temp_Info,Buffer, sizeof(HEADER_Info));
    680                              sprintf((char*)Tx_PCBuffer,"MEMORY%d,%d,%d,%d,%d,",            
    681                                      Temp_Info.Date[0],
    682                                      Temp_Info.Date[1],
    683                                      Temp_Info.Date[2],
    684                                      Temp_Info.Start_Page,                
    685                                      Temp_Info.End_Page
    686                                           );                            
   \   0000004C   0598               LDR      R0,[SP, #+20]
   \   0000004E   0290               STR      R0,[SP, #+8]
   \   00000050   0498               LDR      R0,[SP, #+16]
   \   00000052   0190               STR      R0,[SP, #+4]
   \   00000054   9DF80E00           LDRB     R0,[SP, #+14]
   \   00000058   0090               STR      R0,[SP, #+0]
   \   0000005A   9DF80D30           LDRB     R3,[SP, #+13]
   \   0000005E   9DF80C20           LDRB     R2,[SP, #+12]
   \   00000062   ........           ADR.W    R1,`?<Constant "MEMORY%d,%d,%d,%d,%d,">`
   \   00000066   ........           LDR.W    R0,??DataTable40_15
   \   0000006A   ........           BL       sprintf
    687                              Tx_PCCount = strlen (Tx_PCBuffer);
                                                          ^
Warning[Pe167]: argument of type "u8 *" is incompatible with parameter of type
          "char const *"
   \   0000006E   ........           LDR.W    R0,??DataTable40_15
   \   00000072   ........           BL       strlen
   \   00000076   ....               LDR.N    R1,??DataTable39
   \   00000078   0880               STRH     R0,[R1, #+0]
    688                              Memeory_SendCount++;
   \   0000007A   ........           LDR.W    R0,??DataTable40_23
   \   0000007E   0088               LDRH     R0,[R0, #+0]
   \   00000080   401C               ADDS     R0,R0,#+1
   \   00000082   ........           LDR.W    R1,??DataTable40_23
   \   00000086   0880               STRH     R0,[R1, #+0]
    689                              
    690                              IWDG_ReloadCounter();                   // Clear IWDG
   \   00000088   ........           BL       IWDG_ReloadCounter
   \   0000008C   13E0               B.N      ??PC_Communication_3
    691                         }          
    692                    }
    693          //          else if( Memeory_SendCount == NAND_Header_Index.Header_Count )
    694          //          {
    695          //               sprintf((char*)Buffer,"MEMORY%d,%d,%d,%d,%d,",            
    696          //                       NAND_Header_Info.Date[0],
    697          //                       NAND_Header_Info.Date[1],
    698          //                       NAND_Header_Info.Date[2],
    699          //                       NAND_Header_Info.Start_Page,                
    700          //                       NAND_Header_Info.End_Page
    701          //                        );                            
    702          //               puts_string(&PC_Comm,(char*)Buffer);
    703          //               Memeory_SendCount++;
    704          //               IWDG_ReloadCounter();                
    705          //          }                
    706                    else
    707                    {
    708                         strcpy((char*)Tx_PCBuffer,"[OK]]\n");               
   \                     ??PC_Communication_2:
   \   0000008E   ........           ADR.W    R1,`?<Constant "[OK]]\\n">`
   \   00000092   ........           LDR.W    R0,??DataTable40_15
   \   00000096   ........           BL       strcpy
    709                         Tx_PCCount = strlen (Tx_PCBuffer);
                                                     ^
Warning[Pe167]: argument of type "u8 *" is incompatible with parameter of type
          "char const *"
   \   0000009A   ........           LDR.W    R0,??DataTable40_15
   \   0000009E   ........           BL       strlen
   \   000000A2   ....               LDR.N    R1,??DataTable39
   \   000000A4   0880               STRH     R0,[R1, #+0]
    710          
    711                         Memeory_SendCount = 0;
   \   000000A6   ........           LDR.W    R0,??DataTable40_23
   \   000000AA   0021               MOVS     R1,#+0
   \   000000AC   0180               STRH     R1,[R0, #+0]
    712                         Load_Memory_Flag = 0;
   \   000000AE   ........           LDR.W    R0,??DataTable40_6
   \   000000B2   0021               MOVS     R1,#+0
   \   000000B4   0170               STRB     R1,[R0, #+0]
    713                    }           
    714                    if(USB_Device == 0  )
   \                     ??PC_Communication_3:
   \   000000B6   ........           LDR.W    R0,??DataTable40_5
   \   000000BA   0078               LDRB     R0,[R0, #+0]
   \   000000BC   0028               CMP      R0,#+0
   \   000000BE   08D1               BNE.N    ??PC_Communication_1
    715                    {
    716                         puts_string(&PC_Comm,(char*)Tx_PCBuffer);   
   \   000000C0   ........           LDR.W    R1,??DataTable40_15
   \   000000C4   ........           LDR.W    R0,??DataTable40_21
   \   000000C8   ........           BL       puts_string
    717                         Tx_PCCount = 0;
   \   000000CC   ....               LDR.N    R0,??DataTable39
   \   000000CE   0021               MOVS     R1,#+0
   \   000000D0   0180               STRH     R1,[R0, #+0]
    718                    }           
    719          
    720               }
    721               if(Load_Memory_Flag2 == 1)
   \                     ??PC_Communication_1:
   \   000000D2   ........           LDR.W    R0,??DataTable40_9
   \   000000D6   0078               LDRB     R0,[R0, #+0]
   \   000000D8   0128               CMP      R0,#+1
   \   000000DA   3DD1               BNE.N    ??PC_Communication_4
    722               {          
    723                    for( i = 0 ; i < 8192 ; i++)
   \   000000DC   0024               MOVS     R4,#+0
   \   000000DE   15E0               B.N      ??PC_Communication_5
    724                    {
    725                         IWDG_ReloadCounter();
   \                     ??PC_Communication_6:
   \   000000E0   ........           BL       IWDG_ReloadCounter
    726                         USART_SendData(USART1,NAND_Buffer[i ]) ;
   \   000000E4   A4B2               UXTH     R4,R4            ;; ZeroExt  R4,R4,#+16,#+16
   \   000000E6   ........           LDR.W    R0,??DataTable40_8
   \   000000EA   215C               LDRB     R1,[R4, R0]
   \   000000EC   89B2               UXTH     R1,R1            ;; ZeroExt  R1,R1,#+16,#+16
   \   000000EE   ........           LDR.W    R0,??DataTable40_24  ;; 0x40011000
   \   000000F2   ........           BL       USART_SendData
    727                         while (USART_GetFlagStatus(USART1, USART_FLAG_TC) == RESET)  ;
   \                     ??PC_Communication_7:
   \   000000F6   4021               MOVS     R1,#+64
   \   000000F8   ........           LDR.W    R0,??DataTable40_24  ;; 0x40011000
   \   000000FC   ........           BL       USART_GetFlagStatus
   \   00000100   0028               CMP      R0,#+0
   \   00000102   F8D0               BEQ.N    ??PC_Communication_7
    728                         Delay(5);
   \   00000104   0520               MOVS     R0,#+5
   \   00000106   ........           BL       Delay
    729                    }
   \   0000010A   641C               ADDS     R4,R4,#+1
   \                     ??PC_Communication_5:
   \   0000010C   A4B2               UXTH     R4,R4            ;; ZeroExt  R4,R4,#+16,#+16
   \   0000010E   B4F5005F           CMP      R4,#+8192
   \   00000112   E5D3               BCC.N    ??PC_Communication_6
    730                    Delay(500);
   \   00000114   4FF4FA70           MOV      R0,#+500
   \   00000118   ........           BL       Delay
    731                    strcpy((char*)Tx_PCBuffer,"[OK]]\n");               
   \   0000011C   ........           ADR.W    R1,`?<Constant "[OK]]\\n">`
   \   00000120   ........           LDR.W    R0,??DataTable40_15
   \   00000124   ........           BL       strcpy
    732                    Tx_PCCount = strlen (Tx_PCBuffer);  
                                                ^
Warning[Pe167]: argument of type "u8 *" is incompatible with parameter of type
          "char const *"
   \   00000128   ........           LDR.W    R0,??DataTable40_15
   \   0000012C   ........           BL       strlen
   \   00000130   ....               LDR.N    R1,??DataTable39
   \   00000132   0880               STRH     R0,[R1, #+0]
    733                    Memeory_SendCount = 0;
   \   00000134   ........           LDR.W    R0,??DataTable40_23
   \   00000138   0021               MOVS     R1,#+0
   \   0000013A   0180               STRH     R1,[R0, #+0]
    734                    Load_Memory_Flag2 = 0;   
   \   0000013C   ....               LDR.N    R0,??DataTable40_9
   \   0000013E   0021               MOVS     R1,#+0
   \   00000140   0170               STRB     R1,[R0, #+0]
    735                    if(USB_Device == 0  )
   \   00000142   ....               LDR.N    R0,??DataTable40_5
   \   00000144   0078               LDRB     R0,[R0, #+0]
   \   00000146   0028               CMP      R0,#+0
   \   00000148   06D1               BNE.N    ??PC_Communication_4
    736                    {
    737                         puts_string(&PC_Comm,(char*)Tx_PCBuffer);   
   \   0000014A   ....               LDR.N    R1,??DataTable40_15
   \   0000014C   ....               LDR.N    R0,??DataTable40_21
   \   0000014E   ........           BL       puts_string
    738                         Tx_PCCount = 0;
   \   00000152   ....               LDR.N    R0,??DataTable39
   \   00000154   0021               MOVS     R1,#+0
   \   00000156   0180               STRH     R1,[R0, #+0]
    739                    }           
    740               }
    741          
    742          }
   \                     ??PC_Communication_4:
   \   00000158   08B0               ADD      SP,SP,#+32
   \   0000015A   10BD               POP      {R4,PC}          ;; return

   \                                 In section .bss, align 2
   \                     ??Memeory_SendCount:
   \   00000000                      DS8 2

   \                                 In section .text, align 2, keep-with-next
    743          void PC_Serial(void)
    744          {
   \                     PC_Serial:
   \   00000000   10B5               PUSH     {R4,LR}
    745               u8 data ;
    746               static u8 data2;
    747          
    748               static u16 PC_Timer = 0;
                                 ^
Warning[Pe177]: variable "PC_Timer" was declared but never referenced
    749          
    750               u8 Result;
                         ^
Warning[Pe177]: variable "Result" was declared but never referenced
    751               
    752          //     if(!CheckTimeOver(20,PC_Timer))
    753          //          return;       
    754          //     PC_Timer = MS_TIMER;
    755          // 
    756               if (PC_Comm.rxep != PC_Comm.rxsp)
   \   00000002   ....               LDR.N    R0,??DataTable40_21
   \   00000004   B0F80204           LDRH     R0,[R0, #+1026]
   \   00000008   ....               LDR.N    R1,??DataTable40_21
   \   0000000A   B1F80014           LDRH     R1,[R1, #+1024]
   \   0000000E   8842               CMP      R0,R1
   \   00000010   60D0               BEQ.N    ??PC_Serial_0
    757               {
    758                    data = PC_Comm.rxbuf[PC_Comm.rxsp++];
   \   00000012   ....               LDR.N    R0,??DataTable40_21
   \   00000014   B0F80004           LDRH     R0,[R0, #+1024]
   \   00000018   ....               LDR.N    R1,??DataTable40_21
   \   0000001A   445C               LDRB     R4,[R0, R1]
   \   0000001C   ....               LDR.N    R0,??DataTable40_21
   \   0000001E   B0F80004           LDRH     R0,[R0, #+1024]
   \   00000022   401C               ADDS     R0,R0,#+1
   \   00000024   ....               LDR.N    R1,??DataTable40_21
   \   00000026   A1F80004           STRH     R0,[R1, #+1024]
    759          
    760                    if( WIFI_TestMode == 1 )      // PC와 커맨드 모드일때
   \   0000002A   ....               LDR.N    R0,??DataTable40_14
   \   0000002C   0078               LDRB     R0,[R0, #+0]
   \   0000002E   0128               CMP      R0,#+1
   \   00000030   4AD1               BNE.N    ??PC_Serial_1
    761                    {
    762                         if(data == 0x0a && data2 == 0x0d)
   \   00000032   E4B2               UXTB     R4,R4            ;; ZeroExt  R4,R4,#+24,#+24
   \   00000034   0A2C               CMP      R4,#+10
   \   00000036   34D1               BNE.N    ??PC_Serial_2
   \   00000038   ....               LDR.N    R0,??DataTable40_25
   \   0000003A   0078               LDRB     R0,[R0, #+0]
   \   0000003C   0D28               CMP      R0,#+13
   \   0000003E   30D1               BNE.N    ??PC_Serial_2
    763                         {
    764                              Clear_Serial1();
   \   00000040   ........           BL       Clear_Serial1
    765                              if( memcmp(Rx_PCBuffer ,"WIFIMODE",8) == 0 )
   \   00000044   0822               MOVS     R2,#+8
   \   00000046   ........           ADR.W    R1,`?<Constant "WIFIMODE">`
   \   0000004A   ....               LDR.N    R0,??DataTable40_4
   \   0000004C   ........           BL       memcmp
   \   00000050   0028               CMP      R0,#+0
   \   00000052   0CD1               BNE.N    ??PC_Serial_3
    766                              {
    767                                   WIFI_TestMode = 0;
   \   00000054   ....               LDR.N    R0,??DataTable40_14
   \   00000056   0021               MOVS     R1,#+0
   \   00000058   0170               STRB     R1,[R0, #+0]
    768                                   sprintf((char *)Buffer,"[WIFI_X][OK]\n");
   \   0000005A   ........           ADR.W    R1,`?<Constant "[WIFI_X][OK]\\n">`
   \   0000005E   ....               LDR.N    R0,??DataTable40
   \   00000060   ........           BL       sprintf
    769                                   puts_string(&PC_Comm,(char*)Buffer);
   \   00000064   ....               LDR.N    R1,??DataTable40
   \   00000066   ....               LDR.N    R0,??DataTable40_21
   \   00000068   ........           BL       puts_string
   \   0000006C   0FE0               B.N      ??PC_Serial_4
    770                              }else if( memcmp(Rx_PCBuffer ,"+++",3) == 0 )
   \                     ??PC_Serial_3:
   \   0000006E   0322               MOVS     R2,#+3
   \   00000070   ....               ADR.N    R1,??DataTable40_2  ;; "+++"
   \   00000072   ....               LDR.N    R0,??DataTable40_4
   \   00000074   ........           BL       memcmp
   \   00000078   0028               CMP      R0,#+0
   \   0000007A   04D1               BNE.N    ??PC_Serial_5
    771                              {
    772                                   puts_string(&RF_Module, "+++");     // AUTO CONNECTTING                                  
   \   0000007C   ....               ADR.N    R1,??DataTable40_2  ;; "+++"
   \   0000007E   ....               LDR.N    R0,??DataTable40_26
   \   00000080   ........           BL       puts_string
   \   00000084   03E0               B.N      ??PC_Serial_4
    773                              }else
    774                              {
    775                                   //                              Rx_PCBuffer[Rx_PCCount++] = data;          // 스크립트모드
    776                                   puts_string(&RF_Module, (char *)Rx_PCBuffer);     // AUTO CONNECTTING
   \                     ??PC_Serial_5:
   \   00000086   ....               LDR.N    R1,??DataTable40_4
   \   00000088   ....               LDR.N    R0,??DataTable40_26
   \   0000008A   ........           BL       puts_string
    777                              }
    778                              memset(Rx_PCBuffer,0,sizeof(Rx_PCBuffer));
   \                     ??PC_Serial_4:
   \   0000008E   4FF4FA72           MOV      R2,#+500
   \   00000092   0021               MOVS     R1,#+0
   \   00000094   ....               LDR.N    R0,??DataTable40_4
   \   00000096   ........           BL       memset
    779                              Rx_PCCount = 0;
   \   0000009A   ....               LDR.N    R0,??DataTable40_3
   \   0000009C   0021               MOVS     R1,#+0
   \   0000009E   0180               STRH     R1,[R0, #+0]
   \   000000A0   16E0               B.N      ??PC_Serial_6
    780                         }
    781                         else
    782                         {
    783                              Rx_PCBuffer[Rx_PCCount++] = data;
   \                     ??PC_Serial_2:
   \   000000A2   ....               LDR.N    R0,??DataTable40_3
   \   000000A4   0088               LDRH     R0,[R0, #+0]
   \   000000A6   ....               LDR.N    R1,??DataTable40_4
   \   000000A8   4454               STRB     R4,[R0, R1]
   \   000000AA   ....               LDR.N    R0,??DataTable40_3
   \   000000AC   0088               LDRH     R0,[R0, #+0]
   \   000000AE   401C               ADDS     R0,R0,#+1
   \   000000B0   ....               LDR.N    R1,??DataTable40_3
   \   000000B2   0880               STRH     R0,[R1, #+0]
    784                              Rx_PCCount %= 100;
   \   000000B4   ....               LDR.N    R0,??DataTable40_3
   \   000000B6   0088               LDRH     R0,[R0, #+0]
   \   000000B8   6421               MOVS     R1,#+100
   \   000000BA   90FBF1F2           SDIV     R2,R0,R1
   \   000000BE   01FB1200           MLS      R0,R1,R2,R0
   \   000000C2   ....               LDR.N    R1,??DataTable40_3
   \   000000C4   0880               STRH     R0,[R1, #+0]
   \   000000C6   03E0               B.N      ??PC_Serial_6
    785                         }               
    786                    }
    787                    else
    788                    {
    789                         // 수신된 데이터 처리
    790                         RecieveData(data);
   \                     ??PC_Serial_1:
   \   000000C8   2000               MOVS     R0,R4
   \   000000CA   C0B2               UXTB     R0,R0            ;; ZeroExt  R0,R0,#+24,#+24
   \   000000CC   ........           BL       RecieveData
    791          
    792                    }
    793                    data2 = data;
   \                     ??PC_Serial_6:
   \   000000D0   ....               LDR.N    R0,??DataTable40_25
   \   000000D2   0470               STRB     R4,[R0, #+0]
    794               }
    795          }
   \                     ??PC_Serial_0:
   \   000000D4   10BD               POP      {R4,PC}          ;; return

   \                                 In section .bss, align 1
   \                     ??data2:
   \   00000000                      DS8 1

   \                                 In section .text, align 4, keep-with-next
   \                     ??DataTable37:
   \   00000000   00100240           DC32     0x40021000

   \                                 In section .text, align 4, keep-with-next
   \                     ??DataTable37_1:
   \   00000000   ........           DC32     Flag

   \                                 In section .text, align 4, keep-with-next
   \                     ??DataTable37_2:
   \   00000000   ........           DC32     Tx_PCBuffer

   \                                 In section .text, align 4, keep-with-next
   \                     ??DataTable37_3:
   \   00000000   ........           DC32     Wifi_Result

   \                                 In section .text, align 4, keep-with-next
   \                     ??DataTable37_4:
   \   00000000   ........           DC32     `?<Constant "WIFI%d,%d,[OK]\\n">`

   \                                 In section .text, align 4, keep-with-next
   \                     ??DataTable37_5:
   \   00000000   ........           DC32     Info

   \                                 In section .text, align 4, keep-with-next
   \                     ??DataTable37_6:
   \   00000000   40420F00           DC32     0xf4240

   \                                 In section .text, align 4, keep-with-next
   \                     ??DataTable37_7:
   \   00000000   ........           DC32     EmsOffProgress

   \                                 In section .text, align 4, keep-with-next
   \                     ??DataTable37_8:
   \   00000000   ........           DC32     EmsOnProgress

   \                                 In section .text, align 4, keep-with-next
   \                     ??DataTable37_9:
   \   00000000   ........           DC32     EMSOff_Check

   \                                 In section .text, align 4, keep-with-next
   \                     ??DataTable37_10:
   \   00000000   ........           DC32     EMSOn_Check

   \                                 In section .text, align 4, keep-with-next
   \                     ??DataTable37_11:
   \   00000000   ........           DC32     NAND_Header_Info

   \                                 In section .text, align 4, keep-with-next
   \                     ??DataTable37_12:
   \   00000000   ........           DC32     NAND_Data_Transmit

   \                                 In section .text, align 4, keep-with-next
   \                     ??DataTable37_13:
   \   00000000   ........           DC32     NAND_Header_Index

   \                                 In section .text, align 4, keep-with-next
   \                     ??DataTable37_14:
   \   00000000   ........           DC32     ACC_Drive_Value

   \                                 In section .text, align 4, keep-with-next
   \                     ??DataTable37_15:
   \   00000000   ........           DC32     EMS_Drive_Value

   \                                 In section .text, align 4, keep-with-next
   \                     ??DataTable37_16:
   \   00000000   00002041           DC32     0x41200000

   \                                 In section .text, align 4, keep-with-next
   \                     ??DataTable38:
   \   00000000   ........           DC32     Tx_PCCount

   \                                 In section .text, align 4, keep-with-next
   \                     ??DataTable38_1:
   \   00000000   00002440           DC32     0x40240000

   \                                 In section .text, align 4, keep-with-next
   \                     ??DataTable38_2:
   \   00000000   ........           DC32     SYSTEM_TIME

   \                                 In section .text, align 4, keep-with-next
   \                     ??DataTable38_3:
   \   00000000   ........           DC32     `?<Constant "DEBUG%02d/%02d/%02d,%...">`

   \                                 In section .text, align 4, keep-with-next
   \                     ??DataTable38_4:
   \   00000000   ........           DC32     GPS_RouteCheck

   \                                 In section .text, align 4, keep-with-next
   \                     ??DataTable38_5:
   \   00000000   ........           DC32     `?<Constant "GPS%d,%d,%d,%d,%d,%d,...">`

   \                                 In section .text, align 4, keep-with-next
   \                     ??DataTable38_6:
   \   00000000   ........           DC32     SFLASH_Wifi+0x1E

   \                                 In section .text, align 4, keep-with-next
   \                     ??DataTable38_7:
   \   00000000   ........           DC32     SFLASH_Wifi

   \                                 In section .text, align 4, keep-with-next
   \                     ??DataTable38_8:
   \   00000000   ........           DC32     SFLASH_Wifi+0x42

   \                                 In section .text, align 4, keep-with-next
   \                     ??DataTable38_9:
   \   00000000   ........           DC32     SFLASH_Wifi+0x32

   \                                 In section .text, align 4, keep-with-next
   \                     ??DataTable38_10:
   \   00000000   ........           DC32     `?<Constant "WIFE%s,%s,%s,%s,[OK]\\n">`

   \                                 In section .text, align 4, keep-with-next
   \                     ??DataTable39:
   \   00000000   ........           DC32     Tx_PCCount

   \                                 In section .text, align 4, keep-with-next
   \                     ??DataTable39_1:
   \   00000000   ........           DC32     NAND_ID

   \                                 In section .text, align 4, keep-with-next
   \                     ??DataTable39_2:
   \   00000000   ........           DC32     SFLASH_Memory

   \                                 In section .text, align 4, keep-with-next
   \                     ??DataTable39_3:
   \   00000000   ........           DC32     SFLASH_Memory+0x4D

   \                                 In section .text, align 4, keep-with-next
   \                     ??DataTable39_4:
   \   00000000   ........           DC32     SFLASH_Memory+0x3A

   \                                 In section .text, align 4, keep-with-next
   \                     ??DataTable39_5:
   \   00000000   ........           DC32     SFLASH_Memory+0x27

   \                                 In section .text, align 4, keep-with-next
   \                     ??DataTable39_6:
   \   00000000   ........           DC32     SFLASH_Memory+0x14

   \                                 In section .text, align 4, keep-with-next
   \                     ??DataTable39_7:
   \   00000000   ........           DC32     SFLASH_Memory+0x1

   \                                 In section .text, align 4, keep-with-next
   \                     ??DataTable39_8:
   \   00000000   ........           DC32     SFLASH_CarInfo+0x50

   \                                 In section .text, align 4, keep-with-next
   \                     ??DataTable39_9:
   \   00000000   ........           DC32     SFLASH_CarInfo+0x3C

   \                                 In section .text, align 4, keep-with-next
   \                     ??DataTable39_10:
   \   00000000   ........           DC32     SFLASH_CarInfo+0x28

   \                                 In section .text, align 4, keep-with-next
   \                     ??DataTable39_11:
   \   00000000   ........           DC32     SFLASH_CarInfo+0x14

   \                                 In section .text, align 4, keep-with-next
   \                     ??DataTable39_12:
   \   00000000   ........           DC32     `?<Constant "120118-01">`

   \                                 In section .text, align 4, keep-with-next
   \                     ??DataTable39_13:
   \   00000000   ........           DC32     `?<Constant "SETTING%s,%s,%s,%s,%1...">`

   \                                 In section .text, align 4, keep-with-next
   \                     ??DataTable39_14:
   \   00000000   ........           DC32     `?<Constant "[OK]\\n">`

   \                                 In section .text, align 4, keep-with-next
   \                     `?<Constant "WIFI%d,%d,[OK]\\n">`:
   \   00000000                      ; Initializer data, 16 bytes
   \   00000000   574946492564       DC8 87, 73, 70, 73, 37, 100, 44, 37, 100, 44
   \              2C25642C    
   \   0000000A   5B4F4B5D0A00       DC8 91, 79, 75, 93, 10, 0

   \                                 In section .text, align 4, keep-with-next
   \                     `?<Constant "DEBUG%02d/%02d/%02d,%...">`:
   \   00000000                      ; Initializer data, 268 bytes
   \   00000000   444542554725       DC8 68, 69, 66, 85, 71, 37, 48, 50, 100, 47
   \              3032642F    
   \   0000000A   253032642F25       DC8 37, 48, 50, 100, 47, 37, 48, 50, 100, 44
   \              3032642C    
   \   00000014   253032643A25       DC8 37, 48, 50, 100, 58, 37, 48, 50, 100, 58
   \              3032643A    
   \   0000001E   253032642C25       DC8 37, 48, 50, 100, 44, 37, 48, 52, 100, 44
   \              3034642C    
   \   00000028   253037642C25       DC8 37, 48, 55, 100, 44, 37, 48, 51, 100, 44
   \              3033642C    
   \   00000032   253034642C25       DC8 37, 48, 52, 100, 44, 37, 43, 48, 54, 46
   \              2B30362E    
   \   0000003C   31662C252B30       DC8 49, 102, 44, 37, 43, 48, 54, 46, 49, 102
   \              362E3166    
   \   00000046   2C252B303364       DC8 44, 37, 43, 48, 51, 100, 44, 37, 43, 48
   \              2C252B30    
   \   00000050   33642C253032       DC8 51, 100, 44, 37, 48, 50, 100, 44, 37, 48
   \              642C2530    
   \   0000005A   34642C253034       DC8 52, 100, 44, 37, 48, 52, 100, 44, 37, 48
   \              642C2530    
   \   00000064   33642E253035       DC8 51, 100, 46, 37, 48, 53, 100, 44, 37, 48
   \              642C2530    
   \   0000006E   33642E253035       DC8 51, 100, 46, 37, 48, 53, 100, 44, 37, 48
   \              642C2530    
   \   00000078   33642C253033       DC8 51, 100, 44, 37, 48, 51, 100, 44, 37, 48
   \              642C2530    
   \   00000082   342E31662C25       DC8 52, 46, 49, 102, 44, 37, 99, 44, 37, 48
   \              632C2530    
   \   0000008C   34642C253034       DC8 52, 100, 44, 37, 48, 52, 100, 44, 37, 48
   \              642C2530    
   \   00000096   34642C253034       DC8 52, 100, 44, 37, 48, 52, 100, 44, 37, 48
   \              642C2530    
   \   000000A0   34642C253034       DC8 52, 100, 44, 37, 48, 52, 100, 44, 37, 100
   \              642C2564    
   \   000000AA   2C25642C2564       DC8 44, 37, 100, 44, 37, 100, 44, 37, 100, 44
   \              2C25642C    
   \   000000B4   25642C25642C       DC8 37, 100, 44, 37, 100, 44, 37, 100, 44, 37
   \              25642C25    
   \   000000BE   642C25642C25       DC8 100, 44, 37, 100, 44, 37, 100, 44, 37, 100
   \              642C2564    
   \   000000C8   2C25642C2564       DC8 44, 37, 100, 44, 37, 100, 44, 37, 100, 44
   \              2C25642C    
   \   000000D2   25642C25642C       DC8 37, 100, 44, 37, 100, 44, 37, 100, 44, 37
   \              25642C25    
   \   000000DC   642C25642C25       DC8 100, 44, 37, 100, 44, 37, 100, 44, 37, 100
   \              642C2564    
   \   000000E6   2C25642C2564       DC8 44, 37, 100, 44, 37, 100, 44, 37, 100, 44
   \              2C25642C    
   \   000000F0   25642C25642C       DC8 37, 100, 44, 37, 100, 44, 37, 100, 44, 37
   \              25642C25    
   \   000000FA   642C25642C25       DC8 100, 44, 37, 100, 44, 37, 100, 44, 37, 100
   \              642C2564    
   \   00000104   2C5B4F4B5D0A       DC8 44, 91, 79, 75, 93, 10, 0, 0
   \              0000        

   \                                 In section .text, align 4, keep-with-next
   \                     `?<Constant "GPS%d,%d,%d,%d,%d,%d,...">`:
   \   00000000                      ; Initializer data, 64 bytes
   \   00000000   47505325642C       DC8 71, 80, 83, 37, 100, 44, 37, 100, 44, 37
   \              25642C25    
   \   0000000A   642C25642C25       DC8 100, 44, 37, 100, 44, 37, 100, 44, 37, 100
   \              642C2564    
   \   00000014   2C25642C2564       DC8 44, 37, 100, 44, 37, 100, 44, 37, 100, 44
   \              2C25642C    
   \   0000001E   25642C25642C       DC8 37, 100, 44, 37, 100, 44, 37, 100, 44, 37
   \              25642C25    
   \   00000028   642C25642C25       DC8 100, 44, 37, 100, 44, 37, 100, 44, 37, 100
   \              642C2564    
   \   00000032   2C25642C2564       DC8 44, 37, 100, 44, 37, 100, 44, 91, 79, 75
   \              2C5B4F4B    
   \   0000003C   5D0A0000           DC8 93, 10, 0, 0

   \                                 In section .text, align 4, keep-with-next
   \                     `?<Constant "WIFE%s,%s,%s,%s,[OK]\\n">`:
   \   00000000                      ; Initializer data, 24 bytes
   \   00000000   574946452573       DC8 87, 73, 70, 69, 37, 115, 44, 37, 115, 44
   \              2C25732C    
   \   0000000A   25732C25732C       DC8 37, 115, 44, 37, 115, 44, 91, 79, 75, 93
   \              5B4F4B5D    
   \   00000014   0A000000           DC8 10, 0, 0, 0

   \                                 In section .text, align 4, keep-with-next
   \                     `?<Constant "SETTING%s,%s,%s,%s,%1...">`:
   \   00000000                      ; Initializer data, 160 bytes
   \   00000000   53455454494E       DC8 83, 69, 84, 84, 73, 78, 71, 37, 115, 44
   \              4725732C    
   \   0000000A   25732C25732C       DC8 37, 115, 44, 37, 115, 44, 37, 115, 44, 37
   \              25732C25    
   \   00000014   3132732C2564       DC8 49, 50, 115, 44, 37, 100, 44, 37, 100, 44
   \              2C25642C    
   \   0000001E   25642C25642C       DC8 37, 100, 44, 37, 100, 44, 37, 100, 44, 37
   \              25642C25    
   \   00000028   642C25642C25       DC8 100, 44, 37, 100, 44, 37, 100, 44, 37, 100
   \              642C2564    
   \   00000032   2C25642C2564       DC8 44, 37, 100, 44, 37, 100, 44, 37, 100, 44
   \              2C25642C    
   \   0000003C   25642C25642C       DC8 37, 100, 44, 37, 100, 44, 37, 100, 44, 37
   \              25642C25    
   \   00000046   642C25642C25       DC8 100, 44, 37, 100, 44, 37, 99, 44, 37, 100
   \              632C2564    
   \   00000050   2C25642C2564       DC8 44, 37, 100, 44, 37, 100, 44, 37, 100, 44
   \              2C25642C    
   \   0000005A   25732C25732C       DC8 37, 115, 44, 37, 115, 44, 37, 115, 44, 37
   \              25732C25    
   \   00000064   732C25732C25       DC8 115, 44, 37, 115, 44, 37, 100, 44, 37, 100
   \              642C2564    
   \   0000006E   2C25642C2564       DC8 44, 37, 100, 44, 37, 100, 44, 37, 100, 44
   \              2C25642C    
   \   00000078   25642C25642C       DC8 37, 100, 44, 37, 100, 44, 37, 100, 44, 37
   \              25642C25    
   \   00000082   642C25642C4E       DC8 100, 44, 37, 100, 44, 78, 65, 78, 68, 37
   \              414E4425    
   \   0000008C   782C25782C25       DC8 120, 44, 37, 120, 44, 37, 120, 44, 37, 120
   \              782C2578    
   \   00000096   2C5B4F4B5D0A       DC8 44, 91, 79, 75, 93, 10, 0, 0, 0, 0
   \              00000000    

   \                                 In section .text, align 4, keep-with-next
   \                     `?<Constant "120118-01">`:
   \   00000000                      ; Initializer data, 12 bytes
   \   00000000   313230313138       DC8 49, 50, 48, 49, 49, 56, 45, 48, 49, 0
   \              2D303100    
   \   0000000A   0000               DC8 0, 0

   \                                 In section .text, align 4, keep-with-next
   \                     `?<Constant "[OK]\\n">`:
   \   00000000                      ; Initializer data, 8 bytes
   \   00000000   5B4F4B5D0A00       DC8 91, 79, 75, 93, 10, 0, 0, 0
   \              0000        

   \                                 In section .text, align 4, keep-with-next
   \                     ??DataTable40:
   \   00000000   ........           DC32     Buffer

   \                                 In section .text, align 4, keep-with-next
   \                     ??DataTable40_1:
   \   00000000   ........           DC32     SFLASH_CarInfo

   \                                 In section .text, align 4, keep-with-next
   \                     ??DataTable40_2:
   \   00000000   2B2B2B00           DC8      "+++"

   \                                 In section .text, align 4, keep-with-next
   \                     ??DataTable40_3:
   \   00000000   ........           DC32     Rx_PCCount

   \                                 In section .text, align 4, keep-with-next
   \                     ??DataTable40_4:
   \   00000000   ........           DC32     Rx_PCBuffer

   \                                 In section .text, align 4, keep-with-next
   \                     ??DataTable40_5:
   \   00000000   ........           DC32     USB_Device

   \                                 In section .text, align 4, keep-with-next
   \                     ??DataTable40_6:
   \   00000000   ........           DC32     Load_Memory_Flag

   \                                 In section .text, align 4, keep-with-next
   \                     ??DataTable40_7:
   \   00000000   ........           DC32     Rx_PCBuffer+0xB

   \                                 In section .text, align 4, keep-with-next
   \                     ??DataTable40_8:
   \   00000000   ........           DC32     NAND_Buffer

   \                                 In section .text, align 4, keep-with-next
   \                     ??DataTable40_9:
   \   00000000   ........           DC32     Load_Memory_Flag2

   \                                 In section .text, align 4, keep-with-next
   \                     ??DataTable40_10:
   \   00000000   ........           DC32     Rx_PCBuffer+0x7

   \                                 In section .text, align 4, keep-with-next
   \                     ??DataTable40_11:
   \   00000000   ........           DC32     Rx_PCBuffer+0x8

   \                                 In section .text, align 4, keep-with-next
   \                     ??DataTable40_12:
   \   00000000   ........           DC32     ACC_Drive_Value

   \                                 In section .text, align 4, keep-with-next
   \                     ??DataTable40_13:
   \   00000000   ........           DC32     EMS_Drive_Value

   \                                 In section .text, align 4, keep-with-next
   \                     ??DataTable40_14:
   \   00000000   ........           DC32     WIFI_TestMode

   \                                 In section .text, align 4, keep-with-next
   \                     ??DataTable40_15:
   \   00000000   ........           DC32     Tx_PCBuffer

   \                                 In section .text, align 4, keep-with-next
   \                     ??DataTable40_16:
   \   00000000   ........           DC32     I2C_Ems_Accure

   \                                 In section .text, align 4, keep-with-next
   \                     ??DataTable40_17:
   \   00000000   ........           DC32     NAND_Header_Info

   \                                 In section .text, align 4, keep-with-next
   \                     ??DataTable40_18:
   \   00000000   ........           DC32     NAND_Header_Index

   \                                 In section .text, align 4, keep-with-next
   \                     ??DataTable40_19:
   \   00000000   ........           DC32     NAND_Data_Transmit

   \                                 In section .text, align 4, keep-with-next
   \                     ??DataTable40_20:
   \   00000000   ........           DC32     Info

   \                                 In section .text, align 4, keep-with-next
   \                     ??DataTable40_21:
   \   00000000   ........           DC32     PC_Comm

   \                                 In section .text, align 4, keep-with-next
   \                     ??DataTable40_22:
   \   00000000   ........           DC32     Flag

   \                                 In section .text, align 4, keep-with-next
   \                     ??DataTable40_23:
   \   00000000   ........           DC32     ??Memeory_SendCount

   \                                 In section .text, align 4, keep-with-next
   \                     ??DataTable40_24:
   \   00000000   00100140           DC32     0x40011000

   \                                 In section .text, align 4, keep-with-next
   \                     ??DataTable40_25:
   \   00000000   ........           DC32     ??data2

   \                                 In section .text, align 4, keep-with-next
   \                     ??DataTable40_26:
   \   00000000   ........           DC32     RF_Module

   \                                 In section .text, align 4, keep-with-next
   \                     `?<Constant "REFRESH">`:
   \   00000000                      ; Initializer data, 8 bytes
   \   00000000   524546524553       DC8 82, 69, 70, 82, 69, 83, 72, 0
   \              4800        

   \                                 In section .text, align 4, keep-with-next
   \                     `?<Constant "REFREWIFI">`:
   \   00000000                      ; Initializer data, 12 bytes
   \   00000000   524546524557       DC8 82, 69, 70, 82, 69, 87, 73, 70, 73, 0
   \              49464900    
   \   0000000A   0000               DC8 0, 0

   \                                 In section .text, align 4, keep-with-next
   \                     `?<Constant "LOADSET">`:
   \   00000000                      ; Initializer data, 8 bytes
   \   00000000   4C4F41445345       DC8 76, 79, 65, 68, 83, 69, 84, 0
   \              5400        

   \                                 In section .text, align 4, keep-with-next
   \                     `?<Constant "LOADMEMORY1">`:
   \   00000000                      ; Initializer data, 12 bytes
   \   00000000   4C4F41444D45       DC8 76, 79, 65, 68, 77, 69, 77, 79, 82, 89
   \              4D4F5259    
   \   0000000A   3100               DC8 49, 0

   \                                 In section .text, align 4, keep-with-next
   \                     `?<Constant "LOADMEMORY2">`:
   \   00000000                      ; Initializer data, 12 bytes
   \   00000000   4C4F41444D45       DC8 76, 79, 65, 68, 77, 69, 77, 79, 82, 89
   \              4D4F5259    
   \   0000000A   3200               DC8 50, 0

   \                                 In section .text, align 4, keep-with-next
   \                     `?<Constant "SETTILT">`:
   \   00000000                      ; Initializer data, 8 bytes
   \   00000000   53455454494C       DC8 83, 69, 84, 84, 73, 76, 84, 0
   \              5400        

   \                                 In section .text, align 4, keep-with-next
   \                     `?<Constant "SETGPS_BASE">`:
   \   00000000                      ; Initializer data, 12 bytes
   \   00000000   534554475053       DC8 83, 69, 84, 71, 80, 83, 95, 66, 65, 83
   \              5F424153    
   \   0000000A   4500               DC8 69, 0

   \                                 In section .text, align 4, keep-with-next
   \                     `?<Constant "SAVESETTING">`:
   \   00000000                      ; Initializer data, 12 bytes
   \   00000000   534156455345       DC8 83, 65, 86, 69, 83, 69, 84, 84, 73, 78
   \              5454494E    
   \   0000000A   4700               DC8 71, 0

   \                                 In section .text, align 4, keep-with-next
   \                     `?<Constant "SAVEGPS">`:
   \   00000000                      ; Initializer data, 8 bytes
   \   00000000   534156454750       DC8 83, 65, 86, 69, 71, 80, 83, 0
   \              5300        

   \                                 In section .text, align 4, keep-with-next
   \                     `?<Constant "SAVEWIFI">`:
   \   00000000                      ; Initializer data, 12 bytes
   \   00000000   534156455749       DC8 83, 65, 86, 69, 87, 73, 70, 73, 0, 0
   \              46490000    
   \   0000000A   0000               DC8 0, 0

   \                                 In section .text, align 4, keep-with-next
   \                     `?<Constant "SETLENGTH">`:
   \   00000000                      ; Initializer data, 12 bytes
   \   00000000   5345544C454E       DC8 83, 69, 84, 76, 69, 78, 71, 84, 72, 0
   \              47544800    
   \   0000000A   0000               DC8 0, 0

   \                                 In section .text, align 4, keep-with-next
   \                     `?<Constant "WIFIMODE">`:
   \   00000000                      ; Initializer data, 12 bytes
   \   00000000   574946494D4F       DC8 87, 73, 70, 73, 77, 79, 68, 69, 0, 0
   \              44450000    
   \   0000000A   0000               DC8 0, 0

   \                                 In section .text, align 4, keep-with-next
   \                     `?<Constant "[WIFI_O][OK]\\n">`:
   \   00000000                      ; Initializer data, 16 bytes
   \   00000000   5B574946495F       DC8 91, 87, 73, 70, 73, 95, 79, 93, 91, 79
   \              4F5D5B4F    
   \   0000000A   4B5D0A000000       DC8 75, 93, 10, 0, 0, 0

   \                                 In section .text, align 4, keep-with-next
   \                     `?<Constant "LOADGPS">`:
   \   00000000                      ; Initializer data, 8 bytes
   \   00000000   4C4F41444750       DC8 76, 79, 65, 68, 71, 80, 83, 0
   \              5300        

   \                                 In section .text, align 4, keep-with-next
   \                     `?<Constant "LOADWIFI">`:
   \   00000000                      ; Initializer data, 12 bytes
   \   00000000   4C4F41445749       DC8 76, 79, 65, 68, 87, 73, 70, 73, 0, 0
   \              46490000    
   \   0000000A   0000               DC8 0, 0

   \                                 In section .text, align 4, keep-with-next
   \                     `?<Constant "CLEARMEMORY">`:
   \   00000000                      ; Initializer data, 12 bytes
   \   00000000   434C4541524D       DC8 67, 76, 69, 65, 82, 77, 69, 77, 79, 82
   \              454D4F52    
   \   0000000A   5900               DC8 89, 0

   \                                 In section .text, align 4, keep-with-next
   \                     `?<Constant "MEMORY%d,%d,%d,%d,%d,">`:
   \   00000000                      ; Initializer data, 24 bytes
   \   00000000   4D454D4F5259       DC8 77, 69, 77, 79, 82, 89, 37, 100, 44, 37
   \              25642C25    
   \   0000000A   642C25642C25       DC8 100, 44, 37, 100, 44, 37, 100, 44, 37, 100
   \              642C2564    
   \   00000014   2C000000           DC8 44, 0, 0, 0

   \                                 In section .text, align 4, keep-with-next
   \                     `?<Constant "[OK]]\\n">`:
   \   00000000                      ; Initializer data, 8 bytes
   \   00000000   5B4F4B5D5D0A       DC8 91, 79, 75, 93, 93, 10, 0, 0
   \              0000        

   \                                 In section .text, align 4, keep-with-next
   \                     `?<Constant "[WIFI_X][OK]\\n">`:
   \   00000000                      ; Initializer data, 16 bytes
   \   00000000   5B574946495F       DC8 91, 87, 73, 70, 73, 95, 88, 93, 91, 79
   \              585D5B4F    
   \   0000000A   4B5D0A000000       DC8 75, 93, 10, 0, 0, 0

   \                                 In section .text, align 4, keep-with-next
   \                     `?<Constant "+++">`:
   \   00000000                      ; Initializer data, 4 bytes
   \   00000000   2B2B2B00           DC8 43, 43, 43, 0

   Maximum stack usage in bytes:

     Function         .cstack
     --------         -------
     IsAP_Connect          8
     IsTCP_Connect         8
     PC_Communication     40
     PC_Serial             8
     RecieveData           0
     Recieve_Process      16
     Send_GPS             72
     Send_Memroy           0
     Send_Refresh        280
     Send_Setting        184
     Send_WIFI            16
     Send_WIFI_Status      8
     SettingGPS          128
     SettingParameter    120
     SettingWIFI         120
     memcpy                8
     memset                8


   Section sizes:

     Function/Label                         Bytes
     --------------                         -----
     memcpy                                   14
     memset                                   20
     IsAP_Connect                             24
     IsTCP_Connect                            24
     Rx_PCBuffer                             500
     Rx_PCCount                                2
     Tx_PCBuffer                             500
     Tx_PCCount                                2
     WIFI_TestMode                             1
     Load_Memory_Flag                          1
     Load_Memory_Flag2                         1
     Send_WIFI_Status                         76
     Send_Refresh                            702
     Send_GPS                                206
     Send_WIFI                                52
     Send_Setting                            430
     Send_Memroy                               2
     SettingGPS                              236
     SettingWIFI                             206
     SettingParameter                        934
     RecieveData                              44
     Recieve_Process                         678
     PC_Communication                        348
     Memeory_SendCount                         2
     PC_Serial                               214
     data2                                     1
     ??DataTable37                             4
     ??DataTable37_1                           4
     ??DataTable37_2                           4
     ??DataTable37_3                           4
     ??DataTable37_4                           4
     ??DataTable37_5                           4
     ??DataTable37_6                           4
     ??DataTable37_7                           4
     ??DataTable37_8                           4
     ??DataTable37_9                           4
     ??DataTable37_10                          4
     ??DataTable37_11                          4
     ??DataTable37_12                          4
     ??DataTable37_13                          4
     ??DataTable37_14                          4
     ??DataTable37_15                          4
     ??DataTable37_16                          4
     ??DataTable38                             4
     ??DataTable38_1                           4
     ??DataTable38_2                           4
     ??DataTable38_3                           4
     ??DataTable38_4                           4
     ??DataTable38_5                           4
     ??DataTable38_6                           4
     ??DataTable38_7                           4
     ??DataTable38_8                           4
     ??DataTable38_9                           4
     ??DataTable38_10                          4
     ??DataTable39                             4
     ??DataTable39_1                           4
     ??DataTable39_2                           4
     ??DataTable39_3                           4
     ??DataTable39_4                           4
     ??DataTable39_5                           4
     ??DataTable39_6                           4
     ??DataTable39_7                           4
     ??DataTable39_8                           4
     ??DataTable39_9                           4
     ??DataTable39_10                          4
     ??DataTable39_11                          4
     ??DataTable39_12                          4
     ??DataTable39_13                          4
     ??DataTable39_14                          4
     ?<Constant "WIFI%d,%d,[OK]\n">           16
     ?<Constant "DEBUG%02d/%02d/%02d,%...">  268
     ?<Constant "GPS%d,%d,%d,%d,%d,%d,...">   64
     ?<Constant "WIFE%s,%s,%s,%s,[OK]\n">     24
     ?<Constant "SETTING%s,%s,%s,%s,%1...">  160
     ?<Constant "120118-01">                  12
     ?<Constant "[OK]\n">                      8
     ??DataTable40                             4
     ??DataTable40_1                           4
     ??DataTable40_2                           4
     ??DataTable40_3                           4
     ??DataTable40_4                           4
     ??DataTable40_5                           4
     ??DataTable40_6                           4
     ??DataTable40_7                           4
     ??DataTable40_8                           4
     ??DataTable40_9                           4
     ??DataTable40_10                          4
     ??DataTable40_11                          4
     ??DataTable40_12                          4
     ??DataTable40_13                          4
     ??DataTable40_14                          4
     ??DataTable40_15                          4
     ??DataTable40_16                          4
     ??DataTable40_17                          4
     ??DataTable40_18                          4
     ??DataTable40_19                          4
     ??DataTable40_20                          4
     ??DataTable40_21                          4
     ??DataTable40_22                          4
     ??DataTable40_23                          4
     ??DataTable40_24                          4
     ??DataTable40_25                          4
     ??DataTable40_26                          4
     ?<Constant "REFRESH">                     8
     ?<Constant "REFREWIFI">                  12
     ?<Constant "LOADSET">                     8
     ?<Constant "LOADMEMORY1">                12
     ?<Constant "LOADMEMORY2">                12
     ?<Constant "SETTILT">                     8
     ?<Constant "SETGPS_BASE">                12
     ?<Constant "SAVESETTING">                12
     ?<Constant "SAVEGPS">                     8
     ?<Constant "SAVEWIFI">                   12
     ?<Constant "SETLENGTH">                  12
     ?<Constant "WIFIMODE">                   12
     ?<Constant "[WIFI_O][OK]\n">             16
     ?<Constant "LOADGPS">                     8
     ?<Constant "LOADWIFI">                   12
     ?<Constant "CLEARMEMORY">                12
     ?<Constant "MEMORY%d,%d,%d,%d,%d,">      24
     ?<Constant "[OK]]\n">                     8
     ?<Constant "[WIFI_X][OK]\n">             16
     ?<Constant "+++">                         4

 
 1 010 bytes in section .bss
 5 270 bytes in section .text
 
 5 236 bytes of CODE memory (+ 34 bytes shared)
 1 010 bytes of DATA memory

Errors: none
Warnings: 16
