###############################################################################
#                                                                             #
# IAR ANSI C/C++ Compiler V6.10.1.52143/W32 for ARM     19/Jan/2012  11:08:56 #
# Copyright 1999-2010 IAR Systems AB.                                         #
#                                                                             #
#    Cpu mode     =  thumb                                                    #
#    Endian       =  little                                                   #
#    Source file  =  F:\Work\S&G2000\Firmware\DTG_EMS_SYSTEM\Libraries\STM32F #
#                    2xx_StdPeriph_Driver\src\stm32f2xx_exti.c                #
#    Command line =  F:\Work\S&G2000\Firmware\DTG_EMS_SYSTEM\Libraries\STM32F #
#                    2xx_StdPeriph_Driver\src\stm32f2xx_exti.c -D             #
#                    USE_STDPERIPH_DRIVER -D STM32F2XX -D USE_STM3220F_EVAL   #
#                    -D USE_USB_OTG_FS -D RTC_CLOCK_SOURCE_LSE -lC            #
#                    F:\Work\S&G2000\Firmware\DTG_EMS_SYSTEM\Project\EWARM\ST #
#                    M3220F_EVAL\List\ -lA F:\Work\S&G2000\Firmware\DTG_EMS_S #
#                    YSTEM\Project\EWARM\STM3220F_EVAL\List\ -o               #
#                    F:\Work\S&G2000\Firmware\DTG_EMS_SYSTEM\Project\EWARM\ST #
#                    M3220F_EVAL\Obj\ --no_cse --no_unroll --no_inline        #
#                    --no_code_motion --no_tbaa --no_clustering               #
#                    --no_scheduling --debug --endian=little --cpu=Cortex-M3  #
#                    -e --fpu=None --dlib_config "C:\Program Files\IAR        #
#                    Systems\Embedded Workbench 6.0\arm\INC\c\DLib_Config_Ful #
#                    l.h" -I F:\Work\S&G2000\Firmware\DTG_EMS_SYSTEM\Project\ #
#                    EWARM\..\ -I F:\Work\S&G2000\Firmware\DTG_EMS_SYSTEM\Pro #
#                    ject\EWARM\..\..\Libraries\CMSIS\CM3\CoreSupport\ -I     #
#                    F:\Work\S&G2000\Firmware\DTG_EMS_SYSTEM\Project\EWARM\.. #
#                    \..\Libraries\CMSIS\CM3\DeviceSupport\ST\STM32F2xx\ -I   #
#                    F:\Work\S&G2000\Firmware\DTG_EMS_SYSTEM\Project\EWARM\.. #
#                    \..\Libraries\STM32F2xx_StdPeriph_Driver\inc\ -I         #
#                    F:\Work\S&G2000\Firmware\DTG_EMS_SYSTEM\Project\EWARM\.. #
#                    \..\Utilities\STM32_EVAL\ -I                             #
#                    F:\Work\S&G2000\Firmware\DTG_EMS_SYSTEM\Project\EWARM\.. #
#                    \..\Utilities\STM32_EVAL\Common\ -I                      #
#                    F:\Work\S&G2000\Firmware\DTG_EMS_SYSTEM\Project\EWARM\.. #
#                    \..\Utilities\STM32_EVAL\STM3220F_EVAL\ -I               #
#                    F:\Work\S&G2000\Firmware\DTG_EMS_SYSTEM\Project\EWARM\.. #
#                    \..\Libraries\STM32_USB_OTG_Driver\inc\ -I               #
#                    F:\Work\S&G2000\Firmware\DTG_EMS_SYSTEM\Project\EWARM\.. #
#                    \..\Libraries\STM32_USB_Device_Library\Core\inc\ -I      #
#                    F:\Work\S&G2000\Firmware\DTG_EMS_SYSTEM\Project\EWARM\.. #
#                    \..\Libraries\STM32_USB_Device_Library\Class\msc\inc\    #
#                    -I F:\Work\S&G2000\Firmware\DTG_EMS_SYSTEM\Project\EWARM #
#                    \..\Usb\ -I F:\Work\S&G2000\Firmware\DTG_EMS_SYSTEM\Proj #
#                    ect\EWARM\..\Usb\Inc\ -I F:\Work\S&G2000\Firmware\DTG_EM #
#                    S_SYSTEM\Project\EWARM\..\Usb\src\ -I                    #
#                    F:\Work\S&G2000\Firmware\DTG_EMS_SYSTEM\Project\EWARM\.. #
#                    \..\Libraries\STM32_USB_HOST_Library\Core\inc\ -I        #
#                    F:\Work\S&G2000\Firmware\DTG_EMS_SYSTEM\Project\EWARM\.. #
#                    \..\Libraries\STM32_USB_HOST_Library\Class\MSC\inc\ -I   #
#                    F:\Work\S&G2000\Firmware\DTG_EMS_SYSTEM\Project\EWARM\.. #
#                    \..\Libraries\STM32_USB_Device_Library\Class\cdc\inc\    #
#                    -Ol --use_c++_inline                                     #
#    List file    =  F:\Work\S&G2000\Firmware\DTG_EMS_SYSTEM\Project\EWARM\ST #
#                    M3220F_EVAL\List\stm32f2xx_exti.lst                      #
#    Object file  =  F:\Work\S&G2000\Firmware\DTG_EMS_SYSTEM\Project\EWARM\ST #
#                    M3220F_EVAL\Obj\stm32f2xx_exti.o                         #
#                                                                             #
#                                                                             #
###############################################################################

F:\Work\S&G2000\Firmware\DTG_EMS_SYSTEM\Libraries\STM32F2xx_StdPeriph_Driver\src\stm32f2xx_exti.c
      1          /**
      2            ******************************************************************************
      3            * @file    stm32f2xx_exti.c
      4            * @author  MCD Application Team
      5            * @version V0.0.4
      6            * @date    13-January-2011
      7            * @brief   This file provides all the EXTI firmware functions.
      8            ******************************************************************************
      9            * @attention
     10            *
     11            * THE PRESENT FIRMWARE WHICH IS FOR GUIDANCE ONLY AIMS AT PROVIDING CUSTOMERS
     12            * WITH CODING INFORMATION REGARDING THEIR PRODUCTS IN ORDER FOR THEM TO SAVE
     13            * TIME. AS A RESULT, STMICROELECTRONICS SHALL NOT BE HELD LIABLE FOR ANY
     14            * DIRECT, INDIRECT OR CONSEQUENTIAL DAMAGES WITH RESPECT TO ANY CLAIMS ARISING
     15            * FROM THE CONTENT OF SUCH FIRMWARE AND/OR THE USE MADE BY CUSTOMERS OF THE
     16            * CODING INFORMATION CONTAINED HEREIN IN CONNECTION WITH THEIR PRODUCTS.
     17            *
     18            * <h2><center>&copy; COPYRIGHT 2011 STMicroelectronics</center></h2>
     19            ******************************************************************************
     20            */
     21          
     22          /* Includes ------------------------------------------------------------------*/
     23          #include "stm32f2xx_exti.h"
     24          
     25          /** @addtogroup STM32F2xx_StdPeriph_Driver
     26            * @{
     27            */
     28          
     29          /** @defgroup EXTI 
     30            * @brief EXTI driver modules
     31            * @{
     32            */
     33          
     34          /** @defgroup EXTI_Private_TypesDefinitions
     35            * @{
     36            */
     37          
     38          /**
     39            * @}
     40            */
     41          
     42          /** @defgroup EXTI_Private_Defines
     43            * @{
     44            */
     45          
     46          #define EXTI_LineNone    ((uint32_t)0x00000)  /* No interrupt selected */
     47          
     48          /**
     49            * @}
     50            */
     51          
     52          /** @defgroup EXTI_Private_Macros
     53            * @{
     54            */
     55          
     56          /**
     57            * @}
     58            */
     59          
     60          /** @defgroup EXTI_Private_Variables
     61            * @{
     62            */
     63          
     64          /**
     65            * @}
     66            */
     67          
     68          /** @defgroup EXTI_Private_FunctionPrototypes
     69            * @{
     70            */
     71          
     72          /**
     73            * @}
     74            */
     75          
     76          /** @defgroup EXTI_Private_Functions
     77            * @{
     78            */
     79          
     80          /**
     81            * @brief  Deinitializes the EXTI peripheral registers to their default reset values.
     82            * @param  None
     83            * @retval None
     84            */

   \                                 In section .text, align 2, keep-with-next
     85          void EXTI_DeInit(void)
     86          {
     87            EXTI->IMR = 0x00000000;
   \                     EXTI_DeInit:
   \   00000000   ....               LDR.N    R0,??DataTable6  ;; 0x40013c00
   \   00000002   0021               MOVS     R1,#+0
   \   00000004   0160               STR      R1,[R0, #+0]
     88            EXTI->EMR = 0x00000000;
   \   00000006   ....               LDR.N    R0,??DataTable6_1  ;; 0x40013c04
   \   00000008   0021               MOVS     R1,#+0
   \   0000000A   0160               STR      R1,[R0, #+0]
     89            EXTI->RTSR = 0x00000000;
   \   0000000C   ....               LDR.N    R0,??DataTable6_2  ;; 0x40013c08
   \   0000000E   0021               MOVS     R1,#+0
   \   00000010   0160               STR      R1,[R0, #+0]
     90            EXTI->FTSR = 0x00000000;
   \   00000012   ....               LDR.N    R0,??DataTable6_3  ;; 0x40013c0c
   \   00000014   0021               MOVS     R1,#+0
   \   00000016   0160               STR      R1,[R0, #+0]
     91            EXTI->PR = 0x001FFFFF;
   \   00000018   ....               LDR.N    R0,??DataTable6_4  ;; 0x40013c14
   \   0000001A   ....               LDR.N    R1,??DataTable6_5  ;; 0x1fffff
   \   0000001C   0160               STR      R1,[R0, #+0]
     92          }
   \   0000001E   7047               BX       LR               ;; return
     93          
     94          /**
     95            * @brief  Initializes the EXTI peripheral according to the specified
     96            *   parameters in the EXTI_InitStruct.
     97            * @param  EXTI_InitStruct: pointer to a EXTI_InitTypeDef structure
     98            *   that contains the configuration information for the EXTI peripheral.
     99            * @retval None
    100            */

   \                                 In section .text, align 2, keep-with-next
    101          void EXTI_Init(EXTI_InitTypeDef* EXTI_InitStruct)
    102          {
    103            uint32_t tmp = 0;
   \                     EXTI_Init:
   \   00000000   0021               MOVS     R1,#+0
    104          
    105            /* Check the parameters */
    106            assert_param(IS_EXTI_MODE(EXTI_InitStruct->EXTI_Mode));
    107            assert_param(IS_EXTI_TRIGGER(EXTI_InitStruct->EXTI_Trigger));
    108            assert_param(IS_EXTI_LINE(EXTI_InitStruct->EXTI_Line));  
    109            assert_param(IS_FUNCTIONAL_STATE(EXTI_InitStruct->EXTI_LineCmd));
    110          
    111            tmp = (uint32_t)EXTI_BASE;
   \   00000002   ....               LDR.N    R2,??DataTable6  ;; 0x40013c00
   \   00000004   1100               MOVS     R1,R2
    112               
    113            if (EXTI_InitStruct->EXTI_LineCmd != DISABLE)
   \   00000006   8279               LDRB     R2,[R0, #+6]
   \   00000008   002A               CMP      R2,#+0
   \   0000000A   35D0               BEQ.N    ??EXTI_Init_0
    114            {
    115              /* Clear EXTI line configuration */
    116              EXTI->IMR &= ~EXTI_InitStruct->EXTI_Line;
   \   0000000C   ....               LDR.N    R2,??DataTable6  ;; 0x40013c00
   \   0000000E   1268               LDR      R2,[R2, #+0]
   \   00000010   0368               LDR      R3,[R0, #+0]
   \   00000012   9A43               BICS     R2,R2,R3
   \   00000014   ....               LDR.N    R3,??DataTable6  ;; 0x40013c00
   \   00000016   1A60               STR      R2,[R3, #+0]
    117              EXTI->EMR &= ~EXTI_InitStruct->EXTI_Line;
   \   00000018   ....               LDR.N    R2,??DataTable6_1  ;; 0x40013c04
   \   0000001A   1268               LDR      R2,[R2, #+0]
   \   0000001C   0368               LDR      R3,[R0, #+0]
   \   0000001E   9A43               BICS     R2,R2,R3
   \   00000020   ....               LDR.N    R3,??DataTable6_1  ;; 0x40013c04
   \   00000022   1A60               STR      R2,[R3, #+0]
    118              
    119              tmp += EXTI_InitStruct->EXTI_Mode;
   \   00000024   0279               LDRB     R2,[R0, #+4]
   \   00000026   5118               ADDS     R1,R2,R1
    120          
    121              *(__IO uint32_t *) tmp |= EXTI_InitStruct->EXTI_Line;
   \   00000028   0A68               LDR      R2,[R1, #+0]
   \   0000002A   0368               LDR      R3,[R0, #+0]
   \   0000002C   1A43               ORRS     R2,R3,R2
   \   0000002E   0A60               STR      R2,[R1, #+0]
    122          
    123              /* Clear Rising Falling edge configuration */
    124              EXTI->RTSR &= ~EXTI_InitStruct->EXTI_Line;
   \   00000030   ....               LDR.N    R1,??DataTable6_2  ;; 0x40013c08
   \   00000032   0968               LDR      R1,[R1, #+0]
   \   00000034   0268               LDR      R2,[R0, #+0]
   \   00000036   9143               BICS     R1,R1,R2
   \   00000038   ....               LDR.N    R2,??DataTable6_2  ;; 0x40013c08
   \   0000003A   1160               STR      R1,[R2, #+0]
    125              EXTI->FTSR &= ~EXTI_InitStruct->EXTI_Line;
   \   0000003C   ....               LDR.N    R1,??DataTable6_3  ;; 0x40013c0c
   \   0000003E   0968               LDR      R1,[R1, #+0]
   \   00000040   0268               LDR      R2,[R0, #+0]
   \   00000042   9143               BICS     R1,R1,R2
   \   00000044   ....               LDR.N    R2,??DataTable6_3  ;; 0x40013c0c
   \   00000046   1160               STR      R1,[R2, #+0]
    126              
    127              /* Select the trigger for the selected external interrupts */
    128              if (EXTI_InitStruct->EXTI_Trigger == EXTI_Trigger_Rising_Falling)
   \   00000048   4179               LDRB     R1,[R0, #+5]
   \   0000004A   1029               CMP      R1,#+16
   \   0000004C   0CD1               BNE.N    ??EXTI_Init_1
    129              {
    130                /* Rising Falling edge */
    131                EXTI->RTSR |= EXTI_InitStruct->EXTI_Line;
   \   0000004E   ....               LDR.N    R1,??DataTable6_2  ;; 0x40013c08
   \   00000050   0968               LDR      R1,[R1, #+0]
   \   00000052   0268               LDR      R2,[R0, #+0]
   \   00000054   1143               ORRS     R1,R2,R1
   \   00000056   ....               LDR.N    R2,??DataTable6_2  ;; 0x40013c08
   \   00000058   1160               STR      R1,[R2, #+0]
    132                EXTI->FTSR |= EXTI_InitStruct->EXTI_Line;
   \   0000005A   ....               LDR.N    R1,??DataTable6_3  ;; 0x40013c0c
   \   0000005C   0968               LDR      R1,[R1, #+0]
   \   0000005E   0068               LDR      R0,[R0, #+0]
   \   00000060   0843               ORRS     R0,R0,R1
   \   00000062   ....               LDR.N    R1,??DataTable6_3  ;; 0x40013c0c
   \   00000064   0860               STR      R0,[R1, #+0]
   \   00000066   0EE0               B.N      ??EXTI_Init_2
    133              }
    134              else
    135              {
    136                tmp = (uint32_t)EXTI_BASE;
   \                     ??EXTI_Init_1:
   \   00000068   ....               LDR.N    R1,??DataTable6  ;; 0x40013c00
    137                tmp += EXTI_InitStruct->EXTI_Trigger;
   \   0000006A   4279               LDRB     R2,[R0, #+5]
   \   0000006C   5118               ADDS     R1,R2,R1
    138          
    139                *(__IO uint32_t *) tmp |= EXTI_InitStruct->EXTI_Line;
   \   0000006E   0A68               LDR      R2,[R1, #+0]
   \   00000070   0068               LDR      R0,[R0, #+0]
   \   00000072   1043               ORRS     R0,R0,R2
   \   00000074   0860               STR      R0,[R1, #+0]
   \   00000076   06E0               B.N      ??EXTI_Init_2
    140              }
    141            }
    142            else
    143            {
    144              tmp += EXTI_InitStruct->EXTI_Mode;
   \                     ??EXTI_Init_0:
   \   00000078   0279               LDRB     R2,[R0, #+4]
   \   0000007A   5118               ADDS     R1,R2,R1
    145          
    146              /* Disable the selected external lines */
    147              *(__IO uint32_t *) tmp &= ~EXTI_InitStruct->EXTI_Line;
   \   0000007C   0A68               LDR      R2,[R1, #+0]
   \   0000007E   0068               LDR      R0,[R0, #+0]
   \   00000080   32EA0000           BICS     R0,R2,R0
   \   00000084   0860               STR      R0,[R1, #+0]
    148            }
    149          }
   \                     ??EXTI_Init_2:
   \   00000086   7047               BX       LR               ;; return
    150          
    151          /**
    152            * @brief  Fills each EXTI_InitStruct member with its reset value.
    153            * @param  EXTI_InitStruct: pointer to a EXTI_InitTypeDef structure which will
    154            *   be initialized.
    155            * @retval None
    156            */

   \                                 In section .text, align 2, keep-with-next
    157          void EXTI_StructInit(EXTI_InitTypeDef* EXTI_InitStruct)
    158          {
    159            EXTI_InitStruct->EXTI_Line = EXTI_LineNone;
   \                     EXTI_StructInit:
   \   00000000   0021               MOVS     R1,#+0
   \   00000002   0160               STR      R1,[R0, #+0]
    160            EXTI_InitStruct->EXTI_Mode = EXTI_Mode_Interrupt;
   \   00000004   0021               MOVS     R1,#+0
   \   00000006   0171               STRB     R1,[R0, #+4]
    161            EXTI_InitStruct->EXTI_Trigger = EXTI_Trigger_Falling;
   \   00000008   0C21               MOVS     R1,#+12
   \   0000000A   4171               STRB     R1,[R0, #+5]
    162            EXTI_InitStruct->EXTI_LineCmd = DISABLE;
   \   0000000C   0021               MOVS     R1,#+0
   \   0000000E   8171               STRB     R1,[R0, #+6]
    163          }
   \   00000010   7047               BX       LR               ;; return
    164          
    165          /**
    166            * @brief  Generates a Software interrupt.
    167            * @param  EXTI_Line: specifies the EXTI lines to be enabled or disabled.
    168            *   This parameter can be any combination of EXTI_Linex where x can be (0..22).
    169            * @retval None
    170            */

   \                                 In section .text, align 2, keep-with-next
    171          void EXTI_GenerateSWInterrupt(uint32_t EXTI_Line)
    172          {
    173            /* Check the parameters */
    174            assert_param(IS_EXTI_LINE(EXTI_Line));
    175            
    176            EXTI->SWIER |= EXTI_Line;
   \                     EXTI_GenerateSWInterrupt:
   \   00000000   ....               LDR.N    R1,??DataTable6_6  ;; 0x40013c10
   \   00000002   0968               LDR      R1,[R1, #+0]
   \   00000004   0843               ORRS     R0,R0,R1
   \   00000006   ....               LDR.N    R1,??DataTable6_6  ;; 0x40013c10
   \   00000008   0860               STR      R0,[R1, #+0]
    177          }
   \   0000000A   7047               BX       LR               ;; return
    178          
    179          /**
    180            * @brief  Checks whether the specified EXTI line flag is set or not.
    181            * @param  EXTI_Line: specifies the EXTI line flag to check.
    182            *   This parameter can be:
    183            *     @arg EXTI_Linex: External interrupt line x where x can be (0..22).
    184            * @retval The new state of EXTI_Line (SET or RESET).
    185            */

   \                                 In section .text, align 2, keep-with-next
    186          FlagStatus EXTI_GetFlagStatus(uint32_t EXTI_Line)
    187          {
    188            FlagStatus bitstatus = RESET;
   \                     EXTI_GetFlagStatus:
   \   00000000   0021               MOVS     R1,#+0
    189            /* Check the parameters */
    190            assert_param(IS_GET_EXTI_LINE(EXTI_Line));
    191            
    192            if ((EXTI->PR & EXTI_Line) != (uint32_t)RESET)
   \   00000002   ....               LDR.N    R2,??DataTable6_4  ;; 0x40013c14
   \   00000004   1268               LDR      R2,[R2, #+0]
   \   00000006   0242               TST      R2,R0
   \   00000008   01D0               BEQ.N    ??EXTI_GetFlagStatus_0
    193            {
    194              bitstatus = SET;
   \   0000000A   0121               MOVS     R1,#+1
   \   0000000C   00E0               B.N      ??EXTI_GetFlagStatus_1
    195            }
    196            else
    197            {
    198              bitstatus = RESET;
   \                     ??EXTI_GetFlagStatus_0:
   \   0000000E   0021               MOVS     R1,#+0
    199            }
    200            return bitstatus;
   \                     ??EXTI_GetFlagStatus_1:
   \   00000010   0800               MOVS     R0,R1
   \   00000012   C0B2               UXTB     R0,R0            ;; ZeroExt  R0,R0,#+24,#+24
   \   00000014   7047               BX       LR               ;; return
    201          }
    202          
    203          /**
    204            * @brief  Clears the EXTI’s line pending flags.
    205            * @param  EXTI_Line: specifies the EXTI lines flags to clear.
    206            *   This parameter can be any combination of EXTI_Linex where x can be (0..22).
    207            * @retval None
    208            */

   \                                 In section .text, align 2, keep-with-next
    209          void EXTI_ClearFlag(uint32_t EXTI_Line)
    210          {
    211            /* Check the parameters */
    212            assert_param(IS_EXTI_LINE(EXTI_Line));
    213            
    214            EXTI->PR = EXTI_Line;
   \                     EXTI_ClearFlag:
   \   00000000   ....               LDR.N    R1,??DataTable6_4  ;; 0x40013c14
   \   00000002   0860               STR      R0,[R1, #+0]
    215          }
   \   00000004   7047               BX       LR               ;; return
    216          
    217          /**
    218            * @brief  Checks whether the specified EXTI line is asserted or not.
    219            * @param  EXTI_Line: specifies the EXTI line to check.
    220            *   This parameter can be:
    221            *     @arg EXTI_Linex: External interrupt line x where x can be (0..22).
    222            * @retval The new state of EXTI_Line (SET or RESET).
    223            */

   \                                 In section .text, align 2, keep-with-next
    224          ITStatus EXTI_GetITStatus(uint32_t EXTI_Line)
    225          {
    226            ITStatus bitstatus = RESET;
   \                     EXTI_GetITStatus:
   \   00000000   0021               MOVS     R1,#+0
    227            uint32_t enablestatus = 0;
   \   00000002   0022               MOVS     R2,#+0
    228            /* Check the parameters */
    229            assert_param(IS_GET_EXTI_LINE(EXTI_Line));
    230            
    231            enablestatus =  EXTI->IMR & EXTI_Line;
   \   00000004   ....               LDR.N    R3,??DataTable6  ;; 0x40013c00
   \   00000006   1B68               LDR      R3,[R3, #+0]
   \   00000008   0340               ANDS     R3,R0,R3
   \   0000000A   1A00               MOVS     R2,R3
    232            if (((EXTI->PR & EXTI_Line) != (uint32_t)RESET) && (enablestatus != (uint32_t)RESET))
   \   0000000C   ....               LDR.N    R3,??DataTable6_4  ;; 0x40013c14
   \   0000000E   1B68               LDR      R3,[R3, #+0]
   \   00000010   0342               TST      R3,R0
   \   00000012   03D0               BEQ.N    ??EXTI_GetITStatus_0
   \   00000014   002A               CMP      R2,#+0
   \   00000016   01D0               BEQ.N    ??EXTI_GetITStatus_0
    233            {
    234              bitstatus = SET;
   \   00000018   0121               MOVS     R1,#+1
   \   0000001A   00E0               B.N      ??EXTI_GetITStatus_1
    235            }
    236            else
    237            {
    238              bitstatus = RESET;
   \                     ??EXTI_GetITStatus_0:
   \   0000001C   0021               MOVS     R1,#+0
    239            }
    240            return bitstatus;
   \                     ??EXTI_GetITStatus_1:
   \   0000001E   0800               MOVS     R0,R1
   \   00000020   C0B2               UXTB     R0,R0            ;; ZeroExt  R0,R0,#+24,#+24
   \   00000022   7047               BX       LR               ;; return
    241          }
    242          
    243          /**
    244            * @brief  Clears the EXTI’s line pending bits.
    245            * @param  EXTI_Line: specifies the EXTI lines to clear.
    246            *   This parameter can be any combination of EXTI_Linex where x can be (0..22).
    247            * @retval None
    248            */

   \                                 In section .text, align 2, keep-with-next
    249          void EXTI_ClearITPendingBit(uint32_t EXTI_Line)
    250          {
    251            /* Check the parameters */
    252            assert_param(IS_EXTI_LINE(EXTI_Line));
    253            
    254            EXTI->PR = EXTI_Line;
   \                     EXTI_ClearITPendingBit:
   \   00000000   ....               LDR.N    R1,??DataTable6_4  ;; 0x40013c14
   \   00000002   0860               STR      R0,[R1, #+0]
    255          }
   \   00000004   7047               BX       LR               ;; return

   \                                 In section .text, align 4, keep-with-next
   \                     ??DataTable6:
   \   00000000   003C0140           DC32     0x40013c00

   \                                 In section .text, align 4, keep-with-next
   \                     ??DataTable6_1:
   \   00000000   043C0140           DC32     0x40013c04

   \                                 In section .text, align 4, keep-with-next
   \                     ??DataTable6_2:
   \   00000000   083C0140           DC32     0x40013c08

   \                                 In section .text, align 4, keep-with-next
   \                     ??DataTable6_3:
   \   00000000   0C3C0140           DC32     0x40013c0c

   \                                 In section .text, align 4, keep-with-next
   \                     ??DataTable6_4:
   \   00000000   143C0140           DC32     0x40013c14

   \                                 In section .text, align 4, keep-with-next
   \                     ??DataTable6_5:
   \   00000000   FFFF1F00           DC32     0x1fffff

   \                                 In section .text, align 4, keep-with-next
   \                     ??DataTable6_6:
   \   00000000   103C0140           DC32     0x40013c10
    256          
    257          /**
    258            * @}
    259            */
    260          
    261          /**
    262            * @}
    263            */
    264          
    265          /**
    266            * @}
    267            */
    268          
    269          /******************* (C) COPYRIGHT 2011 STMicroelectronics *****END OF FILE****/

   Maximum stack usage in bytes:

     Function                 .cstack
     --------                 -------
     EXTI_ClearFlag                0
     EXTI_ClearITPendingBit        0
     EXTI_DeInit                   0
     EXTI_GenerateSWInterrupt      0
     EXTI_GetFlagStatus            0
     EXTI_GetITStatus              0
     EXTI_Init                     0
     EXTI_StructInit               0


   Section sizes:

     Function/Label           Bytes
     --------------           -----
     EXTI_DeInit                32
     EXTI_Init                 136
     EXTI_StructInit            18
     EXTI_GenerateSWInterrupt   12
     EXTI_GetFlagStatus         22
     EXTI_ClearFlag              6
     EXTI_GetITStatus           36
     EXTI_ClearITPendingBit      6
     ??DataTable6                4
     ??DataTable6_1              4
     ??DataTable6_2              4
     ??DataTable6_3              4
     ??DataTable6_4              4
     ??DataTable6_5              4
     ??DataTable6_6              4

 
 296 bytes in section .text
 
 296 bytes of CODE memory

Errors: none
Warnings: none
