###############################################################################
#                                                                             #
# IAR ANSI C/C++ Compiler V6.10.1.52143/W32 for ARM     19/Jan/2012  11:08:55 #
# Copyright 1999-2010 IAR Systems AB.                                         #
#                                                                             #
#    Cpu mode     =  thumb                                                    #
#    Endian       =  little                                                   #
#    Source file  =  F:\Work\S&G2000\Firmware\DTG_EMS_SYSTEM\Project\TestMode #
#                    .c                                                       #
#    Command line =  F:\Work\S&G2000\Firmware\DTG_EMS_SYSTEM\Project\TestMode #
#                    .c -D USE_STDPERIPH_DRIVER -D STM32F2XX -D               #
#                    USE_STM3220F_EVAL -D USE_USB_OTG_FS -D                   #
#                    RTC_CLOCK_SOURCE_LSE -lC F:\Work\S&G2000\Firmware\DTG_EM #
#                    S_SYSTEM\Project\EWARM\STM3220F_EVAL\List\ -lA           #
#                    F:\Work\S&G2000\Firmware\DTG_EMS_SYSTEM\Project\EWARM\ST #
#                    M3220F_EVAL\List\ -o F:\Work\S&G2000\Firmware\DTG_EMS_SY #
#                    STEM\Project\EWARM\STM3220F_EVAL\Obj\ --no_cse           #
#                    --no_unroll --no_inline --no_code_motion --no_tbaa       #
#                    --no_clustering --no_scheduling --debug --endian=little  #
#                    --cpu=Cortex-M3 -e --fpu=None --dlib_config "C:\Program  #
#                    Files\IAR Systems\Embedded Workbench                     #
#                    6.0\arm\INC\c\DLib_Config_Full.h" -I                     #
#                    F:\Work\S&G2000\Firmware\DTG_EMS_SYSTEM\Project\EWARM\.. #
#                    \ -I F:\Work\S&G2000\Firmware\DTG_EMS_SYSTEM\Project\EWA #
#                    RM\..\..\Libraries\CMSIS\CM3\CoreSupport\ -I             #
#                    F:\Work\S&G2000\Firmware\DTG_EMS_SYSTEM\Project\EWARM\.. #
#                    \..\Libraries\CMSIS\CM3\DeviceSupport\ST\STM32F2xx\ -I   #
#                    F:\Work\S&G2000\Firmware\DTG_EMS_SYSTEM\Project\EWARM\.. #
#                    \..\Libraries\STM32F2xx_StdPeriph_Driver\inc\ -I         #
#                    F:\Work\S&G2000\Firmware\DTG_EMS_SYSTEM\Project\EWARM\.. #
#                    \..\Utilities\STM32_EVAL\ -I                             #
#                    F:\Work\S&G2000\Firmware\DTG_EMS_SYSTEM\Project\EWARM\.. #
#                    \..\Utilities\STM32_EVAL\Common\ -I                      #
#                    F:\Work\S&G2000\Firmware\DTG_EMS_SYSTEM\Project\EWARM\.. #
#                    \..\Utilities\STM32_EVAL\STM3220F_EVAL\ -I               #
#                    F:\Work\S&G2000\Firmware\DTG_EMS_SYSTEM\Project\EWARM\.. #
#                    \..\Libraries\STM32_USB_OTG_Driver\inc\ -I               #
#                    F:\Work\S&G2000\Firmware\DTG_EMS_SYSTEM\Project\EWARM\.. #
#                    \..\Libraries\STM32_USB_Device_Library\Core\inc\ -I      #
#                    F:\Work\S&G2000\Firmware\DTG_EMS_SYSTEM\Project\EWARM\.. #
#                    \..\Libraries\STM32_USB_Device_Library\Class\msc\inc\    #
#                    -I F:\Work\S&G2000\Firmware\DTG_EMS_SYSTEM\Project\EWARM #
#                    \..\Usb\ -I F:\Work\S&G2000\Firmware\DTG_EMS_SYSTEM\Proj #
#                    ect\EWARM\..\Usb\Inc\ -I F:\Work\S&G2000\Firmware\DTG_EM #
#                    S_SYSTEM\Project\EWARM\..\Usb\src\ -I                    #
#                    F:\Work\S&G2000\Firmware\DTG_EMS_SYSTEM\Project\EWARM\.. #
#                    \..\Libraries\STM32_USB_HOST_Library\Core\inc\ -I        #
#                    F:\Work\S&G2000\Firmware\DTG_EMS_SYSTEM\Project\EWARM\.. #
#                    \..\Libraries\STM32_USB_HOST_Library\Class\MSC\inc\ -I   #
#                    F:\Work\S&G2000\Firmware\DTG_EMS_SYSTEM\Project\EWARM\.. #
#                    \..\Libraries\STM32_USB_Device_Library\Class\cdc\inc\    #
#                    -Ol --use_c++_inline                                     #
#    List file    =  F:\Work\S&G2000\Firmware\DTG_EMS_SYSTEM\Project\EWARM\ST #
#                    M3220F_EVAL\List\TestMode.lst                            #
#    Object file  =  F:\Work\S&G2000\Firmware\DTG_EMS_SYSTEM\Project\EWARM\ST #
#                    M3220F_EVAL\Obj\TestMode.o                               #
#                                                                             #
#                                                                             #
###############################################################################

F:\Work\S&G2000\Firmware\DTG_EMS_SYSTEM\Project\TestMode.c
      1          #include "TestMode.h"

   \                                 In section .text, align 2, keep-with-next
   \   static __interwork __softfp void NVIC_SystemReset(void)
   \                     NVIC_SystemReset:
   \   00000000   ........           LDR.W    R0,??DataTable28_1  ;; 0xe000ed0c
   \   00000004   0068               LDR      R0,[R0, #+0]
   \   00000006   10F4E060           ANDS     R0,R0,#0x700
   \   0000000A   ........           LDR.W    R1,??DataTable28_2  ;; 0x5fa0004
   \   0000000E   0843               ORRS     R0,R1,R0
   \   00000010   ........           LDR.W    R1,??DataTable28_1  ;; 0xe000ed0c
   \   00000014   0860               STR      R0,[R1, #+0]
   \   00000016   BFF34F8F           DSB      
   \                     ??NVIC_SystemReset_0:
   \   0000001A   FEE7               B.N      ??NVIC_SystemReset_0
      2          #include "Main.h"

   \                                 In section .text, align 2
   \   __intrinsic __interwork __softfp void *memcpy(void *, void const *, size_t)
   \                     memcpy:
   \   00000000   10B5               PUSH     {R4,LR}
   \   00000002   0400               MOVS     R4,R0
   \   00000004   2000               MOVS     R0,R4
   \   00000006   ........           BL       __aeabi_memcpy
   \   0000000A   2000               MOVS     R0,R4
   \   0000000C   10BD               POP      {R4,PC}          ;; return

   \                                 In section .text, align 2
   \   __intrinsic __interwork __softfp void *memset(void *, int, size_t)
   \                     memset:
   \   00000000   10B5               PUSH     {R4,LR}
   \   00000002   0400               MOVS     R4,R0
   \   00000004   1000               MOVS     R0,R2
   \   00000006   0A00               MOVS     R2,R1
   \   00000008   0100               MOVS     R1,R0
   \   0000000A   2000               MOVS     R0,R4
   \   0000000C   ........           BL       __aeabi_memset
   \   00000010   2000               MOVS     R0,R4
   \   00000012   10BD               POP      {R4,PC}          ;; return

   \                                 In section .text, align 2
   \   __intrinsic __interwork __softfp char *strstr(char const *, char const *)
   \                     strstr:
   \   00000000   80B5               PUSH     {R7,LR}
   \   00000002   ........           BL       __iar_Strstr
   \   00000006   02BD               POP      {R1,PC}          ;; return
      3          #include "Serial.h"
      4          #include "Wifi.h"

   \                                 In section .text, align 2, keep-with-next
   \   static __interwork __softfp uint8_t IsTCP_Connect(void)
   \                     IsTCP_Connect:
   \   00000000   80B5               PUSH     {R7,LR}
   \   00000002   0121               MOVS     R1,#+1
   \   00000004   ........           LDR.W    R0,??DataTable28_3  ;; 0x40021000
   \   00000008   ........           BL       GPIO_ReadInputDataBit
   \   0000000C   0128               CMP      R0,#+1
   \   0000000E   01D1               BNE.N    ??IsTCP_Connect_0
   \   00000010   0120               MOVS     R0,#+1
   \   00000012   00E0               B.N      ??IsTCP_Connect_1
   \                     ??IsTCP_Connect_0:
   \   00000014   0020               MOVS     R0,#+0
   \                     ??IsTCP_Connect_1:
   \   00000016   02BD               POP      {R1,PC}          ;; return
      5          #include "Voice.h"
      6          #include "Key_Process.h"

   \                                 In section .text, align 2, keep-with-next
   \   static __interwork __softfp uint8_t IsKey_ECO(void)
   \                     IsKey_ECO:
   \   00000000   80B5               PUSH     {R7,LR}
   \   00000002   0421               MOVS     R1,#+4
   \   00000004   ........           LDR.W    R0,??DataTable28_3  ;; 0x40021000
   \   00000008   ........           BL       GPIO_ReadInputDataBit
   \   0000000C   0128               CMP      R0,#+1
   \   0000000E   01D1               BNE.N    ??IsKey_ECO_0
   \   00000010   0020               MOVS     R0,#+0
   \   00000012   00E0               B.N      ??IsKey_ECO_1
   \                     ??IsKey_ECO_0:
   \   00000014   0120               MOVS     R0,#+1
   \                     ??IsKey_ECO_1:
   \   00000016   02BD               POP      {R1,PC}          ;; return

   \                                 In section .text, align 2, keep-with-next
   \   static __interwork __softfp uint8_t IsKey_MODE(void)
   \                     IsKey_MODE:
   \   00000000   80B5               PUSH     {R7,LR}
   \   00000002   0821               MOVS     R1,#+8
   \   00000004   ........           LDR.W    R0,??DataTable28_3  ;; 0x40021000
   \   00000008   ........           BL       GPIO_ReadInputDataBit
   \   0000000C   0128               CMP      R0,#+1
   \   0000000E   01D1               BNE.N    ??IsKey_MODE_0
   \   00000010   0020               MOVS     R0,#+0
   \   00000012   00E0               B.N      ??IsKey_MODE_1
   \                     ??IsKey_MODE_0:
   \   00000014   0120               MOVS     R0,#+1
   \                     ??IsKey_MODE_1:
   \   00000016   02BD               POP      {R1,PC}          ;; return

   \                                 In section .text, align 2, keep-with-next
   \   static __interwork __softfp uint8_t IsKey_UP(void)
   \                     IsKey_UP:
   \   00000000   80B5               PUSH     {R7,LR}
   \   00000002   1021               MOVS     R1,#+16
   \   00000004   ........           LDR.W    R0,??DataTable28_3  ;; 0x40021000
   \   00000008   ........           BL       GPIO_ReadInputDataBit
   \   0000000C   0128               CMP      R0,#+1
   \   0000000E   01D1               BNE.N    ??IsKey_UP_0
   \   00000010   0020               MOVS     R0,#+0
   \   00000012   00E0               B.N      ??IsKey_UP_1
   \                     ??IsKey_UP_0:
   \   00000014   0120               MOVS     R0,#+1
   \                     ??IsKey_UP_1:
   \   00000016   02BD               POP      {R1,PC}          ;; return

   \                                 In section .text, align 2, keep-with-next
   \   static __interwork __softfp uint8_t IsKey_DOWN(void)
   \                     IsKey_DOWN:
   \   00000000   80B5               PUSH     {R7,LR}
   \   00000002   2021               MOVS     R1,#+32
   \   00000004   ........           LDR.W    R0,??DataTable28_3  ;; 0x40021000
   \   00000008   ........           BL       GPIO_ReadInputDataBit
   \   0000000C   0128               CMP      R0,#+1
   \   0000000E   01D1               BNE.N    ??IsKey_DOWN_0
   \   00000010   0020               MOVS     R0,#+0
   \   00000012   00E0               B.N      ??IsKey_DOWN_1
   \                     ??IsKey_DOWN_0:
   \   00000014   0120               MOVS     R0,#+1
   \                     ??IsKey_DOWN_1:
   \   00000016   02BD               POP      {R1,PC}          ;; return

   \                                 In section .text, align 2, keep-with-next
   \   static __interwork __softfp uint8_t IsKey_OK(void)
   \                     IsKey_OK:
   \   00000000   80B5               PUSH     {R7,LR}
   \   00000002   4021               MOVS     R1,#+64
   \   00000004   ........           LDR.W    R0,??DataTable28_3  ;; 0x40021000
   \   00000008   ........           BL       GPIO_ReadInputDataBit
   \   0000000C   0128               CMP      R0,#+1
   \   0000000E   01D1               BNE.N    ??IsKey_OK_0
   \   00000010   0020               MOVS     R0,#+0
   \   00000012   00E0               B.N      ??IsKey_OK_1
   \                     ??IsKey_OK_0:
   \   00000014   0120               MOVS     R0,#+1
   \                     ??IsKey_OK_1:
   \   00000016   02BD               POP      {R1,PC}          ;; return

   \                                 In section .text, align 2, keep-with-next
   \   static __interwork __softfp uint8_t IsKey_ESC(void)
   \                     IsKey_ESC:
   \   00000000   80B5               PUSH     {R7,LR}
   \   00000002   4FF40051           MOV      R1,#+8192
   \   00000006   ........           LDR.W    R0,??DataTable28_4  ;; 0x40020800
   \   0000000A   ........           BL       GPIO_ReadInputDataBit
   \   0000000E   0128               CMP      R0,#+1
   \   00000010   01D1               BNE.N    ??IsKey_ESC_0
   \   00000012   0020               MOVS     R0,#+0
   \   00000014   00E0               B.N      ??IsKey_ESC_1
   \                     ??IsKey_ESC_0:
   \   00000016   0120               MOVS     R0,#+1
   \                     ??IsKey_ESC_1:
   \   00000018   02BD               POP      {R1,PC}          ;; return
      7          #include "Ems_System.h"

   \                                 In section .text, align 2, keep-with-next
   \   static __interwork __softfp void SET_ENGINE_ON(void)
   \                     SET_ENGINE_ON:
   \   00000000   80B5               PUSH     {R7,LR}
   \   00000002   4FF40061           MOV      R1,#+2048
   \   00000006   ........           LDR.W    R0,??DataTable28_3  ;; 0x40021000
   \   0000000A   ........           BL       GPIO_SetBits
   \   0000000E   ........           LDR.W    R0,??DataTable28_5
   \   00000012   0078               LDRB     R0,[R0, #+0]
   \   00000014   50F00100           ORRS     R0,R0,#0x1
   \   00000018   ........           LDR.W    R1,??DataTable28_5
   \   0000001C   0870               STRB     R0,[R1, #+0]
   \   0000001E   01BD               POP      {R0,PC}          ;; return

   \                                 In section .text, align 2, keep-with-next
   \   static __interwork __softfp void RESET_ENGINE_ON(void)
   \                     RESET_ENGINE_ON:
   \   00000000   80B5               PUSH     {R7,LR}
   \   00000002   4FF40061           MOV      R1,#+2048
   \   00000006   ........           LDR.W    R0,??DataTable28_3  ;; 0x40021000
   \   0000000A   ........           BL       GPIO_ResetBits
   \   0000000E   ........           LDR.W    R0,??DataTable28_5
   \   00000012   0078               LDRB     R0,[R0, #+0]
   \   00000014   10F0FE00           ANDS     R0,R0,#0xFE
   \   00000018   ........           LDR.W    R1,??DataTable28_5
   \   0000001C   0870               STRB     R0,[R1, #+0]
   \   0000001E   01BD               POP      {R0,PC}          ;; return

   \                                 In section .text, align 2, keep-with-next
   \   static __interwork __softfp void SET_ENGINE_OFF(void)
   \                     SET_ENGINE_OFF:
   \   00000000   80B5               PUSH     {R7,LR}
   \   00000002   4FF48051           MOV      R1,#+4096
   \   00000006   ........           LDR.W    R0,??DataTable28_3  ;; 0x40021000
   \   0000000A   ........           BL       GPIO_SetBits
   \   0000000E   ........           LDR.W    R0,??DataTable28_5
   \   00000012   0078               LDRB     R0,[R0, #+0]
   \   00000014   50F00200           ORRS     R0,R0,#0x2
   \   00000018   ........           LDR.W    R1,??DataTable28_5
   \   0000001C   0870               STRB     R0,[R1, #+0]
   \   0000001E   01BD               POP      {R0,PC}          ;; return

   \                                 In section .text, align 2, keep-with-next
   \   static __interwork __softfp void RESET_ENGINE_OFF(void)
   \                     RESET_ENGINE_OFF:
   \   00000000   80B5               PUSH     {R7,LR}
   \   00000002   4FF48051           MOV      R1,#+4096
   \   00000006   ........           LDR.W    R0,??DataTable28_3  ;; 0x40021000
   \   0000000A   ........           BL       GPIO_ResetBits
   \   0000000E   ........           LDR.W    R0,??DataTable28_5
   \   00000012   0078               LDRB     R0,[R0, #+0]
   \   00000014   10F0FD00           ANDS     R0,R0,#0xFD
   \   00000018   ........           LDR.W    R1,??DataTable28_5
   \   0000001C   0870               STRB     R0,[R1, #+0]
   \   0000001E   01BD               POP      {R0,PC}          ;; return

   \                                 In section .text, align 2, keep-with-next
   \   static __interwork __softfp void SET_AIRCON(void)
   \                     SET_AIRCON:
   \   00000000   80B5               PUSH     {R7,LR}
   \   00000002   2021               MOVS     R1,#+32
   \   00000004   ........           LDR.W    R0,??DataTable28_6  ;; 0x40021800
   \   00000008   ........           BL       GPIO_SetBits
   \   0000000C   ........           LDR.W    R0,??DataTable28_5
   \   00000010   0078               LDRB     R0,[R0, #+0]
   \   00000012   50F00400           ORRS     R0,R0,#0x4
   \   00000016   ........           LDR.W    R1,??DataTable28_5
   \   0000001A   0870               STRB     R0,[R1, #+0]
   \   0000001C   01BD               POP      {R0,PC}          ;; return

   \                                 In section .text, align 2, keep-with-next
   \   static __interwork __softfp void RESET_AIRCON(void)
   \                     RESET_AIRCON:
   \   00000000   80B5               PUSH     {R7,LR}
   \   00000002   2021               MOVS     R1,#+32
   \   00000004   ........           LDR.W    R0,??DataTable28_6  ;; 0x40021800
   \   00000008   ........           BL       GPIO_ResetBits
   \   0000000C   ........           LDR.W    R0,??DataTable28_5
   \   00000010   0078               LDRB     R0,[R0, #+0]
   \   00000012   10F0FB00           ANDS     R0,R0,#0xFB
   \   00000016   ........           LDR.W    R1,??DataTable28_5
   \   0000001A   0870               STRB     R0,[R1, #+0]
   \   0000001C   01BD               POP      {R0,PC}          ;; return

   \                                 In section .text, align 2, keep-with-next
   \   static __interwork __softfp void SET_LIGHT(void)
   \                     SET_LIGHT:
   \   00000000   80B5               PUSH     {R7,LR}
   \   00000002   4FF40051           MOV      R1,#+8192
   \   00000006   ........           LDR.W    R0,??DataTable28_3  ;; 0x40021000
   \   0000000A   ........           BL       GPIO_SetBits
   \   0000000E   ........           LDR.W    R0,??DataTable28_5
   \   00000012   0078               LDRB     R0,[R0, #+0]
   \   00000014   50F00800           ORRS     R0,R0,#0x8
   \   00000018   ........           LDR.W    R1,??DataTable28_5
   \   0000001C   0870               STRB     R0,[R1, #+0]
   \   0000001E   01BD               POP      {R0,PC}          ;; return

   \                                 In section .text, align 2, keep-with-next
   \   static __interwork __softfp void RESET_LIGHT(void)
   \                     RESET_LIGHT:
   \   00000000   80B5               PUSH     {R7,LR}
   \   00000002   4FF40051           MOV      R1,#+8192
   \   00000006   ........           LDR.W    R0,??DataTable28_3  ;; 0x40021000
   \   0000000A   ........           BL       GPIO_ResetBits
   \   0000000E   ........           LDR.W    R0,??DataTable28_5
   \   00000012   0078               LDRB     R0,[R0, #+0]
   \   00000014   10F0F700           ANDS     R0,R0,#0xF7
   \   00000018   ........           LDR.W    R1,??DataTable28_5
   \   0000001C   0870               STRB     R0,[R1, #+0]
   \   0000001E   01BD               POP      {R0,PC}          ;; return

   \                                 In section .text, align 2, keep-with-next
   \   static __interwork __softfp void RESET_HITER(void)
   \                     RESET_HITER:
   \   00000000   80B5               PUSH     {R7,LR}
   \   00000002   0421               MOVS     R1,#+4
   \   00000004   ........           LDR.W    R0,??DataTable28_6  ;; 0x40021800
   \   00000008   ........           BL       GPIO_ResetBits
   \   0000000C   ........           LDR.W    R0,??DataTable28_5
   \   00000010   0078               LDRB     R0,[R0, #+0]
   \   00000012   10F0EF00           ANDS     R0,R0,#0xEF
   \   00000016   ........           LDR.W    R1,??DataTable28_5
   \   0000001A   0870               STRB     R0,[R1, #+0]
   \   0000001C   01BD               POP      {R0,PC}          ;; return
      8          

   \                                 In section .text, align 2, keep-with-next
      9          u8 TestGetKey(void)
     10          {
   \                     TestGetKey:
   \   00000000   10B5               PUSH     {R4,LR}
     11          
     12          	static   u16   KeyCount=0;
     13          	static   u8    OldKeyData=0;
     14          	static   u8    isPush = 0;
     15          	u8             KeyData = 0;
   \   00000002   0024               MOVS     R4,#+0
     16               
     17          	KeyData = 0;
   \   00000004   0020               MOVS     R0,#+0
   \   00000006   0400               MOVS     R4,R0
     18          	if(IsKey_ESC())
   \   00000008   ........           BL       IsKey_ESC
   \   0000000C   0028               CMP      R0,#+0
   \   0000000E   01D0               BEQ.N    ??TestGetKey_0
     19                    KeyData = Key_ESC;
   \   00000010   0124               MOVS     R4,#+1
   \   00000012   1CE0               B.N      ??TestGetKey_1
     20          	else if(IsKey_OK())
   \                     ??TestGetKey_0:
   \   00000014   ........           BL       IsKey_OK
   \   00000018   0028               CMP      R0,#+0
   \   0000001A   01D0               BEQ.N    ??TestGetKey_2
     21          		KeyData = Key_OK;
   \   0000001C   0224               MOVS     R4,#+2
   \   0000001E   16E0               B.N      ??TestGetKey_1
     22          	else if(IsKey_DOWN())
   \                     ??TestGetKey_2:
   \   00000020   ........           BL       IsKey_DOWN
   \   00000024   0028               CMP      R0,#+0
   \   00000026   01D0               BEQ.N    ??TestGetKey_3
     23          		KeyData = Key_DOWN;
   \   00000028   0424               MOVS     R4,#+4
   \   0000002A   10E0               B.N      ??TestGetKey_1
     24          	else if(IsKey_UP())
   \                     ??TestGetKey_3:
   \   0000002C   ........           BL       IsKey_UP
   \   00000030   0028               CMP      R0,#+0
   \   00000032   01D0               BEQ.N    ??TestGetKey_4
     25          		KeyData = Key_UP;
   \   00000034   0624               MOVS     R4,#+6
   \   00000036   0AE0               B.N      ??TestGetKey_1
     26          	else if(IsKey_MODE())
   \                     ??TestGetKey_4:
   \   00000038   ........           BL       IsKey_MODE
   \   0000003C   0028               CMP      R0,#+0
   \   0000003E   01D0               BEQ.N    ??TestGetKey_5
     27          		KeyData = Key_MODE;
   \   00000040   1024               MOVS     R4,#+16
   \   00000042   04E0               B.N      ??TestGetKey_1
     28          	else if(IsKey_ECO())
   \                     ??TestGetKey_5:
   \   00000044   ........           BL       IsKey_ECO
   \   00000048   0028               CMP      R0,#+0
   \   0000004A   00D0               BEQ.N    ??TestGetKey_1
     29          		KeyData = Key_ECO;        
   \   0000004C   2024               MOVS     R4,#+32
     30               
     31          	if (KeyData == 0)                // 모든 키가 입력되지 않았을 경우 리턴
   \                     ??TestGetKey_1:
   \   0000004E   E4B2               UXTB     R4,R4            ;; ZeroExt  R4,R4,#+24,#+24
   \   00000050   002C               CMP      R4,#+0
   \   00000052   13D1               BNE.N    ??TestGetKey_6
     32          	{
     33          		KeyCount = 0;
   \   00000054   ........           LDR.W    R0,??DataTable28_7
   \   00000058   0021               MOVS     R1,#+0
   \   0000005A   0180               STRH     R1,[R0, #+0]
     34          		isPush = 0;
   \   0000005C   ........           LDR.W    R0,??DataTable28_8
   \   00000060   0021               MOVS     R1,#+0
   \   00000062   0170               STRB     R1,[R0, #+0]
     35                    RESET_ENGINE_ON();
   \   00000064   ........           BL       RESET_ENGINE_ON
     36                    RESET_ENGINE_OFF();
   \   00000068   ........           BL       RESET_ENGINE_OFF
     37                    RESET_AIRCON();
   \   0000006C   ........           BL       RESET_AIRCON
     38                    RESET_LIGHT();
   \   00000070   ........           BL       RESET_LIGHT
     39                    RESET_HITER();          
   \   00000074   ........           BL       RESET_HITER
     40          		return   0;
   \   00000078   0020               MOVS     R0,#+0
   \   0000007A   2BE0               B.N      ??TestGetKey_7
     41          	}
     42               
     43          	if (isPush )          return 0;      // 키 누름 상태가 유지되고 있는 경우 리턴
   \                     ??TestGetKey_6:
   \   0000007C   ........           LDR.W    R0,??DataTable28_8
   \   00000080   0078               LDRB     R0,[R0, #+0]
   \   00000082   0028               CMP      R0,#+0
   \   00000084   01D0               BEQ.N    ??TestGetKey_8
   \   00000086   0020               MOVS     R0,#+0
   \   00000088   24E0               B.N      ??TestGetKey_7
     44               
     45          	if (OldKeyData == KeyData) {
   \                     ??TestGetKey_8:
   \   0000008A   ........           LDR.W    R0,??DataTable28_9
   \   0000008E   0078               LDRB     R0,[R0, #+0]
   \   00000090   E4B2               UXTB     R4,R4            ;; ZeroExt  R4,R4,#+24,#+24
   \   00000092   A042               CMP      R0,R4
   \   00000094   12D1               BNE.N    ??TestGetKey_9
     46          		KeyCount++;
   \   00000096   ........           LDR.W    R0,??DataTable28_7
   \   0000009A   0088               LDRH     R0,[R0, #+0]
   \   0000009C   401C               ADDS     R0,R0,#+1
   \   0000009E   ........           LDR.W    R1,??DataTable28_7
   \   000000A2   0880               STRH     R0,[R1, #+0]
     47          		if (KeyCount >= 3) {             // 30ms이상 유지되어 있으면 키로 인식
   \   000000A4   ........           LDR.W    R0,??DataTable28_7
   \   000000A8   0088               LDRH     R0,[R0, #+0]
   \   000000AA   0328               CMP      R0,#+3
   \   000000AC   0ED3               BCC.N    ??TestGetKey_10
     48          			//         KeyData = ~KeyData;
     49          			isPush = 1;
   \   000000AE   ........           LDR.W    R0,??DataTable28_8
   \   000000B2   0121               MOVS     R1,#+1
   \   000000B4   0170               STRB     R1,[R0, #+0]
     50          			return KeyData;
   \   000000B6   2000               MOVS     R0,R4
   \   000000B8   C0B2               UXTB     R0,R0            ;; ZeroExt  R0,R0,#+24,#+24
   \   000000BA   0BE0               B.N      ??TestGetKey_7
     51          		}
     52          	}
     53          	else {
     54          		KeyCount = 0;
   \                     ??TestGetKey_9:
   \   000000BC   ........           LDR.W    R0,??DataTable28_7
   \   000000C0   0021               MOVS     R1,#+0
   \   000000C2   0180               STRH     R1,[R0, #+0]
     55          		isPush = 0;
   \   000000C4   ........           LDR.W    R0,??DataTable28_8
   \   000000C8   0021               MOVS     R1,#+0
   \   000000CA   0170               STRB     R1,[R0, #+0]
     56          	}
     57          	OldKeyData = KeyData;
   \                     ??TestGetKey_10:
   \   000000CC   ........           LDR.W    R0,??DataTable28_9
   \   000000D0   0470               STRB     R4,[R0, #+0]
     58               
     59          	return 0;
   \   000000D2   0020               MOVS     R0,#+0
   \                     ??TestGetKey_7:
   \   000000D4   10BD               POP      {R4,PC}          ;; return
     60          }

   \                                 In section .bss, align 2
   \                     ??KeyCount:
   \   00000000                      DS8 2

   \                                 In section .bss, align 1
   \                     ??OldKeyData:
   \   00000000                      DS8 1

   \                                 In section .bss, align 1
   \                     ??isPush:
   \   00000000                      DS8 1
     61          
     62          

   \                                 In section .text, align 2, keep-with-next
     63          void TestKey(void)
     64          {
   \                     TestKey:
   \   00000000   10B5               PUSH     {R4,LR}
     65          	static   u16   KeyTime;
     66          	u8 KeyData;
     67          
     68          	if (!CheckTimeOver(10,KeyTime))     // 10ms 마다 한번씩만 동작하도록한다.
   \   00000002   ........           LDR.W    R0,??DataTable28_10
   \   00000006   0188               LDRH     R1,[R0, #+0]
   \   00000008   0A20               MOVS     R0,#+10
   \   0000000A   ........           BL       CheckTimeOver
   \   0000000E   0028               CMP      R0,#+0
   \   00000010   32D0               BEQ.N    ??TestKey_0
     69          		return ;
     70          	KeyTime = MS_TIMER;     
   \                     ??TestKey_1:
   \   00000012   ........           LDR.W    R0,??DataTable28_11  ;; 0x40000c00
   \   00000016   ........           BL       TIM_GetCounter
   \   0000001A   ........           LDR.W    R1,??DataTable28_10
   \   0000001E   0880               STRH     R0,[R1, #+0]
     71               
     72          	KeyData = TestGetKey();
   \   00000020   ........           BL       TestGetKey
   \   00000024   0400               MOVS     R4,R0
     73               
     74          	if(KeyData == 0)   // 입력된 키값이 없음
   \   00000026   E4B2               UXTB     R4,R4            ;; ZeroExt  R4,R4,#+24,#+24
   \   00000028   002C               CMP      R4,#+0
   \   0000002A   25D0               BEQ.N    ??TestKey_0
     75          		return;          
     76          
     77               
     78               Voice_Play(VOICE_CLICK);
   \                     ??TestKey_2:
   \   0000002C   0A20               MOVS     R0,#+10
   \   0000002E   ........           BL       Voice_Play
     79               
     80          	switch(KeyData)
   \   00000032   E4B2               UXTB     R4,R4            ;; ZeroExt  R4,R4,#+24,#+24
   \   00000034   012C               CMP      R4,#+1
   \   00000036   1ED0               BEQ.N    ??TestKey_3
   \   00000038   022C               CMP      R4,#+2
   \   0000003A   1BD0               BEQ.N    ??TestKey_4
   \   0000003C   042C               CMP      R4,#+4
   \   0000003E   16D0               BEQ.N    ??TestKey_5
   \   00000040   062C               CMP      R4,#+6
   \   00000042   11D0               BEQ.N    ??TestKey_6
   \   00000044   102C               CMP      R4,#+16
   \   00000046   0CD0               BEQ.N    ??TestKey_7
   \   00000048   112C               CMP      R4,#+17
   \   0000004A   04D0               BEQ.N    ??TestKey_8
   \   0000004C   202C               CMP      R4,#+32
   \   0000004E   05D0               BEQ.N    ??TestKey_9
   \   00000050   402C               CMP      R4,#+64
   \   00000052   11D1               BNE.N    ??TestKey_10
     81          	{
     82               case Key_OKESC:          // 엔지니어 모드
     83                    {
     84                   
     85                    }break;
   \                     ??TestKey_11:
   \   00000054   10E0               B.N      ??TestKey_12
     86               case Key_ESCMODE:          // 엔지니어 모드
     87                    {
     88                         NVIC_SystemReset();           // 시스템 재시작
   \                     ??TestKey_8:
   \   00000056   ........           BL       NVIC_SystemReset
     89                    }break;          
   \   0000005A   0DE0               B.N      ??TestKey_12
     90               case Key_ECO:
     91                    {           
     92                         SET_ENGINE_ON();
   \                     ??TestKey_9:
   \   0000005C   ........           BL       SET_ENGINE_ON
     93                    } 
     94                    break;
   \   00000060   0AE0               B.N      ??TestKey_12
     95               case Key_MODE:
     96                    {
     97                         SET_ENGINE_OFF();
   \                     ??TestKey_7:
   \   00000062   ........           BL       SET_ENGINE_OFF
     98                    }  
     99                    break;
   \   00000066   07E0               B.N      ??TestKey_12
    100               case Key_UP:
    101                    {
    102                         SET_AIRCON();
   \                     ??TestKey_6:
   \   00000068   ........           BL       SET_AIRCON
    103                    }break;
   \   0000006C   04E0               B.N      ??TestKey_12
    104               case Key_DOWN:
    105                    {
    106                         SET_LIGHT();
   \                     ??TestKey_5:
   \   0000006E   ........           BL       SET_LIGHT
    107                    }break;
   \   00000072   01E0               B.N      ??TestKey_12
    108               case Key_OK:
    109                    {
    110                    }
    111                    break;
   \                     ??TestKey_4:
   \   00000074   00E0               B.N      ??TestKey_12
    112               case Key_ESC:
    113                    {
    114                    }break;
   \                     ??TestKey_3:
   \   00000076   FFE7               B.N      ??TestKey_12
    115               default:
    116                    {
    117                         break;
    118                    }
    119          	}   // end of Switch
    120          }
   \                     ??TestKey_10:
   \                     ??TestKey_12:
   \                     ??TestKey_0:
   \   00000078   10BD               POP      {R4,PC}          ;; return

   \                                 In section .bss, align 2
   \                     ??KeyTime:
   \   00000000                      DS8 2

   \                                 In section .text, align 2, keep-with-next
    121          u8 TestWifiSend(void)
    122          {
   \                     TestWifiSend:
   \   00000000   2DE9F04F           PUSH     {R4-R11,LR}
   \   00000004   B9B0               SUB      SP,SP,#+228
    123               u16 DTG_Size;
    124               u16 TLV_Size;
    125               u16 Error_Size;
    126               
    127               static u32 SeqeunMsg = 1;
    128               
    129               u16 i;
    130          
    131               u16 DataCount ;
    132          
    133               
    134               u8 Error_Code[4] = {0,};
   \   00000006   1BA8               ADD      R0,SP,#+108
   \   00000008   0021               MOVS     R1,#+0
   \   0000000A   0160               STR      R1,[R0, #+0]
    135               struct _BIN_NAND_DTG_DATA DTG_Binary;
    136               EMS_DRIVE_VALUE EMS_Drive_Temp;             
    137               
    138               DataCount = 0;
   \   0000000C   0024               MOVS     R4,#+0
    139               if(KMap_Transmit_Count == 0 )    // 전송 중이 아니라면
   \   0000000E   ........           LDR.W    R0,??DataTable28_12
   \   00000012   0068               LDR      R0,[R0, #+0]
   \   00000014   0028               CMP      R0,#+0
   \   00000016   40F07181           BNE.W    ??TestWifiSend_0
    140               {     
    141                    i = 1;
   \   0000001A   0120               MOVS     R0,#+1
   \   0000001C   ADF85400           STRH     R0,[SP, #+84]
    142                    
    143                    memset(&DTG_Binary,0,sizeof(DTG_Binary));
   \   00000020   4722               MOVS     R2,#+71
   \   00000022   0021               MOVS     R1,#+0
   \   00000024   26A8               ADD      R0,SP,#+152
   \   00000026   ........           BL       memset
    144                    {
    145          
    146                              sprintf((char*)Buffer,
    147                                      "%02d%02d%02d%02d%02d%02d00"
    148                                           "%04d%07d%03d%04d%d%04.1f"
    149                                                "%09d%09d%03d%+06.1f%+06.1f%02d",                  
    150                                                11,12,24,10,20,30,
    151                                                DTG_Binary.DayDriveLength%10000,
    152                                                DTG_Binary.TotalDriveLength%10000000,
    153                                                DTG_Binary.Speed%1000,
    154                                                DTG_Binary.RPM%10000,
    155                                                DTG_Binary.Sign_Break%10,
    156                                                (float)DTG_Binary.Ems_Data.Gps_HDOP/10,
    157                                                DTG_Binary.GPSX,
    158                                                DTG_Binary.GPSY,
    159                                                DTG_Binary.Azimuth%1000,
    160                                                (float)DTG_Binary.AccelX,
    161                                                (float)DTG_Binary.AccelY,
    162                                                DTG_Binary.MachineStatus
    163                                                     );
   \   0000002A   BDF8C150           LDRH     R5,[SP, #+193]
   \   0000002E   4FF47A70           MOV      R0,#+1000
   \   00000032   1A90               STR      R0,[SP, #+104]
   \   00000034   9DF8B8A0           LDRB     R10,[SP, #+184]
   \   00000038   0A20               MOVS     R0,#+10
   \   0000003A   1990               STR      R0,[SP, #+100]
   \   0000003C   BDF8B660           LDRH     R6,[SP, #+182]
   \   00000040   42F21070           MOVW     R0,#+10000
   \   00000044   1890               STR      R0,[SP, #+96]
   \   00000046   9DF8B570           LDRB     R7,[SP, #+181]
   \   0000004A   4FF47A70           MOV      R0,#+1000
   \   0000004E   1790               STR      R0,[SP, #+92]
   \   00000050   DDF8AD80           LDR      R8,[SP, #+173]
   \   00000054   ........           LDR.W    R0,??DataTable28_13  ;; 0x989680
   \   00000058   1690               STR      R0,[SP, #+88]
   \   0000005A   BDF8AB90           LDRH     R9,[SP, #+171]
   \   0000005E   42F2107B           MOVW     R11,#+10000
   \   00000062   9DF8C700           LDRB     R0,[SP, #+199]
   \   00000066   1490               STR      R0,[SP, #+80]
   \   00000068   BDF9C500           LDRSH    R0,[SP, #+197]
   \   0000006C   ........           BL       __aeabi_i2f
   \   00000070   ........           BL       __aeabi_f2d
   \   00000074   CDE91201           STRD     R0,R1,[SP, #+72]
   \   00000078   BDF9C300           LDRSH    R0,[SP, #+195]
   \   0000007C   ........           BL       __aeabi_i2f
   \   00000080   ........           BL       __aeabi_f2d
   \   00000084   CDE91001           STRD     R0,R1,[SP, #+64]
   \   00000088   1A98               LDR      R0,[SP, #+104]
   \   0000008A   95FBF0F0           SDIV     R0,R5,R0
   \   0000008E   1A99               LDR      R1,[SP, #+104]
   \   00000090   01FB1050           MLS      R0,R1,R0,R5
   \   00000094   0E90               STR      R0,[SP, #+56]
   \   00000096   DDF8BD00           LDR      R0,[SP, #+189]
   \   0000009A   0D90               STR      R0,[SP, #+52]
   \   0000009C   DDF8B900           LDR      R0,[SP, #+185]
   \   000000A0   0C90               STR      R0,[SP, #+48]
   \   000000A2   BDF8D800           LDRH     R0,[SP, #+216]
   \   000000A6   ........           BL       __aeabi_ui2f
   \   000000AA   ........           LDR.W    R1,??DataTable28_14  ;; 0x41200000
   \   000000AE   ........           BL       __aeabi_fdiv
   \   000000B2   ........           BL       __aeabi_f2d
   \   000000B6   CDE90A01           STRD     R0,R1,[SP, #+40]
   \   000000BA   1998               LDR      R0,[SP, #+100]
   \   000000BC   9AFBF0F0           SDIV     R0,R10,R0
   \   000000C0   1999               LDR      R1,[SP, #+100]
   \   000000C2   01FB10A0           MLS      R0,R1,R0,R10
   \   000000C6   0890               STR      R0,[SP, #+32]
   \   000000C8   1898               LDR      R0,[SP, #+96]
   \   000000CA   96FBF0F0           SDIV     R0,R6,R0
   \   000000CE   1899               LDR      R1,[SP, #+96]
   \   000000D0   01FB1060           MLS      R0,R1,R0,R6
   \   000000D4   0790               STR      R0,[SP, #+28]
   \   000000D6   1798               LDR      R0,[SP, #+92]
   \   000000D8   97FBF0F0           SDIV     R0,R7,R0
   \   000000DC   1799               LDR      R1,[SP, #+92]
   \   000000DE   01FB1070           MLS      R0,R1,R0,R7
   \   000000E2   0690               STR      R0,[SP, #+24]
   \   000000E4   1698               LDR      R0,[SP, #+88]
   \   000000E6   B8FBF0F0           UDIV     R0,R8,R0
   \   000000EA   1699               LDR      R1,[SP, #+88]
   \   000000EC   01FB1080           MLS      R0,R1,R0,R8
   \   000000F0   0590               STR      R0,[SP, #+20]
   \   000000F2   99FBFBF0           SDIV     R0,R9,R11
   \   000000F6   0BFB1090           MLS      R0,R11,R0,R9
   \   000000FA   0490               STR      R0,[SP, #+16]
   \   000000FC   1E20               MOVS     R0,#+30
   \   000000FE   0390               STR      R0,[SP, #+12]
   \   00000100   1420               MOVS     R0,#+20
   \   00000102   0290               STR      R0,[SP, #+8]
   \   00000104   0A20               MOVS     R0,#+10
   \   00000106   0190               STR      R0,[SP, #+4]
   \   00000108   1820               MOVS     R0,#+24
   \   0000010A   0090               STR      R0,[SP, #+0]
   \   0000010C   0C23               MOVS     R3,#+12
   \   0000010E   0B22               MOVS     R2,#+11
   \   00000110   ........           ADR.W    R1,`?<Constant "%02d%02d%02d%02d%02d%...">`
   \   00000114   ........           LDR.W    R0,??DataTable28_15
   \   00000118   ........           BL       sprintf
    164                         memcpy(&DTG_LOOP[0],Buffer,sizeof(struct _DTG_LOOP));              
   \   0000011C   4822               MOVS     R2,#+72
   \   0000011E   ........           LDR.W    R1,??DataTable28_15
   \   00000122   ........           LDR.W    R0,??DataTable28_16
   \   00000126   ........           BL       memcpy
    165                              
    166                         memset( &EMS_Drive_Temp, 0, EMS_SIZE );
   \   0000012A   2522               MOVS     R2,#+37
   \   0000012C   0021               MOVS     R1,#+0
   \   0000012E   1CA8               ADD      R0,SP,#+112
   \   00000130   ........           BL       memset
    167                         ConvertString(TLV_BUFFER.Data1, EMS_Drive_Temp.DriveStop_Time );                  // 정지시간
   \   00000134   1F99               LDR      R1,[SP, #+124]
   \   00000136   ........           LDR.W    R0,??DataTable28_17
   \   0000013A   ........           BL       ConvertString
    168                         ConvertString(TLV_BUFFER.Data2, EMS_Drive_Temp.EngineStop_Time );                  // 공회전정지시간
   \   0000013E   2099               LDR      R1,[SP, #+128]
   \   00000140   ........           LDR.W    R0,??DataTable28_18
   \   00000144   ........           BL       ConvertString
    169                         ConvertString2(TLV_BUFFER.Data3, EMS_Drive_Temp.Day_StarterMotor );                  // 일일스타트모터수
   \   00000148   BDF88810           LDRH     R1,[SP, #+136]
   \   0000014C   ........           LDR.W    R0,??DataTable28_19
   \   00000150   ........           BL       ConvertString2
    170                         ConvertString2(TLV_BUFFER.Data4, ACC_Drive_Value.Total_StartMotor );                        // 총스타트 모터수
   \   00000154   ........           LDR.W    R0,??DataTable28_20
   \   00000158   0188               LDRH     R1,[R0, #+0]
   \   0000015A   ........           LDR.W    R0,??DataTable28_21
   \   0000015E   ........           BL       ConvertString2
    171                         ConvertString2(TLV_BUFFER.Data5, EMS_Drive_Temp.QuickAccel_Count );                  // 급가속
   \   00000162   BDF88A10           LDRH     R1,[SP, #+138]
   \   00000166   ........           LDR.W    R0,??DataTable28_22
   \   0000016A   ........           BL       ConvertString2
    172                         ConvertString2(TLV_BUFFER.Data6, EMS_Drive_Temp.QuickStop_Count );                  //급정지 시간
   \   0000016E   BDF88E10           LDRH     R1,[SP, #+142]
   \   00000172   ........           LDR.W    R0,??DataTable28_23
   \   00000176   ........           BL       ConvertString2
    173                         ConvertString2(TLV_BUFFER.Data7, EMS_Drive_Temp.HighRPM_Count );                  //고RPM  시간
   \   0000017A   BDF89010           LDRH     R1,[SP, #+144]
   \   0000017E   ........           LDR.W    R0,??DataTable28_24
   \   00000182   ........           BL       ConvertString2
    174                         ConvertString2(TLV_BUFFER.Data8, EMS_Drive_Temp.Break_Count );                  //  브레이크 시간         
   \   00000186   BDF89210           LDRH     R1,[SP, #+146]
   \   0000018A   ........           LDR.W    R0,??DataTable28_25
   \   0000018E   ........           BL       ConvertString2
    175                         ConvertString(TLV_BUFFER.Data9, EMS_Drive_Temp.Drive_Time );                  // 운행시간
   \   00000192   1D99               LDR      R1,[SP, #+116]
   \   00000194   ........           LDR.W    R0,??DataTable28_26
   \   00000198   ........           BL       ConvertString
    176                         ConvertString2(TLV_BUFFER.Data10, EMS_Drive_Temp.EcoUse_Time );                  // 고RPM 시간         
   \   0000019C   2199               LDR      R1,[SP, #+132]
   \   0000019E   ........           LDR.W    R0,??DataTable28_27
   \   000001A2   ........           BL       ConvertString2
    177                         ConvertString2(TLV_BUFFER.Data11, EMS_Drive_Temp.QuickStart_Count );                  // 고RPM 시간        
   \   000001A6   BDF88C10           LDRH     R1,[SP, #+140]
   \   000001AA   ........           LDR.W    R0,??DataTable28_28
   \   000001AE   ........           BL       ConvertString2
    178                         
    179                         memcpy(&TLV_LOOP[0],&TLV_BUFFER,sizeof(struct _TLV_DATA)); 
   \   000001B2   5522               MOVS     R2,#+85
   \   000001B4   ........           LDR.W    R1,??DataTable28_29
   \   000001B8   ........           LDR.W    R0,??DataTable28_30
   \   000001BC   ........           BL       memcpy
    180                         DataCount++;                           
   \   000001C0   641C               ADDS     R4,R4,#+1
    181                    }
    182                    Trans_PageCount = i;
   \   000001C2   ........           LDR.W    R0,??DataTable28_31
   \   000001C6   BDF85410           LDRH     R1,[SP, #+84]
   \   000001CA   0180               STRH     R1,[R0, #+0]
    183                    
    184                    ConvertString( KMapSend.Message.Seq,SeqeunMsg++);
   \   000001CC   ........           LDR.W    R0,??DataTable28_32
   \   000001D0   0168               LDR      R1,[R0, #+0]
   \   000001D2   481C               ADDS     R0,R1,#+1
   \   000001D4   ........           LDR.W    R2,??DataTable28_32
   \   000001D8   1060               STR      R0,[R2, #+0]
   \   000001DA   ........           LDR.W    R0,??DataTable28_33
   \   000001DE   ........           BL       ConvertString
    185                    
    186                    ConvertString(KMapSend.Message.Parameter2.DTG_DATA.DataNum , DataCount );			// 수집 데이터          
   \   000001E2   A4B2               UXTH     R4,R4            ;; ZeroExt  R4,R4,#+16,#+16
   \   000001E4   2100               MOVS     R1,R4
   \   000001E6   ........           LDR.W    R0,??DataTable28_34
   \   000001EA   ........           BL       ConvertString
    187                    
    188                    DTG_Size = sizeof(DTG_LOOP[0]) * DataCount ;
   \   000001EE   4820               MOVS     R0,#+72
   \   000001F0   00FB04F5           MUL      R5,R0,R4
    189                    TLV_Size = sizeof(struct _TLV_DATA) * DataCount ;
   \   000001F4   5520               MOVS     R0,#+85
   \   000001F6   4443               MULS     R4,R0,R4
    190                    Error_Size = 4;
   \   000001F8   0420               MOVS     R0,#+4
    191                    ConvertString( KMapSend.Message.Length , sizeof(KMapSend.Message.Parameter1) + sizeof(KMapSend.Message.Parameter2) + DTG_Size +  sizeof(KMapSend_Div.Parameter3) + TLV_Size + Error_Size);
   \   000001FA   ADB2               UXTH     R5,R5            ;; ZeroExt  R5,R5,#+16,#+16
   \   000001FC   A4B2               UXTH     R4,R4            ;; ZeroExt  R4,R4,#+16,#+16
   \   000001FE   6119               ADDS     R1,R4,R5
   \   00000200   80B2               UXTH     R0,R0            ;; ZeroExt  R0,R0,#+16,#+16
   \   00000202   4018               ADDS     R0,R0,R1
   \   00000204   10F13B01           ADDS     R1,R0,#+59
   \   00000208   ........           LDR.W    R0,??DataTable28_35
   \   0000020C   ........           BL       ConvertString
    192                    ConvertString( KMapSend.Message.Parameter2.ValueLength , DTG_Size );	     
   \   00000210   ADB2               UXTH     R5,R5            ;; ZeroExt  R5,R5,#+16,#+16
   \   00000212   2900               MOVS     R1,R5
   \   00000214   ........           LDR.W    R0,??DataTable28_36
   \   00000218   ........           BL       ConvertString
    193                    ConvertString( KMapSend_Div.Parameter3.ValueLength , TLV_Size );	
   \   0000021C   A4B2               UXTH     R4,R4            ;; ZeroExt  R4,R4,#+16,#+16
   \   0000021E   2100               MOVS     R1,R4
   \   00000220   ........           LDR.W    R0,??DataTable28_37
   \   00000224   ........           BL       ConvertString
    194                    ConvertString( KMapSend.PacketSize, ( sizeof( KMapSend ) + DTG_Size +  sizeof(KMapSend_Div) + TLV_Size ) ) ;
   \   00000228   ADB2               UXTH     R5,R5            ;; ZeroExt  R5,R5,#+16,#+16
   \   0000022A   A4B2               UXTH     R4,R4            ;; ZeroExt  R4,R4,#+16,#+16
   \   0000022C   6019               ADDS     R0,R4,R5
   \   0000022E   10F17001           ADDS     R1,R0,#+112
   \   00000232   ........           LDR.W    R0,??DataTable28_38
   \   00000236   ........           BL       ConvertString
    195                    
    196                    memset( Tx_RFBuffer, 0, sizeof (Tx_RFBuffer) );
   \   0000023A   41F65832           MOVW     R2,#+7000
   \   0000023E   0021               MOVS     R1,#+0
   \   00000240   ........           LDR.W    R0,??DataTable28_39
   \   00000244   ........           BL       memset
    197                    
    198                    KMap_Transmit_Count = sizeof(KMapSend);
   \   00000248   ........           LDR.W    R0,??DataTable28_12
   \   0000024C   6521               MOVS     R1,#+101
   \   0000024E   0160               STR      R1,[R0, #+0]
    199                    
    200                    // 헤더부분 복사
    201                    memcpy(&Tx_RFBuffer,&KMapSend, KMap_Transmit_Count);          // 전송해야될 데이타 크기
   \   00000250   ........           LDR.W    R0,??DataTable28_12
   \   00000254   0268               LDR      R2,[R0, #+0]
   \   00000256   ........           LDR.W    R1,??DataTable28_38
   \   0000025A   ........           LDR.W    R0,??DataTable28_39
   \   0000025E   ........           BL       memcpy
    202                    // 메인부분 복사
    203                    memcpy(&Tx_RFBuffer[KMap_Transmit_Count] , &DTG_LOOP, DTG_Size);          // 전송해야될 데이타 크기
   \   00000262   ADB2               UXTH     R5,R5            ;; ZeroExt  R5,R5,#+16,#+16
   \   00000264   2A00               MOVS     R2,R5
   \   00000266   ........           LDR.W    R1,??DataTable28_16
   \   0000026A   ........           LDR.W    R0,??DataTable28_12
   \   0000026E   0068               LDR      R0,[R0, #+0]
   \   00000270   ........           LDR.W    R3,??DataTable28_39
   \   00000274   C018               ADDS     R0,R0,R3
   \   00000276   ........           BL       memcpy
    204                    KMap_Transmit_Count += DTG_Size;
   \   0000027A   ........           LDR.W    R0,??DataTable28_12
   \   0000027E   0068               LDR      R0,[R0, #+0]
   \   00000280   ADB2               UXTH     R5,R5            ;; ZeroExt  R5,R5,#+16,#+16
   \   00000282   2818               ADDS     R0,R5,R0
   \   00000284   ........           LDR.W    R1,??DataTable28_12
   \   00000288   0860               STR      R0,[R1, #+0]
    205                    // 끝부분 복사
    206                    memcpy(&Tx_RFBuffer[KMap_Transmit_Count] , &KMapSend_Div, sizeof(KMapSend_Div));          // 전송해야될 데이타 크기
   \   0000028A   0B22               MOVS     R2,#+11
   \   0000028C   ........           LDR.W    R1,??DataTable28_40
   \   00000290   ........           LDR.W    R0,??DataTable28_12
   \   00000294   0068               LDR      R0,[R0, #+0]
   \   00000296   ........           LDR.W    R3,??DataTable28_39
   \   0000029A   C018               ADDS     R0,R0,R3
   \   0000029C   ........           BL       memcpy
    207                    
    208                    KMap_Transmit_Count += sizeof(KMapSend_Div);
   \   000002A0   ........           LDR.W    R0,??DataTable28_12
   \   000002A4   0068               LDR      R0,[R0, #+0]
   \   000002A6   0B30               ADDS     R0,R0,#+11
   \   000002A8   ........           LDR.W    R1,??DataTable28_12
   \   000002AC   0860               STR      R0,[R1, #+0]
    209                    
    210                    memcpy(&Tx_RFBuffer[KMap_Transmit_Count] , &TLV_LOOP, TLV_Size);          // 전송해야될 데이타 크기
   \   000002AE   A4B2               UXTH     R4,R4            ;; ZeroExt  R4,R4,#+16,#+16
   \   000002B0   2200               MOVS     R2,R4
   \   000002B2   ........           LDR.W    R1,??DataTable28_30
   \   000002B6   ........           LDR.W    R0,??DataTable28_12
   \   000002BA   0068               LDR      R0,[R0, #+0]
   \   000002BC   ........           LDR.W    R3,??DataTable28_39
   \   000002C0   C018               ADDS     R0,R0,R3
   \   000002C2   ........           BL       memcpy
    211                    
    212                    KMap_Transmit_Count += TLV_Size;                 
   \   000002C6   ........           LDR.W    R0,??DataTable28_12
   \   000002CA   0068               LDR      R0,[R0, #+0]
   \   000002CC   A4B2               UXTH     R4,R4            ;; ZeroExt  R4,R4,#+16,#+16
   \   000002CE   2018               ADDS     R0,R4,R0
   \   000002D0   ........           LDR.W    R1,??DataTable28_12
   \   000002D4   0860               STR      R0,[R1, #+0]
    213                    
    214                    memcpy(&Tx_RFBuffer[KMap_Transmit_Count] , &Error_Code, sizeof(Error_Code));          // 전송해야될 데이타 크기
   \   000002D6   0422               MOVS     R2,#+4
   \   000002D8   1BA9               ADD      R1,SP,#+108
   \   000002DA   ........           LDR.W    R0,??DataTable28_12
   \   000002DE   0068               LDR      R0,[R0, #+0]
   \   000002E0   ........           LDR.W    R3,??DataTable28_39
   \   000002E4   C018               ADDS     R0,R0,R3
   \   000002E6   ........           BL       memcpy
    215                    
    216                    KMap_Transmit_Count += sizeof(Error_Code);       
   \   000002EA   ........           LDR.W    R0,??DataTable28_12
   \   000002EE   0068               LDR      R0,[R0, #+0]
   \   000002F0   001D               ADDS     R0,R0,#+4
   \   000002F2   ........           LDR.W    R1,??DataTable28_12
   \   000002F6   0860               STR      R0,[R1, #+0]
    217                    
    218                    return 1;
   \   000002F8   0120               MOVS     R0,#+1
   \   000002FA   00E0               B.N      ??TestWifiSend_1
    219               }
    220               return 0;
   \                     ??TestWifiSend_0:
   \   000002FC   0020               MOVS     R0,#+0
   \                     ??TestWifiSend_1:
   \   000002FE   39B0               ADD      SP,SP,#+228
   \   00000300   BDE8F08F           POP      {R4-R11,PC}      ;; return
    221          }

   \                                 In section .data, align 4
   \                     ??SeqeunMsg:
   \   00000000   01000000           DC32 1
    222          

   \                                 In section .text, align 2, keep-with-next
    223          void Wifi_TestProcess(void)
    224          {
   \                     Wifi_TestProcess:
   \   00000000   80B5               PUSH     {R7,LR}
    225               static u16 Wifi_MainTimer;
    226               static u16 Wifi_MainTimer2;     
    227               static u8 Connectting_Count = 0 ;  
    228               static u8 WaitTimeCount = 0;
    229               //static WIFI_RESULT Wifi_Result = WIFI_NO_INIT;
    230          
    231               //-------------------------------------------------------------------------
    232               // 와이 파이 세팅
    233               //
    234               if(!CheckTimeOver(100,Wifi_MainTimer2))        // 1000ms 마다 진입한다.
   \   00000002   ........           LDR.W    R0,??DataTable28_41
   \   00000006   0188               LDRH     R1,[R0, #+0]
   \   00000008   6420               MOVS     R0,#+100
   \   0000000A   ........           BL       CheckTimeOver
   \   0000000E   0028               CMP      R0,#+0
   \   00000010   00F0EB80           BEQ.W    ??Wifi_TestProcess_0
    235                    return;
    236               Wifi_MainTimer2 = MS_TIMER;     
   \                     ??Wifi_TestProcess_1:
   \   00000014   ........           LDR.W    R0,??DataTable28_11  ;; 0x40000c00
   \   00000018   ........           BL       TIM_GetCounter
   \   0000001C   ........           LDR.W    R1,??DataTable28_41
   \   00000020   0880               STRH     R0,[R1, #+0]
    237               
    238               if( Flag.Wifi_SettingFlag == 1 )             // 와이파이 세팅이 있다면
   \   00000022   ........           LDR.W    R0,??DataTable28_42
   \   00000026   807B               LDRB     R0,[R0, #+14]
   \   00000028   0128               CMP      R0,#+1
   \   0000002A   02D1               BNE.N    ??Wifi_TestProcess_2
    239               {
    240                    Wifi_ProfileSetting();
   \   0000002C   ........           BL       Wifi_ProfileSetting
    241                    return;
   \   00000030   DBE0               B.N      ??Wifi_TestProcess_0
    242               } 
    243               
    244               //-------------------------------------------------------------------------
    245               
    246               if(!CheckTimeOver(1000,Wifi_MainTimer))        // 1000ms 마다 진입한다.
   \                     ??Wifi_TestProcess_2:
   \   00000032   ........           LDR.W    R0,??DataTable28_43
   \   00000036   0188               LDRH     R1,[R0, #+0]
   \   00000038   4FF47A70           MOV      R0,#+1000
   \   0000003C   ........           BL       CheckTimeOver
   \   00000040   0028               CMP      R0,#+0
   \   00000042   00F0D280           BEQ.W    ??Wifi_TestProcess_0
    247                    return;
    248               Wifi_MainTimer = MS_TIMER;
   \                     ??Wifi_TestProcess_3:
   \   00000046   ........           LDR.W    R0,??DataTable28_11  ;; 0x40000c00
   \   0000004A   ........           BL       TIM_GetCounter
   \   0000004E   ........           LDR.W    R1,??DataTable28_43
   \   00000052   0880               STRH     R0,[R1, #+0]
    249               
    250               
    251               if(Connectting_Count >= 5)                // 5회이상 검사시 에러발생한다면
   \   00000054   ........           LDR.W    R0,??DataTable28_44
   \   00000058   0078               LDRB     R0,[R0, #+0]
   \   0000005A   0528               CMP      R0,#+5
   \   0000005C   13D3               BCC.N    ??Wifi_TestProcess_4
    252               {
    253                    Info.Wifi_ErrorCount = 0;
   \   0000005E   ........           LDR.W    R0,??DataTable28_45
   \   00000062   0021               MOVS     R1,#+0
   \   00000064   80F85F10           STRB     R1,[R0, #+95]
    254                    Connectting_Count = 0;
   \   00000068   ........           LDR.W    R0,??DataTable28_44
   \   0000006C   0021               MOVS     R1,#+0
   \   0000006E   0170               STRB     R1,[R0, #+0]
    255                    Wifi_Result = WIFI_NO_INIT;
   \   00000070   ........           LDR.W    R0,??DataTable28_46
   \   00000074   0021               MOVS     R1,#+0
   \   00000076   0170               STRB     R1,[R0, #+0]
    256                    Wifi_Reset();
   \   00000078   ........           BL       Wifi_Reset
    257                    Flag.Wifi_Check = 0;                    // 응답을 기다린다.          
   \   0000007C   ........           LDR.W    R0,??DataTable28_42
   \   00000080   0021               MOVS     R1,#+0
   \   00000082   0171               STRB     R1,[R0, #+4]
    258                    return;                                 // 더이상 검사하지 않는다.
   \   00000084   B1E0               B.N      ??Wifi_TestProcess_0
    259               }
    260              
    261               if( WIFI_TestMode == 1 )      // PC와 커맨드 모드일때 
   \                     ??Wifi_TestProcess_4:
   \   00000086   ........           LDR.W    R0,??DataTable28_47
   \   0000008A   0078               LDRB     R0,[R0, #+0]
   \   0000008C   0128               CMP      R0,#+1
   \   0000008E   00F0AC80           BEQ.W    ??Wifi_TestProcess_0
    262                    return;
    263          
    264          
    265               WaitTimeCount++;
   \                     ??Wifi_TestProcess_5:
   \   00000092   ........           LDR.W    R0,??DataTable28_48
   \   00000096   0078               LDRB     R0,[R0, #+0]
   \   00000098   401C               ADDS     R0,R0,#+1
   \   0000009A   ........           LDR.W    R1,??DataTable28_48
   \   0000009E   0870               STRB     R0,[R1, #+0]
    266               
    267               switch(Wifi_Result)
   \   000000A0   ........           LDR.W    R0,??DataTable28_46
   \   000000A4   0078               LDRB     R0,[R0, #+0]
   \   000000A6   0028               CMP      R0,#+0
   \   000000A8   09D0               BEQ.N    ??Wifi_TestProcess_6
   \   000000AA   0128               CMP      R0,#+1
   \   000000AC   1BD0               BEQ.N    ??Wifi_TestProcess_7
   \   000000AE   0428               CMP      R0,#+4
   \   000000B0   43D0               BEQ.N    ??Wifi_TestProcess_8
   \   000000B2   0528               CMP      R0,#+5
   \   000000B4   64D0               BEQ.N    ??Wifi_TestProcess_9
   \   000000B6   0628               CMP      R0,#+6
   \   000000B8   00F08280           BEQ.W    ??Wifi_TestProcess_10
   \   000000BC   95E0               B.N      ??Wifi_TestProcess_11
    268               {
    269               case WIFI_NO_INIT:        // 와이파이가 초기 접속 테스트
    270                    {
    271                         puts_string(&RF_Module, (char*) "AT\r");      // AT 접속 확인
   \                     ??Wifi_TestProcess_6:
   \   000000BE   ....               ADR.N    R1,??DataTable27  ;; "AT\r"
   \   000000C0   ........           LDR.W    R0,??DataTable28_49
   \   000000C4   ........           BL       puts_string
    272                         
    273                         puts_string(&RF_Module, (char*)"+++\r");      // Command 모드 확인
   \   000000C8   ........           ADR.W    R1,`?<Constant "+++\\r">`
   \   000000CC   ........           LDR.W    R0,??DataTable28_49
   \   000000D0   ........           BL       puts_string
    274                         
    275                         WaitTimeCount = 0;                      // 재접속 시간 클리어
   \   000000D4   ........           LDR.W    R0,??DataTable28_48
   \   000000D8   0021               MOVS     R1,#+0
   \   000000DA   0170               STRB     R1,[R0, #+0]
    276          
    277                         Wifi_Result = WIFI_NO_INIT_WAIT;
   \   000000DC   ........           LDR.W    R0,??DataTable28_46
   \   000000E0   0121               MOVS     R1,#+1
   \   000000E2   0170               STRB     R1,[R0, #+0]
    278                         
    279                    }break;
   \   000000E4   81E0               B.N      ??Wifi_TestProcess_11
    280               case WIFI_NO_INIT_WAIT:       // 5 초간 대기 후에 접속한다.
    281                    {
    282                         if(Wifi_OK == 1)
   \                     ??Wifi_TestProcess_7:
   \   000000E6   ........           LDR.W    R0,??DataTable28_50
   \   000000EA   0078               LDRB     R0,[R0, #+0]
   \   000000EC   0128               CMP      R0,#+1
   \   000000EE   18D1               BNE.N    ??Wifi_TestProcess_12
    283                         {
    284                              Wifi_OK = 0;
   \   000000F0   ........           LDR.W    R0,??DataTable28_50
   \   000000F4   0021               MOVS     R1,#+0
   \   000000F6   0170               STRB     R1,[R0, #+0]
    285                              Wifi_Result = WIFI_TCP_CONNECT;
   \   000000F8   ........           LDR.W    R0,??DataTable28_46
   \   000000FC   0421               MOVS     R1,#+4
   \   000000FE   0170               STRB     R1,[R0, #+0]
    286                              Info.Wifi_ErrorCount = 0;
   \   00000100   ........           LDR.W    R0,??DataTable28_45
   \   00000104   0021               MOVS     R1,#+0
   \   00000106   80F85F10           STRB     R1,[R0, #+95]
    287                              Connectting_Count = 0;
   \   0000010A   ........           LDR.W    R0,??DataTable28_44
   \   0000010E   0021               MOVS     R1,#+0
   \   00000110   0170               STRB     R1,[R0, #+0]
    288                              Flag.Wifi_Check = 1;                    // 응답을 기다린다.
   \   00000112   ........           LDR.W    R0,??DataTable28_42
   \   00000116   0121               MOVS     R1,#+1
   \   00000118   0171               STRB     R1,[R0, #+4]
    289                              WaitTimeCount = 0;                      // 재접속 시간 클리어                    
   \   0000011A   ........           LDR.W    R0,??DataTable28_48
   \   0000011E   0021               MOVS     R1,#+0
   \   00000120   0170               STRB     R1,[R0, #+0]
    290                         }
    291                         if( WaitTimeCount > 5)
   \                     ??Wifi_TestProcess_12:
   \   00000122   ........           LDR.W    R0,??DataTable28_48
   \   00000126   0078               LDRB     R0,[R0, #+0]
   \   00000128   0628               CMP      R0,#+6
   \   0000012A   05D3               BCC.N    ??Wifi_TestProcess_13
    292                         {
    293                              Wifi_Reset();
   \   0000012C   ........           BL       Wifi_Reset
    294                              Wifi_Result = WIFI_NO_INIT;
   \   00000130   ........           LDR.W    R0,??DataTable28_46
   \   00000134   0021               MOVS     R1,#+0
   \   00000136   0170               STRB     R1,[R0, #+0]
    295                         }
    296                    }break;
   \                     ??Wifi_TestProcess_13:
   \   00000138   57E0               B.N      ??Wifi_TestProcess_11
    297               case WIFI_TCP_CONNECT:
    298                    {
    299                         sprintf((char *)Buffer,"ATA\r");
   \                     ??Wifi_TestProcess_8:
   \   0000013A   ........           ADR.W    R1,`?<Constant "ATA\\r">`
   \   0000013E   ....               LDR.N    R0,??DataTable28_15
   \   00000140   ........           BL       sprintf
    300                         puts_string(&RF_Module,(char *)Buffer); 
   \   00000144   ....               LDR.N    R1,??DataTable28_15
   \   00000146   ........           LDR.W    R0,??DataTable28_49
   \   0000014A   ........           BL       puts_string
    301                         Connectting_Count ++;        
   \   0000014E   ........           LDR.W    R0,??DataTable28_44
   \   00000152   0078               LDRB     R0,[R0, #+0]
   \   00000154   401C               ADDS     R0,R0,#+1
   \   00000156   ........           LDR.W    R1,??DataTable28_44
   \   0000015A   0870               STRB     R0,[R1, #+0]
    302                         Info.Wifi_ErrorCount ++;
   \   0000015C   ........           LDR.W    R0,??DataTable28_45
   \   00000160   90F85F00           LDRB     R0,[R0, #+95]
   \   00000164   401C               ADDS     R0,R0,#+1
   \   00000166   ........           LDR.W    R1,??DataTable28_45
   \   0000016A   81F85F00           STRB     R0,[R1, #+95]
    303                         Wifi_Result = WIFI_TCP_CONNECTTING;
   \   0000016E   ........           LDR.W    R0,??DataTable28_46
   \   00000172   0521               MOVS     R1,#+5
   \   00000174   0170               STRB     R1,[R0, #+0]
    304                         WaitTimeCount = 0;                      // 재접속 시간 클리어                    
   \   00000176   ........           LDR.W    R0,??DataTable28_48
   \   0000017A   0021               MOVS     R1,#+0
   \   0000017C   0170               STRB     R1,[R0, #+0]
    305                         
    306                    }break;
   \   0000017E   34E0               B.N      ??Wifi_TestProcess_11
    307               case WIFI_TCP_CONNECTTING:
    308                    {            
    309                         if(Wifi_OK == 1)
   \                     ??Wifi_TestProcess_9:
   \   00000180   ........           LDR.W    R0,??DataTable28_50
   \   00000184   0078               LDRB     R0,[R0, #+0]
   \   00000186   0128               CMP      R0,#+1
   \   00000188   12D1               BNE.N    ??Wifi_TestProcess_14
    310                         {
    311                              Wifi_Send_Result = WIFI_INIT;
   \   0000018A   ....               LDR.N    R0,??DataTable28_51
   \   0000018C   0021               MOVS     R1,#+0
   \   0000018E   0170               STRB     R1,[R0, #+0]
    312                              Wifi_OK = 0;
   \   00000190   ....               LDR.N    R0,??DataTable28_50
   \   00000192   0021               MOVS     R1,#+0
   \   00000194   0170               STRB     R1,[R0, #+0]
    313                              Wifi_Result = WIFI_CONNECTED;
   \   00000196   ....               LDR.N    R0,??DataTable28_46
   \   00000198   0621               MOVS     R1,#+6
   \   0000019A   0170               STRB     R1,[R0, #+0]
    314                              Connectting_Count = 0;
   \   0000019C   ....               LDR.N    R0,??DataTable28_44
   \   0000019E   0021               MOVS     R1,#+0
   \   000001A0   0170               STRB     R1,[R0, #+0]
    315                              Info.Wifi_ErrorCount = 0;
   \   000001A2   ....               LDR.N    R0,??DataTable28_45
   \   000001A4   0021               MOVS     R1,#+0
   \   000001A6   80F85F10           STRB     R1,[R0, #+95]
    316                              WaitTimeCount = 0;                      // 재접속 시간 클리어                    
   \   000001AA   ....               LDR.N    R0,??DataTable28_48
   \   000001AC   0021               MOVS     R1,#+0
   \   000001AE   0170               STRB     R1,[R0, #+0]
    317                         }
    318                         if( WaitTimeCount > 15)
   \                     ??Wifi_TestProcess_14:
   \   000001B0   ....               LDR.N    R0,??DataTable28_48
   \   000001B2   0078               LDRB     R0,[R0, #+0]
   \   000001B4   1028               CMP      R0,#+16
   \   000001B6   02D3               BCC.N    ??Wifi_TestProcess_15
    319                              Wifi_Result = WIFI_TCP_CONNECT;               
   \   000001B8   ....               LDR.N    R0,??DataTable28_46
   \   000001BA   0421               MOVS     R1,#+4
   \   000001BC   0170               STRB     R1,[R0, #+0]
    320                    }break;
   \                     ??Wifi_TestProcess_15:
   \   000001BE   14E0               B.N      ??Wifi_TestProcess_11
    321               case WIFI_CONNECTED:
    322                    {
    323                         if( IsTCP_Connect() == 1 )//|| IsAP_Connect() == 1)      // 서버에 접속되어 있지 않다면
   \                     ??Wifi_TestProcess_10:
   \   000001C0   ........           BL       IsTCP_Connect
   \   000001C4   0128               CMP      R0,#+1
   \   000001C6   03D1               BNE.N    ??Wifi_TestProcess_16
    324                         {
    325                              Wifi_Result = WIFI_NO_INIT;
   \   000001C8   ....               LDR.N    R0,??DataTable28_46
   \   000001CA   0021               MOVS     R1,#+0
   \   000001CC   0170               STRB     R1,[R0, #+0]
   \   000001CE   0CE0               B.N      ??Wifi_TestProcess_17
    326                         }
    327                         else          //접속 완료 상태 데이터를 전송한다.
    328                         {
    329                              if( Wifi_Send_Result != WIFI_WAIT && Wifi_Send_Result != WIFI_SEND)
   \                     ??Wifi_TestProcess_16:
   \   000001D0   ....               LDR.N    R0,??DataTable28_51
   \   000001D2   0078               LDRB     R0,[R0, #+0]
   \   000001D4   0228               CMP      R0,#+2
   \   000001D6   08D0               BEQ.N    ??Wifi_TestProcess_17
   \   000001D8   ....               LDR.N    R0,??DataTable28_51
   \   000001DA   0078               LDRB     R0,[R0, #+0]
   \   000001DC   0128               CMP      R0,#+1
   \   000001DE   04D0               BEQ.N    ??Wifi_TestProcess_17
    330                              {
    331                                   TestWifiSend();
   \   000001E0   ........           BL       TestWifiSend
    332                                   Wifi_Send_Result = WIFI_SEND;
   \   000001E4   ....               LDR.N    R0,??DataTable28_51
   \   000001E6   0121               MOVS     R1,#+1
   \   000001E8   0170               STRB     R1,[R0, #+0]
    333                              }
    334                         }               
    335                    }// End of Swtich Case
    336                    break;
    337               } // ENd of Switch
    338          }
   \                     ??Wifi_TestProcess_17:
   \                     ??Wifi_TestProcess_11:
   \                     ??Wifi_TestProcess_0:
   \   000001EA   01BD               POP      {R0,PC}          ;; return

   \                                 In section .bss, align 2
   \                     ??Wifi_MainTimer:
   \   00000000                      DS8 2

   \                                 In section .bss, align 2
   \                     ??Wifi_MainTimer2:
   \   00000000                      DS8 2

   \                                 In section .bss, align 1
   \                     ??Connectting_Count:
   \   00000000                      DS8 1

   \                                 In section .bss, align 1
   \                     ??WaitTimeCount:
   \   00000000                      DS8 1

   \                                 In section .text, align 2, keep-with-next
    339          void RF_TestCommuncation(void)
    340          {
   \                     RF_TestCommuncation:
   \   00000000   10B5               PUSH     {R4,LR}
    341               u8 data;
    342               static u16 Rx_StartPoint = 0;
    343               static u16 Wait_Timer = 0;
    344               static u8 FirstReceive =0 ;
    345               u32 Answer;
    346               u32 Length;
    347          
    348               if(RF_Module.rxsp != RF_Module.rxep)
   \   00000002   ....               LDR.N    R0,??DataTable28_49
   \   00000004   B0F80004           LDRH     R0,[R0, #+1024]
   \   00000008   ....               LDR.N    R1,??DataTable28_49
   \   0000000A   B1F80214           LDRH     R1,[R1, #+1026]
   \   0000000E   8842               CMP      R0,R1
   \   00000010   5DD0               BEQ.N    ??RF_TestCommuncation_0
    349               {
    350                    data = RF_Module.rxbuf[RF_Module.rxsp++];
   \   00000012   ....               LDR.N    R0,??DataTable28_49
   \   00000014   B0F80004           LDRH     R0,[R0, #+1024]
   \   00000018   ....               LDR.N    R1,??DataTable28_49
   \   0000001A   445C               LDRB     R4,[R0, R1]
   \   0000001C   ....               LDR.N    R0,??DataTable28_49
   \   0000001E   B0F80004           LDRH     R0,[R0, #+1024]
   \   00000022   401C               ADDS     R0,R0,#+1
   \   00000024   ....               LDR.N    R1,??DataTable28_49
   \   00000026   A1F80004           STRH     R0,[R1, #+1024]
    351                    
    352                    if(WIFI_TestMode == 1)        // PC와 직접 통신모드
   \   0000002A   ....               LDR.N    R0,??DataTable28_47
   \   0000002C   0078               LDRB     R0,[R0, #+0]
   \   0000002E   0128               CMP      R0,#+1
   \   00000030   05D1               BNE.N    ??RF_TestCommuncation_1
    353                    {                
    354                         printf("%c",data);                 
   \   00000032   E4B2               UXTB     R4,R4            ;; ZeroExt  R4,R4,#+24,#+24
   \   00000034   2100               MOVS     R1,R4
   \   00000036   ....               ADR.N    R0,??DataTable28  ;; 0x25, 0x63, 0x00, 0x00
   \   00000038   ........           BL       printf
   \   0000003C   3DE0               B.N      ??RF_TestCommuncation_2
    355                    }
    356                    else 
    357                    {
    358                         if(IsTCP_Connect() == 0)      // 서버에 접속되어 있지 않다면   
   \                     ??RF_TestCommuncation_1:
   \   0000003E   ........           BL       IsTCP_Connect
   \   00000042   0028               CMP      R0,#+0
   \   00000044   0CD1               BNE.N    ??RF_TestCommuncation_3
    359                         {
    360                              if(FirstReceive == 0)
   \   00000046   ....               LDR.N    R0,??DataTable28_52
   \   00000048   0078               LDRB     R0,[R0, #+0]
   \   0000004A   0028               CMP      R0,#+0
   \   0000004C   1ED1               BNE.N    ??RF_TestCommuncation_4
    361                              {
    362                                   FirstReceive = 1;
   \   0000004E   ....               LDR.N    R0,??DataTable28_52
   \   00000050   0121               MOVS     R1,#+1
   \   00000052   0170               STRB     R1,[R0, #+0]
    363                                   Wait_Timer = MS_TIMER;        // 처음 수신을 받으면 1초간 대기
   \   00000054   ....               LDR.N    R0,??DataTable28_11  ;; 0x40000c00
   \   00000056   ........           BL       TIM_GetCounter
   \   0000005A   ....               LDR.N    R1,??DataTable28_53
   \   0000005C   0880               STRH     R0,[R1, #+0]
   \   0000005E   15E0               B.N      ??RF_TestCommuncation_4
    364                              } 
    365                         }
    366                         else if( data == 0x0a )       // 전문이 완료
   \                     ??RF_TestCommuncation_3:
   \   00000060   E4B2               UXTB     R4,R4            ;; ZeroExt  R4,R4,#+24,#+24
   \   00000062   0A2C               CMP      R4,#+10
   \   00000064   12D1               BNE.N    ??RF_TestCommuncation_4
    367                         { 
    368                              if( strstr( ( char * ) Rx_RFBuffer, "[OK]" ) != NULL )
   \   00000066   ........           ADR.W    R1,`?<Constant "[OK]">`
   \   0000006A   ....               LDR.N    R0,??DataTable28_54
   \   0000006C   ........           BL       strstr
   \   00000070   0028               CMP      R0,#+0
   \   00000072   02D0               BEQ.N    ??RF_TestCommuncation_5
    369                              {
    370                                   Wifi_OK = 1;
   \   00000074   ....               LDR.N    R0,??DataTable28_50
   \   00000076   0121               MOVS     R1,#+1
   \   00000078   0170               STRB     R1,[R0, #+0]
    371                              }
    372                              Rx_RFCount = 0;
   \                     ??RF_TestCommuncation_5:
   \   0000007A   ....               LDR.N    R0,??DataTable28_55
   \   0000007C   0021               MOVS     R1,#+0
   \   0000007E   0180               STRH     R1,[R0, #+0]
    373                              memset( Rx_RFBuffer, 0, sizeof(Rx_RFBuffer) );               
   \   00000080   4FF4FA72           MOV      R2,#+500
   \   00000084   0021               MOVS     R1,#+0
   \   00000086   ....               LDR.N    R0,??DataTable28_54
   \   00000088   ........           BL       memset
    374                         }
    375                         
    376                         Rx_RFBuffer[Rx_RFCount++] = data;
   \                     ??RF_TestCommuncation_4:
   \   0000008C   ....               LDR.N    R0,??DataTable28_55
   \   0000008E   0088               LDRH     R0,[R0, #+0]
   \   00000090   ....               LDR.N    R1,??DataTable28_54
   \   00000092   4454               STRB     R4,[R0, R1]
   \   00000094   ....               LDR.N    R0,??DataTable28_55
   \   00000096   0088               LDRH     R0,[R0, #+0]
   \   00000098   401C               ADDS     R0,R0,#+1
   \   0000009A   ....               LDR.N    R1,??DataTable28_55
   \   0000009C   0880               STRH     R0,[R1, #+0]
    377                         Rx_RFBuffer[Rx_RFCount] = 0;               
   \   0000009E   ....               LDR.N    R0,??DataTable28_55
   \   000000A0   0088               LDRH     R0,[R0, #+0]
   \   000000A2   ....               LDR.N    R1,??DataTable28_54
   \   000000A4   0022               MOVS     R2,#+0
   \   000000A6   4254               STRB     R2,[R0, R1]
    378                         
    379                         if(Rx_RFCount > 500)          // 오버플로어
   \   000000A8   ....               LDR.N    R0,??DataTable28_55
   \   000000AA   0088               LDRH     R0,[R0, #+0]
   \   000000AC   40F2F511           MOVW     R1,#+501
   \   000000B0   8842               CMP      R0,R1
   \   000000B2   02D3               BCC.N    ??RF_TestCommuncation_2
    380                              Rx_RFCount = 0;
   \   000000B4   ....               LDR.N    R0,??DataTable28_55
   \   000000B6   0021               MOVS     R1,#+0
   \   000000B8   0180               STRH     R1,[R0, #+0]
    381                         
    382                    }
    383                    if(RF_Module.rxsp >= MAX_SERIAL_BUF)   RF_Module.rxsp = 0 ;                
   \                     ??RF_TestCommuncation_2:
   \   000000BA   ....               LDR.N    R0,??DataTable28_49
   \   000000BC   B0F80004           LDRH     R0,[R0, #+1024]
   \   000000C0   B0F5806F           CMP      R0,#+1024
   \   000000C4   03D3               BCC.N    ??RF_TestCommuncation_0
   \   000000C6   ....               LDR.N    R0,??DataTable28_49
   \   000000C8   0021               MOVS     R1,#+0
   \   000000CA   A0F80014           STRH     R1,[R0, #+1024]
    384               }     
    385               if(!CheckTimeOver(1000,Wait_Timer))       // 없을 경우 
   \                     ??RF_TestCommuncation_0:
   \   000000CE   ....               LDR.N    R0,??DataTable28_53
   \   000000D0   0188               LDRH     R1,[R0, #+0]
   \   000000D2   4FF47A70           MOV      R0,#+1000
   \   000000D6   ........           BL       CheckTimeOver
   \   000000DA   0028               CMP      R0,#+0
   \   000000DC   1CD0               BEQ.N    ??RF_TestCommuncation_6
    386                    return;     
    387               if( FirstReceive == 1 )
   \                     ??RF_TestCommuncation_7:
   \   000000DE   ....               LDR.N    R0,??DataTable28_52
   \   000000E0   0078               LDRB     R0,[R0, #+0]
   \   000000E2   0128               CMP      R0,#+1
   \   000000E4   18D1               BNE.N    ??RF_TestCommuncation_8
    388               {
    389                    if( Rx_RFCount >= sizeof(Protocol_Rev))      // 수신된 데이터가 
   \   000000E6   ....               LDR.N    R0,??DataTable28_55
   \   000000E8   0088               LDRH     R0,[R0, #+0]
   \   000000EA   5428               CMP      R0,#+84
   \   000000EC   1AD2               BCS.N    ??RF_TestCommuncation_9
    390                    {
    391                         while(1)
    392                         {
    393                              if(Rx_StartPoint == Rx_RFCount)
    394                              {
    395                                   Wifi_Send_Result = WIFI_ERROR_RESEND;
    396                                   Rx_RFCount = 0;
    397                                   Rx_StartPoint = 0;
    398                                   memset( Rx_RFBuffer, 0, sizeof(Rx_RFBuffer) );  
    399                                   return ; 
    400                              }
    401                              memcpy( &Protocol_Rev, &Rx_RFBuffer[Rx_StartPoint],sizeof(Protocol_Rev) );
    402                              Length = ConvertInteger (Protocol_Rev.PacketSize);
    403                              if( Length >= 80)
    404                              {
    405                                   //                              memcpy( &Protocol_Rev, &Rx_RFBuffer[Rx_StartPoint],sizeof(Protocol_Rev) );
    406                                   if(Protocol_Rev.ServiceID[2] == 0x0f && Protocol_Rev.ServiceID[3] == 0xa1)
    407                                   {
    408                                        if(Protocol_Rev.Message.Parameter4.Name[0] == 'R' && Protocol_Rev.Message.Parameter4.Name[2] == 'S')
    409                                        {
    410                                             Answer = ConvertInteger(Protocol_Rev.Message.Parameter4.Result);
    411                                             if(Answer == 0 || Answer == 101)
    412                                             {
    413                                                  FirstReceive = 0;
    414                                                  Rx_StartPoint = 0;
    415                                                  Wifi_Send_Result = WIFI_SEND_OK;// 수신 완료 메세지
    416          
    417                                                  Voice_OutAdd(VOICE_STARTOVER);
    418                                                  Rx_RFCount = 0;               // 버퍼 클리어
    419                                                  memset( Rx_RFBuffer, 0, sizeof(Rx_RFBuffer) );        
    420                                                  return ;
    421                                             }
    422                                             else              // 서버 처리 끝나면 추가
    423                                             {
    424                                                  Wifi_Send_Result = WIFI_ERROR_RESEND;// 수신 완료 메세지
    425          //                                        NAND_Data_Transmit.Start_Page++;        // 다음페이지 저농
    426                                                  Rx_RFCount = 0;               // 버퍼 클리어
    427                                                  Rx_StartPoint = 0;
    428                                                  memset( Rx_RFBuffer, 0, sizeof(Rx_RFBuffer) );  
    429                                                  return;
    430                                             }
    431                                        }
    432                                   }
    433                              }
    434                              Rx_StartPoint++;                    
    435                         }         // end of while
    436                    }
    437                    else      // 정상 패킷보다 작다면 클리어 시킨다.
    438                    {
    439                         Wifi_Send_Result = WIFI_ERROR_RESEND;
   \   000000EE   ....               LDR.N    R0,??DataTable28_51
   \   000000F0   0321               MOVS     R1,#+3
   \   000000F2   0170               STRB     R1,[R0, #+0]
    440                         FirstReceive = 0;
   \   000000F4   ....               LDR.N    R0,??DataTable28_52
   \   000000F6   0021               MOVS     R1,#+0
   \   000000F8   0170               STRB     R1,[R0, #+0]
    441                         Rx_RFCount = 0;
   \   000000FA   ....               LDR.N    R0,??DataTable28_55
   \   000000FC   0021               MOVS     R1,#+0
   \   000000FE   0180               STRH     R1,[R0, #+0]
    442                         Rx_StartPoint = 0;
   \   00000100   ....               LDR.N    R0,??DataTable28_56
   \   00000102   0021               MOVS     R1,#+0
   \   00000104   0180               STRH     R1,[R0, #+0]
    443                         memset( Rx_RFBuffer, 0, sizeof(Rx_RFBuffer) );                 
   \   00000106   4FF4FA72           MOV      R2,#+500
   \   0000010A   0021               MOVS     R1,#+0
   \   0000010C   ....               LDR.N    R0,??DataTable28_54
   \   0000010E   ........           BL       memset
    444                    }
    445                    FirstReceive = 0;
   \   00000112   ....               LDR.N    R0,??DataTable28_52
   \   00000114   0021               MOVS     R1,#+0
   \   00000116   0170               STRB     R1,[R0, #+0]
    446               }
    447          }
   \                     ??RF_TestCommuncation_8:
   \                     ??RF_TestCommuncation_6:
   \   00000118   10BD               POP      {R4,PC}          ;; return
   \                     ??RF_TestCommuncation_10:
   \   0000011A   ....               LDR.N    R0,??DataTable28_56
   \   0000011C   0088               LDRH     R0,[R0, #+0]
   \   0000011E   401C               ADDS     R0,R0,#+1
   \   00000120   ....               LDR.N    R1,??DataTable28_56
   \   00000122   0880               STRH     R0,[R1, #+0]
   \                     ??RF_TestCommuncation_9:
   \   00000124   ....               LDR.N    R0,??DataTable28_56
   \   00000126   0088               LDRH     R0,[R0, #+0]
   \   00000128   ....               LDR.N    R1,??DataTable28_55
   \   0000012A   0988               LDRH     R1,[R1, #+0]
   \   0000012C   8842               CMP      R0,R1
   \   0000012E   0FD1               BNE.N    ??RF_TestCommuncation_11
   \   00000130   ....               LDR.N    R0,??DataTable28_51
   \   00000132   0321               MOVS     R1,#+3
   \   00000134   0170               STRB     R1,[R0, #+0]
   \   00000136   ....               LDR.N    R0,??DataTable28_55
   \   00000138   0021               MOVS     R1,#+0
   \   0000013A   0180               STRH     R1,[R0, #+0]
   \   0000013C   ....               LDR.N    R0,??DataTable28_56
   \   0000013E   0021               MOVS     R1,#+0
   \   00000140   0180               STRH     R1,[R0, #+0]
   \   00000142   4FF4FA72           MOV      R2,#+500
   \   00000146   0021               MOVS     R1,#+0
   \   00000148   ....               LDR.N    R0,??DataTable28_54
   \   0000014A   ........           BL       memset
   \   0000014E   E3E7               B.N      ??RF_TestCommuncation_6
   \                     ??RF_TestCommuncation_11:
   \   00000150   5422               MOVS     R2,#+84
   \   00000152   ....               LDR.N    R0,??DataTable28_56
   \   00000154   0088               LDRH     R0,[R0, #+0]
   \   00000156   ....               LDR.N    R1,??DataTable28_54
   \   00000158   4118               ADDS     R1,R0,R1
   \   0000015A   ....               LDR.N    R0,??DataTable28_57
   \   0000015C   ........           BL       memcpy
   \   00000160   ....               LDR.N    R0,??DataTable28_57
   \   00000162   ........           BL       ConvertInteger
   \   00000166   5028               CMP      R0,#+80
   \   00000168   D7D3               BCC.N    ??RF_TestCommuncation_10
   \   0000016A   ....               LDR.N    R0,??DataTable28_57
   \   0000016C   90F82700           LDRB     R0,[R0, #+39]
   \   00000170   0F28               CMP      R0,#+15
   \   00000172   D2D1               BNE.N    ??RF_TestCommuncation_10
   \   00000174   ....               LDR.N    R0,??DataTable28_57
   \   00000176   90F82800           LDRB     R0,[R0, #+40]
   \   0000017A   A128               CMP      R0,#+161
   \   0000017C   CDD1               BNE.N    ??RF_TestCommuncation_10
   \   0000017E   ....               LDR.N    R0,??DataTable28_57
   \   00000180   90F84500           LDRB     R0,[R0, #+69]
   \   00000184   5228               CMP      R0,#+82
   \   00000186   C8D1               BNE.N    ??RF_TestCommuncation_10
   \   00000188   ....               LDR.N    R0,??DataTable28_57
   \   0000018A   90F84700           LDRB     R0,[R0, #+71]
   \   0000018E   5328               CMP      R0,#+83
   \   00000190   C3D1               BNE.N    ??RF_TestCommuncation_10
   \   00000192   ....               LDR.N    R0,??DataTable28_58
   \   00000194   ........           BL       ConvertInteger
   \   00000198   0028               CMP      R0,#+0
   \   0000019A   01D0               BEQ.N    ??RF_TestCommuncation_12
   \   0000019C   6528               CMP      R0,#+101
   \   0000019E   15D1               BNE.N    ??RF_TestCommuncation_13
   \                     ??RF_TestCommuncation_12:
   \   000001A0   ....               LDR.N    R0,??DataTable28_52
   \   000001A2   0021               MOVS     R1,#+0
   \   000001A4   0170               STRB     R1,[R0, #+0]
   \   000001A6   ....               LDR.N    R0,??DataTable28_56
   \   000001A8   0021               MOVS     R1,#+0
   \   000001AA   0180               STRH     R1,[R0, #+0]
   \   000001AC   ....               LDR.N    R0,??DataTable28_51
   \   000001AE   0521               MOVS     R1,#+5
   \   000001B0   0170               STRB     R1,[R0, #+0]
   \   000001B2   0920               MOVS     R0,#+9
   \   000001B4   ........           BL       Voice_OutAdd
   \   000001B8   ....               LDR.N    R0,??DataTable28_55
   \   000001BA   0021               MOVS     R1,#+0
   \   000001BC   0180               STRH     R1,[R0, #+0]
   \   000001BE   4FF4FA72           MOV      R2,#+500
   \   000001C2   0021               MOVS     R1,#+0
   \   000001C4   ....               LDR.N    R0,??DataTable28_54
   \   000001C6   ........           BL       memset
   \   000001CA   A5E7               B.N      ??RF_TestCommuncation_6
   \                     ??RF_TestCommuncation_13:
   \   000001CC   ....               LDR.N    R0,??DataTable28_51
   \   000001CE   0321               MOVS     R1,#+3
   \   000001D0   0170               STRB     R1,[R0, #+0]
   \   000001D2   ....               LDR.N    R0,??DataTable28_55
   \   000001D4   0021               MOVS     R1,#+0
   \   000001D6   0180               STRH     R1,[R0, #+0]
   \   000001D8   ....               LDR.N    R0,??DataTable28_56
   \   000001DA   0021               MOVS     R1,#+0
   \   000001DC   0180               STRH     R1,[R0, #+0]
   \   000001DE   4FF4FA72           MOV      R2,#+500
   \   000001E2   0021               MOVS     R1,#+0
   \   000001E4   ....               LDR.N    R0,??DataTable28_54
   \   000001E6   ........           BL       memset
   \   000001EA   95E7               B.N      ??RF_TestCommuncation_6

   \                                 In section .bss, align 2
   \                     ??Rx_StartPoint:
   \   00000000                      DS8 2

   \                                 In section .bss, align 2
   \                     ??Wait_Timer:
   \   00000000                      DS8 2

   \                                 In section .bss, align 1
   \                     ??FirstReceive:
   \   00000000                      DS8 1

   \                                 In section .text, align 4, keep-with-next
   \                     ??DataTable27:
   \   00000000   41540D00           DC8      "AT\r"

   \                                 In section .text, align 4, keep-with-next
   \                     ??DataTable28:
   \   00000000   25630000           DC8      0x25, 0x63, 0x00, 0x00

   \                                 In section .text, align 4, keep-with-next
   \                     ??DataTable28_1:
   \   00000000   0CED00E0           DC32     0xe000ed0c

   \                                 In section .text, align 4, keep-with-next
   \                     ??DataTable28_2:
   \   00000000   0400FA05           DC32     0x5fa0004

   \                                 In section .text, align 4, keep-with-next
   \                     ??DataTable28_3:
   \   00000000   00100240           DC32     0x40021000

   \                                 In section .text, align 4, keep-with-next
   \                     ??DataTable28_4:
   \   00000000   00080240           DC32     0x40020800

   \                                 In section .text, align 4, keep-with-next
   \                     ??DataTable28_5:
   \   00000000   ........           DC32     OUTPUT_DATA

   \                                 In section .text, align 4, keep-with-next
   \                     ??DataTable28_6:
   \   00000000   00180240           DC32     0x40021800

   \                                 In section .text, align 4, keep-with-next
   \                     ??DataTable28_7:
   \   00000000   ........           DC32     ??KeyCount

   \                                 In section .text, align 4, keep-with-next
   \                     ??DataTable28_8:
   \   00000000   ........           DC32     ??isPush

   \                                 In section .text, align 4, keep-with-next
   \                     ??DataTable28_9:
   \   00000000   ........           DC32     ??OldKeyData

   \                                 In section .text, align 4, keep-with-next
   \                     ??DataTable28_10:
   \   00000000   ........           DC32     ??KeyTime

   \                                 In section .text, align 4, keep-with-next
   \                     ??DataTable28_11:
   \   00000000   000C0040           DC32     0x40000c00

   \                                 In section .text, align 4, keep-with-next
   \                     ??DataTable28_12:
   \   00000000   ........           DC32     KMap_Transmit_Count

   \                                 In section .text, align 4, keep-with-next
   \                     ??DataTable28_13:
   \   00000000   80969800           DC32     0x989680

   \                                 In section .text, align 4, keep-with-next
   \                     ??DataTable28_14:
   \   00000000   00002041           DC32     0x41200000

   \                                 In section .text, align 4, keep-with-next
   \                     ??DataTable28_15:
   \   00000000   ........           DC32     Buffer

   \                                 In section .text, align 4, keep-with-next
   \                     ??DataTable28_16:
   \   00000000   ........           DC32     DTG_LOOP

   \                                 In section .text, align 4, keep-with-next
   \                     ??DataTable28_17:
   \   00000000   ........           DC32     TLV_BUFFER+0x5

   \                                 In section .text, align 4, keep-with-next
   \                     ??DataTable28_18:
   \   00000000   ........           DC32     TLV_BUFFER+0xE

   \                                 In section .text, align 4, keep-with-next
   \                     ??DataTable28_19:
   \   00000000   ........           DC32     TLV_BUFFER+0x17

   \                                 In section .text, align 4, keep-with-next
   \                     ??DataTable28_20:
   \   00000000   ........           DC32     ACC_Drive_Value

   \                                 In section .text, align 4, keep-with-next
   \                     ??DataTable28_21:
   \   00000000   ........           DC32     TLV_BUFFER+0x1E

   \                                 In section .text, align 4, keep-with-next
   \                     ??DataTable28_22:
   \   00000000   ........           DC32     TLV_BUFFER+0x25

   \                                 In section .text, align 4, keep-with-next
   \                     ??DataTable28_23:
   \   00000000   ........           DC32     TLV_BUFFER+0x2C

   \                                 In section .text, align 4, keep-with-next
   \                     ??DataTable28_24:
   \   00000000   ........           DC32     TLV_BUFFER+0x33

   \                                 In section .text, align 4, keep-with-next
   \                     ??DataTable28_25:
   \   00000000   ........           DC32     TLV_BUFFER+0x3A

   \                                 In section .text, align 4, keep-with-next
   \                     ??DataTable28_26:
   \   00000000   ........           DC32     TLV_BUFFER+0x41

   \                                 In section .text, align 4, keep-with-next
   \                     ??DataTable28_27:
   \   00000000   ........           DC32     TLV_BUFFER+0x4A

   \                                 In section .text, align 4, keep-with-next
   \                     ??DataTable28_28:
   \   00000000   ........           DC32     TLV_BUFFER+0x53

   \                                 In section .text, align 4, keep-with-next
   \                     ??DataTable28_29:
   \   00000000   ........           DC32     TLV_BUFFER

   \                                 In section .text, align 4, keep-with-next
   \                     ??DataTable28_30:
   \   00000000   ........           DC32     TLV_LOOP

   \                                 In section .text, align 4, keep-with-next
   \                     ??DataTable28_31:
   \   00000000   ........           DC32     Trans_PageCount

   \                                 In section .text, align 4, keep-with-next
   \                     ??DataTable28_32:
   \   00000000   ........           DC32     ??SeqeunMsg

   \                                 In section .text, align 4, keep-with-next
   \                     ??DataTable28_33:
   \   00000000   ........           DC32     KMapSend+0x29

   \                                 In section .text, align 4, keep-with-next
   \                     ??DataTable28_34:
   \   00000000   ........           DC32     KMapSend+0x60

   \                                 In section .text, align 4, keep-with-next
   \                     ??DataTable28_35:
   \   00000000   ........           DC32     KMapSend+0x31

   \                                 In section .text, align 4, keep-with-next
   \                     ??DataTable28_36:
   \   00000000   ........           DC32     KMapSend+0x48

   \                                 In section .text, align 4, keep-with-next
   \                     ??DataTable28_37:
   \   00000000   ........           DC32     KMapSend_Div+0x7

   \                                 In section .text, align 4, keep-with-next
   \                     ??DataTable28_38:
   \   00000000   ........           DC32     KMapSend

   \                                 In section .text, align 4, keep-with-next
   \                     ??DataTable28_39:
   \   00000000   ........           DC32     Tx_RFBuffer

   \                                 In section .text, align 4, keep-with-next
   \                     ??DataTable28_40:
   \   00000000   ........           DC32     KMapSend_Div

   \                                 In section .text, align 4, keep-with-next
   \                     ??DataTable28_41:
   \   00000000   ........           DC32     ??Wifi_MainTimer2

   \                                 In section .text, align 4, keep-with-next
   \                     ??DataTable28_42:
   \   00000000   ........           DC32     Flag

   \                                 In section .text, align 4, keep-with-next
   \                     ??DataTable28_43:
   \   00000000   ........           DC32     ??Wifi_MainTimer

   \                                 In section .text, align 4, keep-with-next
   \                     ??DataTable28_44:
   \   00000000   ........           DC32     ??Connectting_Count

   \                                 In section .text, align 4, keep-with-next
   \                     ??DataTable28_45:
   \   00000000   ........           DC32     Info

   \                                 In section .text, align 4, keep-with-next
   \                     ??DataTable28_46:
   \   00000000   ........           DC32     Wifi_Result

   \                                 In section .text, align 4, keep-with-next
   \                     ??DataTable28_47:
   \   00000000   ........           DC32     WIFI_TestMode

   \                                 In section .text, align 4, keep-with-next
   \                     ??DataTable28_48:
   \   00000000   ........           DC32     ??WaitTimeCount

   \                                 In section .text, align 4, keep-with-next
   \                     ??DataTable28_49:
   \   00000000   ........           DC32     RF_Module

   \                                 In section .text, align 4, keep-with-next
   \                     ??DataTable28_50:
   \   00000000   ........           DC32     Wifi_OK

   \                                 In section .text, align 4, keep-with-next
   \                     ??DataTable28_51:
   \   00000000   ........           DC32     Wifi_Send_Result

   \                                 In section .text, align 4, keep-with-next
   \                     ??DataTable28_52:
   \   00000000   ........           DC32     ??FirstReceive

   \                                 In section .text, align 4, keep-with-next
   \                     ??DataTable28_53:
   \   00000000   ........           DC32     ??Wait_Timer

   \                                 In section .text, align 4, keep-with-next
   \                     ??DataTable28_54:
   \   00000000   ........           DC32     Rx_RFBuffer

   \                                 In section .text, align 4, keep-with-next
   \                     ??DataTable28_55:
   \   00000000   ........           DC32     Rx_RFCount

   \                                 In section .text, align 4, keep-with-next
   \                     ??DataTable28_56:
   \   00000000   ........           DC32     ??Rx_StartPoint

   \                                 In section .text, align 4, keep-with-next
   \                     ??DataTable28_57:
   \   00000000   ........           DC32     Protocol_Rev

   \                                 In section .text, align 4, keep-with-next
   \                     ??DataTable28_58:
   \   00000000   ........           DC32     Protocol_Rev+0x4C

   \                                 In section .text, align 4, keep-with-next
   \                     `?<Constant {0}>`:
   \   00000000                      ; Initializer data, 4 bytes
   \   00000000   00000000           DC8 0, 0, 0, 0

   \                                 In section .text, align 4, keep-with-next
   \                     `?<Constant "%02d%02d%02d%02d%02d%...">`:
   \   00000000                      ; Initializer data, 84 bytes
   \   00000000   253032642530       DC8 37, 48, 50, 100, 37, 48, 50, 100, 37, 48
   \              32642530    
   \   0000000A   326425303264       DC8 50, 100, 37, 48, 50, 100, 37, 48, 50, 100
   \              25303264    
   \   00000014   253032643030       DC8 37, 48, 50, 100, 48, 48, 37, 48, 52, 100
   \              25303464    
   \   0000001E   253037642530       DC8 37, 48, 55, 100, 37, 48, 51, 100, 37, 48
   \              33642530    
   \   00000028   346425642530       DC8 52, 100, 37, 100, 37, 48, 52, 46, 49, 102
   \              342E3166    
   \   00000032   253039642530       DC8 37, 48, 57, 100, 37, 48, 57, 100, 37, 48
   \              39642530    
   \   0000003C   3364252B3036       DC8 51, 100, 37, 43, 48, 54, 46, 49, 102, 37
   \              2E316625    
   \   00000046   2B30362E3166       DC8 43, 48, 54, 46, 49, 102, 37, 48, 50, 100
   \              25303264    
   \   00000050   00000000           DC8 0, 0, 0, 0

   \                                 In section .text, align 4, keep-with-next
   \                     `?<Constant "AT\\r">`:
   \   00000000                      ; Initializer data, 4 bytes
   \   00000000   41540D00           DC8 65, 84, 13, 0

   \                                 In section .text, align 4, keep-with-next
   \                     `?<Constant "+++\\r">`:
   \   00000000                      ; Initializer data, 8 bytes
   \   00000000   2B2B2B0D0000       DC8 43, 43, 43, 13, 0, 0, 0, 0
   \              0000        

   \                                 In section .text, align 4, keep-with-next
   \                     `?<Constant "ATA\\r">`:
   \   00000000                      ; Initializer data, 8 bytes
   \   00000000   4154410D0000       DC8 65, 84, 65, 13, 0, 0, 0, 0
   \              0000        

   \                                 In section .text, align 4, keep-with-next
   \                     `?<Constant "%c">`:
   \   00000000                      ; Initializer data, 4 bytes
   \   00000000   25630000           DC8 37, 99, 0, 0

   \                                 In section .text, align 4, keep-with-next
   \                     `?<Constant "[OK]">`:
   \   00000000                      ; Initializer data, 8 bytes
   \   00000000   5B4F4B5D0000       DC8 91, 79, 75, 93, 0, 0, 0, 0
   \              0000        
    448          
    449          
    450          /*
    451          u8 ModaSend(u32 PageNum)
    452          {
    453               u16 i;
    454               u16 DataSize;
    455               static u32 SeqeunMsg = 1;
    456               struct _BIN_NAND_DTG_DATA DTG_Binary;
    457               EMS_DRIVE_VALUE EMS_Drive_Temp;      
    458               struct _DTG_LOOP DTG_LOOP[MAX_DTG_DATA];
    459               if(KMap_Transmit_Count == 0 )    
    460               {
    461                    DTG_EMS_DataLoad(PageNum);
    462                    DataSize = sizeof(DTG_Binary);    
    463                    
    464                    TM_Struct  datetime;
    465                    KMap_Transmit_Count = 0;
    466                    
    467                    memcpy( &EMS_Drive_Temp, &NAND_Buffer, EMS_SIZE );
    468                    
    469                    for ( i = 0 ; i < 5 ; i ++ )     
    470                    {              
    471          
    472                         IWDG_ReloadCounter();                   // Clear IWDG
    473                         memcpy( &DTG_Binary, &NAND_Buffer[ ( EMS_SIZE + ( i * DataSize ) ) ], DataSize );
    474                         RTC_BinaryToDate(DTG_Binary.Datetime,&datetime);
    475                         sprintf((char*)Buffer,
    476                            "%02d%02d%02d%02d%02d%02d00"
    477                            "%04d%07d%03d%04d%d%04.1f"
    478                            "%09d%09d%03d%+06.1f%+06.1f%02d",                  
    479                            datetime.tm_year-2000,datetime.tm_mon,datetime.tm_mday,
    480                            datetime.tm_hour,datetime.tm_min,datetime.tm_sec,
    481                            DTG_Binary.DayDriveLength%10000,
    482                            DTG_Binary.TotalDriveLength%10000000,
    483                            DTG_Binary.Speed%1000,
    484                            DTG_Binary.RPM%10000,
    485                            DTG_Binary.Sign_Break%10,
    486                            (float)DTG_Binary.Ems_Data.Gps_HDOP/10,
    487                            DTG_Binary.GPSX,
    488                            DTG_Binary.GPSY,
    489                            DTG_Binary.Azimuth%1000,
    490                            (float)DTG_Binary.AccelX*0.0098,
    491                            (float)DTG_Binary.AccelY*0.0098,
    492                            DTG_Binary.MachineStatus
    493                                 );
    494                         memcpy(&DTG_LOOP[i],Buffer,sizeof(struct _DTG_LOOP));              
    495                    }     
    496                    ConvertString( KMapSend.Message.Seq,SeqeunMsg++);
    497                   
    498          //          sprintf((char*)Buffer,"%03d",( DTG_Binary.Ems_Data.CoolWaterTemp_Volt /100) % 1000);        // 냉각수
    499          //          memcpy(&KMapSend_Div.Parameter3.TLV_DATA.Data1,Buffer,3);          
    500          //          sprintf((char*)Buffer,"%03d", (DTG_Binary.Ems_Data.Battery_Volt/100)%1000);        // 배터리
    501          //          memcpy(&KMapSend_Div.Parameter3.TLV_DATA.Data2,Buffer,3);          
    502          //          sprintf((char*)Buffer,"%03d", (DTG_Binary.Ems_Data.AirPressure_Volt /100) %1000);        // 에어
    503          //          memcpy(&KMapSend_Div.Parameter3.TLV_DATA.Data3,Buffer,3);          
    504          //          sprintf((char*)Buffer,"%03d", (DTG_Binary.Ems_Data.Fuel_Volt/100)% 1000);        // 연료     
    505          //          memcpy(&KMapSend_Div.Parameter3.TLV_DATA.Data4,Buffer,3);          
    506          
    507                    memset( Tx_RFBuffer, 0, sizeof (Tx_RFBuffer) );
    508                    
    509                    KMap_Transmit_Count += sizeof(KMapSend);
    510                    memcpy(&Tx_RFBuffer,&KMapSend, KMap_Transmit_Count);          // 전송해야될 데이타 크기
    511                    return 1;
    512               }
    513               return 0;
    514          }
    515          */

   Maximum stack usage in bytes:

     Function            .cstack
     --------            -------
     IsKey_DOWN               8
     IsKey_ECO                8
     IsKey_ESC                8
     IsKey_MODE               8
     IsKey_OK                 8
     IsKey_UP                 8
     IsTCP_Connect            8
     NVIC_SystemReset         0
     RESET_AIRCON             8
     RESET_ENGINE_OFF         8
     RESET_ENGINE_ON          8
     RESET_HITER              8
     RESET_LIGHT              8
     RF_TestCommuncation      8
     SET_AIRCON               8
     SET_ENGINE_OFF           8
     SET_ENGINE_ON            8
     SET_LIGHT                8
     TestGetKey               8
     TestKey                  8
     TestWifiSend           264
     Wifi_TestProcess         8
     memcpy                   8
     memset                   8
     strstr                   8


   Section sizes:

     Function/Label                         Bytes
     --------------                         -----
     NVIC_SystemReset                         28
     memcpy                                   14
     memset                                   20
     strstr                                    8
     IsTCP_Connect                            24
     IsKey_ECO                                24
     IsKey_MODE                               24
     IsKey_UP                                 24
     IsKey_DOWN                               24
     IsKey_OK                                 24
     IsKey_ESC                                26
     SET_ENGINE_ON                            32
     RESET_ENGINE_ON                          32
     SET_ENGINE_OFF                           32
     RESET_ENGINE_OFF                         32
     SET_AIRCON                               30
     RESET_AIRCON                             30
     SET_LIGHT                                32
     RESET_LIGHT                              32
     RESET_HITER                              30
     TestGetKey                              214
     KeyCount                                  2
     OldKeyData                                1
     isPush                                    1
     TestKey                                 122
     KeyTime                                   2
     TestWifiSend                            772
     SeqeunMsg                                 4
     Wifi_TestProcess                        492
     Wifi_MainTimer                            2
     Wifi_MainTimer2                           2
     Connectting_Count                         1
     WaitTimeCount                             1
     RF_TestCommuncation                     492
     Rx_StartPoint                             2
     Wait_Timer                                2
     FirstReceive                              1
     ??DataTable27                             4
     ??DataTable28                             4
     ??DataTable28_1                           4
     ??DataTable28_2                           4
     ??DataTable28_3                           4
     ??DataTable28_4                           4
     ??DataTable28_5                           4
     ??DataTable28_6                           4
     ??DataTable28_7                           4
     ??DataTable28_8                           4
     ??DataTable28_9                           4
     ??DataTable28_10                          4
     ??DataTable28_11                          4
     ??DataTable28_12                          4
     ??DataTable28_13                          4
     ??DataTable28_14                          4
     ??DataTable28_15                          4
     ??DataTable28_16                          4
     ??DataTable28_17                          4
     ??DataTable28_18                          4
     ??DataTable28_19                          4
     ??DataTable28_20                          4
     ??DataTable28_21                          4
     ??DataTable28_22                          4
     ??DataTable28_23                          4
     ??DataTable28_24                          4
     ??DataTable28_25                          4
     ??DataTable28_26                          4
     ??DataTable28_27                          4
     ??DataTable28_28                          4
     ??DataTable28_29                          4
     ??DataTable28_30                          4
     ??DataTable28_31                          4
     ??DataTable28_32                          4
     ??DataTable28_33                          4
     ??DataTable28_34                          4
     ??DataTable28_35                          4
     ??DataTable28_36                          4
     ??DataTable28_37                          4
     ??DataTable28_38                          4
     ??DataTable28_39                          4
     ??DataTable28_40                          4
     ??DataTable28_41                          4
     ??DataTable28_42                          4
     ??DataTable28_43                          4
     ??DataTable28_44                          4
     ??DataTable28_45                          4
     ??DataTable28_46                          4
     ??DataTable28_47                          4
     ??DataTable28_48                          4
     ??DataTable28_49                          4
     ??DataTable28_50                          4
     ??DataTable28_51                          4
     ??DataTable28_52                          4
     ??DataTable28_53                          4
     ??DataTable28_54                          4
     ??DataTable28_55                          4
     ??DataTable28_56                          4
     ??DataTable28_57                          4
     ??DataTable28_58                          4
     ?<Constant {0}>                           4
     ?<Constant "%02d%02d%02d%02d%02d%...">   84
     ?<Constant "AT\r">                        4
     ?<Constant "+++\r">                       8
     ?<Constant "ATA\r">                       8
     ?<Constant "%c">                          4
     ?<Constant "[OK]">                        8

 
    17 bytes in section .bss
     4 bytes in section .data
 2 974 bytes in section .text
 
 2 932 bytes of CODE memory (+ 42 bytes shared)
    21 bytes of DATA memory

Errors: none
Warnings: none
