###############################################################################
#                                                                             #
# IAR ANSI C/C++ Compiler V6.10.1.52143/W32 for ARM     19/Jan/2012  11:09:07 #
# Copyright 1999-2010 IAR Systems AB.                                         #
#                                                                             #
#    Cpu mode     =  thumb                                                    #
#    Endian       =  little                                                   #
#    Source file  =  F:\Work\S&G2000\Firmware\DTG_EMS_SYSTEM\Project\Wifi.c   #
#    Command line =  F:\Work\S&G2000\Firmware\DTG_EMS_SYSTEM\Project\Wifi.c   #
#                    -D USE_STDPERIPH_DRIVER -D STM32F2XX -D                  #
#                    USE_STM3220F_EVAL -D USE_USB_OTG_FS -D                   #
#                    RTC_CLOCK_SOURCE_LSE -lC F:\Work\S&G2000\Firmware\DTG_EM #
#                    S_SYSTEM\Project\EWARM\STM3220F_EVAL\List\ -lA           #
#                    F:\Work\S&G2000\Firmware\DTG_EMS_SYSTEM\Project\EWARM\ST #
#                    M3220F_EVAL\List\ -o F:\Work\S&G2000\Firmware\DTG_EMS_SY #
#                    STEM\Project\EWARM\STM3220F_EVAL\Obj\ --no_cse           #
#                    --no_unroll --no_inline --no_code_motion --no_tbaa       #
#                    --no_clustering --no_scheduling --debug --endian=little  #
#                    --cpu=Cortex-M3 -e --fpu=None --dlib_config "C:\Program  #
#                    Files\IAR Systems\Embedded Workbench                     #
#                    6.0\arm\INC\c\DLib_Config_Full.h" -I                     #
#                    F:\Work\S&G2000\Firmware\DTG_EMS_SYSTEM\Project\EWARM\.. #
#                    \ -I F:\Work\S&G2000\Firmware\DTG_EMS_SYSTEM\Project\EWA #
#                    RM\..\..\Libraries\CMSIS\CM3\CoreSupport\ -I             #
#                    F:\Work\S&G2000\Firmware\DTG_EMS_SYSTEM\Project\EWARM\.. #
#                    \..\Libraries\CMSIS\CM3\DeviceSupport\ST\STM32F2xx\ -I   #
#                    F:\Work\S&G2000\Firmware\DTG_EMS_SYSTEM\Project\EWARM\.. #
#                    \..\Libraries\STM32F2xx_StdPeriph_Driver\inc\ -I         #
#                    F:\Work\S&G2000\Firmware\DTG_EMS_SYSTEM\Project\EWARM\.. #
#                    \..\Utilities\STM32_EVAL\ -I                             #
#                    F:\Work\S&G2000\Firmware\DTG_EMS_SYSTEM\Project\EWARM\.. #
#                    \..\Utilities\STM32_EVAL\Common\ -I                      #
#                    F:\Work\S&G2000\Firmware\DTG_EMS_SYSTEM\Project\EWARM\.. #
#                    \..\Utilities\STM32_EVAL\STM3220F_EVAL\ -I               #
#                    F:\Work\S&G2000\Firmware\DTG_EMS_SYSTEM\Project\EWARM\.. #
#                    \..\Libraries\STM32_USB_OTG_Driver\inc\ -I               #
#                    F:\Work\S&G2000\Firmware\DTG_EMS_SYSTEM\Project\EWARM\.. #
#                    \..\Libraries\STM32_USB_Device_Library\Core\inc\ -I      #
#                    F:\Work\S&G2000\Firmware\DTG_EMS_SYSTEM\Project\EWARM\.. #
#                    \..\Libraries\STM32_USB_Device_Library\Class\msc\inc\    #
#                    -I F:\Work\S&G2000\Firmware\DTG_EMS_SYSTEM\Project\EWARM #
#                    \..\Usb\ -I F:\Work\S&G2000\Firmware\DTG_EMS_SYSTEM\Proj #
#                    ect\EWARM\..\Usb\Inc\ -I F:\Work\S&G2000\Firmware\DTG_EM #
#                    S_SYSTEM\Project\EWARM\..\Usb\src\ -I                    #
#                    F:\Work\S&G2000\Firmware\DTG_EMS_SYSTEM\Project\EWARM\.. #
#                    \..\Libraries\STM32_USB_HOST_Library\Core\inc\ -I        #
#                    F:\Work\S&G2000\Firmware\DTG_EMS_SYSTEM\Project\EWARM\.. #
#                    \..\Libraries\STM32_USB_HOST_Library\Class\MSC\inc\ -I   #
#                    F:\Work\S&G2000\Firmware\DTG_EMS_SYSTEM\Project\EWARM\.. #
#                    \..\Libraries\STM32_USB_Device_Library\Class\cdc\inc\    #
#                    -Ol --use_c++_inline                                     #
#    List file    =  F:\Work\S&G2000\Firmware\DTG_EMS_SYSTEM\Project\EWARM\ST #
#                    M3220F_EVAL\List\Wifi.lst                                #
#    Object file  =  F:\Work\S&G2000\Firmware\DTG_EMS_SYSTEM\Project\EWARM\ST #
#                    M3220F_EVAL\Obj\Wifi.o                                   #
#                                                                             #
#                                                                             #
###############################################################################

F:\Work\S&G2000\Firmware\DTG_EMS_SYSTEM\Project\Wifi.c
      1          
      2          #include "main.h"

   \                                 In section .text, align 2
   \   __intrinsic __interwork __softfp void *memcpy(void *, void const *, size_t)
   \                     memcpy:
   \   00000000   10B5               PUSH     {R4,LR}
   \   00000002   0400               MOVS     R4,R0
   \   00000004   2000               MOVS     R0,R4
   \   00000006   ........           BL       __aeabi_memcpy
   \   0000000A   2000               MOVS     R0,R4
   \   0000000C   10BD               POP      {R4,PC}          ;; return

   \                                 In section .text, align 2
   \   __intrinsic __interwork __softfp void *memset(void *, int, size_t)
   \                     memset:
   \   00000000   10B5               PUSH     {R4,LR}
   \   00000002   0400               MOVS     R4,R0
   \   00000004   1000               MOVS     R0,R2
   \   00000006   0A00               MOVS     R2,R1
   \   00000008   0100               MOVS     R1,R0
   \   0000000A   2000               MOVS     R0,R4
   \   0000000C   ........           BL       __aeabi_memset
   \   00000010   2000               MOVS     R0,R4
   \   00000012   10BD               POP      {R4,PC}          ;; return

   \                                 In section .text, align 2
   \   __intrinsic __interwork __softfp char *strstr(char const *, char const *)
   \                     strstr:
   \   00000000   80B5               PUSH     {R7,LR}
   \   00000002   ........           BL       __iar_Strstr
   \   00000006   02BD               POP      {R1,PC}          ;; return
      3          #include "wifi.h"

   \                                 In section .text, align 2, keep-with-next
   \   static __interwork __softfp uint8_t IsTCP_Connect(void)
   \                     IsTCP_Connect:
   \   00000000   80B5               PUSH     {R7,LR}
   \   00000002   0121               MOVS     R1,#+1
   \   00000004   ........           LDR.W    R0,??DataTable34  ;; 0x40021000
   \   00000008   ........           BL       GPIO_ReadInputDataBit
   \   0000000C   0128               CMP      R0,#+1
   \   0000000E   01D1               BNE.N    ??IsTCP_Connect_0
   \   00000010   0120               MOVS     R0,#+1
   \   00000012   00E0               B.N      ??IsTCP_Connect_1
   \                     ??IsTCP_Connect_0:
   \   00000014   0020               MOVS     R0,#+0
   \                     ??IsTCP_Connect_1:
   \   00000016   02BD               POP      {R1,PC}          ;; return

   \                                 In section .text, align 2, keep-with-next
   \   static __interwork __softfp void WIFI_RESET_ON(void)
   \                     WIFI_RESET_ON:
   \   00000000   80B5               PUSH     {R7,LR}
   \   00000002   0821               MOVS     R1,#+8
   \   00000004   ........           LDR.W    R0,??DataTable34_1  ;; 0x40020c00
   \   00000008   ........           BL       GPIO_SetBits
   \   0000000C   01BD               POP      {R0,PC}          ;; return

   \                                 In section .text, align 2, keep-with-next
   \   static __interwork __softfp void WIFI_RESET_OFF(void)
   \                     WIFI_RESET_OFF:
   \   00000000   80B5               PUSH     {R7,LR}
   \   00000002   0821               MOVS     R1,#+8
   \   00000004   ........           LDR.W    R0,??DataTable34_1  ;; 0x40020c00
   \   00000008   ........           BL       GPIO_ResetBits
   \   0000000C   01BD               POP      {R0,PC}          ;; return
      4          #include "Serial.h"
      5          #include "Memory.h"
      6          #include "fsmc_nand.h"
      7          #include "rtc.h"
      8          #include "Key_Process.h"
      9          #include "Voice.h"

   \                                 In section .bss, align 4
     10          struct _TLV_DATA TLV_BUFFER;
   \                     TLV_BUFFER:
   \   00000000                      DS8 88

   \                                 In section .bss, align 4
     11          struct _TLV_DATA TLV_LOOP[MAX_DTG_DATA];
   \                     TLV_LOOP:
   \   00000000                      DS8 7652

   \                                 In section .bss, align 4
     12          struct _DTG_LOOP DTG_LOOP[MAX_DTG_DATA];
   \                     DTG_LOOP:
   \   00000000                      DS8 6480

   \                                 In section .bss, align 4
     13          u8 Tx_RFBuffer[7000];
   \                     Tx_RFBuffer:
   \   00000000                      DS8 7000

   \                                 In section .bss, align 4
     14          u8 Rx_RFBuffer[500];
   \                     Rx_RFBuffer:
   \   00000000                      DS8 500

   \                                 In section .bss, align 2
     15          u16 Rx_RFCount;
   \                     Rx_RFCount:
   \   00000000                      DS8 2

   \                                 In section .bss, align 2
     16          u16 Wifi_Timer;
   \                     Wifi_Timer:
   \   00000000                      DS8 2
     17          

   \                                 In section .bss, align 1
     18          u8 Wifi_OK;
   \                     Wifi_OK:
   \   00000000                      DS8 1

   \                                 In section .bss, align 1
     19          _WIFI_SEND Wifi_Send_Result;
   \                     Wifi_Send_Result:
   \   00000000                      DS8 1

   \                                 In section .bss, align 4
     20          _Protocol_Rev Protocol_Rev;
   \                     Protocol_Rev:
   \   00000000                      DS8 84

   \                                 In section .bss, align 1
     21          WIFI_RESULT Wifi_Result ;
   \                     Wifi_Result:
   \   00000000                      DS8 1
     22          

   \                                 In section .bss, align 2
     23          u16 Trans_PageCount;
   \                     Trans_PageCount:
   \   00000000                      DS8 2
     24          
     25          //Protocol KMapSend;

   \                                 In section .bss, align 4
     26          _Protocol_Div1 KMapSend;
   \                     KMapSend:
   \   00000000                      DS8 104

   \                                 In section .bss, align 4
     27          _Protocol_Div2 KMapSend_Div;
   \                     KMapSend_Div:
   \   00000000                      DS8 12
     28          

   \                                 In section .data, align 4
     29          const char *Wifi_SettingString[20] = {
   \                     Wifi_SettingString:
   \   00000000   ............       DC32 `?<Constant "AT\\r">`, `?<Constant "+++\\r">`
   \              ....        
   \   00000008   ............       DC32 `?<Constant "AT+WS=\\r">`, `?<Constant "AT+WD\\r">`
   \              ....        
   \   00000010   ............       DC32 `?<Constant "AT+WAUTH=0\\r">`, `?<Constant "AT+NDHCP=1\\r">`
   \              ....        
   \   00000018   ............       DC32 `?<Constant "AT+XDUM=1\\r">`, `?<Constant "AT+XEHT=0\\r">`
   \              ....        
   \   00000020   ............       DC32 `?<Constant "ATC0\\r">`, `?<Constant "AT+NAUTO=0,1,">`
   \              ....        
   \   00000028   ............       DC32 `?<Constant "AT+WAUTO=0,">`, `?<Constant "AT+WWPA=">`
   \              ....        
   \   00000030   ............       DC32 `?<Constant "AT&W0\\r">`, `?<Constant "ATA\\r">`
   \              ....        
   \   00000038   ........           DC32 `?<Constant "AT+WA=">`
   \   0000003C   000000000000       DC8 0, 0, 0, 0, 0, 0, 0, 0, 0, 0, 0, 0, 0, 0, 0, 0, 0, 0, 0, 0
   \              000000000000
   \              000000000000
   \              0000        
     30               "AT\r",                                      // 0 와이파이 접속 확인 응답 [ OK ]
     31               "+++\r",                                     // 1 컴앤드 모드
     32               "AT+WS=\r",                                  // 2 스캔모드
     33               "AT+WD\r",                                   // 3 기존연결 종료
     34               "AT+WAUTH=0\r",                              // 4 Authentication mode setting; 0 = NONE 1 = OPEN 2 = Shared Wite WEP
     35               "AT+NDHCP=1\r",                              // 5 DHCP 설정 0 disable 1 = Enable
     36               "AT+XDUM=1\r",                               // 6 UART Message is 1 = Disable  / 0 = Enable
     37               "AT+XEHT=0\r",                               // 7 Disable HardWare Trigger is 0 = Disable  / 1 = Enable
     38               "ATC0\r",                                    // 8 AutoConnect 0 = Disable /  1 = Enable
     39               "AT+NAUTO=0,1,",								// 9 접속 IP설정하기     
     40               "AT+WAUTO=0,",									// 10 "AT+WAUTO=0,U+NetF1F3\r", SSID 설정
     41               "AT+WWPA=",									// 11 "AT+WWPA=12345678\r",// 암호설정
     42               "AT&W0\r",										// 12 Save ProFile
     43               "ATA\r",                                     // 13 Auto Connection Mode
     44               "AT+WA=",                                     // 14 Only AP Connect 
     45          };

   \                                 In section .text, align 2, keep-with-next
     46          void Wifi_Reset(void)
     47          {
   \                     Wifi_Reset:
   \   00000000   80B5               PUSH     {R7,LR}
     48               WIFI_RESET_OFF();     
   \   00000002   ........           BL       WIFI_RESET_OFF
     49               Delay(10);    
   \   00000006   0A20               MOVS     R0,#+10
   \   00000008   ........           BL       Delay
     50               WIFI_RESET_ON();     
   \   0000000C   ........           BL       WIFI_RESET_ON
     51          }
   \   00000010   01BD               POP      {R0,PC}          ;; return

   \                                 In section .text, align 2, keep-with-next
     52          void Wifi_Config(void)
     53          {
   \                     Wifi_Config:
   \   00000000   00B5               PUSH     {LR}
   \   00000002   83B0               SUB      SP,SP,#+12
     54               // 추후에 핀변경
     55               GPIO_InitTypeDef GPIO_InitStructure;
     56               // 음성칩 포트 초기화 
     57               RCC_AHB1PeriphClockCmd(WIFI_AP_CONNECT_CLK, ENABLE);
   \   00000004   0121               MOVS     R1,#+1
   \   00000006   1020               MOVS     R0,#+16
   \   00000008   ........           BL       RCC_AHB1PeriphClockCmd
     58               GPIO_InitStructure.GPIO_Pin = WIFI_AP_CONNECT_PIN | WIFI_TCP_CONNECT_PIN ;
   \   0000000C   0320               MOVS     R0,#+3
   \   0000000E   0090               STR      R0,[SP, #+0]
     59               GPIO_InitStructure.GPIO_OType = GPIO_OType_PP;  
   \   00000010   0020               MOVS     R0,#+0
   \   00000012   8DF80600           STRB     R0,[SP, #+6]
     60               GPIO_InitStructure.GPIO_Mode = GPIO_Mode_IN;
   \   00000016   0020               MOVS     R0,#+0
   \   00000018   8DF80400           STRB     R0,[SP, #+4]
     61               GPIO_InitStructure.GPIO_PuPd = GPIO_PuPd_NOPULL ;
   \   0000001C   0020               MOVS     R0,#+0
   \   0000001E   8DF80700           STRB     R0,[SP, #+7]
     62               GPIO_Init(WIFI_AP_CONNECT_PORT, &GPIO_InitStructure);  
   \   00000022   00A9               ADD      R1,SP,#+0
   \   00000024   ........           LDR.W    R0,??DataTable34  ;; 0x40021000
   \   00000028   ........           BL       GPIO_Init
     63          
     64               RCC_AHB1PeriphClockCmd(WIFI_RESET_CLK, ENABLE);
   \   0000002C   0121               MOVS     R1,#+1
   \   0000002E   0820               MOVS     R0,#+8
   \   00000030   ........           BL       RCC_AHB1PeriphClockCmd
     65               GPIO_InitStructure.GPIO_Pin = WIFI_RESET_PIN ;
   \   00000034   0820               MOVS     R0,#+8
   \   00000036   0090               STR      R0,[SP, #+0]
     66               GPIO_InitStructure.GPIO_OType = GPIO_OType_PP;  
   \   00000038   0020               MOVS     R0,#+0
   \   0000003A   8DF80600           STRB     R0,[SP, #+6]
     67               GPIO_InitStructure.GPIO_Mode = GPIO_Mode_OUT;
   \   0000003E   0120               MOVS     R0,#+1
   \   00000040   8DF80400           STRB     R0,[SP, #+4]
     68               GPIO_InitStructure.GPIO_PuPd = GPIO_PuPd_UP ;
   \   00000044   0120               MOVS     R0,#+1
   \   00000046   8DF80700           STRB     R0,[SP, #+7]
     69               GPIO_Init(WIFI_RESET_PORT, &GPIO_InitStructure);  
   \   0000004A   00A9               ADD      R1,SP,#+0
   \   0000004C   ........           LDR.W    R0,??DataTable34_1  ;; 0x40020c00
   \   00000050   ........           BL       GPIO_Init
     70          
     71          
     72               Wifi_Result = WIFI_NO_INIT;
   \   00000054   ........           LDR.W    R0,??DataTable36
   \   00000058   0021               MOVS     R1,#+0
   \   0000005A   0170               STRB     R1,[R0, #+0]
     73               Wifi_Reset();
   \   0000005C   ........           BL       Wifi_Reset
     74          }
   \   00000060   07BD               POP      {R0-R2,PC}       ;; return

   \                                 In section .text, align 2, keep-with-next
     75          void ConvertString(char *Str,int Num)
     76          {	
     77          	Str[0] = (Num >> 24)&0xff;
   \                     ConvertString:
   \   00000000   0A16               ASRS     R2,R1,#+24
   \   00000002   0270               STRB     R2,[R0, #+0]
     78          	Str[1] = (Num >> 16)&0xff;
   \   00000004   0A14               ASRS     R2,R1,#+16
   \   00000006   4270               STRB     R2,[R0, #+1]
     79          	Str[2] = (Num >> 8)&0xff;
   \   00000008   0A12               ASRS     R2,R1,#+8
   \   0000000A   8270               STRB     R2,[R0, #+2]
     80          	Str[3] = Num &0xff;
   \   0000000C   C170               STRB     R1,[R0, #+3]
     81          }
   \   0000000E   7047               BX       LR               ;; return

   \                                 In section .text, align 2, keep-with-next
     82          u32 ConvertInteger(char *Str)
     83          {	
     84               u32 Num = 0;
   \                     ConvertInteger:
   \   00000000   0021               MOVS     R1,#+0
     85               Num = Str[0] << 24;
   \   00000002   0278               LDRB     R2,[R0, #+0]
   \   00000004   1206               LSLS     R2,R2,#+24
   \   00000006   1100               MOVS     R1,R2
     86               Num |= Str[1] << 16;
   \   00000008   4278               LDRB     R2,[R0, #+1]
   \   0000000A   51EA0241           ORRS     R1,R1,R2, LSL #+16
     87               Num |= Str[2] << 8;
   \   0000000E   8278               LDRB     R2,[R0, #+2]
   \   00000010   51EA0221           ORRS     R1,R1,R2, LSL #+8
     88               Num |= Str[3] ;     
   \   00000014   C078               LDRB     R0,[R0, #+3]
   \   00000016   0143               ORRS     R1,R0,R1
     89               return Num;
   \   00000018   0800               MOVS     R0,R1
   \   0000001A   7047               BX       LR               ;; return
     90          }

   \                                 In section .text, align 2, keep-with-next
     91          void ConvertString2(char *Str,int Num)
     92          {
     93          	Str[0] = (Num >> 8)&0xff;
   \                     ConvertString2:
   \   00000000   0A12               ASRS     R2,R1,#+8
   \   00000002   0270               STRB     R2,[R0, #+0]
     94          	Str[1] = Num &0xff;
   \   00000004   4170               STRB     R1,[R0, #+1]
     95          }
   \   00000006   7047               BX       LR               ;; return
     96          //
     97          // 안정화 된 다음에 세팅하는것이기 때문에 
     98          // 특별한 Step이 필요 없을듯 싶다.
     99          //
    100          

   \                                 In section .text, align 2, keep-with-next
    101          void Kmap_init(void)
    102          {
   \                     Kmap_init:
   \   00000000   80B5               PUSH     {R7,LR}
    103               static u8 MessageSeq = 0 ;
    104          		
    105          	memset(&KMapSend,0,sizeof(KMapSend));	
   \   00000002   6522               MOVS     R2,#+101
   \   00000004   0021               MOVS     R1,#+0
   \   00000006   ........           LDR.W    R0,??DataTable36_1
   \   0000000A   ........           BL       memset
    106          	KMapSend.ProtocolVer = 0x01;
   \   0000000E   ........           LDR.W    R0,??DataTable36_1
   \   00000012   0121               MOVS     R1,#+1
   \   00000014   0171               STRB     R1,[R0, #+4]
    107          	sprintf(KMapSend.DeviceID,"%s",SFLASH_CarInfo.SerialNumber);         //01025800001
   \   00000016   ........           LDR.W    R2,??DataTable34_2
   \   0000001A   ....               ADR.N    R1,??DataTable32  ;; 0x25, 0x73, 0x00, 0x00
   \   0000001C   ........           LDR.W    R0,??DataTable34_3
   \   00000020   ........           BL       sprintf
    108          
    109          	ConvertString(KMapSend.ServiceID, SERVICEID );
   \   00000024   40F6A171           MOVW     R1,#+4001
   \   00000028   ........           LDR.W    R0,??DataTable34_4
   \   0000002C   ........           BL       ConvertString
    110          
    111               MessageSeq %= 0x100;
   \   00000030   ........           LDR.W    R0,??DataTable34_5
   \   00000034   0078               LDRB     R0,[R0, #+0]
   \   00000036   4FF48071           MOV      R1,#+256
   \   0000003A   90FBF1F2           SDIV     R2,R0,R1
   \   0000003E   02FB1102           MLS      R2,R2,R1,R0
   \   00000042   ........           LDR.W    R0,??DataTable34_5
   \   00000046   0270               STRB     R2,[R0, #+0]
    112          	ConvertString(KMapSend.Message.Seq, MessageSeq++ );
   \   00000048   ........           LDR.W    R0,??DataTable34_5
   \   0000004C   0178               LDRB     R1,[R0, #+0]
   \   0000004E   481C               ADDS     R0,R1,#+1
   \   00000050   ........           LDR.W    R2,??DataTable34_5
   \   00000054   1070               STRB     R0,[R2, #+0]
   \   00000056   C9B2               UXTB     R1,R1            ;; ZeroExt  R1,R1,#+24,#+24
   \   00000058   ........           LDR.W    R0,??DataTable34_6
   \   0000005C   ........           BL       ConvertString
    113          	KMapSend.Message.PacketType = 'Q';
   \   00000060   ........           LDR.W    R0,??DataTable36_1
   \   00000064   5121               MOVS     R1,#+81
   \   00000066   80F82D10           STRB     R1,[R0, #+45]
    114          	KMapSend.Message.RequestType = 'M';
   \   0000006A   ........           LDR.W    R0,??DataTable36_1
   \   0000006E   4D21               MOVS     R1,#+77
   \   00000070   80F82E10           STRB     R1,[R0, #+46]
    115          	KMapSend.Message.CommandCode = 0x50; //단말 데이터 전송: DATA_MREQ
   \   00000074   ........           LDR.W    R0,??DataTable36_1
   \   00000078   5021               MOVS     R1,#+80
   \   0000007A   80F82F10           STRB     R1,[R0, #+47]
    116          	KMapSend.Message.ActionID = 1;
   \   0000007E   ........           LDR.W    R0,??DataTable36_1
   \   00000082   0121               MOVS     R1,#+1
   \   00000084   80F83010           STRB     R1,[R0, #+48]
    117          	// 파라미터 세팅 1
    118          	ConvertString( KMapSend.Message.Parameter1.Length ,3 );
   \   00000088   0321               MOVS     R1,#+3
   \   0000008A   ........           LDR.W    R0,??DataTable35
   \   0000008E   ........           BL       ConvertString
    119          	strcpy(KMapSend.Message.Parameter1.Name, "OPC");
   \   00000092   ....               ADR.N    R1,??DataTable32_1  ;; "OPC"
   \   00000094   ........           LDR.W    R0,??DataTable35_1
   \   00000098   ........           BL       strcpy
    120          	ConvertString( KMapSend.Message.Parameter1.ValueLength , 1);
   \   0000009C   0121               MOVS     R1,#+1
   \   0000009E   ........           LDR.W    R0,??DataTable35_2
   \   000000A2   ........           BL       ConvertString
    121          	KMapSend.Message.Parameter1.OPCData = 0x01;
   \   000000A6   ........           LDR.W    R0,??DataTable36_1
   \   000000AA   0121               MOVS     R1,#+1
   \   000000AC   80F84010           STRB     R1,[R0, #+64]
    122               
    123          	// 파라미터 세팅 2
    124          	ConvertString( KMapSend.Message.Parameter2.Length ,3 );
   \   000000B0   0321               MOVS     R1,#+3
   \   000000B2   ........           LDR.W    R0,??DataTable35_3
   \   000000B6   ........           BL       ConvertString
    125          	strcpy(KMapSend.Message.Parameter2.Name, "DAT");
   \   000000BA   ....               ADR.N    R1,??DataTable32_2  ;; "DAT"
   \   000000BC   ........           LDR.W    R0,??DataTable35_4
   \   000000C0   ........           BL       strcpy
    126          
    127          	strcpy(KMapSend.Message.Parameter2.DTG_DATA.CarNum, (char *)SFLASH_CarInfo.CarNum);
   \   000000C4   ........           LDR.W    R1,??DataTable35_5
   \   000000C8   ........           LDR.W    R0,??DataTable35_6
   \   000000CC   ........           BL       strcpy
    128          	strcpy(KMapSend.Message.Parameter2.DTG_DATA.DriverName,"0000100");
   \   000000D0   ........           LDR.W    R1,??DataTable35_7
   \   000000D4   ........           LDR.W    R0,??DataTable35_8
   \   000000D8   ........           BL       strcpy
    129          	KMapSend.Message.Parameter2.DTG_DATA.fuel= 0x01;						// 연료 소모량 포함
   \   000000DC   ........           LDR.W    R0,??DataTable36_1
   \   000000E0   0121               MOVS     R1,#+1
   \   000000E2   80F85F10           STRB     R1,[R0, #+95]
    130          	KMapSend.Message.Parameter2.DTG_DATA.division = 0x01;				// 1초데이터
   \   000000E6   ........           LDR.W    R0,??DataTable36_1
   \   000000EA   0121               MOVS     R1,#+1
   \   000000EC   80F86410           STRB     R1,[R0, #+100]
    131          
    132               
    133          //#ifdef MODA_TEST     
    134          //	ConvertString(KMapSend.Message.Parameter2.DTG_DATA.DataNum , 5 );			// 수집 데이터
    135          //#else
    136          //     ConvertString(KMapSend.Message.Parameter2.DTG_DATA.DataNum , DATA_IN_PAGE_SIZE );			// 수집 데이터
    137          //#endif 
    138               
    139               // 파라미터 세팅 3
    140          	ConvertString( KMapSend_Div.Parameter3.Length ,3 );
   \   000000F0   0321               MOVS     R1,#+3
   \   000000F2   ........           LDR.W    R0,??DataTable35_9
   \   000000F6   ........           BL       ConvertString
    141          	strcpy(KMapSend_Div.Parameter3.Name, "OPT");
   \   000000FA   ....               ADR.N    R1,??DataTable32_3  ;; "OPT"
   \   000000FC   ........           LDR.W    R0,??DataTable35_10
   \   00000100   ........           BL       strcpy
    142          //	ConvertString( KMapSend_Div.Parameter3.ValueLength, sizeof( KMapSend_Div.Parameter3.TLV_DATA ) );
    143          	
    144          #ifdef MODA_TEST
    145               
    146          	KMapSend_Div.Parameter3.TLV_DATA.TLVTag1 = 0x04;
    147          	ConvertString(KMapSend_Div.Parameter3.TLV_DATA.Length1 , 3);
    148          
    149          	KMapSend_Div.Parameter3.TLV_DATA.TLVTag2 = 0x05;
    150          	ConvertString(KMapSend_Div.Parameter3.TLV_DATA.Length2 , 3);
    151          
    152          	KMapSend_Div.Parameter3.TLV_DATA.TLVTag3 = 0x06;
    153          	ConvertString(KMapSend_Div.Parameter3.TLV_DATA.Length3 , 3);
    154          
    155          	KMapSend_Div.Parameter3.TLV_DATA.TLVTag4 = 0x07;
    156          	ConvertString(KMapSend_Div.Parameter3.TLV_DATA.Length4 , 3);
    157          
    158          #else
    159               
    160          	TLV_BUFFER.TLVTag1 = 0x11;
   \   00000104   ........           LDR.W    R0,??DataTable35_11
   \   00000108   1121               MOVS     R1,#+17
   \   0000010A   0170               STRB     R1,[R0, #+0]
    161          	ConvertString(TLV_BUFFER.Length1 , 4);
   \   0000010C   0421               MOVS     R1,#+4
   \   0000010E   ........           LDR.W    R0,??DataTable35_12
   \   00000112   ........           BL       ConvertString
    162          
    163          	TLV_BUFFER.TLVTag2 = 0x12;
   \   00000116   ........           LDR.W    R0,??DataTable35_11
   \   0000011A   1221               MOVS     R1,#+18
   \   0000011C   4172               STRB     R1,[R0, #+9]
    164          	ConvertString(TLV_BUFFER.Length2 , 4);
   \   0000011E   0421               MOVS     R1,#+4
   \   00000120   ........           LDR.W    R0,??DataTable35_13
   \   00000124   ........           BL       ConvertString
    165          
    166          	TLV_BUFFER.TLVTag3 = 0x13;
   \   00000128   ........           LDR.W    R0,??DataTable35_11
   \   0000012C   1321               MOVS     R1,#+19
   \   0000012E   8174               STRB     R1,[R0, #+18]
    167          	ConvertString(TLV_BUFFER.Length3 , 2);
   \   00000130   0221               MOVS     R1,#+2
   \   00000132   ........           LDR.W    R0,??DataTable35_14
   \   00000136   ........           BL       ConvertString
    168               
    169          	TLV_BUFFER.TLVTag4 = 0x14;
   \   0000013A   ........           LDR.W    R0,??DataTable35_11
   \   0000013E   1421               MOVS     R1,#+20
   \   00000140   4176               STRB     R1,[R0, #+25]
    170          	ConvertString(TLV_BUFFER.Length4 , 2);
   \   00000142   0221               MOVS     R1,#+2
   \   00000144   ........           LDR.W    R0,??DataTable35_15
   \   00000148   ........           BL       ConvertString
    171          
    172               TLV_BUFFER.TLVTag5 = 0x15;
   \   0000014C   ........           LDR.W    R0,??DataTable35_11
   \   00000150   1521               MOVS     R1,#+21
   \   00000152   80F82010           STRB     R1,[R0, #+32]
    173          	ConvertString(TLV_BUFFER.Length5 , 2);
   \   00000156   0221               MOVS     R1,#+2
   \   00000158   ........           LDR.W    R0,??DataTable35_16
   \   0000015C   ........           BL       ConvertString
    174               
    175          	TLV_BUFFER.TLVTag6 = 0x16;
   \   00000160   ........           LDR.W    R0,??DataTable35_11
   \   00000164   1621               MOVS     R1,#+22
   \   00000166   80F82710           STRB     R1,[R0, #+39]
    176          	ConvertString(TLV_BUFFER.Length6 , 2);
   \   0000016A   0221               MOVS     R1,#+2
   \   0000016C   ........           LDR.W    R0,??DataTable35_17
   \   00000170   ........           BL       ConvertString
    177          
    178               TLV_BUFFER.TLVTag7 = 0x17;
   \   00000174   ........           LDR.W    R0,??DataTable35_11
   \   00000178   1721               MOVS     R1,#+23
   \   0000017A   80F82E10           STRB     R1,[R0, #+46]
    179          	ConvertString(TLV_BUFFER.Length7 , 2);
   \   0000017E   0221               MOVS     R1,#+2
   \   00000180   ........           LDR.W    R0,??DataTable35_18
   \   00000184   ........           BL       ConvertString
    180               
    181          	TLV_BUFFER.TLVTag8 = 0x18;
   \   00000188   ........           LDR.W    R0,??DataTable35_11
   \   0000018C   1821               MOVS     R1,#+24
   \   0000018E   80F83510           STRB     R1,[R0, #+53]
    182          	ConvertString(TLV_BUFFER.Length8 , 2);
   \   00000192   0221               MOVS     R1,#+2
   \   00000194   ........           LDR.W    R0,??DataTable36_2
   \   00000198   ........           BL       ConvertString
    183               
    184               TLV_BUFFER.TLVTag9 = 0x19;
   \   0000019C   ........           LDR.W    R0,??DataTable35_11
   \   000001A0   1921               MOVS     R1,#+25
   \   000001A2   80F83C10           STRB     R1,[R0, #+60]
    185          	ConvertString(TLV_BUFFER.Length9 , 4);
   \   000001A6   0421               MOVS     R1,#+4
   \   000001A8   ........           LDR.W    R0,??DataTable36_3
   \   000001AC   ........           BL       ConvertString
    186          
    187          	TLV_BUFFER.TLVTag10 = 0x1A;
   \   000001B0   ........           LDR.W    R0,??DataTable35_11
   \   000001B4   1A21               MOVS     R1,#+26
   \   000001B6   80F84510           STRB     R1,[R0, #+69]
    188          	ConvertString(TLV_BUFFER.Length10 , 4);
   \   000001BA   0421               MOVS     R1,#+4
   \   000001BC   ........           LDR.W    R0,??DataTable36_4
   \   000001C0   ........           BL       ConvertString
    189          
    190          	TLV_BUFFER.TLVTag11 = 0x1B;
   \   000001C4   ........           LDR.W    R0,??DataTable35_11
   \   000001C8   1B21               MOVS     R1,#+27
   \   000001CA   80F84E10           STRB     R1,[R0, #+78]
    191          	ConvertString(TLV_BUFFER.Length11 , 2);     
   \   000001CE   0221               MOVS     R1,#+2
   \   000001D0   ........           LDR.W    R0,??DataTable36_5
   \   000001D4   ........           BL       ConvertString
    192          #endif
    193               
    194          //	ConvertString( KMapSend.Message.Length , sizeof(KMapSend.Message.Parameter1) + sizeof(KMapSend.Message.Parameter2) + sizeof(KMapSend.Message.Parameter3));
    195          	ConvertString( KMapSend.Message.Parameter2.ValueLength , sizeof(KMapSend.Message.Parameter2.DTG_DATA) );
   \   000001D8   1921               MOVS     R1,#+25
   \   000001DA   ........           LDR.W    R0,??DataTable36_6
   \   000001DE   ........           BL       ConvertString
    196          //	ConvertString( KMapSend_Div.Parameter3.ValueLength , sizeof(KMapSend_Div.Parameter3.TLV_DATA) );     
    197          	ConvertString( KMapSend.PacketSize, ( sizeof( KMapSend )) - 4 ) ;
   \   000001E2   6121               MOVS     R1,#+97
   \   000001E4   ........           LDR.W    R0,??DataTable36_1
   \   000001E8   ........           BL       ConvertString
    198          //	ConvertString( KMapSend_Div.ErrorCode , 0 );
    199                    
    200               /////////////////////////////////////////////////////////////////////////////////////// 
    201          }
   \   000001EC   01BD               POP      {R0,PC}          ;; return

   \                                 In section .bss, align 1
   \                     ??MessageSeq:
   \   00000000                      DS8 1
    202          

   \                                 In section .text, align 2, keep-with-next
    203          u8 EMS_Setting( u32 PageNum )
    204          {
   \                     EMS_Setting:
   \   00000000   2DE9F14F           PUSH     {R0,R4-R11,LR}
   \   00000004   C4B0               SUB      SP,SP,#+272
    205          
    206               u16 DataSize;
    207               u16 DTG_Size;
    208               u16 TLV_Size;
    209               u16 Error_Size;
    210          
    211               
    212               u32 PageTemp;
    213               static u32 SeqeunMsg = 1;
    214               
    215               u16 i;
    216          
    217               u16 DataCount ;
    218               u16 DataSize2;
    219               
    220               TM_Struct  datetime;
    221               
    222               u8 Error_Code[4] = {0,};
   \   00000006   1BA8               ADD      R0,SP,#+108
   \   00000008   0021               MOVS     R1,#+0
   \   0000000A   0160               STR      R1,[R0, #+0]
    223               struct _BIN_NAND_DTG_DATA DTG_Binary;
    224               EMS_DRIVE_VALUE EMS_Drive_Temp;   
    225               ACC_DRIVE_VALUE ACC_Drive_Temp;
    226               
    227               if(KMap_Transmit_Count == 0 )    // 전송 중이 아니라면
   \   0000000C   ........           LDR.W    R0,??DataTable37
   \   00000010   0068               LDR      R0,[R0, #+0]
   \   00000012   0028               CMP      R0,#+0
   \   00000014   40F0B181           BNE.W    ??EMS_Setting_0
    228               {     
    229                    i = 0;
   \   00000018   0025               MOVS     R5,#+0
    230                    
    231                    for( i = 0 ; i < SEND_MAX_SIZE ; i++ )
   \   0000001A   0020               MOVS     R0,#+0
   \   0000001C   0500               MOVS     R5,R0
   \   0000001E   FCE0               B.N      ??EMS_Setting_1
    232                    {
    233                         PageTemp = PageNum + ( ( i + 1 ) * DATA_SKIPCOUNT );        // 
    234                         
    235                         if(NAND_Data_Transmit.End_Page < PageTemp )            // 
    236                              break;
    237                         
    238                         DTG_EMS_DataLoad( PageTemp -1);
   \                     ??EMS_Setting_2:
   \   00000020   401E               SUBS     R0,R0,#+1
   \   00000022   ........           BL       DTG_EMS_DataLoad
    239                         
    240                         DataSize = sizeof(DTG_Binary);  
   \   00000026   4720               MOVS     R0,#+71
    241                         DataSize2 = EMS_SIZE + sizeof(ACC_Drive_Value);
   \   00000028   2E21               MOVS     R1,#+46
    242                         memcpy( &DTG_Binary, &NAND_Buffer[ ( DataSize2 + ( i * DataSize ) ) ], DataSize );
   \   0000002A   80B2               UXTH     R0,R0            ;; ZeroExt  R0,R0,#+16,#+16
   \   0000002C   0200               MOVS     R2,R0
   \   0000002E   89B2               UXTH     R1,R1            ;; ZeroExt  R1,R1,#+16,#+16
   \   00000030   ADB2               UXTH     R5,R5            ;; ZeroExt  R5,R5,#+16,#+16
   \   00000032   80B2               UXTH     R0,R0            ;; ZeroExt  R0,R0,#+16,#+16
   \   00000034   00FB0510           MLA      R0,R0,R5,R1
   \   00000038   ........           LDR.W    R1,??DataTable36_7
   \   0000003C   4118               ADDS     R1,R0,R1
   \   0000003E   29A8               ADD      R0,SP,#+164
   \   00000040   ........           BL       memcpy
    243                         if(DTG_Binary.DataValid == 1)
   \   00000044   9DF8EA00           LDRB     R0,[SP, #+234]
   \   00000048   0128               CMP      R0,#+1
   \   0000004A   40F08E80           BNE.W    ??EMS_Setting_3
    244                         {
    245                              RTC_BinaryToDate(DTG_Binary.Datetime,&datetime);
   \   0000004E   3BA9               ADD      R1,SP,#+236
   \   00000050   DDF8BD00           LDR      R0,[SP, #+189]
   \   00000054   ........           BL       RTC_BinaryToDate
    246                              sprintf((char*)Buffer,
    247                                      "%02d%02d%02d%02d%02d%02d00"
    248                                           "%04d%07d%03d%04d%d%04.1f"
    249                                                "%09d%09d%03d%+06.1f%+06.1f%02d",                  
    250                                                datetime.tm_year-2000,datetime.tm_mon,datetime.tm_mday,
    251                                                datetime.tm_hour,datetime.tm_min,datetime.tm_sec,
    252                                                DTG_Binary.DayDriveLength%10000,
    253                                                DTG_Binary.TotalDriveLength%10000000,
    254                                                DTG_Binary.Speed%1000,
    255                                                DTG_Binary.RPM%10000,
    256                                                DTG_Binary.Sign_Break%10,
    257                                                (float)DTG_Binary.Ems_Data.Gps_HDOP/10,
    258                                                DTG_Binary.GPSX,
    259                                                DTG_Binary.GPSY,
    260                                                DTG_Binary.Azimuth%1000,
    261                                                (float)DTG_Binary.AccelX,
    262                                                (float)DTG_Binary.AccelY,
    263                                                DTG_Binary.MachineStatus
    264                                                     );
   \   00000058   BDF8CD60           LDRH     R6,[SP, #+205]
   \   0000005C   4FF47A70           MOV      R0,#+1000
   \   00000060   1A90               STR      R0,[SP, #+104]
   \   00000062   9DF8C4B0           LDRB     R11,[SP, #+196]
   \   00000066   0A20               MOVS     R0,#+10
   \   00000068   1990               STR      R0,[SP, #+100]
   \   0000006A   BDF8C270           LDRH     R7,[SP, #+194]
   \   0000006E   42F21070           MOVW     R0,#+10000
   \   00000072   1890               STR      R0,[SP, #+96]
   \   00000074   9DF8C1A0           LDRB     R10,[SP, #+193]
   \   00000078   4FF47A70           MOV      R0,#+1000
   \   0000007C   1790               STR      R0,[SP, #+92]
   \   0000007E   DDF8B980           LDR      R8,[SP, #+185]
   \   00000082   ........           LDR.W    R0,??DataTable36_8  ;; 0x989680
   \   00000086   1690               STR      R0,[SP, #+88]
   \   00000088   BDF8B790           LDRH     R9,[SP, #+183]
   \   0000008C   42F21070           MOVW     R0,#+10000
   \   00000090   1590               STR      R0,[SP, #+84]
   \   00000092   9DF8D300           LDRB     R0,[SP, #+211]
   \   00000096   1490               STR      R0,[SP, #+80]
   \   00000098   BDF9D100           LDRSH    R0,[SP, #+209]
   \   0000009C   ........           BL       __aeabi_i2f
   \   000000A0   ........           BL       __aeabi_f2d
   \   000000A4   CDE91201           STRD     R0,R1,[SP, #+72]
   \   000000A8   BDF9CF00           LDRSH    R0,[SP, #+207]
   \   000000AC   ........           BL       __aeabi_i2f
   \   000000B0   ........           BL       __aeabi_f2d
   \   000000B4   CDE91001           STRD     R0,R1,[SP, #+64]
   \   000000B8   1A98               LDR      R0,[SP, #+104]
   \   000000BA   96FBF0F0           SDIV     R0,R6,R0
   \   000000BE   1A99               LDR      R1,[SP, #+104]
   \   000000C0   01FB1060           MLS      R0,R1,R0,R6
   \   000000C4   0E90               STR      R0,[SP, #+56]
   \   000000C6   DDF8C900           LDR      R0,[SP, #+201]
   \   000000CA   0D90               STR      R0,[SP, #+52]
   \   000000CC   DDF8C500           LDR      R0,[SP, #+197]
   \   000000D0   0C90               STR      R0,[SP, #+48]
   \   000000D2   BDF8E400           LDRH     R0,[SP, #+228]
   \   000000D6   ........           BL       __aeabi_ui2f
   \   000000DA   ........           LDR.W    R1,??DataTable36_9  ;; 0x41200000
   \   000000DE   ........           BL       __aeabi_fdiv
   \   000000E2   ........           BL       __aeabi_f2d
   \   000000E6   CDE90A01           STRD     R0,R1,[SP, #+40]
   \   000000EA   1998               LDR      R0,[SP, #+100]
   \   000000EC   9BFBF0F0           SDIV     R0,R11,R0
   \   000000F0   1999               LDR      R1,[SP, #+100]
   \   000000F2   01FB10B0           MLS      R0,R1,R0,R11
   \   000000F6   0890               STR      R0,[SP, #+32]
   \   000000F8   1898               LDR      R0,[SP, #+96]
   \   000000FA   97FBF0F0           SDIV     R0,R7,R0
   \   000000FE   1899               LDR      R1,[SP, #+96]
   \   00000100   01FB1070           MLS      R0,R1,R0,R7
   \   00000104   0790               STR      R0,[SP, #+28]
   \   00000106   1798               LDR      R0,[SP, #+92]
   \   00000108   9AFBF0F0           SDIV     R0,R10,R0
   \   0000010C   1799               LDR      R1,[SP, #+92]
   \   0000010E   01FB10A0           MLS      R0,R1,R0,R10
   \   00000112   0690               STR      R0,[SP, #+24]
   \   00000114   1698               LDR      R0,[SP, #+88]
   \   00000116   B8FBF0F0           UDIV     R0,R8,R0
   \   0000011A   1699               LDR      R1,[SP, #+88]
   \   0000011C   01FB1080           MLS      R0,R1,R0,R8
   \   00000120   0590               STR      R0,[SP, #+20]
   \   00000122   1598               LDR      R0,[SP, #+84]
   \   00000124   99FBF0F0           SDIV     R0,R9,R0
   \   00000128   1599               LDR      R1,[SP, #+84]
   \   0000012A   01FB1090           MLS      R0,R1,R0,R9
   \   0000012E   0490               STR      R0,[SP, #+16]
   \   00000130   3B98               LDR      R0,[SP, #+236]
   \   00000132   0390               STR      R0,[SP, #+12]
   \   00000134   3C98               LDR      R0,[SP, #+240]
   \   00000136   0290               STR      R0,[SP, #+8]
   \   00000138   3D98               LDR      R0,[SP, #+244]
   \   0000013A   0190               STR      R0,[SP, #+4]
   \   0000013C   3E98               LDR      R0,[SP, #+248]
   \   0000013E   0090               STR      R0,[SP, #+0]
   \   00000140   3F9B               LDR      R3,[SP, #+252]
   \   00000142   4098               LDR      R0,[SP, #+256]
   \   00000144   B0F5FA62           SUBS     R2,R0,#+2000
   \   00000148   ........           LDR.W    R1,??DataTable36_10
   \   0000014C   ........           LDR.W    R0,??DataTable36_11
   \   00000150   ........           BL       sprintf
    265                              memcpy(&DTG_LOOP[DataCount],Buffer,sizeof(struct _DTG_LOOP));              
   \   00000154   4822               MOVS     R2,#+72
   \   00000156   ........           LDR.W    R1,??DataTable36_11
   \   0000015A   A4B2               UXTH     R4,R4            ;; ZeroExt  R4,R4,#+16,#+16
   \   0000015C   4820               MOVS     R0,#+72
   \   0000015E   ........           LDR.W    R3,??DataTable36_12
   \   00000162   00FB0430           MLA      R0,R0,R4,R3
   \   00000166   ........           BL       memcpy
    266                              
    267                         }
    268                         memcpy( &EMS_Drive_Temp, &NAND_Buffer, EMS_SIZE );
   \                     ??EMS_Setting_3:
   \   0000016A   2522               MOVS     R2,#+37
   \   0000016C   ........           LDR.W    R1,??DataTable36_7
   \   00000170   1CA8               ADD      R0,SP,#+112
   \   00000172   ........           BL       memcpy
    269                         memcpy( &ACC_Drive_Temp, &NAND_Buffer[EMS_SIZE], sizeof(ACC_Drive_Temp) );               
   \   00000176   0922               MOVS     R2,#+9
   \   00000178   ........           LDR.W    R1,??DataTable36_13
   \   0000017C   26A8               ADD      R0,SP,#+152
   \   0000017E   ........           BL       memcpy
    270                         ConvertString(TLV_BUFFER.Data1, EMS_Drive_Temp.DriveStop_Time );                  // 정지시간
   \   00000182   1F99               LDR      R1,[SP, #+124]
   \   00000184   ........           LDR.W    R0,??DataTable36_14
   \   00000188   ........           BL       ConvertString
    271                         ConvertString(TLV_BUFFER.Data2, EMS_Drive_Temp.EngineStop_Time );                  // 공회전정지시간
   \   0000018C   2099               LDR      R1,[SP, #+128]
   \   0000018E   ........           LDR.W    R0,??DataTable36_15
   \   00000192   ........           BL       ConvertString
    272                         ConvertString2(TLV_BUFFER.Data3, EMS_Drive_Temp.Day_StarterMotor );                  // 일일스타트모터수
   \   00000196   BDF88810           LDRH     R1,[SP, #+136]
   \   0000019A   ........           LDR.W    R0,??DataTable36_16
   \   0000019E   ........           BL       ConvertString2
    273                         ConvertString2(TLV_BUFFER.Data4, ACC_Drive_Value.Total_StartMotor );                        // 총스타트 모터수
   \   000001A2   ........           LDR.W    R0,??DataTable36_17
   \   000001A6   0188               LDRH     R1,[R0, #+0]
   \   000001A8   ........           LDR.W    R0,??DataTable36_18
   \   000001AC   ........           BL       ConvertString2
    274                         ConvertString2(TLV_BUFFER.Data5, EMS_Drive_Temp.QuickAccel_Count );                  // 급가속
   \   000001B0   BDF88A10           LDRH     R1,[SP, #+138]
   \   000001B4   ........           LDR.W    R0,??DataTable36_19
   \   000001B8   ........           BL       ConvertString2
    275                         ConvertString2(TLV_BUFFER.Data6, EMS_Drive_Temp.QuickStop_Count );                  //급정지 시간
   \   000001BC   BDF88E10           LDRH     R1,[SP, #+142]
   \   000001C0   ........           LDR.W    R0,??DataTable36_20
   \   000001C4   ........           BL       ConvertString2
    276                         ConvertString2(TLV_BUFFER.Data7, EMS_Drive_Temp.HighRPM_Count );                  //고RPM  시간
   \   000001C8   BDF89010           LDRH     R1,[SP, #+144]
   \   000001CC   ........           LDR.W    R0,??DataTable36_21
   \   000001D0   ........           BL       ConvertString2
    277                         ConvertString2(TLV_BUFFER.Data8, EMS_Drive_Temp.Break_Count );                  //  브레이크 시간         
   \   000001D4   BDF89210           LDRH     R1,[SP, #+146]
   \   000001D8   ........           LDR.W    R0,??DataTable36_22
   \   000001DC   ........           BL       ConvertString2
    278                         ConvertString(TLV_BUFFER.Data9, EMS_Drive_Temp.Drive_Time );                  // 운행시간
   \   000001E0   1D99               LDR      R1,[SP, #+116]
   \   000001E2   ........           LDR.W    R0,??DataTable36_23
   \   000001E6   ........           BL       ConvertString
    279                         ConvertString(TLV_BUFFER.Data10, EMS_Drive_Temp.EcoUse_Time );                  // 고RPM 시간         
   \   000001EA   2199               LDR      R1,[SP, #+132]
   \   000001EC   ........           LDR.W    R0,??DataTable36_24
   \   000001F0   ........           BL       ConvertString
    280                         ConvertString2(TLV_BUFFER.Data11, EMS_Drive_Temp.QuickStart_Count );                  // 고RPM 시간        
   \   000001F4   BDF88C10           LDRH     R1,[SP, #+140]
   \   000001F8   ........           LDR.W    R0,??DataTable36_25
   \   000001FC   ........           BL       ConvertString2
    281                         
    282                         memcpy(&TLV_LOOP[DataCount],&TLV_BUFFER,sizeof(struct _TLV_DATA)); 
   \   00000200   5522               MOVS     R2,#+85
   \   00000202   ........           LDR.W    R1,??DataTable35_11
   \   00000206   A4B2               UXTH     R4,R4            ;; ZeroExt  R4,R4,#+16,#+16
   \   00000208   5520               MOVS     R0,#+85
   \   0000020A   ........           LDR.W    R3,??DataTable36_26
   \   0000020E   00FB0430           MLA      R0,R0,R4,R3
   \   00000212   ........           BL       memcpy
    283                         DataCount++;
   \   00000216   641C               ADDS     R4,R4,#+1
   \   00000218   6D1C               ADDS     R5,R5,#+1
   \                     ??EMS_Setting_1:
   \   0000021A   ADB2               UXTH     R5,R5            ;; ZeroExt  R5,R5,#+16,#+16
   \   0000021C   282D               CMP      R5,#+40
   \   0000021E   0BD2               BCS.N    ??EMS_Setting_4
   \   00000220   4498               LDR      R0,[SP, #+272]
   \   00000222   ADB2               UXTH     R5,R5            ;; ZeroExt  R5,R5,#+16,#+16
   \   00000224   691C               ADDS     R1,R5,#+1
   \   00000226   1422               MOVS     R2,#+20
   \   00000228   02FB0100           MLA      R0,R2,R1,R0
   \   0000022C   ........           LDR.W    R1,??DataTable36_27
   \   00000230   4968               LDR      R1,[R1, #+4]
   \   00000232   8142               CMP      R1,R0
   \   00000234   BFF4F4AE           BCS.W    ??EMS_Setting_2
    284                         
    285                         
    286                    }
    287                    Trans_PageCount = i;
   \                     ??EMS_Setting_4:
   \   00000238   ........           LDR.W    R0,??DataTable36_28
   \   0000023C   0580               STRH     R5,[R0, #+0]
    288                    
    289                    ConvertString( KMapSend.Message.Seq,SeqeunMsg++);
   \   0000023E   ........           LDR.W    R0,??DataTable36_29
   \   00000242   0168               LDR      R1,[R0, #+0]
   \   00000244   481C               ADDS     R0,R1,#+1
   \   00000246   ........           LDR.W    R2,??DataTable36_29
   \   0000024A   1060               STR      R0,[R2, #+0]
   \   0000024C   ........           LDR.W    R0,??DataTable34_6
   \   00000250   ........           BL       ConvertString
    290                    strcpy(KMapSend.Message.Parameter2.DTG_DATA.CarNum, (char *)SFLASH_CarInfo.CarNum);          
   \   00000254   ........           LDR.W    R1,??DataTable35_5
   \   00000258   ........           LDR.W    R0,??DataTable35_6
   \   0000025C   ........           BL       strcpy
    291                    ConvertString(KMapSend.Message.Parameter2.DTG_DATA.DataNum , DataCount );			// 수집 데이터          
   \   00000260   A4B2               UXTH     R4,R4            ;; ZeroExt  R4,R4,#+16,#+16
   \   00000262   2100               MOVS     R1,R4
   \   00000264   ........           LDR.W    R0,??DataTable37_2
   \   00000268   ........           BL       ConvertString
    292                    
    293                    DTG_Size = sizeof(DTG_LOOP[0]) * DataCount ;
   \   0000026C   4820               MOVS     R0,#+72
   \   0000026E   00FB04F5           MUL      R5,R0,R4
    294                    TLV_Size = sizeof(struct _TLV_DATA) * DataCount ;
   \   00000272   5520               MOVS     R0,#+85
   \   00000274   4443               MULS     R4,R0,R4
    295                    Error_Size = 4;
   \   00000276   0420               MOVS     R0,#+4
    296                    ConvertString( KMapSend.Message.Length , sizeof(KMapSend.Message.Parameter1) + sizeof(KMapSend.Message.Parameter2) + DTG_Size +  sizeof(KMapSend_Div.Parameter3) + TLV_Size + Error_Size);
   \   00000278   ADB2               UXTH     R5,R5            ;; ZeroExt  R5,R5,#+16,#+16
   \   0000027A   A4B2               UXTH     R4,R4            ;; ZeroExt  R4,R4,#+16,#+16
   \   0000027C   6119               ADDS     R1,R4,R5
   \   0000027E   80B2               UXTH     R0,R0            ;; ZeroExt  R0,R0,#+16,#+16
   \   00000280   4018               ADDS     R0,R0,R1
   \   00000282   10F13B01           ADDS     R1,R0,#+59
   \   00000286   ........           LDR.W    R0,??DataTable37_3
   \   0000028A   ........           BL       ConvertString
    297                    ConvertString( KMapSend.Message.Parameter2.ValueLength , DTG_Size );	     
   \   0000028E   ADB2               UXTH     R5,R5            ;; ZeroExt  R5,R5,#+16,#+16
   \   00000290   2900               MOVS     R1,R5
   \   00000292   ........           LDR.W    R0,??DataTable36_6
   \   00000296   ........           BL       ConvertString
    298                    ConvertString( KMapSend_Div.Parameter3.ValueLength , TLV_Size );	
   \   0000029A   A4B2               UXTH     R4,R4            ;; ZeroExt  R4,R4,#+16,#+16
   \   0000029C   2100               MOVS     R1,R4
   \   0000029E   ........           LDR.W    R0,??DataTable37_4
   \   000002A2   ........           BL       ConvertString
    299                    ConvertString( KMapSend.PacketSize, ( sizeof( KMapSend ) + DTG_Size +  sizeof(KMapSend_Div) + TLV_Size ) ) ;
   \   000002A6   ADB2               UXTH     R5,R5            ;; ZeroExt  R5,R5,#+16,#+16
   \   000002A8   A4B2               UXTH     R4,R4            ;; ZeroExt  R4,R4,#+16,#+16
   \   000002AA   6019               ADDS     R0,R4,R5
   \   000002AC   10F17001           ADDS     R1,R0,#+112
   \   000002B0   ........           LDR.W    R0,??DataTable36_1
   \   000002B4   ........           BL       ConvertString
    300                    
    301                    memset( Tx_RFBuffer, 0, sizeof (Tx_RFBuffer) );
   \   000002B8   41F65832           MOVW     R2,#+7000
   \   000002BC   0021               MOVS     R1,#+0
   \   000002BE   ........           LDR.W    R0,??DataTable37_5
   \   000002C2   ........           BL       memset
    302                    
    303                    KMap_Transmit_Count = sizeof(KMapSend);
   \   000002C6   ........           LDR.W    R0,??DataTable37
   \   000002CA   6521               MOVS     R1,#+101
   \   000002CC   0160               STR      R1,[R0, #+0]
    304                    
    305                    // 헤더부분 복사
    306                    memcpy(&Tx_RFBuffer,&KMapSend, KMap_Transmit_Count);          // 전송해야될 데이타 크기
   \   000002CE   ........           LDR.W    R0,??DataTable37
   \   000002D2   0268               LDR      R2,[R0, #+0]
   \   000002D4   ........           LDR.W    R1,??DataTable36_1
   \   000002D8   ........           LDR.W    R0,??DataTable37_5
   \   000002DC   ........           BL       memcpy
    307                    // 메인부분 복사
    308                    memcpy(&Tx_RFBuffer[KMap_Transmit_Count] , &DTG_LOOP, DTG_Size);          // 전송해야될 데이타 크기
   \   000002E0   ADB2               UXTH     R5,R5            ;; ZeroExt  R5,R5,#+16,#+16
   \   000002E2   2A00               MOVS     R2,R5
   \   000002E4   ........           LDR.W    R1,??DataTable36_12
   \   000002E8   ........           LDR.W    R0,??DataTable37
   \   000002EC   0068               LDR      R0,[R0, #+0]
   \   000002EE   ........           LDR.W    R3,??DataTable37_5
   \   000002F2   C018               ADDS     R0,R0,R3
   \   000002F4   ........           BL       memcpy
    309                    KMap_Transmit_Count += DTG_Size;
   \   000002F8   ........           LDR.W    R0,??DataTable37
   \   000002FC   0068               LDR      R0,[R0, #+0]
   \   000002FE   ADB2               UXTH     R5,R5            ;; ZeroExt  R5,R5,#+16,#+16
   \   00000300   2818               ADDS     R0,R5,R0
   \   00000302   ........           LDR.W    R1,??DataTable37
   \   00000306   0860               STR      R0,[R1, #+0]
    310                    // 끝부분 복사
    311                    memcpy(&Tx_RFBuffer[KMap_Transmit_Count] , &KMapSend_Div, sizeof(KMapSend_Div));          // 전송해야될 데이타 크기
   \   00000308   0B22               MOVS     R2,#+11
   \   0000030A   ........           LDR.W    R1,??DataTable35_9
   \   0000030E   ........           LDR.W    R0,??DataTable37
   \   00000312   0068               LDR      R0,[R0, #+0]
   \   00000314   ........           LDR.W    R3,??DataTable37_5
   \   00000318   C018               ADDS     R0,R0,R3
   \   0000031A   ........           BL       memcpy
    312                    
    313                    KMap_Transmit_Count += sizeof(KMapSend_Div);
   \   0000031E   ........           LDR.W    R0,??DataTable37
   \   00000322   0068               LDR      R0,[R0, #+0]
   \   00000324   0B30               ADDS     R0,R0,#+11
   \   00000326   ........           LDR.W    R1,??DataTable37
   \   0000032A   0860               STR      R0,[R1, #+0]
    314                    
    315                    memcpy(&Tx_RFBuffer[KMap_Transmit_Count] , &TLV_LOOP, TLV_Size);          // 전송해야될 데이타 크기
   \   0000032C   A4B2               UXTH     R4,R4            ;; ZeroExt  R4,R4,#+16,#+16
   \   0000032E   2200               MOVS     R2,R4
   \   00000330   ........           LDR.W    R1,??DataTable36_26
   \   00000334   ........           LDR.W    R0,??DataTable37
   \   00000338   0068               LDR      R0,[R0, #+0]
   \   0000033A   ........           LDR.W    R3,??DataTable37_5
   \   0000033E   C018               ADDS     R0,R0,R3
   \   00000340   ........           BL       memcpy
    316                    
    317                    KMap_Transmit_Count += TLV_Size;                 
   \   00000344   ........           LDR.W    R0,??DataTable37
   \   00000348   0068               LDR      R0,[R0, #+0]
   \   0000034A   A4B2               UXTH     R4,R4            ;; ZeroExt  R4,R4,#+16,#+16
   \   0000034C   2018               ADDS     R0,R4,R0
   \   0000034E   ........           LDR.W    R1,??DataTable37
   \   00000352   0860               STR      R0,[R1, #+0]
    318                    
    319                    memcpy(&Tx_RFBuffer[KMap_Transmit_Count] , &Error_Code, sizeof(Error_Code));          // 전송해야될 데이타 크기
   \   00000354   0422               MOVS     R2,#+4
   \   00000356   1BA9               ADD      R1,SP,#+108
   \   00000358   ........           LDR.W    R0,??DataTable37
   \   0000035C   0068               LDR      R0,[R0, #+0]
   \   0000035E   ........           LDR.W    R3,??DataTable37_5
   \   00000362   C018               ADDS     R0,R0,R3
   \   00000364   ........           BL       memcpy
    320                    
    321                    KMap_Transmit_Count += sizeof(Error_Code);       
   \   00000368   ........           LDR.W    R0,??DataTable37
   \   0000036C   0068               LDR      R0,[R0, #+0]
   \   0000036E   001D               ADDS     R0,R0,#+4
   \   00000370   ........           LDR.W    R1,??DataTable37
   \   00000374   0860               STR      R0,[R1, #+0]
    322                    
    323                    return 1;
   \   00000376   0120               MOVS     R0,#+1
   \   00000378   00E0               B.N      ??EMS_Setting_5
    324               }
    325               return 0;
   \                     ??EMS_Setting_0:
   \   0000037A   0020               MOVS     R0,#+0
   \                     ??EMS_Setting_5:
   \   0000037C   45B0               ADD      SP,SP,#+276
   \   0000037E   BDE8F08F           POP      {R4-R11,PC}      ;; return
    326          }

   \                                 In section .data, align 4
   \                     ??SeqeunMsg:
   \   00000000   01000000           DC32 1
    327          

   \                                 In section .text, align 2, keep-with-next
    328          u8 KMap_Setting(u32 PageNum)
    329          {
   \                     KMap_Setting:
   \   00000000   2DE9F04F           PUSH     {R4-R11,LR}
   \   00000004   C5B0               SUB      SP,SP,#+276
    330               u16 i;
    331               u16 DataSize;
    332               u16 DataSize2;     
    333               u16 DTG_Size;
    334               u16 TLV_Size;
    335               u16 Error_Size;
    336          
    337               static u32 SeqeunMsg = 1;
    338               struct _BIN_NAND_DTG_DATA DTG_Binary;
    339               EMS_DRIVE_VALUE EMS_Drive_Temp;      
    340               ACC_DRIVE_VALUE ACC_Drive_Temp;
    341               u16 DataCount ;
    342               u8 Error_Code[4] = {0,};
   \   00000006   1CA9               ADD      R1,SP,#+112
   \   00000008   0022               MOVS     R2,#+0
   \   0000000A   0A60               STR      R2,[R1, #+0]
    343               
    344               if(KMap_Transmit_Count == 0 )    
   \   0000000C   ........           LDR.W    R1,??DataTable38
   \   00000010   0968               LDR      R1,[R1, #+0]
   \   00000012   0029               CMP      R1,#+0
   \   00000014   40F0A281           BNE.W    ??KMap_Setting_0
    345               {
    346                    DTG_EMS_DataLoad(PageNum);
   \   00000018   ........           BL       DTG_EMS_DataLoad
    347                    DataSize = sizeof(DTG_Binary);    
   \   0000001C   4720               MOVS     R0,#+71
   \   0000001E   ADF85400           STRH     R0,[SP, #+84]
    348                    
    349                    TM_Struct  datetime;
    350                    KMap_Transmit_Count = 0;
   \   00000022   ........           LDR.W    R0,??DataTable38
   \   00000026   0021               MOVS     R1,#+0
   \   00000028   0160               STR      R1,[R0, #+0]
    351                    
    352                    memcpy( &EMS_Drive_Temp, &NAND_Buffer, EMS_SIZE );
   \   0000002A   2522               MOVS     R2,#+37
   \   0000002C   ........           LDR.W    R1,??DataTable36_7
   \   00000030   1DA8               ADD      R0,SP,#+116
   \   00000032   ........           BL       memcpy
    353                    DataCount = 0;
   \   00000036   0024               MOVS     R4,#+0
    354                    for ( i = 0 ; i < DATA_IN_PAGE_SIZE ; i ++ )     
   \   00000038   0025               MOVS     R5,#+0
   \   0000003A   A5E0               B.N      ??KMap_Setting_1
    355                    {              
    356          
    357                         IWDG_ReloadCounter();                   // Clear IWDG
   \                     ??KMap_Setting_2:
   \   0000003C   ........           BL       IWDG_ReloadCounter
    358                         DataSize2 = EMS_SIZE + sizeof(ACC_Drive_Temp);
   \   00000040   2E20               MOVS     R0,#+46
    359                         memcpy( &DTG_Binary, &NAND_Buffer[ ( DataSize2 + ( i * DataSize ) ) ], DataSize );
   \   00000042   BDF85420           LDRH     R2,[SP, #+84]
   \   00000046   80B2               UXTH     R0,R0            ;; ZeroExt  R0,R0,#+16,#+16
   \   00000048   ADB2               UXTH     R5,R5            ;; ZeroExt  R5,R5,#+16,#+16
   \   0000004A   BDF85410           LDRH     R1,[SP, #+84]
   \   0000004E   01FB0500           MLA      R0,R1,R5,R0
   \   00000052   ........           LDR.W    R1,??DataTable36_7
   \   00000056   4118               ADDS     R1,R0,R1
   \   00000058   33A8               ADD      R0,SP,#+204
   \   0000005A   ........           BL       memcpy
    360                         if(DTG_Binary.DataValid == 1)
   \   0000005E   9DF81201           LDRB     R0,[SP, #+274]
   \   00000062   0128               CMP      R0,#+1
   \   00000064   40F08F80           BNE.W    ??KMap_Setting_3
    361                         {
    362                              RTC_BinaryToDate(DTG_Binary.Datetime,&datetime);
   \   00000068   27A9               ADD      R1,SP,#+156
   \   0000006A   DDF8E500           LDR      R0,[SP, #+229]
   \   0000006E   ........           BL       RTC_BinaryToDate
    363                              sprintf((char*)Buffer,
    364                                      "%02d%02d%02d%02d%02d%02d00"
    365                                      "%04d%07d%03d%04d%d%04.1f"
    366                                      "%09d%09d%03d%+06.1f%+06.1f%02d",                  
    367                                      datetime.tm_year-2000,datetime.tm_mon,datetime.tm_mday,
    368                                      datetime.tm_hour,datetime.tm_min,datetime.tm_sec,
    369                                      DTG_Binary.DayDriveLength%10000,
    370                                      DTG_Binary.TotalDriveLength%10000000,
    371                                      DTG_Binary.Speed%1000,
    372                                      DTG_Binary.RPM%10000,
    373                                      DTG_Binary.Sign_Break%10,
    374                                      (float)DTG_Binary.Ems_Data.Gps_HDOP/10,
    375                                      DTG_Binary.GPSX,
    376                                      DTG_Binary.GPSY,
    377                                      DTG_Binary.Azimuth%1000,
    378                                      (float)DTG_Binary.AccelX,
    379                                      (float)DTG_Binary.AccelY,
    380                                      DTG_Binary.MachineStatus
    381                                 );
   \   00000072   BDF8F560           LDRH     R6,[SP, #+245]
   \   00000076   4FF47A70           MOV      R0,#+1000
   \   0000007A   1B90               STR      R0,[SP, #+108]
   \   0000007C   9DF8ECB0           LDRB     R11,[SP, #+236]
   \   00000080   0A20               MOVS     R0,#+10
   \   00000082   1A90               STR      R0,[SP, #+104]
   \   00000084   BDF8EA70           LDRH     R7,[SP, #+234]
   \   00000088   42F21070           MOVW     R0,#+10000
   \   0000008C   1990               STR      R0,[SP, #+100]
   \   0000008E   9DF8E9A0           LDRB     R10,[SP, #+233]
   \   00000092   4FF47A70           MOV      R0,#+1000
   \   00000096   1890               STR      R0,[SP, #+96]
   \   00000098   DDF8E180           LDR      R8,[SP, #+225]
   \   0000009C   ........           LDR.W    R0,??DataTable36_8  ;; 0x989680
   \   000000A0   1790               STR      R0,[SP, #+92]
   \   000000A2   BDF8DF90           LDRH     R9,[SP, #+223]
   \   000000A6   42F21070           MOVW     R0,#+10000
   \   000000AA   1690               STR      R0,[SP, #+88]
   \   000000AC   9DF8FB00           LDRB     R0,[SP, #+251]
   \   000000B0   1490               STR      R0,[SP, #+80]
   \   000000B2   BDF9F900           LDRSH    R0,[SP, #+249]
   \   000000B6   ........           BL       __aeabi_i2f
   \   000000BA   ........           BL       __aeabi_f2d
   \   000000BE   CDE91201           STRD     R0,R1,[SP, #+72]
   \   000000C2   BDF9F700           LDRSH    R0,[SP, #+247]
   \   000000C6   ........           BL       __aeabi_i2f
   \   000000CA   ........           BL       __aeabi_f2d
   \   000000CE   CDE91001           STRD     R0,R1,[SP, #+64]
   \   000000D2   1B98               LDR      R0,[SP, #+108]
   \   000000D4   96FBF0F0           SDIV     R0,R6,R0
   \   000000D8   1B99               LDR      R1,[SP, #+108]
   \   000000DA   01FB1060           MLS      R0,R1,R0,R6
   \   000000DE   0E90               STR      R0,[SP, #+56]
   \   000000E0   DDF8F100           LDR      R0,[SP, #+241]
   \   000000E4   0D90               STR      R0,[SP, #+52]
   \   000000E6   DDF8ED00           LDR      R0,[SP, #+237]
   \   000000EA   0C90               STR      R0,[SP, #+48]
   \   000000EC   BDF80C01           LDRH     R0,[SP, #+268]
   \   000000F0   ........           BL       __aeabi_ui2f
   \   000000F4   ........           LDR.W    R1,??DataTable36_9  ;; 0x41200000
   \   000000F8   ........           BL       __aeabi_fdiv
   \   000000FC   ........           BL       __aeabi_f2d
   \   00000100   CDE90A01           STRD     R0,R1,[SP, #+40]
   \   00000104   1A98               LDR      R0,[SP, #+104]
   \   00000106   9BFBF0F0           SDIV     R0,R11,R0
   \   0000010A   1A99               LDR      R1,[SP, #+104]
   \   0000010C   01FB10B0           MLS      R0,R1,R0,R11
   \   00000110   0890               STR      R0,[SP, #+32]
   \   00000112   1998               LDR      R0,[SP, #+100]
   \   00000114   97FBF0F0           SDIV     R0,R7,R0
   \   00000118   1999               LDR      R1,[SP, #+100]
   \   0000011A   01FB1070           MLS      R0,R1,R0,R7
   \   0000011E   0790               STR      R0,[SP, #+28]
   \   00000120   1898               LDR      R0,[SP, #+96]
   \   00000122   9AFBF0F0           SDIV     R0,R10,R0
   \   00000126   1899               LDR      R1,[SP, #+96]
   \   00000128   01FB10A0           MLS      R0,R1,R0,R10
   \   0000012C   0690               STR      R0,[SP, #+24]
   \   0000012E   1798               LDR      R0,[SP, #+92]
   \   00000130   B8FBF0F0           UDIV     R0,R8,R0
   \   00000134   1799               LDR      R1,[SP, #+92]
   \   00000136   01FB1080           MLS      R0,R1,R0,R8
   \   0000013A   0590               STR      R0,[SP, #+20]
   \   0000013C   1698               LDR      R0,[SP, #+88]
   \   0000013E   99FBF0F0           SDIV     R0,R9,R0
   \   00000142   1699               LDR      R1,[SP, #+88]
   \   00000144   01FB1090           MLS      R0,R1,R0,R9
   \   00000148   0490               STR      R0,[SP, #+16]
   \   0000014A   2798               LDR      R0,[SP, #+156]
   \   0000014C   0390               STR      R0,[SP, #+12]
   \   0000014E   2898               LDR      R0,[SP, #+160]
   \   00000150   0290               STR      R0,[SP, #+8]
   \   00000152   2998               LDR      R0,[SP, #+164]
   \   00000154   0190               STR      R0,[SP, #+4]
   \   00000156   2A98               LDR      R0,[SP, #+168]
   \   00000158   0090               STR      R0,[SP, #+0]
   \   0000015A   2B9B               LDR      R3,[SP, #+172]
   \   0000015C   2C98               LDR      R0,[SP, #+176]
   \   0000015E   B0F5FA62           SUBS     R2,R0,#+2000
   \   00000162   ........           LDR.W    R1,??DataTable36_10
   \   00000166   ........           LDR.W    R0,??DataTable36_11
   \   0000016A   ........           BL       sprintf
    382                         memcpy(&DTG_LOOP[DataCount],Buffer,sizeof(struct _DTG_LOOP));              
   \   0000016E   4822               MOVS     R2,#+72
   \   00000170   ........           LDR.W    R1,??DataTable36_11
   \   00000174   A4B2               UXTH     R4,R4            ;; ZeroExt  R4,R4,#+16,#+16
   \   00000176   4820               MOVS     R0,#+72
   \   00000178   ........           LDR.W    R3,??DataTable36_12
   \   0000017C   00FB0430           MLA      R0,R0,R4,R3
   \   00000180   ........           BL       memcpy
    383                         DataCount++;
   \   00000184   641C               ADDS     R4,R4,#+1
    384                         }
    385                         
    386                    }     
   \                     ??KMap_Setting_3:
   \   00000186   6D1C               ADDS     R5,R5,#+1
   \                     ??KMap_Setting_1:
   \   00000188   ADB2               UXTH     R5,R5            ;; ZeroExt  R5,R5,#+16,#+16
   \   0000018A   5A2D               CMP      R5,#+90
   \   0000018C   FFF456AF           BCC.W    ??KMap_Setting_2
    387                    memcpy( &EMS_Drive_Temp, &NAND_Buffer, EMS_SIZE );
   \   00000190   2522               MOVS     R2,#+37
   \   00000192   ........           LDR.W    R1,??DataTable36_7
   \   00000196   1DA8               ADD      R0,SP,#+116
   \   00000198   ........           BL       memcpy
    388                    memcpy( &ACC_Drive_Temp, &NAND_Buffer[EMS_SIZE], sizeof(ACC_Drive_Temp) );  
   \   0000019C   0922               MOVS     R2,#+9
   \   0000019E   ........           LDR.W    R1,??DataTable36_13
   \   000001A2   30A8               ADD      R0,SP,#+192
   \   000001A4   ........           BL       memcpy
    389                    ConvertString(TLV_BUFFER.Data1, EMS_Drive_Temp.DriveStop_Time );                  // 정지시간
   \   000001A8   2099               LDR      R1,[SP, #+128]
   \   000001AA   ........           LDR.W    R0,??DataTable36_14
   \   000001AE   ........           BL       ConvertString
    390                    ConvertString(TLV_BUFFER.Data2, EMS_Drive_Temp.EngineStop_Time );                  // 공회전정지시간
   \   000001B2   2199               LDR      R1,[SP, #+132]
   \   000001B4   ........           LDR.W    R0,??DataTable36_15
   \   000001B8   ........           BL       ConvertString
    391                    ConvertString2(TLV_BUFFER.Data3, EMS_Drive_Temp.Day_StarterMotor );                  // 일일스타트모터수
   \   000001BC   BDF88C10           LDRH     R1,[SP, #+140]
   \   000001C0   ........           LDR.W    R0,??DataTable36_16
   \   000001C4   ........           BL       ConvertString2
    392                    ConvertString2(TLV_BUFFER.Data4, ACC_Drive_Value.Total_StartMotor );                        // 총스타트 모터수
   \   000001C8   ........           LDR.W    R0,??DataTable36_17
   \   000001CC   0188               LDRH     R1,[R0, #+0]
   \   000001CE   ........           LDR.W    R0,??DataTable36_18
   \   000001D2   ........           BL       ConvertString2
    393                    ConvertString2(TLV_BUFFER.Data5, EMS_Drive_Temp.QuickAccel_Count );                  // 급가속
   \   000001D6   BDF88E10           LDRH     R1,[SP, #+142]
   \   000001DA   ........           LDR.W    R0,??DataTable36_19
   \   000001DE   ........           BL       ConvertString2
    394                    ConvertString2(TLV_BUFFER.Data6, EMS_Drive_Temp.QuickStop_Count );                  //급정지 시간
   \   000001E2   BDF89210           LDRH     R1,[SP, #+146]
   \   000001E6   ........           LDR.W    R0,??DataTable36_20
   \   000001EA   ........           BL       ConvertString2
    395                    ConvertString2(TLV_BUFFER.Data7, EMS_Drive_Temp.HighRPM_Count );                  //고RPM  시간
   \   000001EE   BDF89410           LDRH     R1,[SP, #+148]
   \   000001F2   ........           LDR.W    R0,??DataTable36_21
   \   000001F6   ........           BL       ConvertString2
    396                    ConvertString2(TLV_BUFFER.Data8, EMS_Drive_Temp.Break_Count );                  //  브레이크 시간         
   \   000001FA   BDF89610           LDRH     R1,[SP, #+150]
   \   000001FE   ........           LDR.W    R0,??DataTable36_22
   \   00000202   ........           BL       ConvertString2
    397                    ConvertString(TLV_BUFFER.Data9, EMS_Drive_Temp.Drive_Time );                  // 운행시간
   \   00000206   1E99               LDR      R1,[SP, #+120]
   \   00000208   ........           LDR.W    R0,??DataTable36_23
   \   0000020C   ........           BL       ConvertString
    398                    ConvertString2(TLV_BUFFER.Data10, EMS_Drive_Temp.EcoUse_Time );                  // 고RPM 시간         
   \   00000210   2299               LDR      R1,[SP, #+136]
   \   00000212   ........           LDR.W    R0,??DataTable36_24
   \   00000216   ........           BL       ConvertString2
    399                    ConvertString2(TLV_BUFFER.Data11, EMS_Drive_Temp.QuickStart_Count );                  // 고RPM 시간        
   \   0000021A   BDF89010           LDRH     R1,[SP, #+144]
   \   0000021E   ........           LDR.W    R0,??DataTable36_25
   \   00000222   ........           BL       ConvertString2
    400                    
    401                    memcpy(&TLV_LOOP[0],&TLV_BUFFER,sizeof(struct _TLV_DATA));           
   \   00000226   5522               MOVS     R2,#+85
   \   00000228   ........           LDR.W    R1,??DataTable35_11
   \   0000022C   ........           LDR.W    R0,??DataTable36_26
   \   00000230   ........           BL       memcpy
    402                    ConvertString( KMapSend.Message.Seq,SeqeunMsg++);
   \   00000234   ........           LDR.W    R0,??DataTable38_1
   \   00000238   0168               LDR      R1,[R0, #+0]
   \   0000023A   481C               ADDS     R0,R1,#+1
   \   0000023C   ........           LDR.W    R2,??DataTable38_1
   \   00000240   1060               STR      R0,[R2, #+0]
   \   00000242   ....               LDR.N    R0,??DataTable34_6
   \   00000244   ........           BL       ConvertString
    403                    
    404          #ifdef MODA_TEST
    405                    sprintf(KMapSend.DeviceID,"%s",DEVICEID);         //01025800001
    406               	memcpy(KMapSend.Message.Parameter2.DTG_DATA.DriverName,"0002100",7);          
    407                    memcpy(KMapSend.Message.Parameter2.DTG_DATA.CarNum, "서울35가1234",12);          
    408                    sprintf((char*)Buffer,"%03d",( DTG_Binary.Ems_Data.CoolWaterTemp_Volt /100) % 1000);        // 냉각수
    409                    memcpy(&KMapSend_Div.Parameter3.TLV_DATA.Data1,Buffer,3);          
    410                    sprintf((char*)Buffer,"%03d", (DTG_Binary.Ems_Data.Battery_Volt/100)%1000);        // 배터리
    411                    memcpy(&KMapSend_Div.Parameter3.TLV_DATA.Data2,Buffer,3);          
    412                    sprintf((char*)Buffer,"%03d", (DTG_Binary.Ems_Data.AirPressure_Volt /100) %1000);        // 에어
    413                    memcpy(&KMapSend_Div.Parameter3.TLV_DATA.Data3,Buffer,3);          
    414                    sprintf((char*)Buffer,"%03d", (DTG_Binary.Ems_Data.Fuel_Volt/100)% 1000);        // 연료     
    415                    memcpy(&KMapSend_Div.Parameter3.TLV_DATA.Data4,Buffer,3);          
    416          #else
    417          //          ConvertString(KMapSend_Div.Parameter3.TLV_DATA.Data1, EMS_Drive_Temp.DriveStop_Time );                  // 정지시간
    418          //          ConvertString(KMapSend_Div.Parameter3.TLV_DATA.Data2, EMS_Drive_Temp.EngineStop_Time );                  // 공회전정지시간
    419          //          ConvertString2(KMapSend_Div.Parameter3.TLV_DATA.Data3, EMS_Drive_Temp.Day_StarterMotor );                  // 일일스타트모터수
    420          //          ConvertString2(KMapSend_Div.Parameter3.TLV_DATA.Data4, EMS_Drive_Temp.Day_StarterMotor );                  // 일일스타트모터수
    421          //          ConvertString2(KMapSend_Div.Parameter3.TLV_DATA.Data5, EMS_Drive_Temp.QuickStart_Count );                  // 총스타트 모터수
    422          //          ConvertString2(KMapSend_Div.Parameter3.TLV_DATA.Data6, EMS_Drive_Temp.QuickStop_Count );                  //급가속 시간
    423          //          ConvertString2(KMapSend_Div.Parameter3.TLV_DATA.Data7, EMS_Drive_Temp.HighRPM_Count );                  //급정지 시간
    424          //          ConvertString2(KMapSend_Div.Parameter3.TLV_DATA.Data8, EMS_Drive_Temp.Break_Count );                  // 고RPM 시간         
    425          //          ConvertString(KMapSend_Div.Parameter3.TLV_DATA.Data9, EMS_Drive_Temp.Drive_Time );                  // 운행시간
    426          //          ConvertString2(KMapSend_Div.Parameter3.TLV_DATA.Data10, EMS_Drive_Temp.EcoUse_Time );                  // 고RPM 시간         
    427          //          ConvertString2(KMapSend_Div.Parameter3.TLV_DATA.Data11, EMS_Drive_Temp.QuickStart_Count );                  // 고RPM 시간                   
    428          #endif
    429          
    430                    ConvertString(KMapSend.Message.Parameter2.DTG_DATA.DataNum , DataCount );			// 수집 데이터          
   \   00000248   A4B2               UXTH     R4,R4            ;; ZeroExt  R4,R4,#+16,#+16
   \   0000024A   2100               MOVS     R1,R4
   \   0000024C   ........           LDR.W    R0,??DataTable37_2
   \   00000250   ........           BL       ConvertString
    431                    DTG_Size = sizeof(DTG_LOOP[0]) * DataCount;
   \   00000254   4820               MOVS     R0,#+72
   \   00000256   4443               MULS     R4,R0,R4
    432                    
    433                    TLV_Size = sizeof(struct _TLV_DATA) ;
   \   00000258   5525               MOVS     R5,#+85
    434                    Error_Size = 4;
   \   0000025A   0420               MOVS     R0,#+4
    435                    ConvertString( KMapSend.Message.Length , sizeof(KMapSend.Message.Parameter1) + sizeof(KMapSend.Message.Parameter2) + DTG_Size +  sizeof(KMapSend_Div.Parameter3) + TLV_Size + Error_Size);
   \   0000025C   A4B2               UXTH     R4,R4            ;; ZeroExt  R4,R4,#+16,#+16
   \   0000025E   ADB2               UXTH     R5,R5            ;; ZeroExt  R5,R5,#+16,#+16
   \   00000260   2919               ADDS     R1,R5,R4
   \   00000262   80B2               UXTH     R0,R0            ;; ZeroExt  R0,R0,#+16,#+16
   \   00000264   4018               ADDS     R0,R0,R1
   \   00000266   10F13B01           ADDS     R1,R0,#+59
   \   0000026A   ........           LDR.W    R0,??DataTable37_3
   \   0000026E   ........           BL       ConvertString
    436                    ConvertString( KMapSend.Message.Parameter2.ValueLength , DTG_Size );	     
   \   00000272   A4B2               UXTH     R4,R4            ;; ZeroExt  R4,R4,#+16,#+16
   \   00000274   2100               MOVS     R1,R4
   \   00000276   ........           LDR.W    R0,??DataTable36_6
   \   0000027A   ........           BL       ConvertString
    437                    ConvertString( KMapSend_Div.Parameter3.ValueLength , TLV_Size );	
   \   0000027E   ADB2               UXTH     R5,R5            ;; ZeroExt  R5,R5,#+16,#+16
   \   00000280   2900               MOVS     R1,R5
   \   00000282   ........           LDR.W    R0,??DataTable37_4
   \   00000286   ........           BL       ConvertString
    438                    ConvertString( KMapSend.PacketSize, ( sizeof( KMapSend ) + DTG_Size +  sizeof(KMapSend_Div) + TLV_Size ) ) ;
   \   0000028A   A4B2               UXTH     R4,R4            ;; ZeroExt  R4,R4,#+16,#+16
   \   0000028C   ADB2               UXTH     R5,R5            ;; ZeroExt  R5,R5,#+16,#+16
   \   0000028E   2819               ADDS     R0,R5,R4
   \   00000290   10F17001           ADDS     R1,R0,#+112
   \   00000294   ........           LDR.W    R0,??DataTable36_1
   \   00000298   ........           BL       ConvertString
    439                    
    440                    memset( Tx_RFBuffer, 0, sizeof (Tx_RFBuffer) );
   \   0000029C   41F65832           MOVW     R2,#+7000
   \   000002A0   0021               MOVS     R1,#+0
   \   000002A2   ........           LDR.W    R0,??DataTable37_5
   \   000002A6   ........           BL       memset
    441                    
    442                    KMap_Transmit_Count = sizeof(KMapSend);
   \   000002AA   ........           LDR.W    R0,??DataTable38
   \   000002AE   6521               MOVS     R1,#+101
   \   000002B0   0160               STR      R1,[R0, #+0]
    443                    
    444                    // 헤더부분 복사
    445                    memcpy(&Tx_RFBuffer,&KMapSend, KMap_Transmit_Count);          // 전송해야될 데이타 크기
   \   000002B2   ........           LDR.W    R0,??DataTable38
   \   000002B6   0268               LDR      R2,[R0, #+0]
   \   000002B8   ........           LDR.W    R1,??DataTable36_1
   \   000002BC   ........           LDR.W    R0,??DataTable37_5
   \   000002C0   ........           BL       memcpy
    446                    // 메인부분 복사
    447                    memcpy(&Tx_RFBuffer[KMap_Transmit_Count] , &DTG_LOOP, DTG_Size);          // 전송해야될 데이타 크기
   \   000002C4   A4B2               UXTH     R4,R4            ;; ZeroExt  R4,R4,#+16,#+16
   \   000002C6   2200               MOVS     R2,R4
   \   000002C8   ........           LDR.W    R1,??DataTable36_12
   \   000002CC   ........           LDR.W    R0,??DataTable38
   \   000002D0   0068               LDR      R0,[R0, #+0]
   \   000002D2   ........           LDR.W    R3,??DataTable37_5
   \   000002D6   C018               ADDS     R0,R0,R3
   \   000002D8   ........           BL       memcpy
    448                    KMap_Transmit_Count += DTG_Size;
   \   000002DC   ........           LDR.W    R0,??DataTable38
   \   000002E0   0068               LDR      R0,[R0, #+0]
   \   000002E2   A4B2               UXTH     R4,R4            ;; ZeroExt  R4,R4,#+16,#+16
   \   000002E4   2018               ADDS     R0,R4,R0
   \   000002E6   ........           LDR.W    R1,??DataTable38
   \   000002EA   0860               STR      R0,[R1, #+0]
    449                    // 끝부분 복사
    450                    memcpy(&Tx_RFBuffer[KMap_Transmit_Count] , &KMapSend_Div, sizeof(KMapSend_Div));          // 전송해야될 데이타 크기
   \   000002EC   0B22               MOVS     R2,#+11
   \   000002EE   ....               LDR.N    R1,??DataTable35_9
   \   000002F0   ........           LDR.W    R0,??DataTable38
   \   000002F4   0068               LDR      R0,[R0, #+0]
   \   000002F6   ........           LDR.W    R3,??DataTable37_5
   \   000002FA   C018               ADDS     R0,R0,R3
   \   000002FC   ........           BL       memcpy
    451                    
    452                    KMap_Transmit_Count += sizeof(KMapSend_Div);
   \   00000300   ........           LDR.W    R0,??DataTable38
   \   00000304   0068               LDR      R0,[R0, #+0]
   \   00000306   0B30               ADDS     R0,R0,#+11
   \   00000308   ........           LDR.W    R1,??DataTable38
   \   0000030C   0860               STR      R0,[R1, #+0]
    453                    
    454                    memcpy(&Tx_RFBuffer[KMap_Transmit_Count] , &TLV_LOOP, TLV_Size);          // 전송해야될 데이타 크기
   \   0000030E   ADB2               UXTH     R5,R5            ;; ZeroExt  R5,R5,#+16,#+16
   \   00000310   2A00               MOVS     R2,R5
   \   00000312   ........           LDR.W    R1,??DataTable36_26
   \   00000316   ........           LDR.W    R0,??DataTable38
   \   0000031A   0068               LDR      R0,[R0, #+0]
   \   0000031C   ........           LDR.W    R3,??DataTable37_5
   \   00000320   C018               ADDS     R0,R0,R3
   \   00000322   ........           BL       memcpy
    455                    
    456                    KMap_Transmit_Count += TLV_Size;                 
   \   00000326   ........           LDR.W    R0,??DataTable38
   \   0000032A   0068               LDR      R0,[R0, #+0]
   \   0000032C   ADB2               UXTH     R5,R5            ;; ZeroExt  R5,R5,#+16,#+16
   \   0000032E   2818               ADDS     R0,R5,R0
   \   00000330   ........           LDR.W    R1,??DataTable38
   \   00000334   0860               STR      R0,[R1, #+0]
    457                    
    458                    memcpy(&Tx_RFBuffer[KMap_Transmit_Count] , &Error_Code, sizeof(Error_Code));          // 전송해야될 데이타 크기
   \   00000336   0422               MOVS     R2,#+4
   \   00000338   1CA9               ADD      R1,SP,#+112
   \   0000033A   ........           LDR.W    R0,??DataTable38
   \   0000033E   0068               LDR      R0,[R0, #+0]
   \   00000340   ........           LDR.W    R3,??DataTable37_5
   \   00000344   C018               ADDS     R0,R0,R3
   \   00000346   ........           BL       memcpy
    459                    
    460                    KMap_Transmit_Count += sizeof(Error_Code);       
   \   0000034A   ........           LDR.W    R0,??DataTable38
   \   0000034E   0068               LDR      R0,[R0, #+0]
   \   00000350   001D               ADDS     R0,R0,#+4
   \   00000352   ........           LDR.W    R1,??DataTable38
   \   00000356   0860               STR      R0,[R1, #+0]
    461                    
    462                    return 1;
   \   00000358   0120               MOVS     R0,#+1
   \   0000035A   00E0               B.N      ??KMap_Setting_4
    463               }
    464               return 0;
   \                     ??KMap_Setting_0:
   \   0000035C   0020               MOVS     R0,#+0
   \                     ??KMap_Setting_4:
   \   0000035E   45B0               ADD      SP,SP,#+276
   \   00000360   BDE8F08F           POP      {R4-R11,PC}      ;; return
    465          }

   \                                 In section .data, align 4
   \                     ??SeqeunMsg_1:
   \   00000000   01000000           DC32 1
    466          
    467          
    468          

   \                                 In section .text, align 2, keep-with-next
    469          void Wifi_Process(void)
    470          {
   \                     Wifi_Process:
   \   00000000   80B5               PUSH     {R7,LR}
    471               static u16 Wifi_MainTimer;
    472               static u16 Wifi_MainTimer2;     
    473               static u8 Connectting_Count = 0 ;  
    474               static u8 WaitTimeCount = 0;
    475               //static WIFI_RESULT Wifi_Result = WIFI_NO_INIT;
    476          
    477               //-------------------------------------------------------------------------
    478               // 와이 파이 세팅
    479               //
    480               if(!CheckTimeOver(100,Wifi_MainTimer2))        // 1000ms 마다 진입한다.
   \   00000002   ........           LDR.W    R0,??DataTable38_2
   \   00000006   0188               LDRH     R1,[R0, #+0]
   \   00000008   6420               MOVS     R0,#+100
   \   0000000A   ........           BL       CheckTimeOver
   \   0000000E   0028               CMP      R0,#+0
   \   00000010   00F03E81           BEQ.W    ??Wifi_Process_0
    481                    return;
    482               Wifi_MainTimer2 = MS_TIMER;     
   \                     ??Wifi_Process_1:
   \   00000014   ........           LDR.W    R0,??DataTable38_3  ;; 0x40000c00
   \   00000018   ........           BL       TIM_GetCounter
   \   0000001C   ........           LDR.W    R1,??DataTable38_2
   \   00000020   0880               STRH     R0,[R1, #+0]
    483               
    484               if( Flag.Wifi_SettingFlag == 1 )             // 와이파이 세팅이 있다면
   \   00000022   ........           LDR.W    R0,??DataTable38_4
   \   00000026   807B               LDRB     R0,[R0, #+14]
   \   00000028   0128               CMP      R0,#+1
   \   0000002A   02D1               BNE.N    ??Wifi_Process_2
    485               {
    486                    Wifi_ProfileSetting();
   \   0000002C   ........           BL       Wifi_ProfileSetting
    487                    return;
   \   00000030   2EE1               B.N      ??Wifi_Process_0
    488               } 
    489               
    490               //-------------------------------------------------------------------------
    491               
    492               if(!CheckTimeOver(1000,Wifi_MainTimer))        // 1000ms 마다 진입한다.
   \                     ??Wifi_Process_2:
   \   00000032   ........           LDR.W    R0,??DataTable38_5
   \   00000036   0188               LDRH     R1,[R0, #+0]
   \   00000038   4FF47A70           MOV      R0,#+1000
   \   0000003C   ........           BL       CheckTimeOver
   \   00000040   0028               CMP      R0,#+0
   \   00000042   00F02581           BEQ.W    ??Wifi_Process_0
    493                    return;
    494               Wifi_MainTimer = MS_TIMER;
   \                     ??Wifi_Process_3:
   \   00000046   ........           LDR.W    R0,??DataTable38_3  ;; 0x40000c00
   \   0000004A   ........           BL       TIM_GetCounter
   \   0000004E   ........           LDR.W    R1,??DataTable38_5
   \   00000052   0880               STRH     R0,[R1, #+0]
    495               
    496               
    497               if(Connectting_Count >= 5)                // 5회이상 검사시 에러발생한다면
   \   00000054   ........           LDR.W    R0,??DataTable38_6
   \   00000058   0078               LDRB     R0,[R0, #+0]
   \   0000005A   0528               CMP      R0,#+5
   \   0000005C   13D3               BCC.N    ??Wifi_Process_4
    498               {
    499                    Info.Wifi_ErrorCount = 0;
   \   0000005E   ........           LDR.W    R0,??DataTable38_7
   \   00000062   0021               MOVS     R1,#+0
   \   00000064   80F85F10           STRB     R1,[R0, #+95]
    500                    Connectting_Count = 0;
   \   00000068   ........           LDR.W    R0,??DataTable38_6
   \   0000006C   0021               MOVS     R1,#+0
   \   0000006E   0170               STRB     R1,[R0, #+0]
    501                    Wifi_Result = WIFI_NO_INIT;
   \   00000070   ........           LDR.W    R0,??DataTable36
   \   00000074   0021               MOVS     R1,#+0
   \   00000076   0170               STRB     R1,[R0, #+0]
    502                    Wifi_Reset();
   \   00000078   ........           BL       Wifi_Reset
    503                    Flag.Wifi_Check = 0;                    // 응답을 기다린다.          
   \   0000007C   ........           LDR.W    R0,??DataTable38_4
   \   00000080   0021               MOVS     R1,#+0
   \   00000082   0171               STRB     R1,[R0, #+4]
    504                    return;                                 // 더이상 검사하지 않는다.
   \   00000084   04E1               B.N      ??Wifi_Process_0
    505               }
    506              
    507               if( WIFI_TestMode == 1 )      // PC와 커맨드 모드일때 
   \                     ??Wifi_Process_4:
   \   00000086   ........           LDR.W    R0,??DataTable38_8
   \   0000008A   0078               LDRB     R0,[R0, #+0]
   \   0000008C   0128               CMP      R0,#+1
   \   0000008E   00F0FF80           BEQ.W    ??Wifi_Process_0
    508                    return;
    509          
    510               if(SFLASH_Memory.DTG_EMS_Select == 0)   // DTG      
   \                     ??Wifi_Process_5:
   \   00000092   ........           LDR.W    R0,??DataTable38_9
   \   00000096   90F8A400           LDRB     R0,[R0, #+164]
   \   0000009A   0028               CMP      R0,#+0
   \   0000009C   08D1               BNE.N    ??Wifi_Process_6
    511               {
    512                    if( ( NAND_Data_Transmit.Start_Page ) > NAND_Data_Transmit.End_Page)     // 보낼 페이지가 없으면
   \   0000009E   ........           LDR.W    R0,??DataTable36_27
   \   000000A2   4068               LDR      R0,[R0, #+4]
   \   000000A4   ........           LDR.W    R1,??DataTable36_27
   \   000000A8   0968               LDR      R1,[R1, #+0]
   \   000000AA   8842               CMP      R0,R1
   \   000000AC   0AD2               BCS.N    ??Wifi_Process_7
    513                         return;          
   \   000000AE   EFE0               B.N      ??Wifi_Process_0
    514               }else
    515               {    
    516                    if( ( NAND_Data_Transmit.Start_Page + DATA_SKIPCOUNT ) > NAND_Data_Transmit.End_Page)     // 보낼 페이지가 없으면
   \                     ??Wifi_Process_6:
   \   000000B0   ........           LDR.W    R0,??DataTable36_27
   \   000000B4   4068               LDR      R0,[R0, #+4]
   \   000000B6   ........           LDR.W    R1,??DataTable36_27
   \   000000BA   0968               LDR      R1,[R1, #+0]
   \   000000BC   1431               ADDS     R1,R1,#+20
   \   000000BE   8842               CMP      R0,R1
   \   000000C0   C0F0E680           BCC.W    ??Wifi_Process_0
    517                     return;
    518               }
    519               WaitTimeCount++;
   \                     ??Wifi_Process_7:
   \   000000C4   ........           LDR.W    R0,??DataTable38_10
   \   000000C8   0078               LDRB     R0,[R0, #+0]
   \   000000CA   401C               ADDS     R0,R0,#+1
   \   000000CC   ........           LDR.W    R1,??DataTable38_10
   \   000000D0   0870               STRB     R0,[R1, #+0]
    520               
    521               switch(Wifi_Result)
   \   000000D2   ....               LDR.N    R0,??DataTable36
   \   000000D4   0078               LDRB     R0,[R0, #+0]
   \   000000D6   0028               CMP      R0,#+0
   \   000000D8   09D0               BEQ.N    ??Wifi_Process_8
   \   000000DA   0128               CMP      R0,#+1
   \   000000DC   1DD0               BEQ.N    ??Wifi_Process_9
   \   000000DE   0428               CMP      R0,#+4
   \   000000E0   43D0               BEQ.N    ??Wifi_Process_10
   \   000000E2   0528               CMP      R0,#+5
   \   000000E4   63D0               BEQ.N    ??Wifi_Process_11
   \   000000E6   0628               CMP      R0,#+6
   \   000000E8   00F08780           BEQ.W    ??Wifi_Process_12
   \   000000EC   D0E0               B.N      ??Wifi_Process_13
    522               {
    523               case WIFI_NO_INIT:        // 와이파이가 초기 접속 테스트
    524                    {
    525                         puts_string(&RF_Module, (char*)Wifi_SettingString[0]);      // AT 접속 확인
   \                     ??Wifi_Process_8:
   \   000000EE   ........           LDR.W    R0,??DataTable38_11
   \   000000F2   0168               LDR      R1,[R0, #+0]
   \   000000F4   ........           LDR.W    R0,??DataTable38_12
   \   000000F8   ........           BL       puts_string
    526                         
    527                         puts_string(&RF_Module, (char*)Wifi_SettingString[1]);      // Command 모드 확인
   \   000000FC   ........           LDR.W    R0,??DataTable38_11
   \   00000100   4168               LDR      R1,[R0, #+4]
   \   00000102   ........           LDR.W    R0,??DataTable38_12
   \   00000106   ........           BL       puts_string
    528                         
    529                         WaitTimeCount = 0;                      // 재접속 시간 클리어
   \   0000010A   ........           LDR.W    R0,??DataTable38_10
   \   0000010E   0021               MOVS     R1,#+0
   \   00000110   0170               STRB     R1,[R0, #+0]
    530          
    531                         Wifi_Result = WIFI_NO_INIT_WAIT;
   \   00000112   ....               LDR.N    R0,??DataTable36
   \   00000114   0121               MOVS     R1,#+1
   \   00000116   0170               STRB     R1,[R0, #+0]
    532                         
    533                    }break;
   \   00000118   BAE0               B.N      ??Wifi_Process_13
    534               case WIFI_NO_INIT_WAIT:       // 5 초간 대기 후에 접속한다.
    535                    {
    536                         if(Wifi_OK == 1)
   \                     ??Wifi_Process_9:
   \   0000011A   ........           LDR.W    R0,??DataTable38_13
   \   0000011E   0078               LDRB     R0,[R0, #+0]
   \   00000120   0128               CMP      R0,#+1
   \   00000122   17D1               BNE.N    ??Wifi_Process_14
    537                         {
    538                              Wifi_OK = 0;
   \   00000124   ........           LDR.W    R0,??DataTable38_13
   \   00000128   0021               MOVS     R1,#+0
   \   0000012A   0170               STRB     R1,[R0, #+0]
    539                              Wifi_Result = WIFI_TCP_CONNECT;
   \   0000012C   ....               LDR.N    R0,??DataTable36
   \   0000012E   0421               MOVS     R1,#+4
   \   00000130   0170               STRB     R1,[R0, #+0]
    540                              Info.Wifi_ErrorCount = 0;
   \   00000132   ........           LDR.W    R0,??DataTable38_7
   \   00000136   0021               MOVS     R1,#+0
   \   00000138   80F85F10           STRB     R1,[R0, #+95]
    541                              Connectting_Count = 0;
   \   0000013C   ........           LDR.W    R0,??DataTable38_6
   \   00000140   0021               MOVS     R1,#+0
   \   00000142   0170               STRB     R1,[R0, #+0]
    542                              Flag.Wifi_Check = 1;                    // 응답을 기다린다.
   \   00000144   ........           LDR.W    R0,??DataTable38_4
   \   00000148   0121               MOVS     R1,#+1
   \   0000014A   0171               STRB     R1,[R0, #+4]
    543                              WaitTimeCount = 0;                      // 재접속 시간 클리어                    
   \   0000014C   ........           LDR.W    R0,??DataTable38_10
   \   00000150   0021               MOVS     R1,#+0
   \   00000152   0170               STRB     R1,[R0, #+0]
    544                         }
    545                         if( WaitTimeCount > 5)
   \                     ??Wifi_Process_14:
   \   00000154   ........           LDR.W    R0,??DataTable38_10
   \   00000158   0078               LDRB     R0,[R0, #+0]
   \   0000015A   0628               CMP      R0,#+6
   \   0000015C   04D3               BCC.N    ??Wifi_Process_15
    546                         {
    547                              Wifi_Reset();
   \   0000015E   ........           BL       Wifi_Reset
    548                              Wifi_Result = WIFI_NO_INIT;
   \   00000162   ....               LDR.N    R0,??DataTable36
   \   00000164   0021               MOVS     R1,#+0
   \   00000166   0170               STRB     R1,[R0, #+0]
    549                         }
    550                    }break;
   \                     ??Wifi_Process_15:
   \   00000168   92E0               B.N      ??Wifi_Process_13
    551               case WIFI_TCP_CONNECT:
    552                    {
    553                         sprintf((char *)Buffer,"ATA\r");
   \                     ??Wifi_Process_10:
   \   0000016A   ........           ADR.W    R1,`?<Constant "ATA\\r">`
   \   0000016E   ....               LDR.N    R0,??DataTable36_11
   \   00000170   ........           BL       sprintf
    554                         puts_string(&RF_Module,(char *)Buffer); 
   \   00000174   ....               LDR.N    R1,??DataTable36_11
   \   00000176   ........           LDR.W    R0,??DataTable38_12
   \   0000017A   ........           BL       puts_string
    555                         Connectting_Count ++;        
   \   0000017E   ........           LDR.W    R0,??DataTable38_6
   \   00000182   0078               LDRB     R0,[R0, #+0]
   \   00000184   401C               ADDS     R0,R0,#+1
   \   00000186   ........           LDR.W    R1,??DataTable38_6
   \   0000018A   0870               STRB     R0,[R1, #+0]
    556                         Info.Wifi_ErrorCount ++;
   \   0000018C   ........           LDR.W    R0,??DataTable38_7
   \   00000190   90F85F00           LDRB     R0,[R0, #+95]
   \   00000194   401C               ADDS     R0,R0,#+1
   \   00000196   ........           LDR.W    R1,??DataTable38_7
   \   0000019A   81F85F00           STRB     R0,[R1, #+95]
    557                         Wifi_Result = WIFI_TCP_CONNECTTING;
   \   0000019E   ....               LDR.N    R0,??DataTable36
   \   000001A0   0521               MOVS     R1,#+5
   \   000001A2   0170               STRB     R1,[R0, #+0]
    558                         WaitTimeCount = 0;                      // 재접속 시간 클리어                    
   \   000001A4   ........           LDR.W    R0,??DataTable38_10
   \   000001A8   0021               MOVS     R1,#+0
   \   000001AA   0170               STRB     R1,[R0, #+0]
    559                         
    560                    }break;
   \   000001AC   70E0               B.N      ??Wifi_Process_13
    561               case WIFI_TCP_CONNECTTING:
    562                    {            
    563                         if(Wifi_OK == 1)
   \                     ??Wifi_Process_11:
   \   000001AE   ........           LDR.W    R0,??DataTable38_13
   \   000001B2   0078               LDRB     R0,[R0, #+0]
   \   000001B4   0128               CMP      R0,#+1
   \   000001B6   17D1               BNE.N    ??Wifi_Process_16
    564                         {
    565                              Wifi_Send_Result = WIFI_INIT;
   \   000001B8   ........           LDR.W    R0,??DataTable38_14
   \   000001BC   0021               MOVS     R1,#+0
   \   000001BE   0170               STRB     R1,[R0, #+0]
    566                              Wifi_OK = 0;
   \   000001C0   ........           LDR.W    R0,??DataTable38_13
   \   000001C4   0021               MOVS     R1,#+0
   \   000001C6   0170               STRB     R1,[R0, #+0]
    567                              Wifi_Result = WIFI_CONNECTED;
   \   000001C8   ....               LDR.N    R0,??DataTable36
   \   000001CA   0621               MOVS     R1,#+6
   \   000001CC   0170               STRB     R1,[R0, #+0]
    568                              Connectting_Count = 0;
   \   000001CE   ........           LDR.W    R0,??DataTable38_6
   \   000001D2   0021               MOVS     R1,#+0
   \   000001D4   0170               STRB     R1,[R0, #+0]
    569                              Info.Wifi_ErrorCount = 0;
   \   000001D6   ........           LDR.W    R0,??DataTable38_7
   \   000001DA   0021               MOVS     R1,#+0
   \   000001DC   80F85F10           STRB     R1,[R0, #+95]
    570                              WaitTimeCount = 0;                      // 재접속 시간 클리어                    
   \   000001E0   ........           LDR.W    R0,??DataTable38_10
   \   000001E4   0021               MOVS     R1,#+0
   \   000001E6   0170               STRB     R1,[R0, #+0]
    571                         }
    572                         if( WaitTimeCount > 15)
   \                     ??Wifi_Process_16:
   \   000001E8   ........           LDR.W    R0,??DataTable38_10
   \   000001EC   0078               LDRB     R0,[R0, #+0]
   \   000001EE   1028               CMP      R0,#+16
   \   000001F0   02D3               BCC.N    ??Wifi_Process_17
    573                              Wifi_Result = WIFI_TCP_CONNECT;               
   \   000001F2   ....               LDR.N    R0,??DataTable36
   \   000001F4   0421               MOVS     R1,#+4
   \   000001F6   0170               STRB     R1,[R0, #+0]
    574                    }break;          
   \                     ??Wifi_Process_17:
   \   000001F8   4AE0               B.N      ??Wifi_Process_13
    575               case WIFI_CONNECTED:
    576                    {
    577                         if( IsTCP_Connect() == 1 )//|| IsAP_Connect() == 1)      // 서버에 접속되어 있지 않다면
   \                     ??Wifi_Process_12:
   \   000001FA   ........           BL       IsTCP_Connect
   \   000001FE   0128               CMP      R0,#+1
   \   00000200   03D1               BNE.N    ??Wifi_Process_18
    578                         {
    579                              Wifi_Result = WIFI_NO_INIT;
   \   00000202   ....               LDR.N    R0,??DataTable36
   \   00000204   0021               MOVS     R1,#+0
   \   00000206   0170               STRB     R1,[R0, #+0]
   \   00000208   42E0               B.N      ??Wifi_Process_19
    580                         }
    581                         else          //접속 완료 상태 데이터를 전송한다.
    582                         {
    583                              if(NAND_Data_Transmit.Start_Page < NAND_Data_Transmit.End_Page)
   \                     ??Wifi_Process_18:
   \   0000020A   ....               LDR.N    R0,??DataTable36_27
   \   0000020C   0068               LDR      R0,[R0, #+0]
   \   0000020E   ....               LDR.N    R1,??DataTable36_27
   \   00000210   4968               LDR      R1,[R1, #+4]
   \   00000212   8842               CMP      R0,R1
   \   00000214   3CD2               BCS.N    ??Wifi_Process_19
    584                              {
    585                                   if( Wifi_Send_Result == WIFI_TIME_OUT)       // 응답이 없을 경우 5회시 리셋후 처음부터 접속
   \   00000216   ........           LDR.W    R0,??DataTable38_14
   \   0000021A   0078               LDRB     R0,[R0, #+0]
   \   0000021C   0428               CMP      R0,#+4
   \   0000021E   0FD1               BNE.N    ??Wifi_Process_20
    586                                   {
    587                                        Connectting_Count ++;
   \   00000220   ........           LDR.W    R0,??DataTable38_6
   \   00000224   0078               LDRB     R0,[R0, #+0]
   \   00000226   401C               ADDS     R0,R0,#+1
   \   00000228   ........           LDR.W    R1,??DataTable38_6
   \   0000022C   0870               STRB     R0,[R1, #+0]
    588                                        Info.Wifi_ErrorCount ++;
   \   0000022E   ........           LDR.W    R0,??DataTable38_7
   \   00000232   90F85F00           LDRB     R0,[R0, #+95]
   \   00000236   401C               ADDS     R0,R0,#+1
   \   00000238   ........           LDR.W    R1,??DataTable38_7
   \   0000023C   81F85F00           STRB     R0,[R1, #+95]
    589                                   }
    590                                   
    591                                   if( Wifi_Send_Result != WIFI_WAIT && Wifi_Send_Result != WIFI_SEND)
   \                     ??Wifi_Process_20:
   \   00000240   ........           LDR.W    R0,??DataTable38_14
   \   00000244   0078               LDRB     R0,[R0, #+0]
   \   00000246   0228               CMP      R0,#+2
   \   00000248   22D0               BEQ.N    ??Wifi_Process_19
   \   0000024A   ........           LDR.W    R0,??DataTable38_14
   \   0000024E   0078               LDRB     R0,[R0, #+0]
   \   00000250   0128               CMP      R0,#+1
   \   00000252   1DD0               BEQ.N    ??Wifi_Process_19
    592                                   {
    593                                        // 와이파이가 대기중이거나 전송중이 아니라면
    594          
    595                                        // DTG와 EMS를 선택 한다.                              
    596                                        if(SFLASH_Memory.DTG_EMS_Select == 0)   // DTG 
   \   00000254   ........           LDR.W    R0,??DataTable38_9
   \   00000258   90F8A400           LDRB     R0,[R0, #+164]
   \   0000025C   0028               CMP      R0,#+0
   \   0000025E   08D1               BNE.N    ??Wifi_Process_21
    597                                        {    
    598                                             KMap_Setting( NAND_Data_Transmit.Start_Page );  
   \   00000260   ....               LDR.N    R0,??DataTable36_27
   \   00000262   0068               LDR      R0,[R0, #+0]
   \   00000264   ........           BL       KMap_Setting
    599                                             Wifi_Send_Result = WIFI_SEND;
   \   00000268   ........           LDR.W    R0,??DataTable38_14
   \   0000026C   0121               MOVS     R1,#+1
   \   0000026E   0170               STRB     R1,[R0, #+0]
   \   00000270   0EE0               B.N      ??Wifi_Process_19
    600                                        }
    601                                        else // EMS
    602                                        {                                   
    603                                             if(NAND_Data_Transmit.End_Page - NAND_Data_Transmit.Start_Page >= DATA_SKIPCOUNT)     
   \                     ??Wifi_Process_21:
   \   00000272   ....               LDR.N    R0,??DataTable36_27
   \   00000274   4068               LDR      R0,[R0, #+4]
   \   00000276   ....               LDR.N    R1,??DataTable36_27
   \   00000278   0968               LDR      R1,[R1, #+0]
   \   0000027A   401A               SUBS     R0,R0,R1
   \   0000027C   1428               CMP      R0,#+20
   \   0000027E   07D3               BCC.N    ??Wifi_Process_19
    604                                             {
    605                                                  EMS_Setting( NAND_Data_Transmit.Start_Page);
   \   00000280   ....               LDR.N    R0,??DataTable36_27
   \   00000282   0068               LDR      R0,[R0, #+0]
   \   00000284   ........           BL       EMS_Setting
    606                                                  Wifi_Send_Result = WIFI_SEND;
   \   00000288   ........           LDR.W    R0,??DataTable38_14
   \   0000028C   0121               MOVS     R1,#+1
   \   0000028E   0170               STRB     R1,[R0, #+0]
    607                                             }
    608                                        }                              
    609                                   }
    610                              }
    611                         }
    612                         
    613                    }// End of Swtich Case
    614                    break;
    615               } // ENd of Switch
    616          }
   \                     ??Wifi_Process_19:
   \                     ??Wifi_Process_13:
   \                     ??Wifi_Process_0:
   \   00000290   01BD               POP      {R0,PC}          ;; return

   \                                 In section .bss, align 2
   \                     ??Wifi_MainTimer:
   \   00000000                      DS8 2

   \                                 In section .bss, align 2
   \                     ??Wifi_MainTimer2:
   \   00000000                      DS8 2

   \                                 In section .bss, align 1
   \                     ??Connectting_Count:
   \   00000000                      DS8 1

   \                                 In section .bss, align 1
   \                     ??WaitTimeCount:
   \   00000000                      DS8 1
    617          
    618          

   \                                 In section .text, align 2, keep-with-next
    619          void Wifi_Send(void)                                                       // 와이파이 정상적으로 접속중일때 실제 전송
    620          {
   \                     Wifi_Send:
   \   00000000   80B5               PUSH     {R7,LR}
    621               static u32 Trans_Count = 0;     
    622               static u16 ReSend_Timer = 0;
    623               if(KMap_Transmit_Count != 0 )
   \   00000002   ........           LDR.W    R0,??DataTable37
   \   00000006   0068               LDR      R0,[R0, #+0]
   \   00000008   0028               CMP      R0,#+0
   \   0000000A   7DD0               BEQ.N    ??Wifi_Send_0
    624               {
    625                    if(RF_Module.txep == RF_Module.txsp)
   \   0000000C   ........           LDR.W    R0,??DataTable38_12
   \   00000010   B0F80E08           LDRH     R0,[R0, #+2062]
   \   00000014   ........           LDR.W    R1,??DataTable38_12
   \   00000018   B1F80C18           LDRH     R1,[R1, #+2060]
   \   0000001C   8842               CMP      R0,R1
   \   0000001E   73D1               BNE.N    ??Wifi_Send_0
    626                    {
    627                         memset(RF_Module.txbuf, 0 ,sizeof(RF_Module.txbuf));
   \   00000020   4FF48062           MOV      R2,#+1024
   \   00000024   0021               MOVS     R1,#+0
   \   00000026   ........           LDR.W    R0,??DataTable38_15
   \   0000002A   ........           BL       memset
    628                         RF_Module.txep = RF_Module.txsp = 0;
   \   0000002E   0020               MOVS     R0,#+0
   \   00000030   ........           LDR.W    R1,??DataTable38_12
   \   00000034   A1F80C08           STRH     R0,[R1, #+2060]
   \   00000038   ........           LDR.W    R1,??DataTable38_12
   \   0000003C   A1F80E08           STRH     R0,[R1, #+2062]
    629                         
    630                         if(KMap_Transmit_Count > 512)
   \   00000040   ........           LDR.W    R0,??DataTable37
   \   00000044   0068               LDR      R0,[R0, #+0]
   \   00000046   B0F5007F           CMP      R0,#+512
   \   0000004A   28D9               BLS.N    ??Wifi_Send_1
    631                         {
    632                              memset (Buffer, 0, sizeof(Buffer));
   \   0000004C   4FF40072           MOV      R2,#+512
   \   00000050   0021               MOVS     R1,#+0
   \   00000052   ....               LDR.N    R0,??DataTable36_11
   \   00000054   ........           BL       memset
    633                              memcpy((char *)Buffer,&Tx_RFBuffer[ Trans_Count ] , 512);
   \   00000058   4FF40072           MOV      R2,#+512
   \   0000005C   ........           LDR.W    R0,??DataTable38_16
   \   00000060   0068               LDR      R0,[R0, #+0]
   \   00000062   ........           LDR.W    R1,??DataTable37_5
   \   00000066   4118               ADDS     R1,R0,R1
   \   00000068   ....               LDR.N    R0,??DataTable36_11
   \   0000006A   ........           BL       memcpy
    634                              puts_data(&RF_Module,(char *)Buffer, 512);
   \   0000006E   4FF40072           MOV      R2,#+512
   \   00000072   ....               LDR.N    R1,??DataTable36_11
   \   00000074   ........           LDR.W    R0,??DataTable38_12
   \   00000078   ........           BL       puts_data
    635                              Trans_Count += 512;
   \   0000007C   ........           LDR.W    R0,??DataTable38_16
   \   00000080   0068               LDR      R0,[R0, #+0]
   \   00000082   00F20020           ADDW     R0,R0,#+512
   \   00000086   ........           LDR.W    R1,??DataTable38_16
   \   0000008A   0860               STR      R0,[R1, #+0]
    636                              KMap_Transmit_Count -= 512;
   \   0000008C   ........           LDR.W    R0,??DataTable37
   \   00000090   0068               LDR      R0,[R0, #+0]
   \   00000092   B0F50070           SUBS     R0,R0,#+512
   \   00000096   ........           LDR.W    R1,??DataTable37
   \   0000009A   0860               STR      R0,[R1, #+0]
   \   0000009C   34E0               B.N      ??Wifi_Send_0
    637          //                    printf("%d\r\n",Trans_Count);
    638                         }
    639                         else
    640                         {
    641                              memset (Buffer, 0, sizeof(Buffer));
   \                     ??Wifi_Send_1:
   \   0000009E   4FF40072           MOV      R2,#+512
   \   000000A2   0021               MOVS     R1,#+0
   \   000000A4   ....               LDR.N    R0,??DataTable36_11
   \   000000A6   ........           BL       memset
    642                              memcpy((char *)Buffer,&Tx_RFBuffer[ Trans_Count ] , KMap_Transmit_Count);
   \   000000AA   ........           LDR.W    R0,??DataTable37
   \   000000AE   0268               LDR      R2,[R0, #+0]
   \   000000B0   ........           LDR.W    R0,??DataTable38_16
   \   000000B4   0068               LDR      R0,[R0, #+0]
   \   000000B6   ........           LDR.W    R1,??DataTable37_5
   \   000000BA   4118               ADDS     R1,R0,R1
   \   000000BC   ....               LDR.N    R0,??DataTable36_11
   \   000000BE   ........           BL       memcpy
    643                              puts_data(&RF_Module,(char *)Buffer , KMap_Transmit_Count);
   \   000000C2   ........           LDR.W    R0,??DataTable37
   \   000000C6   0268               LDR      R2,[R0, #+0]
   \   000000C8   ....               LDR.N    R1,??DataTable36_11
   \   000000CA   ........           LDR.W    R0,??DataTable38_12
   \   000000CE   ........           BL       puts_data
    644                              Trans_Count += KMap_Transmit_Count;
   \   000000D2   ........           LDR.W    R0,??DataTable38_16
   \   000000D6   0068               LDR      R0,[R0, #+0]
   \   000000D8   ....               LDR.N    R1,??DataTable37
   \   000000DA   0968               LDR      R1,[R1, #+0]
   \   000000DC   0818               ADDS     R0,R1,R0
   \   000000DE   ........           LDR.W    R1,??DataTable38_16
   \   000000E2   0860               STR      R0,[R1, #+0]
    645                              Trans_Count = 0;
   \   000000E4   ........           LDR.W    R0,??DataTable38_16
   \   000000E8   0021               MOVS     R1,#+0
   \   000000EA   0160               STR      R1,[R0, #+0]
    646                              KMap_Transmit_Count = 0 ;
   \   000000EC   ....               LDR.N    R0,??DataTable37
   \   000000EE   0021               MOVS     R1,#+0
   \   000000F0   0160               STR      R1,[R0, #+0]
    647                              Wifi_Send_Result = WIFI_WAIT;           // 전송하고 기다리기
   \   000000F2   ........           LDR.W    R0,??DataTable38_14
   \   000000F6   0221               MOVS     R1,#+2
   \   000000F8   0170               STRB     R1,[R0, #+0]
    648                              ReSend_Timer = MS_TIMER;
   \   000000FA   ........           LDR.W    R0,??DataTable38_3  ;; 0x40000c00
   \   000000FE   ........           BL       TIM_GetCounter
   \   00000102   ........           LDR.W    R1,??DataTable38_17
   \   00000106   0880               STRH     R0,[R1, #+0]
    649          
    650          //                    printf("%d:%d:%d:%04d  Trans Complete \r\n",SYSTEM_TIME.tm_hour,SYSTEM_TIME.tm_min,SYSTEM_TIME.tm_sec, m_sec); 
    651                         }
    652                    }
    653               }
    654               // ---------- 전송을 완료 했는데 응답이 없다면
    655               if(Wifi_Send_Result == WIFI_WAIT)                      // 
   \                     ??Wifi_Send_0:
   \   00000108   ........           LDR.W    R0,??DataTable38_14
   \   0000010C   0078               LDRB     R0,[R0, #+0]
   \   0000010E   0228               CMP      R0,#+2
   \   00000110   0CD1               BNE.N    ??Wifi_Send_2
    656               {
    657                    if(!CheckTimeOver(5000,ReSend_Timer))        // 기다리는데 응답이 없다면
   \   00000112   ........           LDR.W    R0,??DataTable38_17
   \   00000116   0188               LDRH     R1,[R0, #+0]
   \   00000118   41F28830           MOVW     R0,#+5000
   \   0000011C   ........           BL       CheckTimeOver
   \   00000120   0028               CMP      R0,#+0
   \   00000122   03D0               BEQ.N    ??Wifi_Send_3
    658                         return;
    659                    Wifi_Send_Result = WIFI_TIME_OUT;          
   \                     ??Wifi_Send_4:
   \   00000124   ........           LDR.W    R0,??DataTable38_14
   \   00000128   0421               MOVS     R1,#+4
   \   0000012A   0170               STRB     R1,[R0, #+0]
    660               }
    661          }
   \                     ??Wifi_Send_2:
   \                     ??Wifi_Send_3:
   \   0000012C   01BD               POP      {R0,PC}          ;; return

   \                                 In section .bss, align 4
   \                     ??Trans_Count:
   \   00000000                      DS8 4

   \                                 In section .bss, align 2
   \                     ??ReSend_Timer:
   \   00000000                      DS8 2
    662          

   \                                 In section .text, align 2, keep-with-next
    663          void RF_Communcation(void)
    664          {
   \                     RF_Communcation:
   \   00000000   10B5               PUSH     {R4,LR}
    665               u8 data;
    666               static u16 Rx_StartPoint = 0;
    667               static u16 Wait_Timer = 0;
    668               static u8 FirstReceive =0 ;
    669               u32 Answer;
    670               u32 Length;
    671          
    672               if(RF_Module.rxsp != RF_Module.rxep)
   \   00000002   ........           LDR.W    R0,??DataTable38_12
   \   00000006   B0F80004           LDRH     R0,[R0, #+1024]
   \   0000000A   ........           LDR.W    R1,??DataTable38_12
   \   0000000E   B1F80214           LDRH     R1,[R1, #+1026]
   \   00000012   8842               CMP      R0,R1
   \   00000014   74D0               BEQ.N    ??RF_Communcation_0
    673               {
    674                    data = RF_Module.rxbuf[RF_Module.rxsp++];
   \   00000016   ........           LDR.W    R0,??DataTable38_12
   \   0000001A   B0F80004           LDRH     R0,[R0, #+1024]
   \   0000001E   ........           LDR.W    R1,??DataTable38_12
   \   00000022   445C               LDRB     R4,[R0, R1]
   \   00000024   ........           LDR.W    R0,??DataTable38_12
   \   00000028   B0F80004           LDRH     R0,[R0, #+1024]
   \   0000002C   401C               ADDS     R0,R0,#+1
   \   0000002E   ........           LDR.W    R1,??DataTable38_12
   \   00000032   A1F80004           STRH     R0,[R1, #+1024]
    675                    
    676                    if(WIFI_TestMode == 1)        // PC와 직접 통신모드
   \   00000036   ........           LDR.W    R0,??DataTable38_8
   \   0000003A   0078               LDRB     R0,[R0, #+0]
   \   0000003C   0128               CMP      R0,#+1
   \   0000003E   05D1               BNE.N    ??RF_Communcation_1
    677                    {                
    678                         printf("%c",data);                 
   \   00000040   E4B2               UXTB     R4,R4            ;; ZeroExt  R4,R4,#+24,#+24
   \   00000042   2100               MOVS     R1,R4
   \   00000044   ....               ADR.N    R0,??DataTable37_1  ;; 0x25, 0x63, 0x00, 0x00
   \   00000046   ........           BL       printf
   \   0000004A   4DE0               B.N      ??RF_Communcation_2
    679                    }
    680                    else 
    681                    {
    682                         if(IsTCP_Connect() == 0)      // 서버에 접속되어 있지 않다면   
   \                     ??RF_Communcation_1:
   \   0000004C   ........           BL       IsTCP_Connect
   \   00000050   0028               CMP      R0,#+0
   \   00000052   10D1               BNE.N    ??RF_Communcation_3
    683                         {
    684                              if(FirstReceive == 0)
   \   00000054   ........           LDR.W    R0,??DataTable38_18
   \   00000058   0078               LDRB     R0,[R0, #+0]
   \   0000005A   0028               CMP      R0,#+0
   \   0000005C   25D1               BNE.N    ??RF_Communcation_4
    685                              {
    686                                   FirstReceive = 1;
   \   0000005E   ........           LDR.W    R0,??DataTable38_18
   \   00000062   0121               MOVS     R1,#+1
   \   00000064   0170               STRB     R1,[R0, #+0]
    687                                   Wait_Timer = MS_TIMER;        // 처음 수신을 받으면 1초간 대기
   \   00000066   ........           LDR.W    R0,??DataTable38_3  ;; 0x40000c00
   \   0000006A   ........           BL       TIM_GetCounter
   \   0000006E   ........           LDR.W    R1,??DataTable38_19
   \   00000072   0880               STRH     R0,[R1, #+0]
   \   00000074   19E0               B.N      ??RF_Communcation_4
    688                              } 
    689                         }
    690                         else if( data == 0x0a )       // 전문이 완료
   \                     ??RF_Communcation_3:
   \   00000076   E4B2               UXTB     R4,R4            ;; ZeroExt  R4,R4,#+24,#+24
   \   00000078   0A2C               CMP      R4,#+10
   \   0000007A   16D1               BNE.N    ??RF_Communcation_4
    691                         { 
    692                              if( strstr( ( char * ) Rx_RFBuffer, "[OK]" ) != NULL )
   \   0000007C   ........           ADR.W    R1,`?<Constant "[OK]">`
   \   00000080   ........           LDR.W    R0,??DataTable38_20
   \   00000084   ........           BL       strstr
   \   00000088   0028               CMP      R0,#+0
   \   0000008A   03D0               BEQ.N    ??RF_Communcation_5
    693                              {
    694                                   Wifi_OK = 1;
   \   0000008C   ........           LDR.W    R0,??DataTable38_13
   \   00000090   0121               MOVS     R1,#+1
   \   00000092   0170               STRB     R1,[R0, #+0]
    695                              }
    696                              Rx_RFCount = 0;
   \                     ??RF_Communcation_5:
   \   00000094   ........           LDR.W    R0,??DataTable38_21
   \   00000098   0021               MOVS     R1,#+0
   \   0000009A   0180               STRH     R1,[R0, #+0]
    697                              memset( Rx_RFBuffer, 0, sizeof(Rx_RFBuffer) );               
   \   0000009C   4FF4FA72           MOV      R2,#+500
   \   000000A0   0021               MOVS     R1,#+0
   \   000000A2   ........           LDR.W    R0,??DataTable38_20
   \   000000A6   ........           BL       memset
    698                         }
    699                         
    700                         Rx_RFBuffer[Rx_RFCount++] = data;
   \                     ??RF_Communcation_4:
   \   000000AA   ........           LDR.W    R0,??DataTable38_21
   \   000000AE   0088               LDRH     R0,[R0, #+0]
   \   000000B0   ........           LDR.W    R1,??DataTable38_20
   \   000000B4   4454               STRB     R4,[R0, R1]
   \   000000B6   ........           LDR.W    R0,??DataTable38_21
   \   000000BA   0088               LDRH     R0,[R0, #+0]
   \   000000BC   401C               ADDS     R0,R0,#+1
   \   000000BE   ........           LDR.W    R1,??DataTable38_21
   \   000000C2   0880               STRH     R0,[R1, #+0]
    701                         Rx_RFBuffer[Rx_RFCount] = 0;               
   \   000000C4   ........           LDR.W    R0,??DataTable38_21
   \   000000C8   0088               LDRH     R0,[R0, #+0]
   \   000000CA   ........           LDR.W    R1,??DataTable38_20
   \   000000CE   0022               MOVS     R2,#+0
   \   000000D0   4254               STRB     R2,[R0, R1]
    702                         
    703                         if(Rx_RFCount > 500)          // 오버플로어
   \   000000D2   ........           LDR.W    R0,??DataTable38_21
   \   000000D6   0088               LDRH     R0,[R0, #+0]
   \   000000D8   40F2F511           MOVW     R1,#+501
   \   000000DC   8842               CMP      R0,R1
   \   000000DE   03D3               BCC.N    ??RF_Communcation_2
    704                              Rx_RFCount = 0;
   \   000000E0   ........           LDR.W    R0,??DataTable38_21
   \   000000E4   0021               MOVS     R1,#+0
   \   000000E6   0180               STRH     R1,[R0, #+0]
    705                         
    706                    }
    707                    if(RF_Module.rxsp >= MAX_SERIAL_BUF)   RF_Module.rxsp = 0 ;                
   \                     ??RF_Communcation_2:
   \   000000E8   ........           LDR.W    R0,??DataTable38_12
   \   000000EC   B0F80004           LDRH     R0,[R0, #+1024]
   \   000000F0   B0F5806F           CMP      R0,#+1024
   \   000000F4   04D3               BCC.N    ??RF_Communcation_0
   \   000000F6   ........           LDR.W    R0,??DataTable38_12
   \   000000FA   0021               MOVS     R1,#+0
   \   000000FC   A0F80014           STRH     R1,[R0, #+1024]
    708               }     
    709               if(!CheckTimeOver(1000,Wait_Timer))       // 없을 경우 
   \                     ??RF_Communcation_0:
   \   00000100   ........           LDR.W    R0,??DataTable38_19
   \   00000104   0188               LDRH     R1,[R0, #+0]
   \   00000106   4FF47A70           MOV      R0,#+1000
   \   0000010A   ........           BL       CheckTimeOver
   \   0000010E   0028               CMP      R0,#+0
   \   00000110   24D0               BEQ.N    ??RF_Communcation_6
    710                    return;     
    711               if( FirstReceive == 1 )
   \                     ??RF_Communcation_7:
   \   00000112   ........           LDR.W    R0,??DataTable38_18
   \   00000116   0078               LDRB     R0,[R0, #+0]
   \   00000118   0128               CMP      R0,#+1
   \   0000011A   1FD1               BNE.N    ??RF_Communcation_8
    712               {
    713                    if( Rx_RFCount >= sizeof(Protocol_Rev))      // 수신된 데이터가 
   \   0000011C   ........           LDR.W    R0,??DataTable38_21
   \   00000120   0088               LDRH     R0,[R0, #+0]
   \   00000122   5428               CMP      R0,#+84
   \   00000124   22D2               BCS.N    ??RF_Communcation_9
    714                    {
    715                         while(1)
    716                         {
    717                              if(Rx_StartPoint == Rx_RFCount)
    718                              {
    719                                   Wifi_Send_Result = WIFI_ERROR_RESEND;
    720                                   Rx_RFCount = 0;
    721                                   Rx_StartPoint = 0;
    722                                   memset( Rx_RFBuffer, 0, sizeof(Rx_RFBuffer) );  
    723                                   return ; 
    724                              }
    725                              memcpy( &Protocol_Rev, &Rx_RFBuffer[Rx_StartPoint],sizeof(Protocol_Rev) );
    726                              Length = ConvertInteger (Protocol_Rev.PacketSize);
    727                              if( Length >= 80)
    728                              {
    729                                   //                              memcpy( &Protocol_Rev, &Rx_RFBuffer[Rx_StartPoint],sizeof(Protocol_Rev) );
    730                                   if(Protocol_Rev.ServiceID[2] == 0x0f && Protocol_Rev.ServiceID[3] == 0xa1)
    731                                   {
    732                                        if(Protocol_Rev.Message.Parameter4.Name[0] == 'R' && Protocol_Rev.Message.Parameter4.Name[2] == 'S')
    733                                        {
    734                                             Answer = ConvertInteger(Protocol_Rev.Message.Parameter4.Result);
    735                                             if(Answer == 0 || Answer == 101)
    736                                             {
    737                                                  FirstReceive = 0;
    738                                                  Rx_StartPoint = 0;
    739                                                  Wifi_Send_Result = WIFI_SEND_OK;// 수신 완료 메세지
    740                                                  
    741                                                  Write_Transmit_Header();      // 전송하고 저장하기
    742          
    743                                                  if(SFLASH_Memory.DTG_EMS_Select == 0)   // DTG      
    744                                                  {
    745                                                       NAND_Data_Transmit.Start_Page++;
    746                                                       if( NAND_Data_Transmit.End_Page == NAND_Data_Transmit.Start_Page ) //전송할 페이지가 없으면 종료
    747                                                       {
    748                                                            Wifi_Result = WIFI_NO_INIT;
    749                                                            Wifi_Reset();                                             
    750                                                       }                                             
    751                                                  }else
    752                                                  {
    753          
    754                                                       NAND_Data_Transmit.Start_Page += ( Trans_PageCount * DATA_SKIPCOUNT );
    755                                                       
    756                                                       if( NAND_Data_Transmit.End_Page - NAND_Data_Transmit.Start_Page < DATA_SKIPCOUNT) //전송할 페이지가 없으면 종료
    757                                                       {
    758                                                            Wifi_Result = WIFI_NO_INIT;
    759                                                            Wifi_Reset();
    760                                                       }
    761                                                  }
    762                                                  Rx_RFCount = 0;               // 버퍼 클리어
    763                                                  memset( Rx_RFBuffer, 0, sizeof(Rx_RFBuffer) );        
    764                                                  return ;
    765                                             }
    766                                             else              // 서버 처리 끝나면 추가
    767                                             {
    768                                                  Wifi_Send_Result = WIFI_ERROR_RESEND;// 수신 완료 메세지
    769          //                                        NAND_Data_Transmit.Start_Page++;        // 다음페이지 저농
    770                                                  Rx_RFCount = 0;               // 버퍼 클리어
    771                                                  Rx_StartPoint = 0;
    772                                                  memset( Rx_RFBuffer, 0, sizeof(Rx_RFBuffer) );  
    773                                                  return;
    774                                             }
    775                                        }
    776                                   }
    777                              }
    778                              Rx_StartPoint++;                    
    779                         }         // end of while
    780                    }
    781                    else      // 정상 패킷보다 작다면 클리어 시킨다.
    782                    {
    783                         Wifi_Send_Result = WIFI_ERROR_RESEND;
   \   00000126   ........           LDR.W    R0,??DataTable38_14
   \   0000012A   0321               MOVS     R1,#+3
   \   0000012C   0170               STRB     R1,[R0, #+0]
    784                         FirstReceive = 0;
   \   0000012E   ........           LDR.W    R0,??DataTable38_18
   \   00000132   0021               MOVS     R1,#+0
   \   00000134   0170               STRB     R1,[R0, #+0]
    785                         Rx_RFCount = 0;
   \   00000136   ........           LDR.W    R0,??DataTable38_21
   \   0000013A   0021               MOVS     R1,#+0
   \   0000013C   0180               STRH     R1,[R0, #+0]
    786                         Rx_StartPoint = 0;
   \   0000013E   ........           LDR.W    R0,??DataTable38_22
   \   00000142   0021               MOVS     R1,#+0
   \   00000144   0180               STRH     R1,[R0, #+0]
    787                         memset( Rx_RFBuffer, 0, sizeof(Rx_RFBuffer) );                 
   \   00000146   4FF4FA72           MOV      R2,#+500
   \   0000014A   0021               MOVS     R1,#+0
   \   0000014C   ........           LDR.W    R0,??DataTable38_20
   \   00000150   ........           BL       memset
    788                    }
    789                    FirstReceive = 0;
   \   00000154   ........           LDR.W    R0,??DataTable38_18
   \   00000158   0021               MOVS     R1,#+0
   \   0000015A   0170               STRB     R1,[R0, #+0]
    790               }
    791          }
   \                     ??RF_Communcation_8:
   \                     ??RF_Communcation_6:
   \   0000015C   10BD               POP      {R4,PC}          ;; return
   \                     ??RF_Communcation_10:
   \   0000015E   ........           LDR.W    R0,??DataTable38_22
   \   00000162   0088               LDRH     R0,[R0, #+0]
   \   00000164   401C               ADDS     R0,R0,#+1
   \   00000166   ........           LDR.W    R1,??DataTable38_22
   \   0000016A   0880               STRH     R0,[R1, #+0]
   \                     ??RF_Communcation_9:
   \   0000016C   ........           LDR.W    R0,??DataTable38_22
   \   00000170   0088               LDRH     R0,[R0, #+0]
   \   00000172   ........           LDR.W    R1,??DataTable38_21
   \   00000176   0988               LDRH     R1,[R1, #+0]
   \   00000178   8842               CMP      R0,R1
   \   0000017A   13D1               BNE.N    ??RF_Communcation_11
   \   0000017C   ........           LDR.W    R0,??DataTable38_14
   \   00000180   0321               MOVS     R1,#+3
   \   00000182   0170               STRB     R1,[R0, #+0]
   \   00000184   ........           LDR.W    R0,??DataTable38_21
   \   00000188   0021               MOVS     R1,#+0
   \   0000018A   0180               STRH     R1,[R0, #+0]
   \   0000018C   ........           LDR.W    R0,??DataTable38_22
   \   00000190   0021               MOVS     R1,#+0
   \   00000192   0180               STRH     R1,[R0, #+0]
   \   00000194   4FF4FA72           MOV      R2,#+500
   \   00000198   0021               MOVS     R1,#+0
   \   0000019A   ........           LDR.W    R0,??DataTable38_20
   \   0000019E   ........           BL       memset
   \   000001A2   DBE7               B.N      ??RF_Communcation_6
   \                     ??RF_Communcation_11:
   \   000001A4   5422               MOVS     R2,#+84
   \   000001A6   ........           LDR.W    R0,??DataTable38_22
   \   000001AA   0088               LDRH     R0,[R0, #+0]
   \   000001AC   ........           LDR.W    R1,??DataTable38_20
   \   000001B0   4118               ADDS     R1,R0,R1
   \   000001B2   ........           LDR.W    R0,??DataTable38_23
   \   000001B6   ........           BL       memcpy
   \   000001BA   ........           LDR.W    R0,??DataTable38_23
   \   000001BE   ........           BL       ConvertInteger
   \   000001C2   5028               CMP      R0,#+80
   \   000001C4   CBD3               BCC.N    ??RF_Communcation_10
   \   000001C6   ........           LDR.W    R0,??DataTable38_23
   \   000001CA   90F82700           LDRB     R0,[R0, #+39]
   \   000001CE   0F28               CMP      R0,#+15
   \   000001D0   C5D1               BNE.N    ??RF_Communcation_10
   \   000001D2   ........           LDR.W    R0,??DataTable38_23
   \   000001D6   90F82800           LDRB     R0,[R0, #+40]
   \   000001DA   A128               CMP      R0,#+161
   \   000001DC   BFD1               BNE.N    ??RF_Communcation_10
   \   000001DE   ........           LDR.W    R0,??DataTable38_23
   \   000001E2   90F84500           LDRB     R0,[R0, #+69]
   \   000001E6   5228               CMP      R0,#+82
   \   000001E8   B9D1               BNE.N    ??RF_Communcation_10
   \   000001EA   ........           LDR.W    R0,??DataTable38_23
   \   000001EE   90F84700           LDRB     R0,[R0, #+71]
   \   000001F2   5328               CMP      R0,#+83
   \   000001F4   B3D1               BNE.N    ??RF_Communcation_10
   \   000001F6   ....               LDR.N    R0,??DataTable38_24
   \   000001F8   ........           BL       ConvertInteger
   \   000001FC   0028               CMP      R0,#+0
   \   000001FE   01D0               BEQ.N    ??RF_Communcation_12
   \   00000200   6528               CMP      R0,#+101
   \   00000202   3FD1               BNE.N    ??RF_Communcation_13
   \                     ??RF_Communcation_12:
   \   00000204   ....               LDR.N    R0,??DataTable38_18
   \   00000206   0021               MOVS     R1,#+0
   \   00000208   0170               STRB     R1,[R0, #+0]
   \   0000020A   ....               LDR.N    R0,??DataTable38_22
   \   0000020C   0021               MOVS     R1,#+0
   \   0000020E   0180               STRH     R1,[R0, #+0]
   \   00000210   ....               LDR.N    R0,??DataTable38_14
   \   00000212   0521               MOVS     R1,#+5
   \   00000214   0170               STRB     R1,[R0, #+0]
   \   00000216   ........           BL       Write_Transmit_Header
   \   0000021A   ....               LDR.N    R0,??DataTable38_9
   \   0000021C   90F8A400           LDRB     R0,[R0, #+164]
   \   00000220   0028               CMP      R0,#+0
   \   00000222   10D1               BNE.N    ??RF_Communcation_14
   \   00000224   ....               LDR.N    R0,??DataTable38_25
   \   00000226   0068               LDR      R0,[R0, #+0]
   \   00000228   401C               ADDS     R0,R0,#+1
   \   0000022A   ....               LDR.N    R1,??DataTable38_25
   \   0000022C   0860               STR      R0,[R1, #+0]
   \   0000022E   ....               LDR.N    R0,??DataTable38_25
   \   00000230   4068               LDR      R0,[R0, #+4]
   \   00000232   ....               LDR.N    R1,??DataTable38_25
   \   00000234   0968               LDR      R1,[R1, #+0]
   \   00000236   8842               CMP      R0,R1
   \   00000238   1AD1               BNE.N    ??RF_Communcation_15
   \   0000023A   ....               LDR.N    R0,??DataTable38_26
   \   0000023C   0021               MOVS     R1,#+0
   \   0000023E   0170               STRB     R1,[R0, #+0]
   \   00000240   ........           BL       Wifi_Reset
   \   00000244   14E0               B.N      ??RF_Communcation_15
   \                     ??RF_Communcation_14:
   \   00000246   ....               LDR.N    R0,??DataTable38_25
   \   00000248   0068               LDR      R0,[R0, #+0]
   \   0000024A   ....               LDR.N    R1,??DataTable38_27
   \   0000024C   0988               LDRH     R1,[R1, #+0]
   \   0000024E   1422               MOVS     R2,#+20
   \   00000250   02FB0100           MLA      R0,R2,R1,R0
   \   00000254   ....               LDR.N    R1,??DataTable38_25
   \   00000256   0860               STR      R0,[R1, #+0]
   \   00000258   ....               LDR.N    R0,??DataTable38_25
   \   0000025A   4068               LDR      R0,[R0, #+4]
   \   0000025C   ....               LDR.N    R1,??DataTable38_25
   \   0000025E   0968               LDR      R1,[R1, #+0]
   \   00000260   401A               SUBS     R0,R0,R1
   \   00000262   1428               CMP      R0,#+20
   \   00000264   04D2               BCS.N    ??RF_Communcation_15
   \   00000266   ....               LDR.N    R0,??DataTable38_26
   \   00000268   0021               MOVS     R1,#+0
   \   0000026A   0170               STRB     R1,[R0, #+0]
   \   0000026C   ........           BL       Wifi_Reset
   \                     ??RF_Communcation_15:
   \   00000270   ....               LDR.N    R0,??DataTable38_21
   \   00000272   0021               MOVS     R1,#+0
   \   00000274   0180               STRH     R1,[R0, #+0]
   \   00000276   4FF4FA72           MOV      R2,#+500
   \   0000027A   0021               MOVS     R1,#+0
   \   0000027C   ....               LDR.N    R0,??DataTable38_20
   \   0000027E   ........           BL       memset
   \   00000282   6BE7               B.N      ??RF_Communcation_6
   \                     ??RF_Communcation_13:
   \   00000284   ....               LDR.N    R0,??DataTable38_14
   \   00000286   0321               MOVS     R1,#+3
   \   00000288   0170               STRB     R1,[R0, #+0]
   \   0000028A   ....               LDR.N    R0,??DataTable38_21
   \   0000028C   0021               MOVS     R1,#+0
   \   0000028E   0180               STRH     R1,[R0, #+0]
   \   00000290   ....               LDR.N    R0,??DataTable38_22
   \   00000292   0021               MOVS     R1,#+0
   \   00000294   0180               STRH     R1,[R0, #+0]
   \   00000296   4FF4FA72           MOV      R2,#+500
   \   0000029A   0021               MOVS     R1,#+0
   \   0000029C   ....               LDR.N    R0,??DataTable38_20
   \   0000029E   ........           BL       memset
   \   000002A2   5BE7               B.N      ??RF_Communcation_6

   \                                 In section .bss, align 2
   \                     ??Rx_StartPoint:
   \   00000000                      DS8 2

   \                                 In section .bss, align 2
   \                     ??Wait_Timer:
   \   00000000                      DS8 2

   \                                 In section .bss, align 1
   \                     ??FirstReceive:
   \   00000000                      DS8 1

   \                                 In section .text, align 2, keep-with-next
    792          void Wifi_ProfileSetting(void)          // Wifi 세팅 완료하기
    793          {
   \                     Wifi_ProfileSetting:
   \   00000000   00B5               PUSH     {LR}
   \   00000002   8BB0               SUB      SP,SP,#+44
    794          	const int Message[10] = {0,4,5,6,7,8,9,10,11,12};     
   \   00000004   01A8               ADD      R0,SP,#+4
   \   00000006   ........           ADR.W    R1,`?<Constant {0, 4, 5, 6, 7, 8, 9, 10, 11, 12}>`
   \   0000000A   2822               MOVS     R2,#+40
   \   0000000C   ........           BL       __aeabi_memcpy4
    795               static u8 Setting_Step = 0;
    796               static WIFI_PROFILE Save_Step = WIFI_SAVE_INIT;
    797               static u8 WaitTimeCount = 0;
    798          
    799               static u8 Connectting_Count = 0 ;
    800               
    801               WaitTimeCount++;
   \   00000010   ....               LDR.N    R0,??DataTable38_28
   \   00000012   0078               LDRB     R0,[R0, #+0]
   \   00000014   401C               ADDS     R0,R0,#+1
   \   00000016   ....               LDR.N    R1,??DataTable38_28
   \   00000018   0870               STRB     R0,[R1, #+0]
    802               if(Connectting_Count > 5)                // 5회이상 검사시 에러발생한다면
   \   0000001A   ....               LDR.N    R0,??DataTable38_29
   \   0000001C   0078               LDRB     R0,[R0, #+0]
   \   0000001E   0628               CMP      R0,#+6
   \   00000020   0ED3               BCC.N    ??Wifi_ProfileSetting_0
    803               {          
    804                    Wifi_Reset();
   \   00000022   ........           BL       Wifi_Reset
    805                    Input_Mode = 4;
   \   00000026   ....               LDR.N    R0,??DataTable38_30
   \   00000028   0421               MOVS     R1,#+4
   \   0000002A   0170               STRB     R1,[R0, #+0]
    806                    Flag.Wifi_Check = 0;                    // 응답을 기다린다.
   \   0000002C   ....               LDR.N    R0,??DataTable38_4
   \   0000002E   0021               MOVS     R1,#+0
   \   00000030   0171               STRB     R1,[R0, #+4]
    807                    Flag.Wifi_SettingFlag = 0;          
   \   00000032   ....               LDR.N    R0,??DataTable38_4
   \   00000034   0021               MOVS     R1,#+0
   \   00000036   8173               STRB     R1,[R0, #+14]
    808                    Connectting_Count = 0;
   \   00000038   ....               LDR.N    R0,??DataTable38_29
   \   0000003A   0021               MOVS     R1,#+0
   \   0000003C   0170               STRB     R1,[R0, #+0]
    809                    return;                                 // 더이상 검사하지 않는다.
   \   0000003E   C5E0               B.N      ??Wifi_ProfileSetting_1
    810               }
    811               switch( Save_Step )              
   \                     ??Wifi_ProfileSetting_0:
   \   00000040   ....               LDR.N    R0,??DataTable38_31
   \   00000042   0078               LDRB     R0,[R0, #+0]
   \   00000044   0028               CMP      R0,#+0
   \   00000046   08D0               BEQ.N    ??Wifi_ProfileSetting_2
   \   00000048   0228               CMP      R0,#+2
   \   0000004A   39D0               BEQ.N    ??Wifi_ProfileSetting_3
   \   0000004C   1BD3               BCC.N    ??Wifi_ProfileSetting_4
   \   0000004E   0428               CMP      R0,#+4
   \   00000050   00F0B080           BEQ.W    ??Wifi_ProfileSetting_5
   \   00000054   C0F08A80           BCC.W    ??Wifi_ProfileSetting_6
   \   00000058   B8E0               B.N      ??Wifi_ProfileSetting_7
    812               {     
    813               case WIFI_SAVE_INIT:        // 와이파이가 초기 접속 테스트
    814                    {
    815                         puts_string(&RF_Module, (char*)Wifi_SettingString[0]);      // [AT] AT 접속 확인
   \                     ??Wifi_ProfileSetting_2:
   \   0000005A   ....               LDR.N    R0,??DataTable38_11
   \   0000005C   0168               LDR      R1,[R0, #+0]
   \   0000005E   ....               LDR.N    R0,??DataTable38_12
   \   00000060   ........           BL       puts_string
    816                         puts_string(&RF_Module, (char*)Wifi_SettingString[1]);      // [+++] Command 모드 확인
   \   00000064   ....               LDR.N    R0,??DataTable38_11
   \   00000066   4168               LDR      R1,[R0, #+4]
   \   00000068   ....               LDR.N    R0,??DataTable38_12
   \   0000006A   ........           BL       puts_string
    817                         
    818                         WaitTimeCount = 0;                      // 재접속 시간 클리어
   \   0000006E   ....               LDR.N    R0,??DataTable38_28
   \   00000070   0021               MOVS     R1,#+0
   \   00000072   0170               STRB     R1,[R0, #+0]
    819                         Connectting_Count ++;                   // 접속 횟수 체크
   \   00000074   ....               LDR.N    R0,??DataTable38_29
   \   00000076   0078               LDRB     R0,[R0, #+0]
   \   00000078   401C               ADDS     R0,R0,#+1
   \   0000007A   ....               LDR.N    R1,??DataTable38_29
   \   0000007C   0870               STRB     R0,[R1, #+0]
    820                         Save_Step = WIFI_SAVE_INIT_WAIT;
   \   0000007E   ....               LDR.N    R0,??DataTable38_31
   \   00000080   0121               MOVS     R1,#+1
   \   00000082   0170               STRB     R1,[R0, #+0]
    821                    }break;
   \   00000084   A2E0               B.N      ??Wifi_ProfileSetting_7
    822               case WIFI_SAVE_INIT_WAIT:       // 5 초간 대기 후에 접속한다.
    823                    {
    824                         if(Wifi_OK == 1)
   \                     ??Wifi_ProfileSetting_4:
   \   00000086   ....               LDR.N    R0,??DataTable38_13
   \   00000088   0078               LDRB     R0,[R0, #+0]
   \   0000008A   0128               CMP      R0,#+1
   \   0000008C   0ED1               BNE.N    ??Wifi_ProfileSetting_8
    825                         {
    826                              Save_Step = WIFI_SETTING;
   \   0000008E   ....               LDR.N    R0,??DataTable38_31
   \   00000090   0221               MOVS     R1,#+2
   \   00000092   0170               STRB     R1,[R0, #+0]
    827                              Connectting_Count = 0;
   \   00000094   ....               LDR.N    R0,??DataTable38_29
   \   00000096   0021               MOVS     R1,#+0
   \   00000098   0170               STRB     R1,[R0, #+0]
    828                              Flag.Wifi_Check = 1;                    // 응답을 기다린다.
   \   0000009A   ....               LDR.N    R0,??DataTable38_4
   \   0000009C   0121               MOVS     R1,#+1
   \   0000009E   0171               STRB     R1,[R0, #+4]
    829                              WaitTimeCount = 0;                      // 재접속 시간 클리어   
   \   000000A0   ....               LDR.N    R0,??DataTable38_28
   \   000000A2   0021               MOVS     R1,#+0
   \   000000A4   0170               STRB     R1,[R0, #+0]
    830                              Setting_Step = 1;
   \   000000A6   ....               LDR.N    R0,??DataTable38_32
   \   000000A8   0121               MOVS     R1,#+1
   \   000000AA   0170               STRB     R1,[R0, #+0]
    831                         }
    832                         if( WaitTimeCount > 10)
   \                     ??Wifi_ProfileSetting_8:
   \   000000AC   ....               LDR.N    R0,??DataTable38_28
   \   000000AE   0078               LDRB     R0,[R0, #+0]
   \   000000B0   0B28               CMP      R0,#+11
   \   000000B2   04D3               BCC.N    ??Wifi_ProfileSetting_9
    833                         {
    834                              Save_Step = WIFI_SAVE_INIT;
   \   000000B4   ....               LDR.N    R0,??DataTable38_31
   \   000000B6   0021               MOVS     R1,#+0
   \   000000B8   0170               STRB     R1,[R0, #+0]
    835                              Wifi_Reset();    
   \   000000BA   ........           BL       Wifi_Reset
    836                         }
    837                    }break;
   \                     ??Wifi_ProfileSetting_9:
   \   000000BE   85E0               B.N      ??Wifi_ProfileSetting_7
    838               case WIFI_SETTING:         // 와이파이가 정상적으로 삽입 된 상태
    839                    {
    840                         if(Setting_Step == 6)
   \                     ??Wifi_ProfileSetting_3:
   \   000000C0   ....               LDR.N    R0,??DataTable38_32
   \   000000C2   0078               LDRB     R0,[R0, #+0]
   \   000000C4   0628               CMP      R0,#+6
   \   000000C6   14D1               BNE.N    ??Wifi_ProfileSetting_10
    841                         {
    842                              sprintf((char*)Buffer,"%s%s,%s\r",Wifi_SettingString[Message[Setting_Step]],SFLASH_Wifi.ServerIP,SFLASH_Wifi.ServerPort  );
   \   000000C8   ....               LDR.N    R0,??DataTable38_33
   \   000000CA   0090               STR      R0,[SP, #+0]
   \   000000CC   ....               LDR.N    R3,??DataTable38_34
   \   000000CE   ....               LDR.N    R0,??DataTable38_32
   \   000000D0   0078               LDRB     R0,[R0, #+0]
   \   000000D2   01A9               ADD      R1,SP,#+4
   \   000000D4   51F82000           LDR      R0,[R1, R0, LSL #+2]
   \   000000D8   ....               LDR.N    R1,??DataTable38_11
   \   000000DA   51F82020           LDR      R2,[R1, R0, LSL #+2]
   \   000000DE   ........           ADR.W    R1,`?<Constant "%s%s,%s\\r">`
   \   000000E2   ....               LDR.N    R0,??DataTable38_35
   \   000000E4   ........           BL       sprintf
    843                              puts_string(&RF_Module,(char *)Buffer);      // AT 접속 확인                        
   \   000000E8   ....               LDR.N    R1,??DataTable38_35
   \   000000EA   ....               LDR.N    R0,??DataTable38_12
   \   000000EC   ........           BL       puts_string
   \   000000F0   38E0               B.N      ??Wifi_ProfileSetting_11
    844                         }else if (Setting_Step == 7)
   \                     ??Wifi_ProfileSetting_10:
   \   000000F2   ....               LDR.N    R0,??DataTable38_32
   \   000000F4   0078               LDRB     R0,[R0, #+0]
   \   000000F6   0728               CMP      R0,#+7
   \   000000F8   12D1               BNE.N    ??Wifi_ProfileSetting_12
    845                         {
    846                              sprintf((char*)Buffer,"%s%s\r",Wifi_SettingString[Message[Setting_Step]],SFLASH_Wifi.SSID);
   \   000000FA   ....               LDR.N    R3,??DataTable38_36
   \   000000FC   ....               LDR.N    R0,??DataTable38_32
   \   000000FE   0078               LDRB     R0,[R0, #+0]
   \   00000100   01A9               ADD      R1,SP,#+4
   \   00000102   51F82000           LDR      R0,[R1, R0, LSL #+2]
   \   00000106   ....               LDR.N    R1,??DataTable38_11
   \   00000108   51F82020           LDR      R2,[R1, R0, LSL #+2]
   \   0000010C   ........           ADR.W    R1,`?<Constant "%s%s\\r">`
   \   00000110   ....               LDR.N    R0,??DataTable38_35
   \   00000112   ........           BL       sprintf
    847                              puts_string(&RF_Module,(char *)Buffer);      // AT 접속 확인                        
   \   00000116   ....               LDR.N    R1,??DataTable38_35
   \   00000118   ....               LDR.N    R0,??DataTable38_12
   \   0000011A   ........           BL       puts_string
   \   0000011E   21E0               B.N      ??Wifi_ProfileSetting_11
    848                         }else if (Setting_Step == 8)
   \                     ??Wifi_ProfileSetting_12:
   \   00000120   ....               LDR.N    R0,??DataTable38_32
   \   00000122   0078               LDRB     R0,[R0, #+0]
   \   00000124   0828               CMP      R0,#+8
   \   00000126   12D1               BNE.N    ??Wifi_ProfileSetting_13
    849                         {
    850                              sprintf((char*)Buffer,"%s%s\r",Wifi_SettingString[Message[Setting_Step]],SFLASH_Wifi.WWPA);
   \   00000128   ....               LDR.N    R3,??DataTable38_37
   \   0000012A   ....               LDR.N    R0,??DataTable38_32
   \   0000012C   0078               LDRB     R0,[R0, #+0]
   \   0000012E   01A9               ADD      R1,SP,#+4
   \   00000130   51F82000           LDR      R0,[R1, R0, LSL #+2]
   \   00000134   ....               LDR.N    R1,??DataTable38_11
   \   00000136   51F82020           LDR      R2,[R1, R0, LSL #+2]
   \   0000013A   ........           ADR.W    R1,`?<Constant "%s%s\\r">`
   \   0000013E   ....               LDR.N    R0,??DataTable38_35
   \   00000140   ........           BL       sprintf
    851                              puts_string(&RF_Module,(char *)Buffer);      // AT 접속 확인                             
   \   00000144   ....               LDR.N    R1,??DataTable38_35
   \   00000146   ....               LDR.N    R0,??DataTable38_12
   \   00000148   ........           BL       puts_string
   \   0000014C   0AE0               B.N      ??Wifi_ProfileSetting_11
    852                         }else
    853                         {
    854                              puts_string(&RF_Module, (char*)Wifi_SettingString[Message[Setting_Step]]);      // AT 접속 확인    
   \                     ??Wifi_ProfileSetting_13:
   \   0000014E   ....               LDR.N    R0,??DataTable38_32
   \   00000150   0078               LDRB     R0,[R0, #+0]
   \   00000152   01A9               ADD      R1,SP,#+4
   \   00000154   51F82000           LDR      R0,[R1, R0, LSL #+2]
   \   00000158   ....               LDR.N    R1,??DataTable38_11
   \   0000015A   51F82010           LDR      R1,[R1, R0, LSL #+2]
   \   0000015E   ....               LDR.N    R0,??DataTable38_12
   \   00000160   ........           BL       puts_string
    855                         }
    856                         Save_Step = WIFI_SETTING_WAIT;
   \                     ??Wifi_ProfileSetting_11:
   \   00000164   ....               LDR.N    R0,??DataTable38_31
   \   00000166   0321               MOVS     R1,#+3
   \   00000168   0170               STRB     R1,[R0, #+0]
    857                    }break;
   \   0000016A   2FE0               B.N      ??Wifi_ProfileSetting_7
    858               case WIFI_SETTING_WAIT:
    859                    {
    860                         if( Wifi_OK == 1 )
   \                     ??Wifi_ProfileSetting_6:
   \   0000016C   ....               LDR.N    R0,??DataTable38_13
   \   0000016E   0078               LDRB     R0,[R0, #+0]
   \   00000170   0128               CMP      R0,#+1
   \   00000172   17D1               BNE.N    ??Wifi_ProfileSetting_14
    861                         {
    862                              Setting_Step++;
   \   00000174   ....               LDR.N    R0,??DataTable38_32
   \   00000176   0078               LDRB     R0,[R0, #+0]
   \   00000178   401C               ADDS     R0,R0,#+1
   \   0000017A   ....               LDR.N    R1,??DataTable38_32
   \   0000017C   0870               STRB     R0,[R1, #+0]
    863                              Save_Step = WIFI_SETTING;
   \   0000017E   ....               LDR.N    R0,??DataTable38_31
   \   00000180   0221               MOVS     R1,#+2
   \   00000182   0170               STRB     R1,[R0, #+0]
    864                              Connectting_Count = 0;
   \   00000184   ....               LDR.N    R0,??DataTable38_29
   \   00000186   0021               MOVS     R1,#+0
   \   00000188   0170               STRB     R1,[R0, #+0]
    865                              Flag.Wifi_Check = 1;                    // 응답을 기다린다.
   \   0000018A   ....               LDR.N    R0,??DataTable38_4
   \   0000018C   0121               MOVS     R1,#+1
   \   0000018E   0171               STRB     R1,[R0, #+4]
    866                              WaitTimeCount = 0;                      // 재접속 시간 클리어    
   \   00000190   ....               LDR.N    R0,??DataTable38_28
   \   00000192   0021               MOVS     R1,#+0
   \   00000194   0170               STRB     R1,[R0, #+0]
    867                              if(Setting_Step == 10)
   \   00000196   ....               LDR.N    R0,??DataTable38_32
   \   00000198   0078               LDRB     R0,[R0, #+0]
   \   0000019A   0A28               CMP      R0,#+10
   \   0000019C   02D1               BNE.N    ??Wifi_ProfileSetting_14
    868                                   Save_Step = WIFI_COMPLETE;
   \   0000019E   ....               LDR.N    R0,??DataTable38_31
   \   000001A0   0421               MOVS     R1,#+4
   \   000001A2   0170               STRB     R1,[R0, #+0]
    869                         }
    870                         if( WaitTimeCount > 10 )
   \                     ??Wifi_ProfileSetting_14:
   \   000001A4   ....               LDR.N    R0,??DataTable38_28
   \   000001A6   0078               LDRB     R0,[R0, #+0]
   \   000001A8   0B28               CMP      R0,#+11
   \   000001AA   02D3               BCC.N    ??Wifi_ProfileSetting_15
    871                              Save_Step = WIFI_SETTING;
   \   000001AC   ....               LDR.N    R0,??DataTable38_31
   \   000001AE   0221               MOVS     R1,#+2
   \   000001B0   0170               STRB     R1,[R0, #+0]
    872                    }break;
   \                     ??Wifi_ProfileSetting_15:
   \   000001B2   0BE0               B.N      ??Wifi_ProfileSetting_7
    873               case WIFI_COMPLETE:
    874                    {
    875                         Voice_OutAdd(VOICE_UPDATEDONE);
   \                     ??Wifi_ProfileSetting_5:
   \   000001B4   0820               MOVS     R0,#+8
   \   000001B6   ........           BL       Voice_OutAdd
    876                         Input_Mode = 3;
   \   000001BA   ....               LDR.N    R0,??DataTable38_30
   \   000001BC   0321               MOVS     R1,#+3
   \   000001BE   0170               STRB     R1,[R0, #+0]
    877                         Flag.Wifi_SettingFlag = 0;
   \   000001C0   ....               LDR.N    R0,??DataTable38_4
   \   000001C2   0021               MOVS     R1,#+0
   \   000001C4   8173               STRB     R1,[R0, #+14]
    878                         Save_Step = WIFI_SAVE_INIT;
   \   000001C6   ....               LDR.N    R0,??DataTable38_31
   \   000001C8   0021               MOVS     R1,#+0
   \   000001CA   0170               STRB     R1,[R0, #+0]
    879                    }break;
    880               }
    881          }
   \                     ??Wifi_ProfileSetting_7:
   \                     ??Wifi_ProfileSetting_1:
   \   000001CC   0BB0               ADD      SP,SP,#+44
   \   000001CE   00BD               POP      {PC}             ;; return

   \                                 In section .bss, align 1
   \                     ??Setting_Step:
   \   00000000                      DS8 1

   \                                 In section .bss, align 1
   \                     ??Save_Step:
   \   00000000                      DS8 1

   \                                 In section .bss, align 1
   \                     ??WaitTimeCount_1:
   \   00000000                      DS8 1

   \                                 In section .bss, align 1
   \                     ??Connectting_Count_1:
   \   00000000                      DS8 1

   \                                 In section .text, align 4, keep-with-next
   \                     ??DataTable32:
   \   00000000   25730000           DC8      0x25, 0x73, 0x00, 0x00

   \                                 In section .text, align 4, keep-with-next
   \                     ??DataTable32_1:
   \   00000000   4F504300           DC8      "OPC"

   \                                 In section .text, align 4, keep-with-next
   \                     ??DataTable32_2:
   \   00000000   44415400           DC8      "DAT"

   \                                 In section .text, align 4, keep-with-next
   \                     ??DataTable32_3:
   \   00000000   4F505400           DC8      "OPT"

   \                                 In section .text, align 4, keep-with-next
   \                     ??DataTable34:
   \   00000000   00100240           DC32     0x40021000

   \                                 In section .text, align 4, keep-with-next
   \                     ??DataTable34_1:
   \   00000000   000C0240           DC32     0x40020c00

   \                                 In section .text, align 4, keep-with-next
   \                     ??DataTable34_2:
   \   00000000   ........           DC32     SFLASH_CarInfo+0x14

   \                                 In section .text, align 4, keep-with-next
   \                     ??DataTable34_3:
   \   00000000   ........           DC32     KMapSend+0x5

   \                                 In section .text, align 4, keep-with-next
   \                     ??DataTable34_4:
   \   00000000   ........           DC32     KMapSend+0x25

   \                                 In section .text, align 4, keep-with-next
   \                     ??DataTable34_5:
   \   00000000   ........           DC32     ??MessageSeq

   \                                 In section .text, align 4, keep-with-next
   \                     ??DataTable34_6:
   \   00000000   ........           DC32     KMapSend+0x29

   \                                 In section .text, align 4, keep-with-next
   \                     ??DataTable35:
   \   00000000   ........           DC32     KMapSend+0x35

   \                                 In section .text, align 4, keep-with-next
   \                     ??DataTable35_1:
   \   00000000   ........           DC32     KMapSend+0x39

   \                                 In section .text, align 4, keep-with-next
   \                     ??DataTable35_2:
   \   00000000   ........           DC32     KMapSend+0x3C

   \                                 In section .text, align 4, keep-with-next
   \                     ??DataTable35_3:
   \   00000000   ........           DC32     KMapSend+0x41

   \                                 In section .text, align 4, keep-with-next
   \                     ??DataTable35_4:
   \   00000000   ........           DC32     KMapSend+0x45

   \                                 In section .text, align 4, keep-with-next
   \                     ??DataTable35_5:
   \   00000000   ........           DC32     SFLASH_CarInfo+0x50

   \                                 In section .text, align 4, keep-with-next
   \                     ??DataTable35_6:
   \   00000000   ........           DC32     KMapSend+0x4C

   \                                 In section .text, align 4, keep-with-next
   \                     ??DataTable35_7:
   \   00000000   ........           DC32     `?<Constant "0000100">`

   \                                 In section .text, align 4, keep-with-next
   \                     ??DataTable35_8:
   \   00000000   ........           DC32     KMapSend+0x58

   \                                 In section .text, align 4, keep-with-next
   \                     ??DataTable35_9:
   \   00000000   ........           DC32     KMapSend_Div

   \                                 In section .text, align 4, keep-with-next
   \                     ??DataTable35_10:
   \   00000000   ........           DC32     KMapSend_Div+0x4

   \                                 In section .text, align 4, keep-with-next
   \                     ??DataTable35_11:
   \   00000000   ........           DC32     TLV_BUFFER

   \                                 In section .text, align 4, keep-with-next
   \                     ??DataTable35_12:
   \   00000000   ........           DC32     TLV_BUFFER+0x1

   \                                 In section .text, align 4, keep-with-next
   \                     ??DataTable35_13:
   \   00000000   ........           DC32     TLV_BUFFER+0xA

   \                                 In section .text, align 4, keep-with-next
   \                     ??DataTable35_14:
   \   00000000   ........           DC32     TLV_BUFFER+0x13

   \                                 In section .text, align 4, keep-with-next
   \                     ??DataTable35_15:
   \   00000000   ........           DC32     TLV_BUFFER+0x1A

   \                                 In section .text, align 4, keep-with-next
   \                     ??DataTable35_16:
   \   00000000   ........           DC32     TLV_BUFFER+0x21

   \                                 In section .text, align 4, keep-with-next
   \                     ??DataTable35_17:
   \   00000000   ........           DC32     TLV_BUFFER+0x28

   \                                 In section .text, align 4, keep-with-next
   \                     ??DataTable35_18:
   \   00000000   ........           DC32     TLV_BUFFER+0x2F

   \                                 In section .text, align 4, keep-with-next
   \                     ??DataTable36:
   \   00000000   ........           DC32     Wifi_Result

   \                                 In section .text, align 4, keep-with-next
   \                     ??DataTable36_1:
   \   00000000   ........           DC32     KMapSend

   \                                 In section .text, align 4, keep-with-next
   \                     ??DataTable36_2:
   \   00000000   ........           DC32     TLV_BUFFER+0x36

   \                                 In section .text, align 4, keep-with-next
   \                     ??DataTable36_3:
   \   00000000   ........           DC32     TLV_BUFFER+0x3D

   \                                 In section .text, align 4, keep-with-next
   \                     ??DataTable36_4:
   \   00000000   ........           DC32     TLV_BUFFER+0x46

   \                                 In section .text, align 4, keep-with-next
   \                     ??DataTable36_5:
   \   00000000   ........           DC32     TLV_BUFFER+0x4F

   \                                 In section .text, align 4, keep-with-next
   \                     ??DataTable36_6:
   \   00000000   ........           DC32     KMapSend+0x48

   \                                 In section .text, align 4, keep-with-next
   \                     ??DataTable36_7:
   \   00000000   ........           DC32     NAND_Buffer

   \                                 In section .text, align 4, keep-with-next
   \                     ??DataTable36_8:
   \   00000000   80969800           DC32     0x989680

   \                                 In section .text, align 4, keep-with-next
   \                     ??DataTable36_9:
   \   00000000   00002041           DC32     0x41200000

   \                                 In section .text, align 4, keep-with-next
   \                     ??DataTable36_10:
   \   00000000   ........           DC32     `?<Constant "%02d%02d%02d%02d%02d%...">`

   \                                 In section .text, align 4, keep-with-next
   \                     ??DataTable36_11:
   \   00000000   ........           DC32     Buffer

   \                                 In section .text, align 4, keep-with-next
   \                     ??DataTable36_12:
   \   00000000   ........           DC32     DTG_LOOP

   \                                 In section .text, align 4, keep-with-next
   \                     ??DataTable36_13:
   \   00000000   ........           DC32     NAND_Buffer+0x25

   \                                 In section .text, align 4, keep-with-next
   \                     ??DataTable36_14:
   \   00000000   ........           DC32     TLV_BUFFER+0x5

   \                                 In section .text, align 4, keep-with-next
   \                     ??DataTable36_15:
   \   00000000   ........           DC32     TLV_BUFFER+0xE

   \                                 In section .text, align 4, keep-with-next
   \                     ??DataTable36_16:
   \   00000000   ........           DC32     TLV_BUFFER+0x17

   \                                 In section .text, align 4, keep-with-next
   \                     ??DataTable36_17:
   \   00000000   ........           DC32     ACC_Drive_Value

   \                                 In section .text, align 4, keep-with-next
   \                     ??DataTable36_18:
   \   00000000   ........           DC32     TLV_BUFFER+0x1E

   \                                 In section .text, align 4, keep-with-next
   \                     ??DataTable36_19:
   \   00000000   ........           DC32     TLV_BUFFER+0x25

   \                                 In section .text, align 4, keep-with-next
   \                     ??DataTable36_20:
   \   00000000   ........           DC32     TLV_BUFFER+0x2C

   \                                 In section .text, align 4, keep-with-next
   \                     ??DataTable36_21:
   \   00000000   ........           DC32     TLV_BUFFER+0x33

   \                                 In section .text, align 4, keep-with-next
   \                     ??DataTable36_22:
   \   00000000   ........           DC32     TLV_BUFFER+0x3A

   \                                 In section .text, align 4, keep-with-next
   \                     ??DataTable36_23:
   \   00000000   ........           DC32     TLV_BUFFER+0x41

   \                                 In section .text, align 4, keep-with-next
   \                     ??DataTable36_24:
   \   00000000   ........           DC32     TLV_BUFFER+0x4A

   \                                 In section .text, align 4, keep-with-next
   \                     ??DataTable36_25:
   \   00000000   ........           DC32     TLV_BUFFER+0x53

   \                                 In section .text, align 4, keep-with-next
   \                     ??DataTable36_26:
   \   00000000   ........           DC32     TLV_LOOP

   \                                 In section .text, align 4, keep-with-next
   \                     ??DataTable36_27:
   \   00000000   ........           DC32     NAND_Data_Transmit

   \                                 In section .text, align 4, keep-with-next
   \                     ??DataTable36_28:
   \   00000000   ........           DC32     Trans_PageCount

   \                                 In section .text, align 4, keep-with-next
   \                     ??DataTable36_29:
   \   00000000   ........           DC32     ??SeqeunMsg

   \                                 In section .text, align 4, keep-with-next
   \                     ??DataTable37:
   \   00000000   ........           DC32     KMap_Transmit_Count

   \                                 In section .text, align 4, keep-with-next
   \                     ??DataTable37_1:
   \   00000000   25630000           DC8      0x25, 0x63, 0x00, 0x00

   \                                 In section .text, align 4, keep-with-next
   \                     ??DataTable37_2:
   \   00000000   ........           DC32     KMapSend+0x60

   \                                 In section .text, align 4, keep-with-next
   \                     ??DataTable37_3:
   \   00000000   ........           DC32     KMapSend+0x31

   \                                 In section .text, align 4, keep-with-next
   \                     ??DataTable37_4:
   \   00000000   ........           DC32     KMapSend_Div+0x7

   \                                 In section .text, align 4, keep-with-next
   \                     ??DataTable37_5:
   \   00000000   ........           DC32     Tx_RFBuffer

   \                                 In section .text, align 4, keep-with-next
   \                     `?<Constant "0000100">`:
   \   00000000                      ; Initializer data, 8 bytes
   \   00000000   303030303130       DC8 48, 48, 48, 48, 49, 48, 48, 0
   \              3000        

   \                                 In section .text, align 4, keep-with-next
   \                     ??DataTable38:
   \   00000000   ........           DC32     KMap_Transmit_Count

   \                                 In section .text, align 4, keep-with-next
   \                     ??DataTable38_1:
   \   00000000   ........           DC32     ??SeqeunMsg_1

   \                                 In section .text, align 4, keep-with-next
   \                     ??DataTable38_2:
   \   00000000   ........           DC32     ??Wifi_MainTimer2

   \                                 In section .text, align 4, keep-with-next
   \                     ??DataTable38_3:
   \   00000000   000C0040           DC32     0x40000c00

   \                                 In section .text, align 4, keep-with-next
   \                     ??DataTable38_4:
   \   00000000   ........           DC32     Flag

   \                                 In section .text, align 4, keep-with-next
   \                     ??DataTable38_5:
   \   00000000   ........           DC32     ??Wifi_MainTimer

   \                                 In section .text, align 4, keep-with-next
   \                     ??DataTable38_6:
   \   00000000   ........           DC32     ??Connectting_Count

   \                                 In section .text, align 4, keep-with-next
   \                     ??DataTable38_7:
   \   00000000   ........           DC32     Info

   \                                 In section .text, align 4, keep-with-next
   \                     ??DataTable38_8:
   \   00000000   ........           DC32     WIFI_TestMode

   \                                 In section .text, align 4, keep-with-next
   \                     ??DataTable38_9:
   \   00000000   ........           DC32     SFLASH_Memory

   \                                 In section .text, align 4, keep-with-next
   \                     ??DataTable38_10:
   \   00000000   ........           DC32     ??WaitTimeCount

   \                                 In section .text, align 4, keep-with-next
   \                     ??DataTable38_11:
   \   00000000   ........           DC32     Wifi_SettingString

   \                                 In section .text, align 4, keep-with-next
   \                     ??DataTable38_12:
   \   00000000   ........           DC32     RF_Module

   \                                 In section .text, align 4, keep-with-next
   \                     ??DataTable38_13:
   \   00000000   ........           DC32     Wifi_OK

   \                                 In section .text, align 4, keep-with-next
   \                     ??DataTable38_14:
   \   00000000   ........           DC32     Wifi_Send_Result

   \                                 In section .text, align 4, keep-with-next
   \                     ??DataTable38_15:
   \   00000000   ........           DC32     RF_Module+0x40B

   \                                 In section .text, align 4, keep-with-next
   \                     ??DataTable38_16:
   \   00000000   ........           DC32     ??Trans_Count

   \                                 In section .text, align 4, keep-with-next
   \                     ??DataTable38_17:
   \   00000000   ........           DC32     ??ReSend_Timer

   \                                 In section .text, align 4, keep-with-next
   \                     ??DataTable38_18:
   \   00000000   ........           DC32     ??FirstReceive

   \                                 In section .text, align 4, keep-with-next
   \                     ??DataTable38_19:
   \   00000000   ........           DC32     ??Wait_Timer

   \                                 In section .text, align 4, keep-with-next
   \                     ??DataTable38_20:
   \   00000000   ........           DC32     Rx_RFBuffer

   \                                 In section .text, align 4, keep-with-next
   \                     ??DataTable38_21:
   \   00000000   ........           DC32     Rx_RFCount

   \                                 In section .text, align 4, keep-with-next
   \                     ??DataTable38_22:
   \   00000000   ........           DC32     ??Rx_StartPoint

   \                                 In section .text, align 4, keep-with-next
   \                     ??DataTable38_23:
   \   00000000   ........           DC32     Protocol_Rev

   \                                 In section .text, align 4, keep-with-next
   \                     ??DataTable38_24:
   \   00000000   ........           DC32     Protocol_Rev+0x4C

   \                                 In section .text, align 4, keep-with-next
   \                     ??DataTable38_25:
   \   00000000   ........           DC32     NAND_Data_Transmit

   \                                 In section .text, align 4, keep-with-next
   \                     ??DataTable38_26:
   \   00000000   ........           DC32     Wifi_Result

   \                                 In section .text, align 4, keep-with-next
   \                     ??DataTable38_27:
   \   00000000   ........           DC32     Trans_PageCount

   \                                 In section .text, align 4, keep-with-next
   \                     ??DataTable38_28:
   \   00000000   ........           DC32     ??WaitTimeCount_1

   \                                 In section .text, align 4, keep-with-next
   \                     ??DataTable38_29:
   \   00000000   ........           DC32     ??Connectting_Count_1

   \                                 In section .text, align 4, keep-with-next
   \                     ??DataTable38_30:
   \   00000000   ........           DC32     Input_Mode

   \                                 In section .text, align 4, keep-with-next
   \                     ??DataTable38_31:
   \   00000000   ........           DC32     ??Save_Step

   \                                 In section .text, align 4, keep-with-next
   \                     ??DataTable38_32:
   \   00000000   ........           DC32     ??Setting_Step

   \                                 In section .text, align 4, keep-with-next
   \                     ??DataTable38_33:
   \   00000000   ........           DC32     SFLASH_Wifi+0x42

   \                                 In section .text, align 4, keep-with-next
   \                     ??DataTable38_34:
   \   00000000   ........           DC32     SFLASH_Wifi+0x32

   \                                 In section .text, align 4, keep-with-next
   \                     ??DataTable38_35:
   \   00000000   ........           DC32     Buffer

   \                                 In section .text, align 4, keep-with-next
   \                     ??DataTable38_36:
   \   00000000   ........           DC32     SFLASH_Wifi

   \                                 In section .text, align 4, keep-with-next
   \                     ??DataTable38_37:
   \   00000000   ........           DC32     SFLASH_Wifi+0x1E

   \                                 In section .text, align 4, keep-with-next
   \                     `?<Constant "AT\\r">`:
   \   00000000                      ; Initializer data, 4 bytes
   \   00000000   41540D00           DC8 65, 84, 13, 0

   \                                 In section .text, align 4, keep-with-next
   \                     `?<Constant "+++\\r">`:
   \   00000000                      ; Initializer data, 8 bytes
   \   00000000   2B2B2B0D0000       DC8 43, 43, 43, 13, 0, 0, 0, 0
   \              0000        

   \                                 In section .text, align 4, keep-with-next
   \                     `?<Constant "AT+WS=\\r">`:
   \   00000000                      ; Initializer data, 8 bytes
   \   00000000   41542B57533D       DC8 65, 84, 43, 87, 83, 61, 13, 0
   \              0D00        

   \                                 In section .text, align 4, keep-with-next
   \                     `?<Constant "AT+WD\\r">`:
   \   00000000                      ; Initializer data, 8 bytes
   \   00000000   41542B57440D       DC8 65, 84, 43, 87, 68, 13, 0, 0
   \              0000        

   \                                 In section .text, align 4, keep-with-next
   \                     `?<Constant "AT+WAUTH=0\\r">`:
   \   00000000                      ; Initializer data, 12 bytes
   \   00000000   41542B574155       DC8 65, 84, 43, 87, 65, 85, 84, 72, 61, 48
   \              54483D30    
   \   0000000A   0D00               DC8 13, 0

   \                                 In section .text, align 4, keep-with-next
   \                     `?<Constant "AT+NDHCP=1\\r">`:
   \   00000000                      ; Initializer data, 12 bytes
   \   00000000   41542B4E4448       DC8 65, 84, 43, 78, 68, 72, 67, 80, 61, 49
   \              43503D31    
   \   0000000A   0D00               DC8 13, 0

   \                                 In section .text, align 4, keep-with-next
   \                     `?<Constant "AT+XDUM=1\\r">`:
   \   00000000                      ; Initializer data, 12 bytes
   \   00000000   41542B584455       DC8 65, 84, 43, 88, 68, 85, 77, 61, 49, 13
   \              4D3D310D    
   \   0000000A   0000               DC8 0, 0

   \                                 In section .text, align 4, keep-with-next
   \                     `?<Constant "AT+XEHT=0\\r">`:
   \   00000000                      ; Initializer data, 12 bytes
   \   00000000   41542B584548       DC8 65, 84, 43, 88, 69, 72, 84, 61, 48, 13
   \              543D300D    
   \   0000000A   0000               DC8 0, 0

   \                                 In section .text, align 4, keep-with-next
   \                     `?<Constant "ATC0\\r">`:
   \   00000000                      ; Initializer data, 8 bytes
   \   00000000   415443300D00       DC8 65, 84, 67, 48, 13, 0, 0, 0
   \              0000        

   \                                 In section .text, align 4, keep-with-next
   \                     `?<Constant "AT+NAUTO=0,1,">`:
   \   00000000                      ; Initializer data, 16 bytes
   \   00000000   41542B4E4155       DC8 65, 84, 43, 78, 65, 85, 84, 79, 61, 48
   \              544F3D30    
   \   0000000A   2C312C000000       DC8 44, 49, 44, 0, 0, 0

   \                                 In section .text, align 4, keep-with-next
   \                     `?<Constant "AT+WAUTO=0,">`:
   \   00000000                      ; Initializer data, 12 bytes
   \   00000000   41542B574155       DC8 65, 84, 43, 87, 65, 85, 84, 79, 61, 48
   \              544F3D30    
   \   0000000A   2C00               DC8 44, 0

   \                                 In section .text, align 4, keep-with-next
   \                     `?<Constant "AT+WWPA=">`:
   \   00000000                      ; Initializer data, 12 bytes
   \   00000000   41542B575750       DC8 65, 84, 43, 87, 87, 80, 65, 61, 0, 0
   \              413D0000    
   \   0000000A   0000               DC8 0, 0

   \                                 In section .text, align 4, keep-with-next
   \                     `?<Constant "AT&W0\\r">`:
   \   00000000                      ; Initializer data, 8 bytes
   \   00000000   41542657300D       DC8 65, 84, 38, 87, 48, 13, 0, 0
   \              0000        

   \                                 In section .text, align 4, keep-with-next
   \                     `?<Constant "ATA\\r">`:
   \   00000000                      ; Initializer data, 8 bytes
   \   00000000   4154410D0000       DC8 65, 84, 65, 13, 0, 0, 0, 0
   \              0000        

   \                                 In section .text, align 4, keep-with-next
   \                     `?<Constant "AT+WA=">`:
   \   00000000                      ; Initializer data, 8 bytes
   \   00000000   41542B57413D       DC8 65, 84, 43, 87, 65, 61, 0, 0
   \              0000        

   \                                 In section .text, align 4, keep-with-next
   \                     `?<Constant "%s">`:
   \   00000000                      ; Initializer data, 4 bytes
   \   00000000   25730000           DC8 37, 115, 0, 0

   \                                 In section .text, align 4, keep-with-next
   \                     `?<Constant "OPC">`:
   \   00000000                      ; Initializer data, 4 bytes
   \   00000000   4F504300           DC8 79, 80, 67, 0

   \                                 In section .text, align 4, keep-with-next
   \                     `?<Constant "DAT">`:
   \   00000000                      ; Initializer data, 4 bytes
   \   00000000   44415400           DC8 68, 65, 84, 0

   \                                 In section .text, align 4, keep-with-next
   \                     `?<Constant "OPT">`:
   \   00000000                      ; Initializer data, 4 bytes
   \   00000000   4F505400           DC8 79, 80, 84, 0

   \                                 In section .text, align 4, keep-with-next
   \                     `?<Constant "%02d%02d%02d%02d%02d%...">`:
   \   00000000                      ; Initializer data, 84 bytes
   \   00000000   253032642530       DC8 37, 48, 50, 100, 37, 48, 50, 100, 37, 48
   \              32642530    
   \   0000000A   326425303264       DC8 50, 100, 37, 48, 50, 100, 37, 48, 50, 100
   \              25303264    
   \   00000014   253032643030       DC8 37, 48, 50, 100, 48, 48, 37, 48, 52, 100
   \              25303464    
   \   0000001E   253037642530       DC8 37, 48, 55, 100, 37, 48, 51, 100, 37, 48
   \              33642530    
   \   00000028   346425642530       DC8 52, 100, 37, 100, 37, 48, 52, 46, 49, 102
   \              342E3166    
   \   00000032   253039642530       DC8 37, 48, 57, 100, 37, 48, 57, 100, 37, 48
   \              39642530    
   \   0000003C   3364252B3036       DC8 51, 100, 37, 43, 48, 54, 46, 49, 102, 37
   \              2E316625    
   \   00000046   2B30362E3166       DC8 43, 48, 54, 46, 49, 102, 37, 48, 50, 100
   \              25303264    
   \   00000050   00000000           DC8 0, 0, 0, 0

   \                                 In section .text, align 4, keep-with-next
   \                     `?<Constant {0}>`:
   \   00000000                      ; Initializer data, 4 bytes
   \   00000000   00000000           DC8 0, 0, 0, 0

   \                                 In section .text, align 4, keep-with-next
   \                     `?<Constant {0}>_1`:
   \   00000000                      ; Initializer data, 4 bytes
   \   00000000   00000000           DC8 0, 0, 0, 0

   \                                 In section .text, align 4, keep-with-next
   \                     `?<Constant "%c">`:
   \   00000000                      ; Initializer data, 4 bytes
   \   00000000   25630000           DC8 37, 99, 0, 0

   \                                 In section .text, align 4, keep-with-next
   \                     `?<Constant "[OK]">`:
   \   00000000                      ; Initializer data, 8 bytes
   \   00000000   5B4F4B5D0000       DC8 91, 79, 75, 93, 0, 0, 0, 0
   \              0000        

   \                                 In section .text, align 4, keep-with-next
   \                     `?<Constant {0, 4, 5, 6, 7, 8, 9, 10, 11, 12}>`:
   \   00000000                      ; Initializer data, 40 bytes
   \   00000000   000000000400       DC32 0, 4, 5, 6, 7, 8, 9, 10, 11, 12
   \              000005000000
   \              060000000700
   \              000008000000
   \              090000000A00
   \              00000B000000
   \              0C000000    

   \                                 In section .text, align 4, keep-with-next
   \                     `?<Constant "%s%s,%s\\r">`:
   \   00000000                      ; Initializer data, 12 bytes
   \   00000000   257325732C25       DC8 37, 115, 37, 115, 44, 37, 115, 13, 0, 0
   \              730D0000    
   \   0000000A   0000               DC8 0, 0

   \                                 In section .text, align 4, keep-with-next
   \                     `?<Constant "%s%s\\r">`:
   \   00000000                      ; Initializer data, 8 bytes
   \   00000000   257325730D00       DC8 37, 115, 37, 115, 13, 0, 0, 0
   \              0000        
    882          

   Maximum stack usage in bytes:

     Function            .cstack
     --------            -------
     ConvertInteger           0
     ConvertString            0
     ConvertString2           0
     EMS_Setting            312
     IsTCP_Connect            8
     KMap_Setting           312
     Kmap_init                8
     RF_Communcation          8
     WIFI_RESET_OFF           8
     WIFI_RESET_ON            8
     Wifi_Config             16
     Wifi_Process             8
     Wifi_ProfileSetting     48
     Wifi_Reset               8
     Wifi_Send                8
     memcpy                   8
     memset                   8
     strstr                   8


   Section sizes:

     Function/Label                                Bytes
     --------------                                -----
     memcpy                                          14
     memset                                          20
     strstr                                           8
     IsTCP_Connect                                   24
     WIFI_RESET_ON                                   14
     WIFI_RESET_OFF                                  14
     TLV_BUFFER                                      88
     TLV_LOOP                                      7652
     DTG_LOOP                                      6480
     Tx_RFBuffer                                   7000
     Rx_RFBuffer                                    500
     Rx_RFCount                                       2
     Wifi_Timer                                       2
     Wifi_OK                                          1
     Wifi_Send_Result                                 1
     Protocol_Rev                                    84
     Wifi_Result                                      1
     Trans_PageCount                                  2
     KMapSend                                       104
     KMapSend_Div                                    12
     Wifi_SettingString                              80
     Wifi_Reset                                      18
     Wifi_Config                                     98
     ConvertString                                   16
     ConvertInteger                                  28
     ConvertString2                                   8
     Kmap_init                                      494
     MessageSeq                                       1
     EMS_Setting                                    898
     SeqeunMsg                                        4
     KMap_Setting                                   868
     SeqeunMsg                                        4
     Wifi_Process                                   658
     Wifi_MainTimer                                   2
     Wifi_MainTimer2                                  2
     Connectting_Count                                1
     WaitTimeCount                                    1
     Wifi_Send                                      302
     Trans_Count                                      4
     ReSend_Timer                                     2
     RF_Communcation                                676
     Rx_StartPoint                                    2
     Wait_Timer                                       2
     FirstReceive                                     1
     Wifi_ProfileSetting                            464
     Setting_Step                                     1
     Save_Step                                        1
     WaitTimeCount                                    1
     Connectting_Count                                1
     ??DataTable32                                    4
     ??DataTable32_1                                  4
     ??DataTable32_2                                  4
     ??DataTable32_3                                  4
     ??DataTable34                                    4
     ??DataTable34_1                                  4
     ??DataTable34_2                                  4
     ??DataTable34_3                                  4
     ??DataTable34_4                                  4
     ??DataTable34_5                                  4
     ??DataTable34_6                                  4
     ??DataTable35                                    4
     ??DataTable35_1                                  4
     ??DataTable35_2                                  4
     ??DataTable35_3                                  4
     ??DataTable35_4                                  4
     ??DataTable35_5                                  4
     ??DataTable35_6                                  4
     ??DataTable35_7                                  4
     ??DataTable35_8                                  4
     ??DataTable35_9                                  4
     ??DataTable35_10                                 4
     ??DataTable35_11                                 4
     ??DataTable35_12                                 4
     ??DataTable35_13                                 4
     ??DataTable35_14                                 4
     ??DataTable35_15                                 4
     ??DataTable35_16                                 4
     ??DataTable35_17                                 4
     ??DataTable35_18                                 4
     ??DataTable36                                    4
     ??DataTable36_1                                  4
     ??DataTable36_2                                  4
     ??DataTable36_3                                  4
     ??DataTable36_4                                  4
     ??DataTable36_5                                  4
     ??DataTable36_6                                  4
     ??DataTable36_7                                  4
     ??DataTable36_8                                  4
     ??DataTable36_9                                  4
     ??DataTable36_10                                 4
     ??DataTable36_11                                 4
     ??DataTable36_12                                 4
     ??DataTable36_13                                 4
     ??DataTable36_14                                 4
     ??DataTable36_15                                 4
     ??DataTable36_16                                 4
     ??DataTable36_17                                 4
     ??DataTable36_18                                 4
     ??DataTable36_19                                 4
     ??DataTable36_20                                 4
     ??DataTable36_21                                 4
     ??DataTable36_22                                 4
     ??DataTable36_23                                 4
     ??DataTable36_24                                 4
     ??DataTable36_25                                 4
     ??DataTable36_26                                 4
     ??DataTable36_27                                 4
     ??DataTable36_28                                 4
     ??DataTable36_29                                 4
     ??DataTable37                                    4
     ??DataTable37_1                                  4
     ??DataTable37_2                                  4
     ??DataTable37_3                                  4
     ??DataTable37_4                                  4
     ??DataTable37_5                                  4
     ?<Constant "0000100">                            8
     ??DataTable38                                    4
     ??DataTable38_1                                  4
     ??DataTable38_2                                  4
     ??DataTable38_3                                  4
     ??DataTable38_4                                  4
     ??DataTable38_5                                  4
     ??DataTable38_6                                  4
     ??DataTable38_7                                  4
     ??DataTable38_8                                  4
     ??DataTable38_9                                  4
     ??DataTable38_10                                 4
     ??DataTable38_11                                 4
     ??DataTable38_12                                 4
     ??DataTable38_13                                 4
     ??DataTable38_14                                 4
     ??DataTable38_15                                 4
     ??DataTable38_16                                 4
     ??DataTable38_17                                 4
     ??DataTable38_18                                 4
     ??DataTable38_19                                 4
     ??DataTable38_20                                 4
     ??DataTable38_21                                 4
     ??DataTable38_22                                 4
     ??DataTable38_23                                 4
     ??DataTable38_24                                 4
     ??DataTable38_25                                 4
     ??DataTable38_26                                 4
     ??DataTable38_27                                 4
     ??DataTable38_28                                 4
     ??DataTable38_29                                 4
     ??DataTable38_30                                 4
     ??DataTable38_31                                 4
     ??DataTable38_32                                 4
     ??DataTable38_33                                 4
     ??DataTable38_34                                 4
     ??DataTable38_35                                 4
     ??DataTable38_36                                 4
     ??DataTable38_37                                 4
     ?<Constant "AT\r">                               4
     ?<Constant "+++\r">                              8
     ?<Constant "AT+WS=\r">                           8
     ?<Constant "AT+WD\r">                            8
     ?<Constant "AT+WAUTH=0\r">                      12
     ?<Constant "AT+NDHCP=1\r">                      12
     ?<Constant "AT+XDUM=1\r">                       12
     ?<Constant "AT+XEHT=0\r">                       12
     ?<Constant "ATC0\r">                             8
     ?<Constant "AT+NAUTO=0,1,">                     16
     ?<Constant "AT+WAUTO=0,">                       12
     ?<Constant "AT+WWPA=">                          12
     ?<Constant "AT&W0\r">                            8
     ?<Constant "ATA\r">                              8
     ?<Constant "AT+WA=">                             8
     ?<Constant "%s">                                 4
     ?<Constant "OPC">                                4
     ?<Constant "DAT">                                4
     ?<Constant "OPT">                                4
     ?<Constant "%02d%02d%02d%02d%02d%...">          84
     ?<Constant {0}>                                  4
     ?<Constant {0}>_1                                4
     ?<Constant "%c">                                 4
     ?<Constant "[OK]">                               8
     ?<Constant {0, 4, 5, 6, 7, 8, 9, 10, 11, 12}>   40
     ?<Constant "%s%s,%s\r">                         12
     ?<Constant "%s%s\r">                             8

 
 21 951 bytes in section .bss
     88 bytes in section .data
  5 374 bytes in section .text
 
  5 332 bytes of CODE memory (+ 42 bytes shared)
 22 039 bytes of DATA memory

Errors: none
Warnings: none
