###############################################################################
#                                                                             #
# IAR ANSI C/C++ Compiler V6.10.1.52143/W32 for ARM     20/Dec/2011  16:14:17 #
# Copyright 1999-2010 IAR Systems AB.                                         #
#                                                                             #
#    Cpu mode     =  thumb                                                    #
#    Endian       =  little                                                   #
#    Source file  =  E:\Work\Firmware\DTG\WIFI_RELAY_TEST\Project\Ems_System. #
#                    c                                                        #
#    Command line =  E:\Work\Firmware\DTG\WIFI_RELAY_TEST\Project\Ems_System. #
#                    c -D USE_STDPERIPH_DRIVER -D STM32F2XX -D                #
#                    USE_STM3220F_EVAL -D USE_USB_OTG_FS -D                   #
#                    RTC_CLOCK_SOURCE_LSE -lC E:\Work\Firmware\DTG\WIFI_RELAY #
#                    _TEST\Project\EWARM\STM3220F_EVAL\List\ -lA              #
#                    E:\Work\Firmware\DTG\WIFI_RELAY_TEST\Project\EWARM\STM32 #
#                    20F_EVAL\List\ -o E:\Work\Firmware\DTG\WIFI_RELAY_TEST\P #
#                    roject\EWARM\STM3220F_EVAL\Obj\ --no_cse --no_unroll     #
#                    --no_inline --no_code_motion --no_tbaa --no_clustering   #
#                    --no_scheduling --debug --endian=little --cpu=Cortex-M3  #
#                    -e --fpu=None --dlib_config "C:\Program Files\IAR        #
#                    Systems\Embedded Workbench 6.0\arm\INC\c\DLib_Config_Ful #
#                    l.h" -I E:\Work\Firmware\DTG\WIFI_RELAY_TEST\Project\EWA #
#                    RM\..\ -I E:\Work\Firmware\DTG\WIFI_RELAY_TEST\Project\E #
#                    WARM\..\..\Libraries\CMSIS\CM3\CoreSupport\ -I           #
#                    E:\Work\Firmware\DTG\WIFI_RELAY_TEST\Project\EWARM\..\.. #
#                    \Libraries\CMSIS\CM3\DeviceSupport\ST\STM32F2xx\ -I      #
#                    E:\Work\Firmware\DTG\WIFI_RELAY_TEST\Project\EWARM\..\.. #
#                    \Libraries\STM32F2xx_StdPeriph_Driver\inc\ -I            #
#                    E:\Work\Firmware\DTG\WIFI_RELAY_TEST\Project\EWARM\..\.. #
#                    \Utilities\STM32_EVAL\ -I E:\Work\Firmware\DTG\WIFI_RELA #
#                    Y_TEST\Project\EWARM\..\..\Utilities\STM32_EVAL\Common\  #
#                    -I E:\Work\Firmware\DTG\WIFI_RELAY_TEST\Project\EWARM\.. #
#                    \..\Utilities\STM32_EVAL\STM3220F_EVAL\ -I               #
#                    E:\Work\Firmware\DTG\WIFI_RELAY_TEST\Project\EWARM\..\.. #
#                    \Libraries\STM32_USB_OTG_Driver\inc\ -I                  #
#                    E:\Work\Firmware\DTG\WIFI_RELAY_TEST\Project\EWARM\..\.. #
#                    \Libraries\STM32_USB_Device_Library\Core\inc\ -I         #
#                    E:\Work\Firmware\DTG\WIFI_RELAY_TEST\Project\EWARM\..\.. #
#                    \Libraries\STM32_USB_Device_Library\Class\msc\inc\ -I    #
#                    E:\Work\Firmware\DTG\WIFI_RELAY_TEST\Project\EWARM\..\Us #
#                    b\ -I E:\Work\Firmware\DTG\WIFI_RELAY_TEST\Project\EWARM #
#                    \..\Usb\Inc\ -I E:\Work\Firmware\DTG\WIFI_RELAY_TEST\Pro #
#                    ject\EWARM\..\Usb\src\ -I E:\Work\Firmware\DTG\WIFI_RELA #
#                    Y_TEST\Project\EWARM\..\..\Libraries\STM32_USB_HOST_Libr #
#                    ary\Core\inc\ -I E:\Work\Firmware\DTG\WIFI_RELAY_TEST\Pr #
#                    oject\EWARM\..\..\Libraries\STM32_USB_HOST_Library\Class #
#                    \MSC\inc\ -Ol --use_c++_inline                           #
#    List file    =  E:\Work\Firmware\DTG\WIFI_RELAY_TEST\Project\EWARM\STM32 #
#                    20F_EVAL\List\Ems_System.lst                             #
#    Object file  =  E:\Work\Firmware\DTG\WIFI_RELAY_TEST\Project\EWARM\STM32 #
#                    20F_EVAL\Obj\Ems_System.o                                #
#                                                                             #
#                                                                             #
###############################################################################

E:\Work\Firmware\DTG\WIFI_RELAY_TEST\Project\Ems_System.c
      1          
      2          #include "Ems_System.h"

   \                                 In section .text, align 2, keep-with-next
   \   static __interwork __softfp void SET_ENGINE_ON(void)
   \                     SET_ENGINE_ON:
   \   00000000   80B5               PUSH     {R7,LR}
   \   00000002   4FF40061           MOV      R1,#+2048
   \   00000006   ........           LDR.W    R0,??DataTable44  ;; 0x40021000
   \   0000000A   ........           BL       GPIO_SetBits
   \   0000000E   ........           LDR.W    R0,??DataTable45
   \   00000012   0078               LDRB     R0,[R0, #+0]
   \   00000014   50F00100           ORRS     R0,R0,#0x1
   \   00000018   ........           LDR.W    R1,??DataTable45
   \   0000001C   0870               STRB     R0,[R1, #+0]
   \   0000001E   01BD               POP      {R0,PC}          ;; return

   \                                 In section .text, align 2, keep-with-next
   \   static __interwork __softfp void RESET_ENGINE_ON(void)
   \                     RESET_ENGINE_ON:
   \   00000000   80B5               PUSH     {R7,LR}
   \   00000002   4FF40061           MOV      R1,#+2048
   \   00000006   ........           LDR.W    R0,??DataTable44  ;; 0x40021000
   \   0000000A   ........           BL       GPIO_ResetBits
   \   0000000E   ........           LDR.W    R0,??DataTable45
   \   00000012   0078               LDRB     R0,[R0, #+0]
   \   00000014   10F0FE00           ANDS     R0,R0,#0xFE
   \   00000018   ........           LDR.W    R1,??DataTable45
   \   0000001C   0870               STRB     R0,[R1, #+0]
   \   0000001E   01BD               POP      {R0,PC}          ;; return

   \                                 In section .text, align 2, keep-with-next
   \   static __interwork __softfp void SET_ENGINE_OFF(void)
   \                     SET_ENGINE_OFF:
   \   00000000   80B5               PUSH     {R7,LR}
   \   00000002   4FF48051           MOV      R1,#+4096
   \   00000006   ........           LDR.W    R0,??DataTable44  ;; 0x40021000
   \   0000000A   ........           BL       GPIO_SetBits
   \   0000000E   ........           LDR.W    R0,??DataTable45
   \   00000012   0078               LDRB     R0,[R0, #+0]
   \   00000014   50F00200           ORRS     R0,R0,#0x2
   \   00000018   ........           LDR.W    R1,??DataTable45
   \   0000001C   0870               STRB     R0,[R1, #+0]
   \   0000001E   01BD               POP      {R0,PC}          ;; return

   \                                 In section .text, align 2, keep-with-next
   \   static __interwork __softfp void RESET_ENGINE_OFF(void)
   \                     RESET_ENGINE_OFF:
   \   00000000   80B5               PUSH     {R7,LR}
   \   00000002   4FF48051           MOV      R1,#+4096
   \   00000006   ........           LDR.W    R0,??DataTable44  ;; 0x40021000
   \   0000000A   ........           BL       GPIO_ResetBits
   \   0000000E   ........           LDR.W    R0,??DataTable45
   \   00000012   0078               LDRB     R0,[R0, #+0]
   \   00000014   10F0FD00           ANDS     R0,R0,#0xFD
   \   00000018   ........           LDR.W    R1,??DataTable45
   \   0000001C   0870               STRB     R0,[R1, #+0]
   \   0000001E   01BD               POP      {R0,PC}          ;; return

   \                                 In section .text, align 2, keep-with-next
   \   static __interwork __softfp uint8_t GET_ENGINE_ON(void)
   \                     GET_ENGINE_ON:
   \   00000000   80B5               PUSH     {R7,LR}
   \   00000002   4FF40061           MOV      R1,#+2048
   \   00000006   ........           LDR.W    R0,??DataTable44  ;; 0x40021000
   \   0000000A   ........           BL       GPIO_ReadInputDataBit
   \   0000000E   0128               CMP      R0,#+1
   \   00000010   01D1               BNE.N    ??GET_ENGINE_ON_0
   \   00000012   0120               MOVS     R0,#+1
   \   00000014   00E0               B.N      ??GET_ENGINE_ON_1
   \                     ??GET_ENGINE_ON_0:
   \   00000016   0020               MOVS     R0,#+0
   \                     ??GET_ENGINE_ON_1:
   \   00000018   02BD               POP      {R1,PC}          ;; return

   \                                 In section .text, align 2, keep-with-next
   \   static __interwork __softfp void SET_AIRCON(void)
   \                     SET_AIRCON:
   \   00000000   80B5               PUSH     {R7,LR}
   \   00000002   2021               MOVS     R1,#+32
   \   00000004   ........           LDR.W    R0,??DataTable44_1  ;; 0x40021800
   \   00000008   ........           BL       GPIO_SetBits
   \   0000000C   ........           LDR.W    R0,??DataTable45
   \   00000010   0078               LDRB     R0,[R0, #+0]
   \   00000012   50F00400           ORRS     R0,R0,#0x4
   \   00000016   ........           LDR.W    R1,??DataTable45
   \   0000001A   0870               STRB     R0,[R1, #+0]
   \   0000001C   01BD               POP      {R0,PC}          ;; return

   \                                 In section .text, align 2, keep-with-next
   \   static __interwork __softfp void RESET_AIRCON(void)
   \                     RESET_AIRCON:
   \   00000000   80B5               PUSH     {R7,LR}
   \   00000002   2021               MOVS     R1,#+32
   \   00000004   ........           LDR.W    R0,??DataTable44_1  ;; 0x40021800
   \   00000008   ........           BL       GPIO_ResetBits
   \   0000000C   ........           LDR.W    R0,??DataTable45
   \   00000010   0078               LDRB     R0,[R0, #+0]
   \   00000012   10F0FB00           ANDS     R0,R0,#0xFB
   \   00000016   ........           LDR.W    R1,??DataTable45
   \   0000001A   0870               STRB     R0,[R1, #+0]
   \   0000001C   01BD               POP      {R0,PC}          ;; return

   \                                 In section .text, align 2, keep-with-next
   \   static __interwork __softfp void SET_LIGHT(void)
   \                     SET_LIGHT:
   \   00000000   80B5               PUSH     {R7,LR}
   \   00000002   4FF40051           MOV      R1,#+8192
   \   00000006   ........           LDR.W    R0,??DataTable44  ;; 0x40021000
   \   0000000A   ........           BL       GPIO_SetBits
   \   0000000E   ........           LDR.W    R0,??DataTable45
   \   00000012   0078               LDRB     R0,[R0, #+0]
   \   00000014   50F00800           ORRS     R0,R0,#0x8
   \   00000018   ........           LDR.W    R1,??DataTable45
   \   0000001C   0870               STRB     R0,[R1, #+0]
   \   0000001E   01BD               POP      {R0,PC}          ;; return

   \                                 In section .text, align 2, keep-with-next
   \   static __interwork __softfp void RESET_LIGHT(void)
   \                     RESET_LIGHT:
   \   00000000   80B5               PUSH     {R7,LR}
   \   00000002   4FF40051           MOV      R1,#+8192
   \   00000006   ........           LDR.W    R0,??DataTable44  ;; 0x40021000
   \   0000000A   ........           BL       GPIO_ResetBits
   \   0000000E   ........           LDR.W    R0,??DataTable45
   \   00000012   0078               LDRB     R0,[R0, #+0]
   \   00000014   10F0F700           ANDS     R0,R0,#0xF7
   \   00000018   ........           LDR.W    R1,??DataTable45
   \   0000001C   0870               STRB     R0,[R1, #+0]
   \   0000001E   01BD               POP      {R0,PC}          ;; return

   \                                 In section .text, align 2, keep-with-next
   \   static __interwork __softfp void SET_HITER(void)
   \                     SET_HITER:
   \   00000000   80B5               PUSH     {R7,LR}
   \   00000002   0421               MOVS     R1,#+4
   \   00000004   ........           LDR.W    R0,??DataTable44_1  ;; 0x40021800
   \   00000008   ........           BL       GPIO_SetBits
   \   0000000C   ........           LDR.W    R0,??DataTable45
   \   00000010   0078               LDRB     R0,[R0, #+0]
   \   00000012   50F01000           ORRS     R0,R0,#0x10
   \   00000016   ........           LDR.W    R1,??DataTable45
   \   0000001A   0870               STRB     R0,[R1, #+0]
   \   0000001C   01BD               POP      {R0,PC}          ;; return

   \                                 In section .text, align 2, keep-with-next
   \   static __interwork __softfp void RESET_HITER(void)
   \                     RESET_HITER:
   \   00000000   80B5               PUSH     {R7,LR}
   \   00000002   0421               MOVS     R1,#+4
   \   00000004   ........           LDR.W    R0,??DataTable44_1  ;; 0x40021800
   \   00000008   ........           BL       GPIO_ResetBits
   \   0000000C   ........           LDR.W    R0,??DataTable45
   \   00000010   0078               LDRB     R0,[R0, #+0]
   \   00000012   10F0EF00           ANDS     R0,R0,#0xEF
   \   00000016   ........           LDR.W    R1,??DataTable45
   \   0000001A   0870               STRB     R0,[R1, #+0]
   \   0000001C   01BD               POP      {R0,PC}          ;; return

   \                                 In section .text, align 2, keep-with-next
   \   static __interwork __softfp uint8_t Is_BREAK(void)
   \                     Is_BREAK:
   \   00000000   80B5               PUSH     {R7,LR}
   \   00000002   4FF40071           MOV      R1,#+512
   \   00000006   ........           LDR.W    R0,??DataTable45_1  ;; 0x40020800
   \   0000000A   ........           BL       GPIO_ReadInputDataBit
   \   0000000E   0128               CMP      R0,#+1
   \   00000010   01D1               BNE.N    ??Is_BREAK_0
   \   00000012   0020               MOVS     R0,#+0
   \   00000014   00E0               B.N      ??Is_BREAK_1
   \                     ??Is_BREAK_0:
   \   00000016   0120               MOVS     R0,#+1
   \                     ??Is_BREAK_1:
   \   00000018   02BD               POP      {R1,PC}          ;; return

   \                                 In section .text, align 2, keep-with-next
   \   static __interwork __softfp uint8_t Is_GEAR(void)
   \                     Is_GEAR:
   \   00000000   80B5               PUSH     {R7,LR}
   \   00000002   8021               MOVS     R1,#+128
   \   00000004   ........           LDR.W    R0,??DataTable45_1  ;; 0x40020800
   \   00000008   ........           BL       GPIO_ReadInputDataBit
   \   0000000C   0128               CMP      R0,#+1
   \   0000000E   01D1               BNE.N    ??Is_GEAR_0
   \   00000010   0020               MOVS     R0,#+0
   \   00000012   00E0               B.N      ??Is_GEAR_1
   \                     ??Is_GEAR_0:
   \   00000014   0120               MOVS     R0,#+1
   \                     ??Is_GEAR_1:
   \   00000016   02BD               POP      {R1,PC}          ;; return

   \                                 In section .text, align 2, keep-with-next
   \   static __interwork __softfp uint8_t Is_PARKING_BREAK(void)
   \                     Is_PARKING_BREAK:
   \   00000000   80B5               PUSH     {R7,LR}
   \   00000002   4FF48071           MOV      R1,#+256
   \   00000006   ........           LDR.W    R0,??DataTable45_1  ;; 0x40020800
   \   0000000A   ........           BL       GPIO_ReadInputDataBit
   \   0000000E   0128               CMP      R0,#+1
   \   00000010   01D1               BNE.N    ??Is_PARKING_BREAK_0
   \   00000012   0020               MOVS     R0,#+0
   \   00000014   00E0               B.N      ??Is_PARKING_BREAK_1
   \                     ??Is_PARKING_BREAK_0:
   \   00000016   0120               MOVS     R0,#+1
   \                     ??Is_PARKING_BREAK_1:
   \   00000018   02BD               POP      {R1,PC}          ;; return

   \                                 In section .text, align 2, keep-with-next
   \   static __interwork __softfp uint8_t Is_LLIGHT(void)
   \                     Is_LLIGHT:
   \   00000000   80B5               PUSH     {R7,LR}
   \   00000002   4FF48071           MOV      R1,#+256
   \   00000006   ........           LDR.W    R0,??DataTable45_2  ;; 0x40020000
   \   0000000A   ........           BL       GPIO_ReadInputDataBit
   \   0000000E   0128               CMP      R0,#+1
   \   00000010   01D1               BNE.N    ??Is_LLIGHT_0
   \   00000012   0020               MOVS     R0,#+0
   \   00000014   00E0               B.N      ??Is_LLIGHT_1
   \                     ??Is_LLIGHT_0:
   \   00000016   0120               MOVS     R0,#+1
   \                     ??Is_LLIGHT_1:
   \   00000018   02BD               POP      {R1,PC}          ;; return

   \                                 In section .text, align 2, keep-with-next
   \   static __interwork __softfp uint8_t Is_RLIGHT(void)
   \                     Is_RLIGHT:
   \   00000000   80B5               PUSH     {R7,LR}
   \   00000002   4FF48051           MOV      R1,#+4096
   \   00000006   ........           LDR.W    R0,??DataTable45_1  ;; 0x40020800
   \   0000000A   ........           BL       GPIO_ReadInputDataBit
   \   0000000E   0128               CMP      R0,#+1
   \   00000010   01D1               BNE.N    ??Is_RLIGHT_0
   \   00000012   0020               MOVS     R0,#+0
   \   00000014   00E0               B.N      ??Is_RLIGHT_1
   \                     ??Is_RLIGHT_0:
   \   00000016   0120               MOVS     R0,#+1
   \                     ??Is_RLIGHT_1:
   \   00000018   02BD               POP      {R1,PC}          ;; return

   \                                 In section .text, align 2, keep-with-next
   \   static __interwork __softfp uint8_t Is_FDOOR(void)
   \                     Is_FDOOR:
   \   00000000   80B5               PUSH     {R7,LR}
   \   00000002   4FF40071           MOV      R1,#+512
   \   00000006   ........           LDR.W    R0,??DataTable44_1  ;; 0x40021800
   \   0000000A   ........           BL       GPIO_ReadInputDataBit
   \   0000000E   0128               CMP      R0,#+1
   \   00000010   01D1               BNE.N    ??Is_FDOOR_0
   \   00000012   0020               MOVS     R0,#+0
   \   00000014   00E0               B.N      ??Is_FDOOR_1
   \                     ??Is_FDOOR_0:
   \   00000016   0120               MOVS     R0,#+1
   \                     ??Is_FDOOR_1:
   \   00000018   02BD               POP      {R1,PC}          ;; return

   \                                 In section .text, align 2, keep-with-next
   \   static __interwork __softfp uint8_t Is_RDOOR(void)
   \                     Is_RDOOR:
   \   00000000   80B5               PUSH     {R7,LR}
   \   00000002   4FF48071           MOV      R1,#+256
   \   00000006   ........           LDR.W    R0,??DataTable44_1  ;; 0x40021800
   \   0000000A   ........           BL       GPIO_ReadInputDataBit
   \   0000000E   0128               CMP      R0,#+1
   \   00000010   01D1               BNE.N    ??Is_RDOOR_0
   \   00000012   0020               MOVS     R0,#+0
   \   00000014   00E0               B.N      ??Is_RDOOR_1
   \                     ??Is_RDOOR_0:
   \   00000016   0120               MOVS     R0,#+1
   \                     ??Is_RDOOR_1:
   \   00000018   02BD               POP      {R1,PC}          ;; return

   \                                 In section .text, align 2, keep-with-next
   \   static __interwork __softfp uint8_t Is_KEYON(void)
   \                     Is_KEYON:
   \   00000000   80B5               PUSH     {R7,LR}
   \   00000002   4FF40071           MOV      R1,#+512
   \   00000006   ........           LDR.W    R0,??DataTable45_3  ;; 0x40020c00
   \   0000000A   ........           BL       GPIO_ReadInputDataBit
   \   0000000E   0128               CMP      R0,#+1
   \   00000010   01D1               BNE.N    ??Is_KEYON_0
   \   00000012   0120               MOVS     R0,#+1
   \   00000014   00E0               B.N      ??Is_KEYON_1
   \                     ??Is_KEYON_0:
   \   00000016   0020               MOVS     R0,#+0
   \                     ??Is_KEYON_1:
   \   00000018   02BD               POP      {R1,PC}          ;; return

   \                                 In section .text, align 2, keep-with-next
   \   static __interwork __softfp uint8_t Is_RDISTANCE(void)
   \                     Is_RDISTANCE:
   \   00000000   80B5               PUSH     {R7,LR}
   \   00000002   4FF48071           MOV      R1,#+256
   \   00000006   ........           LDR.W    R0,??DataTable45_3  ;; 0x40020c00
   \   0000000A   ........           BL       GPIO_ReadInputDataBit
   \   0000000E   0128               CMP      R0,#+1
   \   00000010   01D1               BNE.N    ??Is_RDISTANCE_0
   \   00000012   0020               MOVS     R0,#+0
   \   00000014   00E0               B.N      ??Is_RDISTANCE_1
   \                     ??Is_RDISTANCE_0:
   \   00000016   0120               MOVS     R0,#+1
   \                     ??Is_RDISTANCE_1:
   \   00000018   02BD               POP      {R1,PC}          ;; return
      3          #include "main.h"
      4          #include "Log.h"
      5          #include "Voice.h"
      6          

   \                                 In section .bss, align 1
      7          u8 EnginOnActionFlag;  // 엔진 시작 모드인가
   \                     EnginOnActionFlag:
   \   00000000                      DS8 1

   \                                 In section .bss, align 1
      8          u8 EnginOnActionStep;  // 엔진온 상황은 어디서 진행 중인가?
   \                     EnginOnActionStep:
   \   00000000                      DS8 1
      9          

   \                                 In section .bss, align 1
     10          u8 EnginOffActionFlag;  // 공회전 모드로 들어가는가?
   \                     EnginOffActionFlag:
   \   00000000                      DS8 1

   \                                 In section .bss, align 1
     11          u8 EnginOffActionStep;  // 공제 공회전 진행 상황은 어디서 진행 중인가?
   \                     EnginOffActionStep:
   \   00000000                      DS8 1
     12          

   \                                 In section .bss, align 2
     13          u16 EnginOnLimit_Time;     // 실패시 재시동 시간 3초
   \                     EnginOnLimit_Time:
   \   00000000                      DS8 2

   \                                 In section .bss, align 2
     14          u16 EnginOffLimit_Time;    // 공회전 정지 실패시 재시동 시간 10초
   \                     EnginOffLimit_Time:
   \   00000000                      DS8 2
     15          

   \                                 In section .bss, align 1
     16          u8 EnginOff_Flag;  // 공회전으로 현재 엔진 오프중 ( 출력 제어중 )
   \                     EnginOff_Flag:
   \   00000000                      DS8 1
     17          

   \                                 In section .bss, align 1
     18          u8 EnginOffLimit_Flag;		//  공회전 재진입 방지 플래그
   \                     EnginOffLimit_Flag:
   \   00000000                      DS8 1
     19          

   \                                 In section .bss, align 1
     20          u8 Ref_OverDrive;     // 일정 이상 SPEED를 내고 달렸을경우 공회전 정지 조건 추가
   \                     Ref_OverDrive:
   \   00000000                      DS8 1

   \                                 In section .bss, align 1
     21          u8 EMSOn_Check;      //  시동온를 체크 한다.
   \                     EMSOn_Check:
   \   00000000                      DS8 1

   \                                 In section .bss, align 1
     22          u8 EMSOff_Check;     //  시동오프를 체크 한다.
   \                     EMSOff_Check:
   \   00000000                      DS8 1
     23          

   \                                 In section .bss, align 1
     24          u8 EMS_Reley_Off;              // 릴레이 오프 동작 Flag
   \                     EMS_Reley_Off:
   \   00000000                      DS8 1
     25          

   \                                 In section .bss, align 1
     26          u8 EMS_Replay_Flag;
   \                     EMS_Replay_Flag:
   \   00000000                      DS8 1
     27          

   \                                 In section .bss, align 2
     28          u16 EmsOnProgress;                 // 현재 엔진온 조건들을 모두 확인한다. ( DEBUG용)
   \                     EmsOnProgress:
   \   00000000                      DS8 2

   \                                 In section .bss, align 2
     29          u16 EmsOffProgress;                // 현재 엔진오프 조건들을 모두 확인한다. ( DEBUG용)
   \                     EmsOffProgress:
   \   00000000                      DS8 2
     30          

   \                                 In section .bss, align 4
     31          u8 Speed_Buffer1[10];
   \                     Speed_Buffer1:
   \   00000000                      DS8 12

   \                                 In section .bss, align 4
     32          u8 Speed_Buffer2[10];
   \                     Speed_Buffer2:
   \   00000000                      DS8 12

   \                                 In section .bss, align 1
     33          u8 Speed_Check_Count;
   \                     Speed_Check_Count:
   \   00000000                      DS8 1

   \                                 In section .bss, align 4
     34          u8 INPUT_DATA[9];             // 입력중인 핀 데이터
   \                     INPUT_DATA:
   \   00000000                      DS8 12

   \                                 In section .bss, align 2
     35          u16 INPUT_REVERSE_DATA;       // 입력중인 핀 데이터
   \                     INPUT_REVERSE_DATA:
   \   00000000                      DS8 2

   \                                 In section .bss, align 1
     36          u8 OUTPUT_DATA;
   \                     OUTPUT_DATA:
   \   00000000                      DS8 1
     37          

   \                                 In section .text, align 2, keep-with-next
     38          void EMS_Config(void)
     39          {
   \                     EMS_Config:
   \   00000000   80B5               PUSH     {R7,LR}
     40              EnginOnActionFlag = 0;
   \   00000002   ........           LDR.W    R0,??DataTable45_4
   \   00000006   0021               MOVS     R1,#+0
   \   00000008   0170               STRB     R1,[R0, #+0]
     41              EnginOnActionStep = 0;     
   \   0000000A   ........           LDR.W    R0,??DataTable45_5
   \   0000000E   0021               MOVS     R1,#+0
   \   00000010   0170               STRB     R1,[R0, #+0]
     42              EnginOffActionFlag = 0;
   \   00000012   ........           LDR.W    R0,??DataTable45_6
   \   00000016   0021               MOVS     R1,#+0
   \   00000018   0170               STRB     R1,[R0, #+0]
     43              EnginOffActionStep = 0;
   \   0000001A   ........           LDR.W    R0,??DataTable45_7
   \   0000001E   0021               MOVS     R1,#+0
   \   00000020   0170               STRB     R1,[R0, #+0]
     44              EnginOnLimit_Time = 0;
   \   00000022   ........           LDR.W    R0,??DataTable45_8
   \   00000026   0021               MOVS     R1,#+0
   \   00000028   0180               STRH     R1,[R0, #+0]
     45              
     46              EnginOff_Flag = 0;
   \   0000002A   ........           LDR.W    R0,??DataTable45_9
   \   0000002E   0021               MOVS     R1,#+0
   \   00000030   0170               STRB     R1,[R0, #+0]
     47              Ref_OverDrive = 0;
   \   00000032   ........           LDR.W    R0,??DataTable45_10
   \   00000036   0021               MOVS     R1,#+0
   \   00000038   0170               STRB     R1,[R0, #+0]
     48              /////////////////////////////////////////////////////////
     49              
     50              EnginOffLimit_Time = MS_TIMER_1sec;      // 시작하자 마자 공회전 3분간 진입금지
   \   0000003A   ........           LDR.W    R0,??DataTable45_11
   \   0000003E   ........           LDR.W    R1,??DataTable45_12
   \   00000042   0988               LDRH     R1,[R1, #+0]
   \   00000044   0180               STRH     R1,[R0, #+0]
     51              EnginOffLimit_Flag = 1;        
   \   00000046   ........           LDR.W    R0,??DataTable45_13
   \   0000004A   0121               MOVS     R1,#+1
   \   0000004C   0170               STRB     R1,[R0, #+0]
     52              
     53              ///////////////////////////////////////////////////////
     54              
     55              EMS_Reley_Off = 0;
   \   0000004E   ........           LDR.W    R0,??DataTable45_14
   \   00000052   0021               MOVS     R1,#+0
   \   00000054   0170               STRB     R1,[R0, #+0]
     56              EmsOutClear();    // 전출력 오프
   \   00000056   ........           BL       EmsOutClear
     57          
     58              EMS_Replay_Flag = 0;                          // 1분간 재시동 실패시 EMS 정지
   \   0000005A   ........           LDR.W    R0,??DataTable45_15
   \   0000005E   0021               MOVS     R1,#+0
   \   00000060   0170               STRB     R1,[R0, #+0]
     59          
     60          
     61          }
   \   00000062   01BD               POP      {R0,PC}          ;; return

   \                                 In section .text, align 2, keep-with-next
     62          void EMS_Driving_Check(void)            // 운전 EMS 데이터 수집
     63          {
   \                     EMS_Driving_Check:
   \   00000000   80B5               PUSH     {R7,LR}
     64               static u16 EMS_Driving_Timer;     
     65               static u8 StartMotor_Flag = 0;
     66               
     67               if(!CheckTimeOver(1000,EMS_Driving_Timer))
   \   00000002   ........           LDR.W    R0,??DataTable45_16
   \   00000006   0188               LDRH     R1,[R0, #+0]
   \   00000008   4FF47A70           MOV      R0,#+1000
   \   0000000C   ........           BL       CheckTimeOver
   \   00000010   0028               CMP      R0,#+0
   \   00000012   70D0               BEQ.N    ??EMS_Driving_Check_0
     68                    return;      
     69               EMS_Driving_Timer = MS_TIMER;  	// 타이머 5	     
   \                     ??EMS_Driving_Check_1:
   \   00000014   ........           LDR.W    R0,??DataTable45_17  ;; 0x40000c00
   \   00000018   ........           BL       TIM_GetCounter
   \   0000001C   ........           LDR.W    R1,??DataTable45_16
   \   00000020   0880               STRH     R0,[R1, #+0]
     70               // ---- 시동 모터 체크 ------------------------------------
     71               if(Info.RPM_Value == 0)
   \   00000022   ........           LDR.W    R0,??DataTable45_18
   \   00000026   B0F83500           LDRH     R0,[R0, #+53]
   \   0000002A   0028               CMP      R0,#+0
   \   0000002C   04D1               BNE.N    ??EMS_Driving_Check_2
     72               {
     73                  StartMotor_Flag = 1;
   \   0000002E   ........           LDR.W    R0,??DataTable45_19
   \   00000032   0121               MOVS     R1,#+1
   \   00000034   0170               STRB     R1,[R0, #+0]
   \   00000036   1EE0               B.N      ??EMS_Driving_Check_3
     74               }
     75               else if(Info.RPM_Value > 0 && StartMotor_Flag == 1)
   \                     ??EMS_Driving_Check_2:
   \   00000038   ........           LDR.W    R0,??DataTable45_18
   \   0000003C   B0F83500           LDRH     R0,[R0, #+53]
   \   00000040   0128               CMP      R0,#+1
   \   00000042   18D3               BCC.N    ??EMS_Driving_Check_3
   \   00000044   ........           LDR.W    R0,??DataTable45_19
   \   00000048   0078               LDRB     R0,[R0, #+0]
   \   0000004A   0128               CMP      R0,#+1
   \   0000004C   13D1               BNE.N    ??EMS_Driving_Check_3
     76               {
     77                    StartMotor_Flag = 0;
   \   0000004E   ........           LDR.W    R0,??DataTable45_19
   \   00000052   0021               MOVS     R1,#+0
   \   00000054   0170               STRB     R1,[R0, #+0]
     78                    Info.Total_StartCount++;                 
   \   00000056   ........           LDR.W    R0,??DataTable45_18
   \   0000005A   D0F82600           LDR      R0,[R0, #+38]
   \   0000005E   401C               ADDS     R0,R0,#+1
   \   00000060   ........           LDR.W    R1,??DataTable45_18
   \   00000064   C1F82600           STR      R0,[R1, #+38]
     79                    EMS_Drive_Value.Day_StarterMotor++;
   \   00000068   ........           LDR.W    R0,??DataTable45_20
   \   0000006C   008B               LDRH     R0,[R0, #+24]
   \   0000006E   401C               ADDS     R0,R0,#+1
   \   00000070   ........           LDR.W    R1,??DataTable45_20
   \   00000074   0883               STRH     R0,[R1, #+24]
     80               }
     81               // ---- 브레이크 카운트 ------------------------------------
     82               if ( (Info.Input_Status& INPUT_BREAK_FLAG)  )
   \                     ??EMS_Driving_Check_3:
   \   00000076   ........           LDR.W    R0,??DataTable45_18
   \   0000007A   90F85D00           LDRB     R0,[R0, #+93]
   \   0000007E   C007               LSLS     R0,R0,#+31
   \   00000080   06D5               BPL.N    ??EMS_Driving_Check_4
     83               {          
     84                    EMS_Drive_Value.Break_Count++;
   \   00000082   ........           LDR.W    R0,??DataTable45_20
   \   00000086   408C               LDRH     R0,[R0, #+34]
   \   00000088   401C               ADDS     R0,R0,#+1
   \   0000008A   ........           LDR.W    R1,??DataTable45_20
   \   0000008E   4884               STRH     R0,[R1, #+34]
     85               }
     86               // ---- 차량 운행시간 계산 ---------------------------------     
     87               if ( (Info.Input_Status& INPUT_KEYON_FLAG)  )          // 키온이 되어있으면 운행시간 증가
   \                     ??EMS_Driving_Check_4:
   \   00000090   ........           LDR.W    R0,??DataTable45_18
   \   00000094   90F85D00           LDRB     R0,[R0, #+93]
   \   00000098   0006               LSLS     R0,R0,#+24
   \   0000009A   2CD5               BPL.N    ??EMS_Driving_Check_5
     88               {          
     89          //          EMS_Drive_Value.Drive_Time ++;
     90                    if(Info.RPM_Value > 0)
   \   0000009C   ........           LDR.W    R0,??DataTable45_18
   \   000000A0   B0F83500           LDRH     R0,[R0, #+53]
   \   000000A4   0128               CMP      R0,#+1
   \   000000A6   0DD3               BCC.N    ??EMS_Driving_Check_6
     91                    {
     92                         if(Info.SPEED_Value == 0)
   \   000000A8   ........           LDR.W    R0,??DataTable45_18
   \   000000AC   90F83400           LDRB     R0,[R0, #+52]
   \   000000B0   0028               CMP      R0,#+0
   \   000000B2   14D1               BNE.N    ??EMS_Driving_Check_7
     93                         {
     94                              EMS_Drive_Value.DriveStop_Time++;
   \   000000B4   ........           LDR.W    R0,??DataTable45_20
   \   000000B8   C068               LDR      R0,[R0, #+12]
   \   000000BA   401C               ADDS     R0,R0,#+1
   \   000000BC   ........           LDR.W    R1,??DataTable45_20
   \   000000C0   C860               STR      R0,[R1, #+12]
   \   000000C2   0CE0               B.N      ??EMS_Driving_Check_7
     95                         }
     96                    }else if(Info.RPM_Value == 0)
   \                     ??EMS_Driving_Check_6:
   \   000000C4   ........           LDR.W    R0,??DataTable45_18
   \   000000C8   B0F83500           LDRH     R0,[R0, #+53]
   \   000000CC   0028               CMP      R0,#+0
   \   000000CE   06D1               BNE.N    ??EMS_Driving_Check_7
     97                    {
     98                         EMS_Drive_Value.EngineStop_Time++;
   \   000000D0   ........           LDR.W    R0,??DataTable45_20
   \   000000D4   0069               LDR      R0,[R0, #+16]
   \   000000D6   401C               ADDS     R0,R0,#+1
   \   000000D8   ........           LDR.W    R1,??DataTable45_20
   \   000000DC   0861               STR      R0,[R1, #+16]
     99                    }          
    100                    if(Info.EcoStatus == 1)       // ECO가 온이면 시간 증가
   \                     ??EMS_Driving_Check_7:
   \   000000DE   ........           LDR.W    R0,??DataTable45_18
   \   000000E2   007E               LDRB     R0,[R0, #+24]
   \   000000E4   0128               CMP      R0,#+1
   \   000000E6   06D1               BNE.N    ??EMS_Driving_Check_5
    101                    {
    102                         EMS_Drive_Value.EcoUse_Time++;
   \   000000E8   ........           LDR.W    R0,??DataTable45_20
   \   000000EC   4069               LDR      R0,[R0, #+20]
   \   000000EE   401C               ADDS     R0,R0,#+1
   \   000000F0   ........           LDR.W    R1,??DataTable45_20
   \   000000F4   4861               STR      R0,[R1, #+20]
    103                    }          
    104               }
    105          }
   \                     ??EMS_Driving_Check_5:
   \                     ??EMS_Driving_Check_0:
   \   000000F6   01BD               POP      {R0,PC}          ;; return

   \                                 In section .bss, align 2
   \                     ??EMS_Driving_Timer:
   \   00000000                      DS8 2

   \                                 In section .bss, align 1
   \                     ??StartMotor_Flag:
   \   00000000                      DS8 1
    106          
    107          

   \                                 In section .text, align 2, keep-with-next
    108          void ECO_Driving_Check(void)
    109          {
   \                     ECO_Driving_Check:
   \   00000000   10B5               PUSH     {R4,LR}
    110               static u16 ECO_Driving_Timer1;
    111               static u16 ECO_Driving_Timer2;     
    112               static u8 FastOverSpeed_Count = 0;
    113          
    114               static u16 QuickStart_Timer;
    115               static u8 QuickStart_Flag = 0;
    116           //    u8 i;
    117               u8 Check;
    118               
    119               static u8 QuickCount = 0; 
    120               if(!CheckTimeOver(100,ECO_Driving_Timer1))
   \   00000002   ........           LDR.W    R0,??DataTable45_21
   \   00000006   0188               LDRH     R1,[R0, #+0]
   \   00000008   6420               MOVS     R0,#+100
   \   0000000A   ........           BL       CheckTimeOver
   \   0000000E   0028               CMP      R0,#+0
   \   00000010   00F08C81           BEQ.W    ??ECO_Driving_Check_0
    121                    return;      
    122               
    123               ECO_Driving_Timer1 = MS_TIMER;  	// 타이머 5	
   \                     ??ECO_Driving_Check_1:
   \   00000014   ........           LDR.W    R0,??DataTable45_17  ;; 0x40000c00
   \   00000018   ........           BL       TIM_GetCounter
   \   0000001C   ........           LDR.W    R1,??DataTable45_21
   \   00000020   0880               STRH     R0,[R1, #+0]
    124               
    125               
    126               Check = Speed_Check_Count;    
   \   00000022   ........           LDR.W    R0,??DataTable45_22
   \   00000026   0478               LDRB     R4,[R0, #+0]
    127               
    128               // 현재값이 아닌 이전값을 계산
    129               if(Check == 0)
   \   00000028   E4B2               UXTB     R4,R4            ;; ZeroExt  R4,R4,#+24,#+24
   \   0000002A   002C               CMP      R4,#+0
   \   0000002C   01D1               BNE.N    ??ECO_Driving_Check_2
    130                    Check = 9;
   \   0000002E   0924               MOVS     R4,#+9
   \   00000030   00E0               B.N      ??ECO_Driving_Check_3
    131               else
    132                    Check --;     
   \                     ??ECO_Driving_Check_2:
   \   00000032   641E               SUBS     R4,R4,#+1
    133               
    134               // ------ 급출발 검출 -----------------------------------------------------
    135               if( Speed_Buffer1[Check] < 5 )          // 현재 속도가 5Km 이하일때 5초간 시간 유지
   \                     ??ECO_Driving_Check_3:
   \   00000034   E4B2               UXTB     R4,R4            ;; ZeroExt  R4,R4,#+24,#+24
   \   00000036   ........           LDR.W    R0,??DataTable45_23
   \   0000003A   205C               LDRB     R0,[R4, R0]
   \   0000003C   0528               CMP      R0,#+5
   \   0000003E   0BD2               BCS.N    ??ECO_Driving_Check_4
    136               {
    137                    QuickStart_Timer = MS_TIMER;
   \   00000040   ........           LDR.W    R0,??DataTable45_17  ;; 0x40000c00
   \   00000044   ........           BL       TIM_GetCounter
   \   00000048   ........           LDR.W    R1,??DataTable45_24
   \   0000004C   0880               STRH     R0,[R1, #+0]
    138                    QuickStart_Flag = 1;
   \   0000004E   ........           LDR.W    R0,??DataTable45_25
   \   00000052   0121               MOVS     R1,#+1
   \   00000054   0170               STRB     R1,[R0, #+0]
   \   00000056   11E0               B.N      ??ECO_Driving_Check_5
    139               }else
    140               {
    141                    if(QuickStart_Flag == 1)
   \                     ??ECO_Driving_Check_4:
   \   00000058   ........           LDR.W    R0,??DataTable45_25
   \   0000005C   0078               LDRB     R0,[R0, #+0]
   \   0000005E   0128               CMP      R0,#+1
   \   00000060   0CD1               BNE.N    ??ECO_Driving_Check_5
    142                    {
    143                         if(CheckTimeOver(5000,QuickStart_Timer))                    
   \   00000062   ........           LDR.W    R0,??DataTable45_24
   \   00000066   0188               LDRH     R1,[R0, #+0]
   \   00000068   41F28830           MOVW     R0,#+5000
   \   0000006C   ........           BL       CheckTimeOver
   \   00000070   0028               CMP      R0,#+0
   \   00000072   03D0               BEQ.N    ??ECO_Driving_Check_5
    144                              QuickStart_Flag = 0;
   \   00000074   ........           LDR.W    R0,??DataTable45_25
   \   00000078   0021               MOVS     R1,#+0
   \   0000007A   0170               STRB     R1,[R0, #+0]
    145                    }
    146                    
    147               }
    148               if( QuickCount >= 20 && QuickStart_Flag == 1 )       // 1초전 
   \                     ??ECO_Driving_Check_5:
   \   0000007C   ........           LDR.W    R0,??DataTable45_26
   \   00000080   0078               LDRB     R0,[R0, #+0]
   \   00000082   1428               CMP      R0,#+20
   \   00000084   43D3               BCC.N    ??ECO_Driving_Check_6
   \   00000086   ........           LDR.W    R0,??DataTable45_25
   \   0000008A   0078               LDRB     R0,[R0, #+0]
   \   0000008C   0128               CMP      R0,#+1
   \   0000008E   3ED1               BNE.N    ??ECO_Driving_Check_6
    149               {              
    150                    if( ( Speed_Buffer1[Check] - Speed_Buffer2[Check] ) > SFLASH_Memory.QuickStart )
   \   00000090   ........           LDR.W    R0,??DataTable45_27
   \   00000094   B0F89C00           LDRH     R0,[R0, #+156]
   \   00000098   E4B2               UXTB     R4,R4            ;; ZeroExt  R4,R4,#+24,#+24
   \   0000009A   ........           LDR.W    R1,??DataTable45_23
   \   0000009E   615C               LDRB     R1,[R4, R1]
   \   000000A0   E4B2               UXTB     R4,R4            ;; ZeroExt  R4,R4,#+24,#+24
   \   000000A2   ........           LDR.W    R2,??DataTable45_28
   \   000000A6   A25C               LDRB     R2,[R4, R2]
   \   000000A8   891A               SUBS     R1,R1,R2
   \   000000AA   8842               CMP      R0,R1
   \   000000AC   2BDA               BGE.N    ??ECO_Driving_Check_7
    151                    {
    152                         QuickCount = 0;               
   \   000000AE   ........           LDR.W    R0,??DataTable45_26
   \   000000B2   0021               MOVS     R1,#+0
   \   000000B4   0170               STRB     R1,[R0, #+0]
    153                         if(QuickStart_Flag == 1)
   \   000000B6   ........           LDR.W    R0,??DataTable45_25
   \   000000BA   0078               LDRB     R0,[R0, #+0]
   \   000000BC   0128               CMP      R0,#+1
   \   000000BE   0DD1               BNE.N    ??ECO_Driving_Check_8
    154                         {
    155                              EMS_Drive_Value.QuickStart_Count++;
   \   000000C0   ........           LDR.W    R0,??DataTable45_20
   \   000000C4   808B               LDRH     R0,[R0, #+28]
   \   000000C6   401C               ADDS     R0,R0,#+1
   \   000000C8   ........           LDR.W    R1,??DataTable45_20
   \   000000CC   8883               STRH     R0,[R1, #+28]
    156                              ECO_Driving.QuickStart++;
   \   000000CE   ........           LDR.W    R0,??DataTable45_29
   \   000000D2   8088               LDRH     R0,[R0, #+4]
   \   000000D4   401C               ADDS     R0,R0,#+1
   \   000000D6   ........           LDR.W    R1,??DataTable45_29
   \   000000DA   8880               STRH     R0,[R1, #+4]
    157                         }
    158                         QuickStart_Flag = 0 ;
   \                     ??ECO_Driving_Check_8:
   \   000000DC   ........           LDR.W    R0,??DataTable45_25
   \   000000E0   0021               MOVS     R1,#+0
   \   000000E2   0170               STRB     R1,[R0, #+0]
    159                         // LOG -------------------------------------------------------------------------			
    160                         if(LOGWRITE & LOG_ECO_DRIVE)                                
   \   000000E4   ........           LDR.W    R0,??DataTable45_30
   \   000000E8   0068               LDR      R0,[R0, #+0]
   \   000000EA   0005               LSLS     R0,R0,#+20
   \   000000EC   0FD5               BPL.N    ??ECO_Driving_Check_6
    161                         {
    162                              sprintf((char *)Buffer,"ECO_QUICK_START CHECK \r\n "); 
   \   000000EE   ........           LDR.W    R1,??DataTable45_31
   \   000000F2   ........           LDR.W    R0,??DataTable45_32
   \   000000F6   ........           BL       sprintf
    163                              Write_Log(Buffer, NORMAL_LOG);
   \   000000FA   0121               MOVS     R1,#+1
   \   000000FC   ........           LDR.W    R0,??DataTable45_32
   \   00000100   ........           BL       Write_Log
   \   00000104   03E0               B.N      ??ECO_Driving_Check_6
    164                         }            
    165                         // -----------------------------------------------------------------------------				
    166                    }else
    167                         QuickCount = 20;
   \                     ??ECO_Driving_Check_7:
   \   00000106   ........           LDR.W    R0,??DataTable45_26
   \   0000010A   1421               MOVS     R1,#+20
   \   0000010C   0170               STRB     R1,[R0, #+0]
    168                    
    169               }     
    170               // ------ 급가속 검출 -----------------------------------------------------
    171               if( Speed_Buffer1[Speed_Check_Count] > 3 && ( QuickCount >= 20 ))       // 1초전 
   \                     ??ECO_Driving_Check_6:
   \   0000010E   ........           LDR.W    R0,??DataTable45_22
   \   00000112   0078               LDRB     R0,[R0, #+0]
   \   00000114   ........           LDR.W    R1,??DataTable45_23
   \   00000118   405C               LDRB     R0,[R0, R1]
   \   0000011A   0428               CMP      R0,#+4
   \   0000011C   3DD3               BCC.N    ??ECO_Driving_Check_9
   \   0000011E   ........           LDR.W    R0,??DataTable45_26
   \   00000122   0078               LDRB     R0,[R0, #+0]
   \   00000124   1428               CMP      R0,#+20
   \   00000126   38D3               BCC.N    ??ECO_Driving_Check_9
    172               {              
    173                    if( ( Speed_Buffer1[Check] - Speed_Buffer2[Check] ) > SFLASH_Memory.QuickAccel )
   \   00000128   ........           LDR.W    R0,??DataTable45_27
   \   0000012C   B0F89800           LDRH     R0,[R0, #+152]
   \   00000130   E4B2               UXTB     R4,R4            ;; ZeroExt  R4,R4,#+24,#+24
   \   00000132   ........           LDR.W    R1,??DataTable45_23
   \   00000136   615C               LDRB     R1,[R4, R1]
   \   00000138   E4B2               UXTB     R4,R4            ;; ZeroExt  R4,R4,#+24,#+24
   \   0000013A   ........           LDR.W    R2,??DataTable45_28
   \   0000013E   A25C               LDRB     R2,[R4, R2]
   \   00000140   891A               SUBS     R1,R1,R2
   \   00000142   8842               CMP      R0,R1
   \   00000144   25DA               BGE.N    ??ECO_Driving_Check_10
    174                    {
    175                         QuickCount = 0;
   \   00000146   ........           LDR.W    R0,??DataTable45_26
   \   0000014A   0021               MOVS     R1,#+0
   \   0000014C   0170               STRB     R1,[R0, #+0]
    176                         ECO_Driving.QuickAccel++;
   \   0000014E   ........           LDR.W    R0,??DataTable45_29
   \   00000152   4088               LDRH     R0,[R0, #+2]
   \   00000154   401C               ADDS     R0,R0,#+1
   \   00000156   ........           LDR.W    R1,??DataTable45_29
   \   0000015A   4880               STRH     R0,[R1, #+2]
    177                         EMS_Drive_Value.QuickAccel_Count++;
   \   0000015C   ........           LDR.W    R0,??DataTable45_20
   \   00000160   408B               LDRH     R0,[R0, #+26]
   \   00000162   401C               ADDS     R0,R0,#+1
   \   00000164   ........           LDR.W    R1,??DataTable45_20
   \   00000168   4883               STRH     R0,[R1, #+26]
    178                         Voice_OutAdd(VOICE_QUCIKSTART);	// 음성 출력
   \   0000016A   0120               MOVS     R0,#+1
   \   0000016C   ........           BL       Voice_OutAdd
    179                         
    180          //               if(QuickStart_Flag == 1)
    181          //                    EMS_Drive_Value.QuickStart_Count++;
    182                         
    183                         // LOG -------------------------------------------------------------------------			
    184                         if(LOGWRITE & LOG_ECO_DRIVE)                                
   \   00000170   ........           LDR.W    R0,??DataTable45_30
   \   00000174   0068               LDR      R0,[R0, #+0]
   \   00000176   0005               LSLS     R0,R0,#+20
   \   00000178   0FD5               BPL.N    ??ECO_Driving_Check_9
    185                         {
    186                              sprintf((char *)Buffer,"ECO_QUICK_START CHECK \r\n "); 
   \   0000017A   ........           LDR.W    R1,??DataTable45_31
   \   0000017E   ........           LDR.W    R0,??DataTable45_32
   \   00000182   ........           BL       sprintf
    187                              Write_Log(Buffer, NORMAL_LOG);
   \   00000186   0121               MOVS     R1,#+1
   \   00000188   ........           LDR.W    R0,??DataTable45_32
   \   0000018C   ........           BL       Write_Log
   \   00000190   03E0               B.N      ??ECO_Driving_Check_9
    188                         }            
    189                         // -----------------------------------------------------------------------------				
    190                    }else
    191                         QuickCount = 20;          
   \                     ??ECO_Driving_Check_10:
   \   00000192   ........           LDR.W    R0,??DataTable45_26
   \   00000196   1421               MOVS     R1,#+20
   \   00000198   0170               STRB     R1,[R0, #+0]
    192               }
    193          
    194               // ---- 급정지 검출 ------------------------------------------------------
    195               
    196               if( Speed_Buffer1[Speed_Check_Count] > 11 && ( QuickCount >= 20 ))     
   \                     ??ECO_Driving_Check_9:
   \   0000019A   ........           LDR.W    R0,??DataTable45_22
   \   0000019E   0078               LDRB     R0,[R0, #+0]
   \   000001A0   ........           LDR.W    R1,??DataTable45_23
   \   000001A4   405C               LDRB     R0,[R0, R1]
   \   000001A6   0C28               CMP      R0,#+12
   \   000001A8   3DD3               BCC.N    ??ECO_Driving_Check_11
   \   000001AA   ........           LDR.W    R0,??DataTable45_26
   \   000001AE   0078               LDRB     R0,[R0, #+0]
   \   000001B0   1428               CMP      R0,#+20
   \   000001B2   38D3               BCC.N    ??ECO_Driving_Check_11
    197               {
    198                    if( ( Speed_Buffer2[Check] - Speed_Buffer1[Check] ) > SFLASH_Memory.QuickStop )
   \   000001B4   ........           LDR.W    R0,??DataTable45_27
   \   000001B8   B0F89A00           LDRH     R0,[R0, #+154]
   \   000001BC   E4B2               UXTB     R4,R4            ;; ZeroExt  R4,R4,#+24,#+24
   \   000001BE   ........           LDR.W    R1,??DataTable45_28
   \   000001C2   615C               LDRB     R1,[R4, R1]
   \   000001C4   E4B2               UXTB     R4,R4            ;; ZeroExt  R4,R4,#+24,#+24
   \   000001C6   ........           LDR.W    R2,??DataTable45_23
   \   000001CA   A25C               LDRB     R2,[R4, R2]
   \   000001CC   891A               SUBS     R1,R1,R2
   \   000001CE   8842               CMP      R0,R1
   \   000001D0   25DA               BGE.N    ??ECO_Driving_Check_12
    199                    {
    200                         QuickCount = 0;
   \   000001D2   ........           LDR.W    R0,??DataTable45_26
   \   000001D6   0021               MOVS     R1,#+0
   \   000001D8   0170               STRB     R1,[R0, #+0]
    201                         ECO_Driving.QuickStop++;
   \   000001DA   ........           LDR.W    R0,??DataTable45_29
   \   000001DE   C088               LDRH     R0,[R0, #+6]
   \   000001E0   401C               ADDS     R0,R0,#+1
   \   000001E2   ........           LDR.W    R1,??DataTable45_29
   \   000001E6   C880               STRH     R0,[R1, #+6]
    202                         EMS_Drive_Value.QuickStop_Count++;
   \   000001E8   ........           LDR.W    R0,??DataTable45_20
   \   000001EC   C08B               LDRH     R0,[R0, #+30]
   \   000001EE   401C               ADDS     R0,R0,#+1
   \   000001F0   ........           LDR.W    R1,??DataTable45_20
   \   000001F4   C883               STRH     R0,[R1, #+30]
    203                         Voice_OutAdd(VOICE_QUCIKSTOP);	// 음성 출력
   \   000001F6   0420               MOVS     R0,#+4
   \   000001F8   ........           BL       Voice_OutAdd
    204                         // LOG -------------------------------------------------------------------------			
    205                         if(LOGWRITE & LOG_ECO_DRIVE)                                
   \   000001FC   ........           LDR.W    R0,??DataTable45_30
   \   00000200   0068               LDR      R0,[R0, #+0]
   \   00000202   0005               LSLS     R0,R0,#+20
   \   00000204   0FD5               BPL.N    ??ECO_Driving_Check_11
    206                         {
    207                              sprintf((char *)Buffer,"ECO_QUICK_STOP CHECK \r\n "); 
   \   00000206   ........           LDR.W    R1,??DataTable45_33
   \   0000020A   ........           LDR.W    R0,??DataTable45_32
   \   0000020E   ........           BL       sprintf
    208                              Write_Log(Buffer, NORMAL_LOG);
   \   00000212   0121               MOVS     R1,#+1
   \   00000214   ........           LDR.W    R0,??DataTable45_32
   \   00000218   ........           BL       Write_Log
   \   0000021C   03E0               B.N      ??ECO_Driving_Check_11
    209                         }            
    210                         // -----------------------------------------------------------------------------					
    211                    }else
    212                    {
    213                         QuickCount = 20;
   \                     ??ECO_Driving_Check_12:
   \   0000021E   ........           LDR.W    R0,??DataTable45_26
   \   00000222   1421               MOVS     R1,#+20
   \   00000224   0170               STRB     R1,[R0, #+0]
    214                    }
    215               }
    216          
    217               //printf("%d - %d = %d \r\n",Speed_Buffer1[Check] , Speed_Buffer2[Check],Speed_Buffer1[Check] - Speed_Buffer2[Check]);
    218               QuickCount++;
   \                     ??ECO_Driving_Check_11:
   \   00000226   ........           LDR.W    R0,??DataTable45_26
   \   0000022A   0078               LDRB     R0,[R0, #+0]
   \   0000022C   401C               ADDS     R0,R0,#+1
   \   0000022E   ........           LDR.W    R1,??DataTable45_26
   \   00000232   0870               STRB     R0,[R1, #+0]
    219          //     Old_SPEED_Value = Info.SPEED_Value;	   
    220               
    221               // 과속 체크 1초 마다 진행
    222               if(!CheckTimeOver(1000,ECO_Driving_Timer2))
   \   00000234   ........           LDR.W    R0,??DataTable45_34
   \   00000238   0188               LDRH     R1,[R0, #+0]
   \   0000023A   4FF47A70           MOV      R0,#+1000
   \   0000023E   ........           BL       CheckTimeOver
   \   00000242   0028               CMP      R0,#+0
   \   00000244   72D0               BEQ.N    ??ECO_Driving_Check_0
    223                    return;      
    224               ECO_Driving_Timer2 = MS_TIMER;  	// 타이머 5	
   \                     ??ECO_Driving_Check_13:
   \   00000246   ........           LDR.W    R0,??DataTable45_17  ;; 0x40000c00
   \   0000024A   ........           BL       TIM_GetCounter
   \   0000024E   ........           LDR.W    R1,??DataTable45_34
   \   00000252   0880               STRH     R0,[R1, #+0]
    225               
    226               // 과속 체크하기
    227               if( Info.SPEED_Value > SFLASH_Memory.FastOverSpeed )
   \   00000254   ........           LDR.W    R0,??DataTable45_27
   \   00000258   B0F89600           LDRH     R0,[R0, #+150]
   \   0000025C   ........           LDR.W    R1,??DataTable45_18
   \   00000260   91F83410           LDRB     R1,[R1, #+52]
   \   00000264   89B2               UXTH     R1,R1            ;; ZeroExt  R1,R1,#+16,#+16
   \   00000266   8842               CMP      R0,R1
   \   00000268   31D2               BCS.N    ??ECO_Driving_Check_14
    228               {
    229                    ECO_Driving.FastOverSpeed++;
   \   0000026A   ........           LDR.W    R0,??DataTable45_29
   \   0000026E   0088               LDRH     R0,[R0, #+0]
   \   00000270   401C               ADDS     R0,R0,#+1
   \   00000272   ........           LDR.W    R1,??DataTable45_29
   \   00000276   0880               STRH     R0,[R1, #+0]
    230                    if( FastOverSpeed_Count == 0)         
   \   00000278   ........           LDR.W    R0,??DataTable45_35
   \   0000027C   0078               LDRB     R0,[R0, #+0]
   \   0000027E   0028               CMP      R0,#+0
   \   00000280   03D1               BNE.N    ??ECO_Driving_Check_15
    231                         FastOverSpeed_Count = 5;
   \   00000282   ........           LDR.W    R0,??DataTable45_35
   \   00000286   0521               MOVS     R1,#+5
   \   00000288   0170               STRB     R1,[R0, #+0]
    232                    if( FastOverSpeed_Count-- > 4 ) 	// 2초긴 과속을 하였을 경우                
   \                     ??ECO_Driving_Check_15:
   \   0000028A   ........           LDR.W    R0,??DataTable45_35
   \   0000028E   0078               LDRB     R0,[R0, #+0]
   \   00000290   411E               SUBS     R1,R0,#+1
   \   00000292   ........           LDR.W    R2,??DataTable45_35
   \   00000296   1170               STRB     R1,[R2, #+0]
   \   00000298   C0B2               UXTB     R0,R0            ;; ZeroExt  R0,R0,#+24,#+24
   \   0000029A   0528               CMP      R0,#+5
   \   0000029C   1BD3               BCC.N    ??ECO_Driving_Check_16
    233                    {
    234                         Voice_OutAdd(VOICE_OVERSPEED);	// 음성 출력
   \   0000029E   0220               MOVS     R0,#+2
   \   000002A0   ........           BL       Voice_OutAdd
    235                         // LOG -------------------------------------------------------------------------			
    236                         if(LOGWRITE & LOG_ECO_DRIVE)                                
   \   000002A4   ........           LDR.W    R0,??DataTable45_30
   \   000002A8   0068               LDR      R0,[R0, #+0]
   \   000002AA   0005               LSLS     R0,R0,#+20
   \   000002AC   13D5               BPL.N    ??ECO_Driving_Check_16
    237                         {
    238                              sprintf((char *)Buffer,"ECO_FASTOVER CHECK %03d \r\n ",Info.SPEED_Value); 
   \   000002AE   ........           LDR.W    R0,??DataTable45_18
   \   000002B2   90F83420           LDRB     R2,[R0, #+52]
   \   000002B6   ........           LDR.W    R1,??DataTable45_36
   \   000002BA   ........           LDR.W    R0,??DataTable45_32
   \   000002BE   ........           BL       sprintf
    239                              Write_Log(Buffer, NORMAL_LOG);
   \   000002C2   0121               MOVS     R1,#+1
   \   000002C4   ........           LDR.W    R0,??DataTable45_32
   \   000002C8   ........           BL       Write_Log
   \   000002CC   03E0               B.N      ??ECO_Driving_Check_16
    240                         }            
    241                              // -----------------------------------------------------------------------------				
    242                    }
    243               }else
    244               {
    245                    FastOverSpeed_Count = 5 ;
   \                     ??ECO_Driving_Check_14:
   \   000002CE   ........           LDR.W    R0,??DataTable45_35
   \   000002D2   0521               MOVS     R1,#+5
   \   000002D4   0170               STRB     R1,[R0, #+0]
    246               }       
    247          
    248               // ---- 고부하 운전  -------------------------------------------
    249               if(Info.RPM_Value > SFLASH_Memory.OverloadRPM )
   \                     ??ECO_Driving_Check_16:
   \   000002D6   ........           LDR.W    R0,??DataTable45_27
   \   000002DA   B0F89E00           LDRH     R0,[R0, #+158]
   \   000002DE   ........           LDR.W    R1,??DataTable45_18
   \   000002E2   B1F83510           LDRH     R1,[R1, #+53]
   \   000002E6   8842               CMP      R0,R1
   \   000002E8   20D2               BCS.N    ??ECO_Driving_Check_17
    250               {
    251                    ECO_Driving.OverloadRPM++; 
   \   000002EA   ........           LDR.W    R0,??DataTable45_29
   \   000002EE   0089               LDRH     R0,[R0, #+8]
   \   000002F0   401C               ADDS     R0,R0,#+1
   \   000002F2   ........           LDR.W    R1,??DataTable45_29
   \   000002F6   0881               STRH     R0,[R1, #+8]
    252                    EMS_Drive_Value.HighRPM_Count++;
   \   000002F8   ........           LDR.W    R0,??DataTable45_20
   \   000002FC   008C               LDRH     R0,[R0, #+32]
   \   000002FE   401C               ADDS     R0,R0,#+1
   \   00000300   ........           LDR.W    R1,??DataTable45_20
   \   00000304   0884               STRH     R0,[R1, #+32]
    253                    Voice_OutAdd(VOICE_OVERRPM);	// 음성 출력	
   \   00000306   0320               MOVS     R0,#+3
   \   00000308   ........           BL       Voice_OutAdd
    254                    // LOG -------------------------------------------------------------------------			
    255                    if(LOGWRITE & LOG_ECO_DRIVE)                                
   \   0000030C   ........           LDR.W    R0,??DataTable45_30
   \   00000310   0068               LDR      R0,[R0, #+0]
   \   00000312   0005               LSLS     R0,R0,#+20
   \   00000314   0AD5               BPL.N    ??ECO_Driving_Check_17
    256                    {
    257                         sprintf((char *)Buffer,"ECO_OVERLOAD_RPM CHECK \r\n "); 
   \   00000316   ........           LDR.W    R1,??DataTable45_37
   \   0000031A   ........           LDR.W    R0,??DataTable45_32
   \   0000031E   ........           BL       sprintf
    258                         Write_Log(Buffer, NORMAL_LOG);
   \   00000322   0121               MOVS     R1,#+1
   \   00000324   ........           LDR.W    R0,??DataTable45_32
   \   00000328   ........           BL       Write_Log
    259                    }            
    260                    // -----------------------------------------------------------------------------					
    261               }    
    262          }
   \                     ??ECO_Driving_Check_17:
   \                     ??ECO_Driving_Check_0:
   \   0000032C   10BD               POP      {R4,PC}          ;; return

   \                                 In section .bss, align 2
   \                     ??ECO_Driving_Timer1:
   \   00000000                      DS8 2

   \                                 In section .bss, align 2
   \                     ??ECO_Driving_Timer2:
   \   00000000                      DS8 2

   \                                 In section .bss, align 1
   \                     ??FastOverSpeed_Count:
   \   00000000                      DS8 1

   \                                 In section .bss, align 2
   \                     ??QuickStart_Timer:
   \   00000000                      DS8 2

   \                                 In section .bss, align 1
   \                     ??QuickStart_Flag:
   \   00000000                      DS8 1

   \                                 In section .bss, align 1
   \                     ??QuickCount:
   \   00000000                      DS8 1
    263          

   \                                 In section .text, align 2, keep-with-next
    264          void EmsOutClear(void)
    265          {
   \                     EmsOutClear:
   \   00000000   80B5               PUSH     {R7,LR}
    266               
    267               RESET_ENGINE_ON();
   \   00000002   ........           BL       RESET_ENGINE_ON
    268               RESET_ENGINE_OFF();
   \   00000006   ........           BL       RESET_ENGINE_OFF
    269               RESET_AIRCON();
   \   0000000A   ........           BL       RESET_AIRCON
    270               RESET_HITER();
   \   0000000E   ........           BL       RESET_HITER
    271               RESET_LIGHT();           
   \   00000012   ........           BL       RESET_LIGHT
    272               // LOG -------------------------------------------------------------------------
    273               // 로그 기록단위 500ms 
    274               if(LOGWRITE & LOG_EMS_ENGINE)                       
   \   00000016   ........           LDR.W    R0,??DataTable45_30
   \   0000001A   0078               LDRB     R0,[R0, #+0]
   \   0000001C   C006               LSLS     R0,R0,#+27
   \   0000001E   0AD5               BPL.N    ??EmsOutClear_0
    275               {
    276                    sprintf((char *)Buffer,"ENGINE_PIN CLEAR \r\n "); 
   \   00000020   ........           LDR.W    R1,??DataTable46
   \   00000024   ........           LDR.W    R0,??DataTable45_32
   \   00000028   ........           BL       sprintf
    277                    Write_Log(Buffer, NORMAL_LOG);
   \   0000002C   0121               MOVS     R1,#+1
   \   0000002E   ........           LDR.W    R0,??DataTable45_32
   \   00000032   ........           BL       Write_Log
    278               }            
    279               // -----------------------------------------------------------------------------	     
    280          }
   \                     ??EmsOutClear_0:
   \   00000036   01BD               POP      {R0,PC}          ;; return
    281          

   \                                 In section .text, align 2, keep-with-next
    282          void Ems_realtime_Check(void)
    283          { 
   \                     Ems_realtime_Check:
   \   00000000   80B5               PUSH     {R7,LR}
    284               if(Is_BREAK())
   \   00000002   ........           BL       Is_BREAK
   \   00000006   0028               CMP      R0,#+0
   \   00000008   0ED0               BEQ.N    ??Ems_realtime_Check_0
    285               {
    286                    if(INPUT_DATA[0] ++ >= 100)
   \   0000000A   ........           LDR.W    R0,??DataTable48
   \   0000000E   0078               LDRB     R0,[R0, #+0]
   \   00000010   411C               ADDS     R1,R0,#+1
   \   00000012   ........           LDR.W    R2,??DataTable48
   \   00000016   1170               STRB     R1,[R2, #+0]
   \   00000018   C0B2               UXTB     R0,R0            ;; ZeroExt  R0,R0,#+24,#+24
   \   0000001A   6428               CMP      R0,#+100
   \   0000001C   08D3               BCC.N    ??Ems_realtime_Check_1
    287                    {
    288                         INPUT_DATA[0] = 100;
   \   0000001E   ........           LDR.W    R0,??DataTable48
   \   00000022   6421               MOVS     R1,#+100
   \   00000024   0170               STRB     R1,[R0, #+0]
   \   00000026   03E0               B.N      ??Ems_realtime_Check_1
    289                    }
    290               }else 
    291               {
    292                    INPUT_DATA[0] = 0 ;
   \                     ??Ems_realtime_Check_0:
   \   00000028   ........           LDR.W    R0,??DataTable48
   \   0000002C   0021               MOVS     R1,#+0
   \   0000002E   0170               STRB     R1,[R0, #+0]
    293               }
    294               
    295               if(Is_GEAR ())
   \                     ??Ems_realtime_Check_1:
   \   00000030   ........           BL       Is_GEAR
   \   00000034   0028               CMP      R0,#+0
   \   00000036   0ED0               BEQ.N    ??Ems_realtime_Check_2
    296               {
    297                    if(INPUT_DATA[1] ++ >= 100)
   \   00000038   ........           LDR.W    R0,??DataTable48
   \   0000003C   4078               LDRB     R0,[R0, #+1]
   \   0000003E   ........           LDR.W    R1,??DataTable48
   \   00000042   421C               ADDS     R2,R0,#+1
   \   00000044   4A70               STRB     R2,[R1, #+1]
   \   00000046   C0B2               UXTB     R0,R0            ;; ZeroExt  R0,R0,#+24,#+24
   \   00000048   6428               CMP      R0,#+100
   \   0000004A   08D3               BCC.N    ??Ems_realtime_Check_3
    298                    {
    299                         INPUT_DATA[1] = 100;
   \   0000004C   ........           LDR.W    R0,??DataTable48
   \   00000050   6421               MOVS     R1,#+100
   \   00000052   4170               STRB     R1,[R0, #+1]
   \   00000054   03E0               B.N      ??Ems_realtime_Check_3
    300                    }
    301               }else 
    302               {
    303                    INPUT_DATA[1] = 0;
   \                     ??Ems_realtime_Check_2:
   \   00000056   ........           LDR.W    R0,??DataTable48
   \   0000005A   0021               MOVS     R1,#+0
   \   0000005C   4170               STRB     R1,[R0, #+1]
    304               } 
    305               if(Is_PARKING_BREAK())
   \                     ??Ems_realtime_Check_3:
   \   0000005E   ........           BL       Is_PARKING_BREAK
   \   00000062   0028               CMP      R0,#+0
   \   00000064   0ED0               BEQ.N    ??Ems_realtime_Check_4
    306               {
    307                    if(INPUT_DATA[2] ++ >= 100)
   \   00000066   ........           LDR.W    R0,??DataTable48
   \   0000006A   8078               LDRB     R0,[R0, #+2]
   \   0000006C   ........           LDR.W    R1,??DataTable48
   \   00000070   421C               ADDS     R2,R0,#+1
   \   00000072   8A70               STRB     R2,[R1, #+2]
   \   00000074   C0B2               UXTB     R0,R0            ;; ZeroExt  R0,R0,#+24,#+24
   \   00000076   6428               CMP      R0,#+100
   \   00000078   08D3               BCC.N    ??Ems_realtime_Check_5
    308                    {
    309                         INPUT_DATA[2] = 100;
   \   0000007A   ........           LDR.W    R0,??DataTable48
   \   0000007E   6421               MOVS     R1,#+100
   \   00000080   8170               STRB     R1,[R0, #+2]
   \   00000082   03E0               B.N      ??Ems_realtime_Check_5
    310                    }
    311               }else 
    312               {
    313                    INPUT_DATA[2] = 0;
   \                     ??Ems_realtime_Check_4:
   \   00000084   ........           LDR.W    R0,??DataTable48
   \   00000088   0021               MOVS     R1,#+0
   \   0000008A   8170               STRB     R1,[R0, #+2]
    314               }
    315               
    316               if(Is_RLIGHT())
   \                     ??Ems_realtime_Check_5:
   \   0000008C   ........           BL       Is_RLIGHT
   \   00000090   0028               CMP      R0,#+0
   \   00000092   0ED0               BEQ.N    ??Ems_realtime_Check_6
    317               {
    318                    if(INPUT_DATA[3] ++ >= 100)
   \   00000094   ........           LDR.W    R0,??DataTable48
   \   00000098   C078               LDRB     R0,[R0, #+3]
   \   0000009A   ........           LDR.W    R1,??DataTable48
   \   0000009E   421C               ADDS     R2,R0,#+1
   \   000000A0   CA70               STRB     R2,[R1, #+3]
   \   000000A2   C0B2               UXTB     R0,R0            ;; ZeroExt  R0,R0,#+24,#+24
   \   000000A4   6428               CMP      R0,#+100
   \   000000A6   08D3               BCC.N    ??Ems_realtime_Check_7
    319                    {
    320                         INPUT_DATA[3] = 100;
   \   000000A8   ........           LDR.W    R0,??DataTable48
   \   000000AC   6421               MOVS     R1,#+100
   \   000000AE   C170               STRB     R1,[R0, #+3]
   \   000000B0   03E0               B.N      ??Ems_realtime_Check_7
    321                    }
    322               }
    323               else 
    324               {
    325                    INPUT_DATA[3]  = 0;
   \                     ??Ems_realtime_Check_6:
   \   000000B2   ........           LDR.W    R0,??DataTable48
   \   000000B6   0021               MOVS     R1,#+0
   \   000000B8   C170               STRB     R1,[R0, #+3]
    326               }     
    327          
    328               if(Is_LLIGHT())
   \                     ??Ems_realtime_Check_7:
   \   000000BA   ........           BL       Is_LLIGHT
   \   000000BE   0028               CMP      R0,#+0
   \   000000C0   0ED0               BEQ.N    ??Ems_realtime_Check_8
    329               {
    330                    if(INPUT_DATA[4] ++ >= 100)
   \   000000C2   ........           LDR.W    R0,??DataTable48
   \   000000C6   0079               LDRB     R0,[R0, #+4]
   \   000000C8   ........           LDR.W    R1,??DataTable48
   \   000000CC   421C               ADDS     R2,R0,#+1
   \   000000CE   0A71               STRB     R2,[R1, #+4]
   \   000000D0   C0B2               UXTB     R0,R0            ;; ZeroExt  R0,R0,#+24,#+24
   \   000000D2   6428               CMP      R0,#+100
   \   000000D4   08D3               BCC.N    ??Ems_realtime_Check_9
    331                    {
    332                         INPUT_DATA[4] = 100;
   \   000000D6   ........           LDR.W    R0,??DataTable48
   \   000000DA   6421               MOVS     R1,#+100
   \   000000DC   0171               STRB     R1,[R0, #+4]
   \   000000DE   03E0               B.N      ??Ems_realtime_Check_9
    333                    }
    334               }else
    335               {
    336                    INPUT_DATA[4] = 0 ;
   \                     ??Ems_realtime_Check_8:
   \   000000E0   ........           LDR.W    R0,??DataTable48
   \   000000E4   0021               MOVS     R1,#+0
   \   000000E6   0171               STRB     R1,[R0, #+4]
    337               }
    338               
    339               
    340          
    341               if(Is_FDOOR())
   \                     ??Ems_realtime_Check_9:
   \   000000E8   ........           BL       Is_FDOOR
   \   000000EC   0028               CMP      R0,#+0
   \   000000EE   0ED0               BEQ.N    ??Ems_realtime_Check_10
    342               {
    343                    if(INPUT_DATA[5] ++ >= 100)
   \   000000F0   ........           LDR.W    R0,??DataTable48
   \   000000F4   4079               LDRB     R0,[R0, #+5]
   \   000000F6   ........           LDR.W    R1,??DataTable48
   \   000000FA   421C               ADDS     R2,R0,#+1
   \   000000FC   4A71               STRB     R2,[R1, #+5]
   \   000000FE   C0B2               UXTB     R0,R0            ;; ZeroExt  R0,R0,#+24,#+24
   \   00000100   6428               CMP      R0,#+100
   \   00000102   08D3               BCC.N    ??Ems_realtime_Check_11
    344                    {
    345                         INPUT_DATA[5] = 100;
   \   00000104   ........           LDR.W    R0,??DataTable48
   \   00000108   6421               MOVS     R1,#+100
   \   0000010A   4171               STRB     R1,[R0, #+5]
   \   0000010C   03E0               B.N      ??Ems_realtime_Check_11
    346                    }
    347               }else
    348               {
    349                    INPUT_DATA[5] = 0;
   \                     ??Ems_realtime_Check_10:
   \   0000010E   ........           LDR.W    R0,??DataTable48
   \   00000112   0021               MOVS     R1,#+0
   \   00000114   4171               STRB     R1,[R0, #+5]
    350               }
    351          
    352               if(Is_RDOOR())
   \                     ??Ems_realtime_Check_11:
   \   00000116   ........           BL       Is_RDOOR
   \   0000011A   0028               CMP      R0,#+0
   \   0000011C   0ED0               BEQ.N    ??Ems_realtime_Check_12
    353               {
    354                    if(INPUT_DATA[6] ++ >= 100)
   \   0000011E   ........           LDR.W    R0,??DataTable48
   \   00000122   8079               LDRB     R0,[R0, #+6]
   \   00000124   ........           LDR.W    R1,??DataTable48
   \   00000128   421C               ADDS     R2,R0,#+1
   \   0000012A   8A71               STRB     R2,[R1, #+6]
   \   0000012C   C0B2               UXTB     R0,R0            ;; ZeroExt  R0,R0,#+24,#+24
   \   0000012E   6428               CMP      R0,#+100
   \   00000130   08D3               BCC.N    ??Ems_realtime_Check_13
    355                    {
    356                         INPUT_DATA[6] = 100;
   \   00000132   ........           LDR.W    R0,??DataTable48
   \   00000136   6421               MOVS     R1,#+100
   \   00000138   8171               STRB     R1,[R0, #+6]
   \   0000013A   03E0               B.N      ??Ems_realtime_Check_13
    357                    }
    358               }else
    359               {
    360                    INPUT_DATA[6] = 0;
   \                     ??Ems_realtime_Check_12:
   \   0000013C   ........           LDR.W    R0,??DataTable48
   \   00000140   0021               MOVS     R1,#+0
   \   00000142   8171               STRB     R1,[R0, #+6]
    361               }
    362               if(Is_KEYON())
   \                     ??Ems_realtime_Check_13:
   \   00000144   ........           BL       Is_KEYON
   \   00000148   0028               CMP      R0,#+0
   \   0000014A   0ED0               BEQ.N    ??Ems_realtime_Check_14
    363               {
    364                    if(INPUT_DATA[7] ++ >= 100)
   \   0000014C   ........           LDR.W    R0,??DataTable48
   \   00000150   C079               LDRB     R0,[R0, #+7]
   \   00000152   ........           LDR.W    R1,??DataTable48
   \   00000156   421C               ADDS     R2,R0,#+1
   \   00000158   CA71               STRB     R2,[R1, #+7]
   \   0000015A   C0B2               UXTB     R0,R0            ;; ZeroExt  R0,R0,#+24,#+24
   \   0000015C   6428               CMP      R0,#+100
   \   0000015E   08D3               BCC.N    ??Ems_realtime_Check_15
    365                    {
    366                         INPUT_DATA[7] = 100;
   \   00000160   ........           LDR.W    R0,??DataTable48
   \   00000164   6421               MOVS     R1,#+100
   \   00000166   C171               STRB     R1,[R0, #+7]
   \   00000168   03E0               B.N      ??Ems_realtime_Check_15
    367                    }
    368               }else
    369               {
    370                    INPUT_DATA[7] = 0;
   \                     ??Ems_realtime_Check_14:
   \   0000016A   ........           LDR.W    R0,??DataTable48
   \   0000016E   0021               MOVS     R1,#+0
   \   00000170   C171               STRB     R1,[R0, #+7]
    371               }
    372               
    373          
    374               if(Is_RDISTANCE())
   \                     ??Ems_realtime_Check_15:
   \   00000172   ........           BL       Is_RDISTANCE
   \   00000176   0028               CMP      R0,#+0
   \   00000178   0ED0               BEQ.N    ??Ems_realtime_Check_16
    375               {
    376                    if(INPUT_DATA[8] ++ >= 100)
   \   0000017A   ........           LDR.W    R0,??DataTable48
   \   0000017E   007A               LDRB     R0,[R0, #+8]
   \   00000180   ........           LDR.W    R1,??DataTable48
   \   00000184   421C               ADDS     R2,R0,#+1
   \   00000186   0A72               STRB     R2,[R1, #+8]
   \   00000188   C0B2               UXTB     R0,R0            ;; ZeroExt  R0,R0,#+24,#+24
   \   0000018A   6428               CMP      R0,#+100
   \   0000018C   08D3               BCC.N    ??Ems_realtime_Check_17
    377                    {
    378                         INPUT_DATA[8] = 100;
   \   0000018E   ........           LDR.W    R0,??DataTable48
   \   00000192   6421               MOVS     R1,#+100
   \   00000194   0172               STRB     R1,[R0, #+8]
   \   00000196   03E0               B.N      ??Ems_realtime_Check_17
    379                    }
    380               }else 
    381               {
    382                    INPUT_DATA[8] = 0;
   \                     ??Ems_realtime_Check_16:
   \   00000198   ........           LDR.W    R0,??DataTable48
   \   0000019C   0021               MOVS     R1,#+0
   \   0000019E   0172               STRB     R1,[R0, #+8]
    383               }
    384          }
   \                     ??Ems_realtime_Check_17:
   \   000001A0   01BD               POP      {R0,PC}          ;; return
    385          

   \                                 In section .text, align 2, keep-with-next
    386          void Ems_Port_Check()
    387          {     
    388               u16 Input_IO = 0 ;
   \                     Ems_Port_Check:
   \   00000000   0020               MOVS     R0,#+0
    389               
    390               if( INPUT_DATA[0] == 100 )
   \   00000002   ........           LDR.W    R1,??DataTable48
   \   00000006   0978               LDRB     R1,[R1, #+0]
   \   00000008   6429               CMP      R1,#+100
   \   0000000A   01D1               BNE.N    ??Ems_Port_Check_0
    391               {
    392                    Input_IO |=  0x0001;          
   \   0000000C   50F00100           ORRS     R0,R0,#0x1
    393               }
    394               if( INPUT_DATA[1] == 100 )
   \                     ??Ems_Port_Check_0:
   \   00000010   ........           LDR.W    R1,??DataTable48
   \   00000014   4978               LDRB     R1,[R1, #+1]
   \   00000016   6429               CMP      R1,#+100
   \   00000018   01D1               BNE.N    ??Ems_Port_Check_1
    395               {
    396                    Input_IO |=  0x0002;          
   \   0000001A   50F00200           ORRS     R0,R0,#0x2
    397               }
    398               if( INPUT_DATA[2] >= 100 )
   \                     ??Ems_Port_Check_1:
   \   0000001E   ........           LDR.W    R1,??DataTable48
   \   00000022   8978               LDRB     R1,[R1, #+2]
   \   00000024   6429               CMP      R1,#+100
   \   00000026   01D3               BCC.N    ??Ems_Port_Check_2
    399               {
    400                    Input_IO |=  0x0004;          
   \   00000028   50F00400           ORRS     R0,R0,#0x4
    401               }
    402               if( INPUT_DATA[3] == 100 )
   \                     ??Ems_Port_Check_2:
   \   0000002C   ........           LDR.W    R1,??DataTable48
   \   00000030   C978               LDRB     R1,[R1, #+3]
   \   00000032   6429               CMP      R1,#+100
   \   00000034   01D1               BNE.N    ??Ems_Port_Check_3
    403               {
    404                    Input_IO |=  0x0008;          
   \   00000036   50F00800           ORRS     R0,R0,#0x8
    405               }
    406               if( INPUT_DATA[4] == 100 )
   \                     ??Ems_Port_Check_3:
   \   0000003A   ........           LDR.W    R1,??DataTable48
   \   0000003E   0979               LDRB     R1,[R1, #+4]
   \   00000040   6429               CMP      R1,#+100
   \   00000042   01D1               BNE.N    ??Ems_Port_Check_4
    407               {
    408                    Input_IO |=  0x0010;          
   \   00000044   50F01000           ORRS     R0,R0,#0x10
    409               }
    410               if( INPUT_DATA[5] == 100 )
   \                     ??Ems_Port_Check_4:
   \   00000048   ........           LDR.W    R1,??DataTable48
   \   0000004C   4979               LDRB     R1,[R1, #+5]
   \   0000004E   6429               CMP      R1,#+100
   \   00000050   01D1               BNE.N    ??Ems_Port_Check_5
    411               {
    412                    Input_IO |=  0x0020;          
   \   00000052   50F02000           ORRS     R0,R0,#0x20
    413               }
    414               if( INPUT_DATA[6] == 100 )
   \                     ??Ems_Port_Check_5:
   \   00000056   ........           LDR.W    R1,??DataTable48
   \   0000005A   8979               LDRB     R1,[R1, #+6]
   \   0000005C   6429               CMP      R1,#+100
   \   0000005E   01D1               BNE.N    ??Ems_Port_Check_6
    415               {
    416                    Input_IO |=  0x0040;          
   \   00000060   50F04000           ORRS     R0,R0,#0x40
    417               }
    418               if( INPUT_DATA[7] == 100 )
   \                     ??Ems_Port_Check_6:
   \   00000064   ........           LDR.W    R1,??DataTable48
   \   00000068   C979               LDRB     R1,[R1, #+7]
   \   0000006A   6429               CMP      R1,#+100
   \   0000006C   01D1               BNE.N    ??Ems_Port_Check_7
    419               {
    420                    Input_IO |=  0x0080;          
   \   0000006E   50F08000           ORRS     R0,R0,#0x80
    421               }
    422               if( INPUT_DATA[8] == 100 )
   \                     ??Ems_Port_Check_7:
   \   00000072   ........           LDR.W    R1,??DataTable48
   \   00000076   097A               LDRB     R1,[R1, #+8]
   \   00000078   6429               CMP      R1,#+100
   \   0000007A   02D1               BNE.N    ??Ems_Port_Check_8
    423               {
    424                    Input_IO |=  0x0100;          
   \   0000007C   4FF48071           MOV      R1,#+256
   \   00000080   0843               ORRS     R0,R1,R0
    425               }     
    426               if( Info.EcoStatus )          //에코 버튼이 눌려져 있는가?
   \                     ??Ems_Port_Check_8:
   \   00000082   ........           LDR.W    R1,??DataTable45_18
   \   00000086   097E               LDRB     R1,[R1, #+24]
   \   00000088   0029               CMP      R1,#+0
   \   0000008A   01D0               BEQ.N    ??Ems_Port_Check_9
    427               {
    428                    Input_IO |=  0x8000;                   
   \   0000008C   50F40040           ORRS     R0,R0,#0x8000
    429               }
    430          //     Input_IO = 0 ;
    431          //     Input_IO |= Is_BREAK() ;
    432          //     Input_IO |= Is_GEAR() << 1;
    433          //     Input_IO |= Is_PARKING_BREAK() << 2;
    434          //     Input_IO |= Is_RLIGHT() << 3;
    435          //     Input_IO |= Is_LLIGHT() << 4;
    436          //     Input_IO |= Is_FDOOR() << 5;
    437          //     Input_IO |= Is_RDOOR() << 6;
    438          //     Input_IO |= Is_KEYON() << 7;
    439          //     Input_IO |= Is_RDISTANCE() << 8;          
    440               
    441          	// 입력 수신 신호 설정에 따라 반전 시킨다.     
    442               Input_IO ^= Set_Info.IO_Reverser;
   \                     ??Ems_Port_Check_9:
   \   00000090   ........           LDR.W    R1,??DataTable48_1
   \   00000094   C989               LDRH     R1,[R1, #+14]
   \   00000096   4840               EORS     R0,R1,R0
    443               Info.Input_Status =Input_IO;
   \   00000098   ........           LDR.W    R1,??DataTable45_18
   \   0000009C   A1F85D00           STRH     R0,[R1, #+93]
    444          //     printf("%x\r\n",Info.Input_Status);
    445          }
   \   000000A0   7047               BX       LR               ;; return
    446          
    447          

   \                                 In section .text, align 2, keep-with-next
    448          void EngineOn_EMSCheck(void)
    449          {
   \                     EngineOn_EMSCheck:
   \   00000000   80B5               PUSH     {R7,LR}
    450          	static u16 StartOnTimer = 0;
    451               static u8 BreakOnFlag = 0;  //공회전을 한번이라도 했다면 브레이크를 띄었다가 검사 	
    452          	static u16 CheckEms = 0;
    453          
    454               ///////////////////////////////////////////////////////////////////////////
    455               // EMS 온동작데이터
    456               ///////////////////////////////////////////////////////////////////////////
    457               if( CheckTimeOver ( 500 , CheckEms ) )
   \   00000002   ........           LDR.W    R0,??DataTable48_2
   \   00000006   0188               LDRH     R1,[R0, #+0]
   \   00000008   4FF4FA70           MOV      R0,#+500
   \   0000000C   ........           BL       CheckTimeOver
   \   00000010   0028               CMP      R0,#+0
   \   00000012   00F0AD80           BEQ.W    ??EngineOn_EMSCheck_0
    458               {
    459                    CheckEms = MS_TIMER;
   \   00000016   ........           LDR.W    R0,??DataTable45_17  ;; 0x40000c00
   \   0000001A   ........           BL       TIM_GetCounter
   \   0000001E   ........           LDR.W    R1,??DataTable48_2
   \   00000022   0880               STRH     R0,[R1, #+0]
    460                    EmsOnProgress = 0;
   \   00000024   ........           LDR.W    R0,??DataTable48_3
   \   00000028   0021               MOVS     R1,#+0
   \   0000002A   0180               STRH     R1,[R0, #+0]
    461                    if( ! EnginOnActionFlag )      // 현재 시동온 동작 중인가?
   \   0000002C   ....               LDR.N    R0,??DataTable45_4
   \   0000002E   0078               LDRB     R0,[R0, #+0]
   \   00000030   0028               CMP      R0,#+0
   \   00000032   07D1               BNE.N    ??EngineOn_EMSCheck_1
    462                         EmsOnProgress |= 0x0001;
   \   00000034   ........           LDR.W    R0,??DataTable48_3
   \   00000038   0088               LDRH     R0,[R0, #+0]
   \   0000003A   50F00100           ORRS     R0,R0,#0x1
   \   0000003E   ........           LDR.W    R1,??DataTable48_3
   \   00000042   0880               STRH     R0,[R1, #+0]
    463                    if( Info.EcoStatus )    // 시동 동작 조건 1  에코스위치가 켜져 있는가?
   \                     ??EngineOn_EMSCheck_1:
   \   00000044   ....               LDR.N    R0,??DataTable45_18
   \   00000046   007E               LDRB     R0,[R0, #+24]
   \   00000048   0028               CMP      R0,#+0
   \   0000004A   07D0               BEQ.N    ??EngineOn_EMSCheck_2
    464                         EmsOnProgress |= 0x0002;
   \   0000004C   ........           LDR.W    R0,??DataTable48_3
   \   00000050   0088               LDRH     R0,[R0, #+0]
   \   00000052   50F00200           ORRS     R0,R0,#0x2
   \   00000056   ........           LDR.W    R1,??DataTable48_3
   \   0000005A   0880               STRH     R0,[R1, #+0]
    465                    if ( ( Info.Input_Status & INPUT_KEYON_FLAG ) )    //  키가 켜져있는가?
   \                     ??EngineOn_EMSCheck_2:
   \   0000005C   ....               LDR.N    R0,??DataTable45_18
   \   0000005E   90F85D00           LDRB     R0,[R0, #+93]
   \   00000062   0006               LSLS     R0,R0,#+24
   \   00000064   07D5               BPL.N    ??EngineOn_EMSCheck_3
    466                         EmsOnProgress |= 0x0004;
   \   00000066   ........           LDR.W    R0,??DataTable48_3
   \   0000006A   0088               LDRH     R0,[R0, #+0]
   \   0000006C   50F00400           ORRS     R0,R0,#0x4
   \   00000070   ........           LDR.W    R1,??DataTable48_3
   \   00000074   0880               STRH     R0,[R1, #+0]
    467                    if ( Info.RPM_Value == 0 )        // 현재 RPM이 있는가?
   \                     ??EngineOn_EMSCheck_3:
   \   00000076   ....               LDR.N    R0,??DataTable45_18
   \   00000078   B0F83500           LDRH     R0,[R0, #+53]
   \   0000007C   0028               CMP      R0,#+0
   \   0000007E   07D1               BNE.N    ??EngineOn_EMSCheck_4
    468                         EmsOnProgress |= 0x0008;
   \   00000080   ........           LDR.W    R0,??DataTable48_3
   \   00000084   0088               LDRH     R0,[R0, #+0]
   \   00000086   50F00800           ORRS     R0,R0,#0x8
   \   0000008A   ........           LDR.W    R1,??DataTable48_3
   \   0000008E   0880               STRH     R0,[R1, #+0]
    469                    if ( Info.SPEED_Value == 0 )      // 현재 스피드가 있는가?
   \                     ??EngineOn_EMSCheck_4:
   \   00000090   ....               LDR.N    R0,??DataTable45_18
   \   00000092   90F83400           LDRB     R0,[R0, #+52]
   \   00000096   0028               CMP      R0,#+0
   \   00000098   07D1               BNE.N    ??EngineOn_EMSCheck_5
    470                         EmsOnProgress |= 0x0010;
   \   0000009A   ........           LDR.W    R0,??DataTable48_3
   \   0000009E   0088               LDRH     R0,[R0, #+0]
   \   000000A0   50F01000           ORRS     R0,R0,#0x10
   \   000000A4   ........           LDR.W    R1,??DataTable48_3
   \   000000A8   0880               STRH     R0,[R1, #+0]
    471                    if ( Info.EMS_Data.GPS_Speed == 0 )     // GPS 속도가 있다면 
   \                     ??EngineOn_EMSCheck_5:
   \   000000AA   ....               LDR.N    R0,??DataTable45_18
   \   000000AC   B0F85500           LDRH     R0,[R0, #+85]
   \   000000B0   0028               CMP      R0,#+0
   \   000000B2   07D1               BNE.N    ??EngineOn_EMSCheck_6
    472                         EmsOnProgress |= 0x0020;
   \   000000B4   ........           LDR.W    R0,??DataTable48_3
   \   000000B8   0088               LDRH     R0,[R0, #+0]
   \   000000BA   50F02000           ORRS     R0,R0,#0x20
   \   000000BE   ........           LDR.W    R1,??DataTable48_3
   \   000000C2   0880               STRH     R0,[R1, #+0]
    473                    if ( (Info.Input_Status & INPUT_GEAR_FLAG)  )    // 기어가 중립인가
   \                     ??EngineOn_EMSCheck_6:
   \   000000C4   ....               LDR.N    R0,??DataTable45_18
   \   000000C6   90F85D00           LDRB     R0,[R0, #+93]
   \   000000CA   8007               LSLS     R0,R0,#+30
   \   000000CC   07D5               BPL.N    ??EngineOn_EMSCheck_7
    474                         EmsOnProgress |= 0x0040;            
   \   000000CE   ........           LDR.W    R0,??DataTable48_3
   \   000000D2   0088               LDRH     R0,[R0, #+0]
   \   000000D4   50F04000           ORRS     R0,R0,#0x40
   \   000000D8   ........           LDR.W    R1,??DataTable48_3
   \   000000DC   0880               STRH     R0,[R1, #+0]
    475                    if( EMS_Replay_Flag != 1)               // 1분간 2번 실패했을경우 리셋이 걸리기전까지 엔진시작 안함        
   \                     ??EngineOn_EMSCheck_7:
   \   000000DE   ....               LDR.N    R0,??DataTable45_15
   \   000000E0   0078               LDRB     R0,[R0, #+0]
   \   000000E2   0128               CMP      R0,#+1
   \   000000E4   07D0               BEQ.N    ??EngineOn_EMSCheck_8
    476                         EmsOnProgress |= 0x0080;
   \   000000E6   ........           LDR.W    R0,??DataTable48_3
   \   000000EA   0088               LDRH     R0,[R0, #+0]
   \   000000EC   50F08000           ORRS     R0,R0,#0x80
   \   000000F0   ........           LDR.W    R1,??DataTable48_3
   \   000000F4   0880               STRH     R0,[R1, #+0]
    477                    if( CheckTimeOver ( 3000 , EnginOnLimit_Time ) != 0 )   //  시동온 재시도 시간이 초과榮째?   3초
   \                     ??EngineOn_EMSCheck_8:
   \   000000F6   ....               LDR.N    R0,??DataTable45_8
   \   000000F8   0188               LDRH     R1,[R0, #+0]
   \   000000FA   40F6B830           MOVW     R0,#+3000
   \   000000FE   ........           BL       CheckTimeOver
   \   00000102   0028               CMP      R0,#+0
   \   00000104   08D0               BEQ.N    ??EngineOn_EMSCheck_9
    478                         EmsOnProgress |= 0x0100;         
   \   00000106   ........           LDR.W    R0,??DataTable48_3
   \   0000010A   0088               LDRH     R0,[R0, #+0]
   \   0000010C   4FF48071           MOV      R1,#+256
   \   00000110   0843               ORRS     R0,R1,R0
   \   00000112   ........           LDR.W    R1,??DataTable48_3
   \   00000116   0880               STRH     R0,[R1, #+0]
    479                    if ( (Info.Input_Status & INPUT_BREAK_FLAG)  )    // 브레이크를 밟고 있는가?
   \                     ??EngineOn_EMSCheck_9:
   \   00000118   ....               LDR.N    R0,??DataTable45_18
   \   0000011A   90F85D00           LDRB     R0,[R0, #+93]
   \   0000011E   C007               LSLS     R0,R0,#+31
   \   00000120   08D5               BPL.N    ??EngineOn_EMSCheck_10
    480                         EmsOnProgress |= 0x0200;
   \   00000122   ........           LDR.W    R0,??DataTable48_3
   \   00000126   0088               LDRH     R0,[R0, #+0]
   \   00000128   4FF40071           MOV      R1,#+512
   \   0000012C   0843               ORRS     R0,R1,R0
   \   0000012E   ........           LDR.W    R1,??DataTable48_3
   \   00000132   0880               STRH     R0,[R1, #+0]
    481                    if( BreakOnFlag == 1 )        // 두번 브레이크 밟기로 바꾸면 3으로
   \                     ??EngineOn_EMSCheck_10:
   \   00000134   ........           LDR.W    R0,??DataTable49
   \   00000138   0078               LDRB     R0,[R0, #+0]
   \   0000013A   0128               CMP      R0,#+1
   \   0000013C   07D1               BNE.N    ??EngineOn_EMSCheck_11
    482                         EmsOnProgress |= 0x0400;
   \   0000013E   ........           LDR.W    R0,??DataTable48_3
   \   00000142   0088               LDRH     R0,[R0, #+0]
   \   00000144   50F48060           ORRS     R0,R0,#0x400
   \   00000148   ........           LDR.W    R1,??DataTable48_3
   \   0000014C   0880               STRH     R0,[R1, #+0]
    483                    if( CheckTimeOver ( 1000 , StartOnTimer ) != 0 )   //  모든 조건이 만족했을때 1초후에 시동온   
   \                     ??EngineOn_EMSCheck_11:
   \   0000014E   ........           LDR.W    R0,??DataTable49_1
   \   00000152   0188               LDRH     R1,[R0, #+0]
   \   00000154   4FF47A70           MOV      R0,#+1000
   \   00000158   ........           BL       CheckTimeOver
   \   0000015C   0028               CMP      R0,#+0
   \   0000015E   07D0               BEQ.N    ??EngineOn_EMSCheck_0
    484                         EmsOnProgress |= 0x0800;     
   \   00000160   ........           LDR.W    R0,??DataTable48_3
   \   00000164   0088               LDRH     R0,[R0, #+0]
   \   00000166   50F40060           ORRS     R0,R0,#0x800
   \   0000016A   ........           LDR.W    R1,??DataTable48_3
   \   0000016E   0880               STRH     R0,[R1, #+0]
    485               }
    486               
    487          	EMSOn_Check = 0;	
   \                     ??EngineOn_EMSCheck_0:
   \   00000170   ........           LDR.W    R0,??DataTable49_2
   \   00000174   0021               MOVS     R1,#+0
   \   00000176   0170               STRB     R1,[R0, #+0]
    488               if( EnginOnActionFlag )      // 현재 시동온 동작 중인가?
   \   00000178   ....               LDR.N    R0,??DataTable45_4
   \   0000017A   0078               LDRB     R0,[R0, #+0]
   \   0000017C   0028               CMP      R0,#+0
   \   0000017E   06D0               BEQ.N    ??EngineOn_EMSCheck_12
    489               {    
    490                    StartOnTimer = MS_TIMER;
   \   00000180   ....               LDR.N    R0,??DataTable45_17  ;; 0x40000c00
   \   00000182   ........           BL       TIM_GetCounter
   \   00000186   ........           LDR.W    R1,??DataTable49_1
   \   0000018A   0880               STRH     R0,[R1, #+0]
    491                    return ;
   \   0000018C   D0E0               B.N      ??EngineOn_EMSCheck_13
    492               } 
    493               EMSOn_Check = 1;
   \                     ??EngineOn_EMSCheck_12:
   \   0000018E   ........           LDR.W    R0,??DataTable49_2
   \   00000192   0121               MOVS     R1,#+1
   \   00000194   0170               STRB     R1,[R0, #+0]
    494               if( !Info.EcoStatus )    // 시동 동작 조건 1  에코스위치가 켜져 있는가?
   \   00000196   ....               LDR.N    R0,??DataTable45_18
   \   00000198   007E               LDRB     R0,[R0, #+24]
   \   0000019A   0028               CMP      R0,#+0
   \   0000019C   06D1               BNE.N    ??EngineOn_EMSCheck_14
    495               {    
    496                    StartOnTimer = MS_TIMER;
   \   0000019E   ....               LDR.N    R0,??DataTable45_17  ;; 0x40000c00
   \   000001A0   ........           BL       TIM_GetCounter
   \   000001A4   ........           LDR.W    R1,??DataTable49_1
   \   000001A8   0880               STRH     R0,[R1, #+0]
    497                    return;
   \   000001AA   C1E0               B.N      ??EngineOn_EMSCheck_13
    498               }
    499               EMSOn_Check = 2;     
   \                     ??EngineOn_EMSCheck_14:
   \   000001AC   ........           LDR.W    R0,??DataTable49_2
   \   000001B0   0221               MOVS     R1,#+2
   \   000001B2   0170               STRB     R1,[R0, #+0]
    500              if ( !( Info.Input_Status & INPUT_KEYON_FLAG ) )    //  키가 켜져있는가?
   \   000001B4   ....               LDR.N    R0,??DataTable45_18
   \   000001B6   90F85D00           LDRB     R0,[R0, #+93]
   \   000001BA   0006               LSLS     R0,R0,#+24
   \   000001BC   06D4               BMI.N    ??EngineOn_EMSCheck_15
    501               {    
    502                    StartOnTimer = MS_TIMER;
   \   000001BE   ....               LDR.N    R0,??DataTable45_17  ;; 0x40000c00
   \   000001C0   ........           BL       TIM_GetCounter
   \   000001C4   ........           LDR.W    R1,??DataTable49_1
   \   000001C8   0880               STRH     R0,[R1, #+0]
    503                    return ;
   \   000001CA   B1E0               B.N      ??EngineOn_EMSCheck_13
    504               } 
    505               EMSOn_Check = 3;
   \                     ??EngineOn_EMSCheck_15:
   \   000001CC   ........           LDR.W    R0,??DataTable49_2
   \   000001D0   0321               MOVS     R1,#+3
   \   000001D2   0170               STRB     R1,[R0, #+0]
    506               if ( Info.RPM_Value != 0 )        // 현재 RPM이 있는가?
   \   000001D4   ....               LDR.N    R0,??DataTable45_18
   \   000001D6   B0F83500           LDRH     R0,[R0, #+53]
   \   000001DA   0028               CMP      R0,#+0
   \   000001DC   06D0               BEQ.N    ??EngineOn_EMSCheck_16
    507               {    
    508                    StartOnTimer = MS_TIMER;
   \   000001DE   ....               LDR.N    R0,??DataTable45_17  ;; 0x40000c00
   \   000001E0   ........           BL       TIM_GetCounter
   \   000001E4   ........           LDR.W    R1,??DataTable49_1
   \   000001E8   0880               STRH     R0,[R1, #+0]
    509                    return ;
   \   000001EA   A1E0               B.N      ??EngineOn_EMSCheck_13
    510               }
    511               EMSOn_Check = 4;
   \                     ??EngineOn_EMSCheck_16:
   \   000001EC   ........           LDR.W    R0,??DataTable49_2
   \   000001F0   0421               MOVS     R1,#+4
   \   000001F2   0170               STRB     R1,[R0, #+0]
    512               if ( Info.SPEED_Value != 0 )      // 현재 스피드가 있는가?
   \   000001F4   ....               LDR.N    R0,??DataTable45_18
   \   000001F6   90F83400           LDRB     R0,[R0, #+52]
   \   000001FA   0028               CMP      R0,#+0
   \   000001FC   06D0               BEQ.N    ??EngineOn_EMSCheck_17
    513               {    
    514                    StartOnTimer = MS_TIMER;
   \   000001FE   ....               LDR.N    R0,??DataTable45_17  ;; 0x40000c00
   \   00000200   ........           BL       TIM_GetCounter
   \   00000204   ........           LDR.W    R1,??DataTable49_1
   \   00000208   0880               STRH     R0,[R1, #+0]
    515                    return ;
   \   0000020A   91E0               B.N      ??EngineOn_EMSCheck_13
    516               }
    517               EMSOn_Check = 5;
   \                     ??EngineOn_EMSCheck_17:
   \   0000020C   ........           LDR.W    R0,??DataTable49_2
   \   00000210   0521               MOVS     R1,#+5
   \   00000212   0170               STRB     R1,[R0, #+0]
    518               if ( Info.EMS_Data.GPS_Speed != 0 )     // GPS 속도가 있다면 
   \   00000214   ....               LDR.N    R0,??DataTable45_18
   \   00000216   B0F85500           LDRH     R0,[R0, #+85]
   \   0000021A   0028               CMP      R0,#+0
   \   0000021C   06D0               BEQ.N    ??EngineOn_EMSCheck_18
    519               {    
    520                    StartOnTimer = MS_TIMER;
   \   0000021E   ....               LDR.N    R0,??DataTable45_17  ;; 0x40000c00
   \   00000220   ........           BL       TIM_GetCounter
   \   00000224   ........           LDR.W    R1,??DataTable49_1
   \   00000228   0880               STRH     R0,[R1, #+0]
    521                    return ;
   \   0000022A   81E0               B.N      ??EngineOn_EMSCheck_13
    522               } 
    523               EMSOn_Check = 6;
   \                     ??EngineOn_EMSCheck_18:
   \   0000022C   ........           LDR.W    R0,??DataTable49_2
   \   00000230   0621               MOVS     R1,#+6
   \   00000232   0170               STRB     R1,[R0, #+0]
    524               if ( !(Info.Input_Status & INPUT_GEAR_FLAG)  )    // 기어가 중립인가
   \   00000234   ....               LDR.N    R0,??DataTable45_18
   \   00000236   90F85D00           LDRB     R0,[R0, #+93]
   \   0000023A   8007               LSLS     R0,R0,#+30
   \   0000023C   06D4               BMI.N    ??EngineOn_EMSCheck_19
    525               {    
    526                    StartOnTimer = MS_TIMER;
   \   0000023E   ....               LDR.N    R0,??DataTable45_17  ;; 0x40000c00
   \   00000240   ........           BL       TIM_GetCounter
   \   00000244   ........           LDR.W    R1,??DataTable49_1
   \   00000248   0880               STRH     R0,[R1, #+0]
    527                    return ;
   \   0000024A   71E0               B.N      ??EngineOn_EMSCheck_13
    528               }
    529               EMSOn_Check = 7;             
   \                     ??EngineOn_EMSCheck_19:
   \   0000024C   ........           LDR.W    R0,??DataTable49_2
   \   00000250   0721               MOVS     R1,#+7
   \   00000252   0170               STRB     R1,[R0, #+0]
    530               if( EMS_Replay_Flag == 1)               // 1분간 2번 실패했을경우 리셋이 걸리기전까지 엔진시작 안함        
   \   00000254   ....               LDR.N    R0,??DataTable45_15
   \   00000256   0078               LDRB     R0,[R0, #+0]
   \   00000258   0128               CMP      R0,#+1
   \   0000025A   06D1               BNE.N    ??EngineOn_EMSCheck_20
    531               {    
    532                    StartOnTimer = MS_TIMER;
   \   0000025C   ....               LDR.N    R0,??DataTable45_17  ;; 0x40000c00
   \   0000025E   ........           BL       TIM_GetCounter
   \   00000262   ........           LDR.W    R1,??DataTable49_1
   \   00000266   0880               STRH     R0,[R1, #+0]
    533                    return ;
   \   00000268   62E0               B.N      ??EngineOn_EMSCheck_13
    534               }
    535               EMSOn_Check = 8;  
   \                     ??EngineOn_EMSCheck_20:
   \   0000026A   ........           LDR.W    R0,??DataTable49_2
   \   0000026E   0821               MOVS     R1,#+8
   \   00000270   0170               STRB     R1,[R0, #+0]
    536               if( CheckTimeOver ( 3000 , EnginOnLimit_Time ) == 0 )   //  시동온 재시도 시간이 초과榮째?   3초
   \   00000272   ....               LDR.N    R0,??DataTable45_8
   \   00000274   0188               LDRH     R1,[R0, #+0]
   \   00000276   40F6B830           MOVW     R0,#+3000
   \   0000027A   ........           BL       CheckTimeOver
   \   0000027E   0028               CMP      R0,#+0
   \   00000280   06D1               BNE.N    ??EngineOn_EMSCheck_21
    537               {    
    538                    StartOnTimer = MS_TIMER;
   \   00000282   ....               LDR.N    R0,??DataTable45_17  ;; 0x40000c00
   \   00000284   ........           BL       TIM_GetCounter
   \   00000288   ........           LDR.W    R1,??DataTable49_1
   \   0000028C   0880               STRH     R0,[R1, #+0]
    539                    return ;
   \   0000028E   4FE0               B.N      ??EngineOn_EMSCheck_13
    540               }     
    541               EMSOn_Check = 9;       
   \                     ??EngineOn_EMSCheck_21:
   \   00000290   ........           LDR.W    R0,??DataTable49_2
   \   00000294   0921               MOVS     R1,#+9
   \   00000296   0170               STRB     R1,[R0, #+0]
    542          
    543               if ( !(Info.Input_Status & INPUT_BREAK_FLAG)  )    // 브레이크를 밟고 있는가?
   \   00000298   ....               LDR.N    R0,??DataTable45_18
   \   0000029A   90F85D00           LDRB     R0,[R0, #+93]
   \   0000029E   C007               LSLS     R0,R0,#+31
   \   000002A0   0AD4               BMI.N    ??EngineOn_EMSCheck_22
    544               {
    545          
    546                    BreakOnFlag = 1;
   \   000002A2   ........           LDR.W    R0,??DataTable49
   \   000002A6   0121               MOVS     R1,#+1
   \   000002A8   0170               STRB     R1,[R0, #+0]
    547                    StartOnTimer = MS_TIMER;
   \   000002AA   ....               LDR.N    R0,??DataTable45_17  ;; 0x40000c00
   \   000002AC   ........           BL       TIM_GetCounter
   \   000002B0   ........           LDR.W    R1,??DataTable49_1
   \   000002B4   0880               STRH     R0,[R1, #+0]
    548          	     return ;
   \   000002B6   3BE0               B.N      ??EngineOn_EMSCheck_13
    549               }
    550               EMSOn_Check = 10;
   \                     ??EngineOn_EMSCheck_22:
   \   000002B8   ........           LDR.W    R0,??DataTable49_2
   \   000002BC   0A21               MOVS     R1,#+10
   \   000002BE   0170               STRB     R1,[R0, #+0]
    551          
    552               if( BreakOnFlag == 0 )
   \   000002C0   ........           LDR.W    R0,??DataTable49
   \   000002C4   0078               LDRB     R0,[R0, #+0]
   \   000002C6   0028               CMP      R0,#+0
   \   000002C8   06D1               BNE.N    ??EngineOn_EMSCheck_23
    553               {    
    554                    StartOnTimer = MS_TIMER;
   \   000002CA   ....               LDR.N    R0,??DataTable45_17  ;; 0x40000c00
   \   000002CC   ........           BL       TIM_GetCounter
   \   000002D0   ........           LDR.W    R1,??DataTable49_1
   \   000002D4   0880               STRH     R0,[R1, #+0]
    555                    return ;          
   \   000002D6   2BE0               B.N      ??EngineOn_EMSCheck_13
    556               }
    557               EMSOn_Check = 11;  
   \                     ??EngineOn_EMSCheck_23:
   \   000002D8   ........           LDR.W    R0,??DataTable49_2
   \   000002DC   0B21               MOVS     R1,#+11
   \   000002DE   0170               STRB     R1,[R0, #+0]
    558              /* if ( !(Info.Input_Status & INPUT_BREAK_FLAG)  )    // 브레이크를 밟고 있는가?
    559               {
    560                    if(BreakOnFlag == 0)
    561                         BreakOnFlag = 1;
    562                    else if(BreakOnFlag == 2)
    563                         BreakOnFlag = 3;
    564                    StartOnTimer = MS_TIMER;
    565          	     return ;
    566               }
    567               EMSOn_Check = 10;
    568          
    569               if( BreakOnFlag == 1 )
    570               {    
    571                    BreakOnFlag = 2;
    572                    StartOnTimer = MS_TIMER;
    573                    return ;
    574               }else if( BreakOnFlag == 2 )
    575               {
    576                    StartOnTimer = MS_TIMER;
    577                    return ;          
    578               }
    579               */
    580               EMSOn_Check = 11;       
   \   000002E0   ........           LDR.W    R0,??DataTable49_2
   \   000002E4   0B21               MOVS     R1,#+11
   \   000002E6   0170               STRB     R1,[R0, #+0]
    581               if( CheckTimeOver ( 1000 , StartOnTimer ) == 0 )   //  모든 조건이 만족했을때 1초후에 시동온   
   \   000002E8   ........           LDR.W    R0,??DataTable49_1
   \   000002EC   0188               LDRH     R1,[R0, #+0]
   \   000002EE   4FF47A70           MOV      R0,#+1000
   \   000002F2   ........           BL       CheckTimeOver
   \   000002F6   0028               CMP      R0,#+0
   \   000002F8   1AD0               BEQ.N    ??EngineOn_EMSCheck_13
    582                    return ;
    583               EMSOn_Check = 12;         
   \                     ??EngineOn_EMSCheck_24:
   \   000002FA   ........           LDR.W    R0,??DataTable49_2
   \   000002FE   0C21               MOVS     R1,#+12
   \   00000300   0170               STRB     R1,[R0, #+0]
    584               // 엔지 시동 온동작
    585               if(LOGWRITE & LOG_EMS_ENGINE)                       
   \   00000302   ....               LDR.N    R0,??DataTable45_30
   \   00000304   0078               LDRB     R0,[R0, #+0]
   \   00000306   C006               LSLS     R0,R0,#+27
   \   00000308   08D5               BPL.N    ??EngineOn_EMSCheck_25
    586               {
    587                    sprintf((char*)Buffer,"ENGINE_ON START \r\n "); 
   \   0000030A   ........           LDR.W    R1,??DataTable49_3
   \   0000030E   ....               LDR.N    R0,??DataTable45_32
   \   00000310   ........           BL       sprintf
    588                    Write_Log(Buffer, NORMAL_LOG);
   \   00000314   0121               MOVS     R1,#+1
   \   00000316   ....               LDR.N    R0,??DataTable45_32
   \   00000318   ........           BL       Write_Log
    589               }     
    590               EnginOnActionFlag = 1;
   \                     ??EngineOn_EMSCheck_25:
   \   0000031C   ....               LDR.N    R0,??DataTable45_4
   \   0000031E   0121               MOVS     R1,#+1
   \   00000320   0170               STRB     R1,[R0, #+0]
    591               EnginOnActionStep = 0;               
   \   00000322   ....               LDR.N    R0,??DataTable45_5
   \   00000324   0021               MOVS     R1,#+0
   \   00000326   0170               STRB     R1,[R0, #+0]
    592               BreakOnFlag = 0;
   \   00000328   ........           LDR.W    R0,??DataTable49
   \   0000032C   0021               MOVS     R1,#+0
   \   0000032E   0170               STRB     R1,[R0, #+0]
    593          }
   \                     ??EngineOn_EMSCheck_13:
   \   00000330   01BD               POP      {R0,PC}          ;; return

   \                                 In section .bss, align 2
   \                     ??StartOnTimer:
   \   00000000                      DS8 2

   \                                 In section .bss, align 1
   \                     ??BreakOnFlag:
   \   00000000                      DS8 1

   \                                 In section .bss, align 2
   \                     ??CheckEms:
   \   00000000                      DS8 2

   \                                 In section .text, align 2, keep-with-next
    594          void EngineOff_EMSCheck(void)
    595          {
   \                     EngineOff_EMSCheck:
   \   00000000   80B5               PUSH     {R7,LR}
    596               static u16 EMSOff_Timer = 0;
    597          //     static u8 First_Check = 0;
    598               static u16 CheckEms = 0;
    599               
    600               ///////////////////////////////////////////////////////////////////////////
    601               // EMS 오프 동작데이터
    602               ///////////////////////////////////////////////////////////////////////////
    603               if( CheckTimeOver ( 500 , CheckEms )  )
   \   00000002   ........           LDR.W    R0,??DataTable50
   \   00000006   0188               LDRH     R1,[R0, #+0]
   \   00000008   4FF4FA70           MOV      R0,#+500
   \   0000000C   ........           BL       CheckTimeOver
   \   00000010   0028               CMP      R0,#+0
   \   00000012   00F01381           BEQ.W    ??EngineOff_EMSCheck_0
    604               {     
    605                    CheckEms = MS_TIMER;
   \   00000016   ........           LDR.W    R0,??DataTable50_1  ;; 0x40000c00
   \   0000001A   ........           BL       TIM_GetCounter
   \   0000001E   ........           LDR.W    R1,??DataTable50
   \   00000022   0880               STRH     R0,[R1, #+0]
    606                    EmsOffProgress = 0;
   \   00000024   ........           LDR.W    R0,??DataTable50_2
   \   00000028   0021               MOVS     R1,#+0
   \   0000002A   0180               STRH     R1,[R0, #+0]
    607                    if( !EnginOffActionFlag )       // 현재 시동오프 동작 중인가?
   \   0000002C   ........           LDR.W    R0,??DataTable50_3
   \   00000030   0078               LDRB     R0,[R0, #+0]
   \   00000032   0028               CMP      R0,#+0
   \   00000034   07D1               BNE.N    ??EngineOff_EMSCheck_1
    608                         EmsOffProgress |= 0x0001;
   \   00000036   ........           LDR.W    R0,??DataTable50_2
   \   0000003A   0088               LDRH     R0,[R0, #+0]
   \   0000003C   50F00100           ORRS     R0,R0,#0x1
   \   00000040   ........           LDR.W    R1,??DataTable50_2
   \   00000044   0880               STRH     R0,[R1, #+0]
    609                    if( Info.EcoStatus )               //  에코스위치가 켜져 있는가?
   \                     ??EngineOff_EMSCheck_1:
   \   00000046   ........           LDR.W    R0,??DataTable50_4
   \   0000004A   007E               LDRB     R0,[R0, #+24]
   \   0000004C   0028               CMP      R0,#+0
   \   0000004E   07D0               BEQ.N    ??EngineOff_EMSCheck_2
    610                         EmsOffProgress |= 0x0002;
   \   00000050   ........           LDR.W    R0,??DataTable50_2
   \   00000054   0088               LDRH     R0,[R0, #+0]
   \   00000056   50F00200           ORRS     R0,R0,#0x2
   \   0000005A   ........           LDR.W    R1,??DataTable50_2
   \   0000005E   0880               STRH     R0,[R1, #+0]
    611                    if ( ( Info.Input_Status & INPUT_KEYON_FLAG ) )    //  키가 켜져있는가?
   \                     ??EngineOff_EMSCheck_2:
   \   00000060   ........           LDR.W    R0,??DataTable50_4
   \   00000064   90F85D00           LDRB     R0,[R0, #+93]
   \   00000068   0006               LSLS     R0,R0,#+24
   \   0000006A   07D5               BPL.N    ??EngineOff_EMSCheck_3
    612                         EmsOffProgress |= 0x0004;
   \   0000006C   ........           LDR.W    R0,??DataTable50_2
   \   00000070   0088               LDRH     R0,[R0, #+0]
   \   00000072   50F00400           ORRS     R0,R0,#0x4
   \   00000076   ........           LDR.W    R1,??DataTable50_2
   \   0000007A   0880               STRH     R0,[R1, #+0]
    613                    if ( Info.RPM_Value != 0 )          // 현재 RPM이 있는가?
   \                     ??EngineOff_EMSCheck_3:
   \   0000007C   ........           LDR.W    R0,??DataTable50_4
   \   00000080   B0F83500           LDRH     R0,[R0, #+53]
   \   00000084   0028               CMP      R0,#+0
   \   00000086   07D0               BEQ.N    ??EngineOff_EMSCheck_4
    614                         EmsOffProgress |= 0x0008;
   \   00000088   ........           LDR.W    R0,??DataTable50_2
   \   0000008C   0088               LDRH     R0,[R0, #+0]
   \   0000008E   50F00800           ORRS     R0,R0,#0x8
   \   00000092   ........           LDR.W    R1,??DataTable50_2
   \   00000096   0880               STRH     R0,[R1, #+0]
    615                    if ( Info.SPEED_Value == 0 )        // 현재 스피드가 있는가?
   \                     ??EngineOff_EMSCheck_4:
   \   00000098   ........           LDR.W    R0,??DataTable50_4
   \   0000009C   90F83400           LDRB     R0,[R0, #+52]
   \   000000A0   0028               CMP      R0,#+0
   \   000000A2   07D1               BNE.N    ??EngineOff_EMSCheck_5
    616                         EmsOffProgress |= 0x0010;
   \   000000A4   ........           LDR.W    R0,??DataTable50_2
   \   000000A8   0088               LDRH     R0,[R0, #+0]
   \   000000AA   50F01000           ORRS     R0,R0,#0x10
   \   000000AE   ........           LDR.W    R1,??DataTable50_2
   \   000000B2   0880               STRH     R0,[R1, #+0]
    617                    if ( Info.EMS_Data.GPS_Speed == 0 )     //  GPS 속도가 있다면 
   \                     ??EngineOff_EMSCheck_5:
   \   000000B4   ........           LDR.W    R0,??DataTable50_4
   \   000000B8   B0F85500           LDRH     R0,[R0, #+85]
   \   000000BC   0028               CMP      R0,#+0
   \   000000BE   07D1               BNE.N    ??EngineOff_EMSCheck_6
    618                         EmsOffProgress |= 0x0020;
   \   000000C0   ........           LDR.W    R0,??DataTable50_2
   \   000000C4   0088               LDRH     R0,[R0, #+0]
   \   000000C6   50F02000           ORRS     R0,R0,#0x20
   \   000000CA   ........           LDR.W    R1,??DataTable50_2
   \   000000CE   0880               STRH     R0,[R1, #+0]
    619                    if ( ( Info.Input_Status & INPUT_GEAR_FLAG ) )    // 기어가 중립인가
   \                     ??EngineOff_EMSCheck_6:
   \   000000D0   ........           LDR.W    R0,??DataTable50_4
   \   000000D4   90F85D00           LDRB     R0,[R0, #+93]
   \   000000D8   8007               LSLS     R0,R0,#+30
   \   000000DA   07D5               BPL.N    ??EngineOff_EMSCheck_7
    620                         EmsOffProgress |= 0x0040;
   \   000000DC   ........           LDR.W    R0,??DataTable50_2
   \   000000E0   0088               LDRH     R0,[R0, #+0]
   \   000000E2   50F04000           ORRS     R0,R0,#0x40
   \   000000E6   ........           LDR.W    R1,??DataTable50_2
   \   000000EA   0880               STRH     R0,[R1, #+0]
    621                    if ( Info.EMS_Data.Battery_Volt > SFLASH_Memory.EMS.Battery_Volt )  //  공회전중 정지 배터리 전압이 기준보다 작은가?
   \                     ??EngineOff_EMSCheck_7:
   \   000000EC   ........           LDR.W    R0,??DataTable50_5
   \   000000F0   B0F88B00           LDRH     R0,[R0, #+139]
   \   000000F4   ........           LDR.W    R1,??DataTable50_4
   \   000000F8   B1F84910           LDRH     R1,[R1, #+73]
   \   000000FC   8842               CMP      R0,R1
   \   000000FE   07D2               BCS.N    ??EngineOff_EMSCheck_8
    622                         EmsOffProgress |= 0x0080;
   \   00000100   ........           LDR.W    R0,??DataTable50_2
   \   00000104   0088               LDRH     R0,[R0, #+0]
   \   00000106   50F08000           ORRS     R0,R0,#0x80
   \   0000010A   ........           LDR.W    R1,??DataTable50_2
   \   0000010E   0880               STRH     R0,[R1, #+0]
    623                    if ( Info.EMS_Data.CoolWaterTemp_Volt < SFLASH_Memory.EMS.ColdWaterTemp_Volt )  //  냉각수 온도가 기준보다 낮은가
   \                     ??EngineOff_EMSCheck_8:
   \   00000110   ........           LDR.W    R0,??DataTable50_4
   \   00000114   B0F84D00           LDRH     R0,[R0, #+77]
   \   00000118   ........           LDR.W    R1,??DataTable50_5
   \   0000011C   B1F88D10           LDRH     R1,[R1, #+141]
   \   00000120   8842               CMP      R0,R1
   \   00000122   08D2               BCS.N    ??EngineOff_EMSCheck_9
    624                         EmsOffProgress |= 0x0100;
   \   00000124   ........           LDR.W    R0,??DataTable50_2
   \   00000128   0088               LDRH     R0,[R0, #+0]
   \   0000012A   4FF48071           MOV      R1,#+256
   \   0000012E   0843               ORRS     R0,R1,R0
   \   00000130   ........           LDR.W    R1,??DataTable50_2
   \   00000134   0880               STRH     R0,[R1, #+0]
    625                    if ( Info.EMS_Data.AirPressure_Volt > SFLASH_Memory.EMS.Air_Volt )  //  공기압이 정상이 기준보다 낮은가? 
   \                     ??EngineOff_EMSCheck_9:
   \   00000136   ........           LDR.W    R0,??DataTable50_5
   \   0000013A   B0F88F00           LDRH     R0,[R0, #+143]
   \   0000013E   ........           LDR.W    R1,??DataTable50_4
   \   00000142   B1F84B10           LDRH     R1,[R1, #+75]
   \   00000146   8842               CMP      R0,R1
   \   00000148   08D2               BCS.N    ??EngineOff_EMSCheck_10
    626                         EmsOffProgress |= 0x0200;
   \   0000014A   ........           LDR.W    R0,??DataTable50_2
   \   0000014E   0088               LDRH     R0,[R0, #+0]
   \   00000150   4FF40071           MOV      R1,#+512
   \   00000154   0843               ORRS     R0,R1,R0
   \   00000156   ........           LDR.W    R1,??DataTable50_2
   \   0000015A   0880               STRH     R0,[R1, #+0]
    627                    if ( !( (Info.EMS_Data.Tilt_X < TILT_LOW ) || ( Info.EMS_Data.Tilt_X > TILT_HIGH ) ))   //  기울기X 가 범위안에 들어가는가
   \                     ??EngineOff_EMSCheck_10:
   \   0000015C   ........           LDR.W    R0,??DataTable50_4
   \   00000160   90F95300           LDRSB    R0,[R0, #+83]
   \   00000164   FB38               SUBS     R0,R0,#+251
   \   00000166   C0B2               UXTB     R0,R0            ;; ZeroExt  R0,R0,#+24,#+24
   \   00000168   0B28               CMP      R0,#+11
   \   0000016A   07D2               BCS.N    ??EngineOff_EMSCheck_11
    628                         EmsOffProgress |= 0x0400;
   \   0000016C   ........           LDR.W    R0,??DataTable50_2
   \   00000170   0088               LDRH     R0,[R0, #+0]
   \   00000172   50F48060           ORRS     R0,R0,#0x400
   \   00000176   ........           LDR.W    R1,??DataTable50_2
   \   0000017A   0880               STRH     R0,[R1, #+0]
    629                    if ( !( ( Info.EMS_Data.Tilt_Y < TILT_LOW ) || ( Info.EMS_Data.Tilt_Y > TILT_HIGH ) ))  //  기울기 Y가 범위안에 들어가는가?
   \                     ??EngineOff_EMSCheck_11:
   \   0000017C   ........           LDR.W    R0,??DataTable50_4
   \   00000180   90F95400           LDRSB    R0,[R0, #+84]
   \   00000184   FB38               SUBS     R0,R0,#+251
   \   00000186   C0B2               UXTB     R0,R0            ;; ZeroExt  R0,R0,#+24,#+24
   \   00000188   0B28               CMP      R0,#+11
   \   0000018A   07D2               BCS.N    ??EngineOff_EMSCheck_12
    630                         EmsOffProgress |= 0x0800;    
   \   0000018C   ........           LDR.W    R0,??DataTable50_2
   \   00000190   0088               LDRH     R0,[R0, #+0]
   \   00000192   50F40060           ORRS     R0,R0,#0x800
   \   00000196   ........           LDR.W    R1,??DataTable50_2
   \   0000019A   0880               STRH     R0,[R1, #+0]
    631                    if ( SFLASH_Memory.GPS_EMS_Use != 0 )
   \                     ??EngineOff_EMSCheck_12:
   \   0000019C   ........           LDR.W    R0,??DataTable50_5
   \   000001A0   90F88900           LDRB     R0,[R0, #+137]
   \   000001A4   0028               CMP      R0,#+0
   \   000001A6   0DD0               BEQ.N    ??EngineOff_EMSCheck_13
    632                    {
    633                         if ( Flag.GPS_IsRoute == 1 )  //  GPS 플래그 확인                                        
   \   000001A8   ........           LDR.W    R0,??DataTable50_6
   \   000001AC   007B               LDRB     R0,[R0, #+12]
   \   000001AE   0128               CMP      R0,#+1
   \   000001B0   10D1               BNE.N    ??EngineOff_EMSCheck_14
    634                              EmsOffProgress |= 0x1000;           
   \   000001B2   ........           LDR.W    R0,??DataTable50_2
   \   000001B6   0088               LDRH     R0,[R0, #+0]
   \   000001B8   50F48050           ORRS     R0,R0,#0x1000
   \   000001BC   ........           LDR.W    R1,??DataTable50_2
   \   000001C0   0880               STRH     R0,[R1, #+0]
   \   000001C2   07E0               B.N      ??EngineOff_EMSCheck_14
    635                    }
    636                    else
    637                         EmsOffProgress |= 0x1000; 
   \                     ??EngineOff_EMSCheck_13:
   \   000001C4   ........           LDR.W    R0,??DataTable50_2
   \   000001C8   0088               LDRH     R0,[R0, #+0]
   \   000001CA   50F48050           ORRS     R0,R0,#0x1000
   \   000001CE   ........           LDR.W    R1,??DataTable50_2
   \   000001D2   0880               STRH     R0,[R1, #+0]
    638                    ///////////////////////////////////////////////////////////////////////////////////////////////////     
    639                    // 파킹 모드
    640                    if ( ( Info.Input_Status & INPUT_PARKING_BREAK_FLAG ) )
   \                     ??EngineOff_EMSCheck_14:
   \   000001D4   ........           LDR.W    R0,??DataTable50_4
   \   000001D8   90F85D00           LDRB     R0,[R0, #+93]
   \   000001DC   4007               LSLS     R0,R0,#+29
   \   000001DE   07D5               BPL.N    ??EngineOff_EMSCheck_15
    641                         EmsOffProgress |= 0x2000;
   \   000001E0   ........           LDR.W    R0,??DataTable50_2
   \   000001E4   0088               LDRH     R0,[R0, #+0]
   \   000001E6   50F40050           ORRS     R0,R0,#0x2000
   \   000001EA   ........           LDR.W    R1,??DataTable50_2
   \   000001EE   0880               STRH     R0,[R1, #+0]
    642                         // 공회전 정지를 했다면 
    643                    if(! EnginOffLimit_Flag )
   \                     ??EngineOff_EMSCheck_15:
   \   000001F0   ........           LDR.W    R0,??DataTable50_7
   \   000001F4   0078               LDRB     R0,[R0, #+0]
   \   000001F6   0028               CMP      R0,#+0
   \   000001F8   0FD1               BNE.N    ??EngineOff_EMSCheck_16
    644                    {
    645                         if( CheckTimeOver1Sec ( 180 , EnginOffLimit_Time ) )	     // 3분간재진입 금지 1분당 5초 차이남
   \   000001FA   ........           LDR.W    R0,??DataTable50_8
   \   000001FE   0188               LDRH     R1,[R0, #+0]
   \   00000200   B420               MOVS     R0,#+180
   \   00000202   ........           BL       CheckTimeOver1Sec
   \   00000206   0028               CMP      R0,#+0
   \   00000208   07D0               BEQ.N    ??EngineOff_EMSCheck_16
    646                              EmsOffProgress |= 0x4000;                    
   \   0000020A   ........           LDR.W    R0,??DataTable50_2
   \   0000020E   0088               LDRH     R0,[R0, #+0]
   \   00000210   50F48040           ORRS     R0,R0,#0x4000
   \   00000214   ........           LDR.W    R1,??DataTable50_2
   \   00000218   0880               STRH     R0,[R1, #+0]
    647                    }
    648                    if( ! CheckTimeOver ( 3000 , EMSOff_Timer ) )		// 15. 모든 조건이 만족하였을때 3초대기
   \                     ??EngineOff_EMSCheck_16:
   \   0000021A   ........           LDR.W    R0,??DataTable50_9
   \   0000021E   0188               LDRH     R1,[R0, #+0]
   \   00000220   40F6B830           MOVW     R0,#+3000
   \   00000224   ........           BL       CheckTimeOver
   \   00000228   0028               CMP      R0,#+0
   \   0000022A   07D1               BNE.N    ??EngineOff_EMSCheck_0
    649                         EmsOffProgress |= 0x8000;
   \   0000022C   ........           LDR.W    R0,??DataTable50_2
   \   00000230   0088               LDRH     R0,[R0, #+0]
   \   00000232   50F40040           ORRS     R0,R0,#0x8000
   \   00000236   ........           LDR.W    R1,??DataTable50_2
   \   0000023A   0880               STRH     R0,[R1, #+0]
    650               }
    651               EMSOff_Check = 0;
   \                     ??EngineOff_EMSCheck_0:
   \   0000023C   ........           LDR.W    R0,??DataTable50_10
   \   00000240   0021               MOVS     R1,#+0
   \   00000242   0170               STRB     R1,[R0, #+0]
    652               // 공회전 정지 동작 조건
    653               if( EnginOffActionFlag )       // 현재 시동오프 동작 중인가?
   \   00000244   ........           LDR.W    R0,??DataTable50_3
   \   00000248   0078               LDRB     R0,[R0, #+0]
   \   0000024A   0028               CMP      R0,#+0
   \   0000024C   0CD0               BEQ.N    ??EngineOff_EMSCheck_17
    654               {
    655                    Info.EMS3Sec_Count = 3;
   \   0000024E   ........           LDR.W    R0,??DataTable50_4
   \   00000252   0321               MOVS     R1,#+3
   \   00000254   80F86510           STRB     R1,[R0, #+101]
    656                    EMSOff_Timer = MS_TIMER;  
   \   00000258   ........           LDR.W    R0,??DataTable50_1  ;; 0x40000c00
   \   0000025C   ........           BL       TIM_GetCounter
   \   00000260   ........           LDR.W    R1,??DataTable50_9
   \   00000264   0880               STRH     R0,[R1, #+0]
    657                    return ;        
   \   00000266   0BE2               B.N      ??EngineOff_EMSCheck_18
    658               }
    659               EMSOff_Check = 1;
   \                     ??EngineOff_EMSCheck_17:
   \   00000268   ........           LDR.W    R0,??DataTable50_10
   \   0000026C   0121               MOVS     R1,#+1
   \   0000026E   0170               STRB     R1,[R0, #+0]
    660               if( !Info.EcoStatus )               //  에코스위치가 켜져 있는가?
   \   00000270   ........           LDR.W    R0,??DataTable50_4
   \   00000274   007E               LDRB     R0,[R0, #+24]
   \   00000276   0028               CMP      R0,#+0
   \   00000278   17D1               BNE.N    ??EngineOff_EMSCheck_19
    661               {
    662                    Info.EMS3Sec_Count = 3;
   \   0000027A   ........           LDR.W    R0,??DataTable50_4
   \   0000027E   0321               MOVS     R1,#+3
   \   00000280   80F86510           STRB     R1,[R0, #+101]
    663                    Info.EMS3Min_Count = 180;
   \   00000284   ........           LDR.W    R0,??DataTable50_4
   \   00000288   B421               MOVS     R1,#+180
   \   0000028A   80F86610           STRB     R1,[R0, #+102]
    664                    EMSOff_Timer = MS_TIMER;  
   \   0000028E   ........           LDR.W    R0,??DataTable50_1  ;; 0x40000c00
   \   00000292   ........           BL       TIM_GetCounter
   \   00000296   ........           LDR.W    R1,??DataTable50_9
   \   0000029A   0880               STRH     R0,[R1, #+0]
    665                    EnginOffLimit_Time = MS_TIMER_1sec;               // 3 분 공회전 대기 Clear
   \   0000029C   ........           LDR.W    R0,??DataTable50_8
   \   000002A0   ........           LDR.W    R1,??DataTable50_11
   \   000002A4   0988               LDRH     R1,[R1, #+0]
   \   000002A6   0180               STRH     R1,[R0, #+0]
    666                    return;
   \   000002A8   EAE1               B.N      ??EngineOff_EMSCheck_18
    667               } 
    668               EMSOff_Check = 2;
   \                     ??EngineOff_EMSCheck_19:
   \   000002AA   ........           LDR.W    R0,??DataTable50_10
   \   000002AE   0221               MOVS     R1,#+2
   \   000002B0   0170               STRB     R1,[R0, #+0]
    669               if ( !( Info.Input_Status & INPUT_KEYON_FLAG ) )    //  키가 켜져있는가?
   \   000002B2   ........           LDR.W    R0,??DataTable50_4
   \   000002B6   90F85D00           LDRB     R0,[R0, #+93]
   \   000002BA   0006               LSLS     R0,R0,#+24
   \   000002BC   1BD4               BMI.N    ??EngineOff_EMSCheck_20
    670               {
    671                    Info.EMS3Sec_Count = 3;
   \   000002BE   ........           LDR.W    R0,??DataTable50_4
   \   000002C2   0321               MOVS     R1,#+3
   \   000002C4   80F86510           STRB     R1,[R0, #+101]
    672                    Info.EMS3Min_Count = 180;
   \   000002C8   ........           LDR.W    R0,??DataTable50_4
   \   000002CC   B421               MOVS     R1,#+180
   \   000002CE   80F86610           STRB     R1,[R0, #+102]
    673                    EMSOff_Timer = MS_TIMER;  
   \   000002D2   ........           LDR.W    R0,??DataTable50_1  ;; 0x40000c00
   \   000002D6   ........           BL       TIM_GetCounter
   \   000002DA   ........           LDR.W    R1,??DataTable50_9
   \   000002DE   0880               STRH     R0,[R1, #+0]
    674                    EnginOffLimit_Flag = 1;
   \   000002E0   ........           LDR.W    R0,??DataTable50_7
   \   000002E4   0121               MOVS     R1,#+1
   \   000002E6   0170               STRB     R1,[R0, #+0]
    675                    EnginOffLimit_Time = MS_TIMER_1sec;               // 3 분 공회전 대기 Clear
   \   000002E8   ........           LDR.W    R0,??DataTable50_8
   \   000002EC   ........           LDR.W    R1,??DataTable50_11
   \   000002F0   0988               LDRH     R1,[R1, #+0]
   \   000002F2   0180               STRH     R1,[R0, #+0]
    676                    return;
   \   000002F4   C4E1               B.N      ??EngineOff_EMSCheck_18
    677               }    
    678               EMSOff_Check = 3;
   \                     ??EngineOff_EMSCheck_20:
   \   000002F6   ........           LDR.W    R0,??DataTable50_10
   \   000002FA   0321               MOVS     R1,#+3
   \   000002FC   0170               STRB     R1,[R0, #+0]
    679               if ( Info.RPM_Value == 0 )          // 현재 RPM이 있는가?
   \   000002FE   ........           LDR.W    R0,??DataTable50_4
   \   00000302   B0F83500           LDRH     R0,[R0, #+53]
   \   00000306   0028               CMP      R0,#+0
   \   00000308   1BD1               BNE.N    ??EngineOff_EMSCheck_21
    680               {
    681                    Info.EMS3Sec_Count = 3;
   \   0000030A   ........           LDR.W    R0,??DataTable50_4
   \   0000030E   0321               MOVS     R1,#+3
   \   00000310   80F86510           STRB     R1,[R0, #+101]
    682                    Info.EMS3Min_Count = 180;
   \   00000314   ........           LDR.W    R0,??DataTable50_4
   \   00000318   B421               MOVS     R1,#+180
   \   0000031A   80F86610           STRB     R1,[R0, #+102]
    683                    EMSOff_Timer = MS_TIMER;  
   \   0000031E   ........           LDR.W    R0,??DataTable50_1  ;; 0x40000c00
   \   00000322   ........           BL       TIM_GetCounter
   \   00000326   ........           LDR.W    R1,??DataTable50_9
   \   0000032A   0880               STRH     R0,[R1, #+0]
    684                    EnginOffLimit_Flag = 1;
   \   0000032C   ........           LDR.W    R0,??DataTable50_7
   \   00000330   0121               MOVS     R1,#+1
   \   00000332   0170               STRB     R1,[R0, #+0]
    685                    EnginOffLimit_Time = MS_TIMER_1sec;               // 3 분 공회전 대기 Clear
   \   00000334   ........           LDR.W    R0,??DataTable50_8
   \   00000338   ........           LDR.W    R1,??DataTable50_11
   \   0000033C   0988               LDRH     R1,[R1, #+0]
   \   0000033E   0180               STRH     R1,[R0, #+0]
    686                    return;
   \   00000340   9EE1               B.N      ??EngineOff_EMSCheck_18
    687               }
    688               EMSOff_Check = 4;
   \                     ??EngineOff_EMSCheck_21:
   \   00000342   ........           LDR.W    R0,??DataTable50_10
   \   00000346   0421               MOVS     R1,#+4
   \   00000348   0170               STRB     R1,[R0, #+0]
    689               if ( Info.SPEED_Value != 0 )        // 현재 스피드가 있는가?
   \   0000034A   ........           LDR.W    R0,??DataTable50_4
   \   0000034E   90F83400           LDRB     R0,[R0, #+52]
   \   00000352   0028               CMP      R0,#+0
   \   00000354   17D0               BEQ.N    ??EngineOff_EMSCheck_22
    690               {
    691                    Info.EMS3Sec_Count = 3;
   \   00000356   ........           LDR.W    R0,??DataTable50_4
   \   0000035A   0321               MOVS     R1,#+3
   \   0000035C   80F86510           STRB     R1,[R0, #+101]
    692                    Info.EMS3Min_Count = 180;
   \   00000360   ........           LDR.W    R0,??DataTable50_4
   \   00000364   B421               MOVS     R1,#+180
   \   00000366   80F86610           STRB     R1,[R0, #+102]
    693                    EMSOff_Timer = MS_TIMER;  
   \   0000036A   ........           LDR.W    R0,??DataTable50_1  ;; 0x40000c00
   \   0000036E   ........           BL       TIM_GetCounter
   \   00000372   ........           LDR.W    R1,??DataTable50_9
   \   00000376   0880               STRH     R0,[R1, #+0]
    694                    EnginOffLimit_Time = MS_TIMER_1sec;               // 3 분 공회전 대기 Clear
   \   00000378   ........           LDR.W    R0,??DataTable50_8
   \   0000037C   ........           LDR.W    R1,??DataTable50_11
   \   00000380   0988               LDRH     R1,[R1, #+0]
   \   00000382   0180               STRH     R1,[R0, #+0]
    695                    return;
   \   00000384   7CE1               B.N      ??EngineOff_EMSCheck_18
    696               }
    697               EMSOff_Check = 5;
   \                     ??EngineOff_EMSCheck_22:
   \   00000386   ........           LDR.W    R0,??DataTable50_10
   \   0000038A   0521               MOVS     R1,#+5
   \   0000038C   0170               STRB     R1,[R0, #+0]
    698               if ( Info.EMS_Data.GPS_Speed != 0 )     //  GPS 속도가 있다면 
   \   0000038E   ........           LDR.W    R0,??DataTable50_4
   \   00000392   B0F85500           LDRH     R0,[R0, #+85]
   \   00000396   0028               CMP      R0,#+0
   \   00000398   17D0               BEQ.N    ??EngineOff_EMSCheck_23
    699               {
    700                    Info.EMS3Sec_Count = 3;
   \   0000039A   ........           LDR.W    R0,??DataTable50_4
   \   0000039E   0321               MOVS     R1,#+3
   \   000003A0   80F86510           STRB     R1,[R0, #+101]
    701                    Info.EMS3Min_Count = 180;
   \   000003A4   ........           LDR.W    R0,??DataTable50_4
   \   000003A8   B421               MOVS     R1,#+180
   \   000003AA   80F86610           STRB     R1,[R0, #+102]
    702                    EMSOff_Timer = MS_TIMER;  
   \   000003AE   ........           LDR.W    R0,??DataTable50_1  ;; 0x40000c00
   \   000003B2   ........           BL       TIM_GetCounter
   \   000003B6   ........           LDR.W    R1,??DataTable50_9
   \   000003BA   0880               STRH     R0,[R1, #+0]
    703                    EnginOffLimit_Time = MS_TIMER_1sec;              // 3 분 공회전 대기 Clear
   \   000003BC   ........           LDR.W    R0,??DataTable50_8
   \   000003C0   ........           LDR.W    R1,??DataTable50_11
   \   000003C4   0988               LDRH     R1,[R1, #+0]
   \   000003C6   0180               STRH     R1,[R0, #+0]
    704                    return;     
   \   000003C8   5AE1               B.N      ??EngineOff_EMSCheck_18
    705               }
    706               EMSOff_Check = 6;
   \                     ??EngineOff_EMSCheck_23:
   \   000003CA   ........           LDR.W    R0,??DataTable50_10
   \   000003CE   0621               MOVS     R1,#+6
   \   000003D0   0170               STRB     R1,[R0, #+0]
    707               if ( !( Info.Input_Status & INPUT_GEAR_FLAG ) )    // 기어가 중립인가
   \   000003D2   ........           LDR.W    R0,??DataTable50_4
   \   000003D6   90F85D00           LDRB     R0,[R0, #+93]
   \   000003DA   8007               LSLS     R0,R0,#+30
   \   000003DC   17D4               BMI.N    ??EngineOff_EMSCheck_24
    708               {
    709                    Info.EMS3Sec_Count = 3;
   \   000003DE   ........           LDR.W    R0,??DataTable50_4
   \   000003E2   0321               MOVS     R1,#+3
   \   000003E4   80F86510           STRB     R1,[R0, #+101]
    710                    Info.EMS3Min_Count = 180;
   \   000003E8   ........           LDR.W    R0,??DataTable50_4
   \   000003EC   B421               MOVS     R1,#+180
   \   000003EE   80F86610           STRB     R1,[R0, #+102]
    711                    EMSOff_Timer = MS_TIMER;  
   \   000003F2   ........           LDR.W    R0,??DataTable50_1  ;; 0x40000c00
   \   000003F6   ........           BL       TIM_GetCounter
   \   000003FA   ........           LDR.W    R1,??DataTable50_9
   \   000003FE   0880               STRH     R0,[R1, #+0]
    712                    EnginOffLimit_Time = MS_TIMER_1sec;              // 3 분 공회전 대기 Clear          
   \   00000400   ........           LDR.W    R0,??DataTable50_8
   \   00000404   ........           LDR.W    R1,??DataTable50_11
   \   00000408   0988               LDRH     R1,[R1, #+0]
   \   0000040A   0180               STRH     R1,[R0, #+0]
    713                    return;     
   \   0000040C   38E1               B.N      ??EngineOff_EMSCheck_18
    714               }
    715               EMSOff_Check = 7;     
   \                     ??EngineOff_EMSCheck_24:
   \   0000040E   ........           LDR.W    R0,??DataTable50_10
   \   00000412   0721               MOVS     R1,#+7
   \   00000414   0170               STRB     R1,[R0, #+0]
    716          //     if ( Info.Battery_Volt_Driving < 24000 )  //  운행중 배터리 전압체크
    717          //          return;
    718               EMSOff_Check = 8;
   \   00000416   ........           LDR.W    R0,??DataTable50_10
   \   0000041A   0821               MOVS     R1,#+8
   \   0000041C   0170               STRB     R1,[R0, #+0]
    719               if ( Info.EMS_Data.Battery_Volt < SFLASH_Memory.EMS.Battery_Volt )  //  공회전중 정지 배터리 전압이 기준보다 작은가?
   \   0000041E   ........           LDR.W    R0,??DataTable50_4
   \   00000422   B0F84900           LDRH     R0,[R0, #+73]
   \   00000426   ........           LDR.W    R1,??DataTable50_5
   \   0000042A   B1F88B10           LDRH     R1,[R1, #+139]
   \   0000042E   8842               CMP      R0,R1
   \   00000430   0CD2               BCS.N    ??EngineOff_EMSCheck_25
    720               {
    721                    Info.EMS3Sec_Count = 3;
   \   00000432   ........           LDR.W    R0,??DataTable50_4
   \   00000436   0321               MOVS     R1,#+3
   \   00000438   80F86510           STRB     R1,[R0, #+101]
    722          //          Info.EMS3Min_Count = 180;
    723                    EMSOff_Timer = MS_TIMER;  
   \   0000043C   ........           LDR.W    R0,??DataTable50_1  ;; 0x40000c00
   \   00000440   ........           BL       TIM_GetCounter
   \   00000444   ........           LDR.W    R1,??DataTable50_9
   \   00000448   0880               STRH     R0,[R1, #+0]
    724                    
    725                    return;
   \   0000044A   19E1               B.N      ??EngineOff_EMSCheck_18
    726               }
    727               EMSOff_Check = 9;
   \                     ??EngineOff_EMSCheck_25:
   \   0000044C   ........           LDR.W    R0,??DataTable50_10
   \   00000450   0921               MOVS     R1,#+9
   \   00000452   0170               STRB     R1,[R0, #+0]
    728               if ( Info.EMS_Data.CoolWaterTemp_Volt > SFLASH_Memory.EMS.ColdWaterTemp_Volt)//5000 )  //  냉각수 온도가 기준보다 낮은가
   \   00000454   ........           LDR.W    R0,??DataTable50_5
   \   00000458   B0F88D00           LDRH     R0,[R0, #+141]
   \   0000045C   ........           LDR.W    R1,??DataTable50_4
   \   00000460   B1F84D10           LDRH     R1,[R1, #+77]
   \   00000464   8842               CMP      R0,R1
   \   00000466   0CD2               BCS.N    ??EngineOff_EMSCheck_26
    729               {
    730                    Info.EMS3Sec_Count = 3;
   \   00000468   ........           LDR.W    R0,??DataTable50_4
   \   0000046C   0321               MOVS     R1,#+3
   \   0000046E   80F86510           STRB     R1,[R0, #+101]
    731          //          Info.EMS3Min_Count = 180;
    732                    EMSOff_Timer = MS_TIMER;  
   \   00000472   ........           LDR.W    R0,??DataTable50_1  ;; 0x40000c00
   \   00000476   ........           BL       TIM_GetCounter
   \   0000047A   ........           LDR.W    R1,??DataTable50_9
   \   0000047E   0880               STRH     R0,[R1, #+0]
    733                    return;
   \   00000480   FEE0               B.N      ??EngineOff_EMSCheck_18
    734               }
    735               EMSOff_Check = 10;
   \                     ??EngineOff_EMSCheck_26:
   \   00000482   ........           LDR.W    R0,??DataTable50_10
   \   00000486   0A21               MOVS     R1,#+10
   \   00000488   0170               STRB     R1,[R0, #+0]
    736               if ( Info.EMS_Data.AirPressure_Volt < SFLASH_Memory.EMS.Air_Volt) //4700 )  //  공기압이 정상이 기준보다 낮은가? 
   \   0000048A   ........           LDR.W    R0,??DataTable50_4
   \   0000048E   B0F84B00           LDRH     R0,[R0, #+75]
   \   00000492   ........           LDR.W    R1,??DataTable50_5
   \   00000496   B1F88F10           LDRH     R1,[R1, #+143]
   \   0000049A   8842               CMP      R0,R1
   \   0000049C   0CD2               BCS.N    ??EngineOff_EMSCheck_27
    737               {
    738                    Info.EMS3Sec_Count = 3;
   \   0000049E   ........           LDR.W    R0,??DataTable50_4
   \   000004A2   0321               MOVS     R1,#+3
   \   000004A4   80F86510           STRB     R1,[R0, #+101]
    739          //          Info.EMS3Min_Count = 180;          
    740                    EMSOff_Timer = MS_TIMER;  
   \   000004A8   ........           LDR.W    R0,??DataTable50_1  ;; 0x40000c00
   \   000004AC   ........           BL       TIM_GetCounter
   \   000004B0   ........           LDR.W    R1,??DataTable50_9
   \   000004B4   0880               STRH     R0,[R1, #+0]
    741                    return;   
   \   000004B6   E3E0               B.N      ??EngineOff_EMSCheck_18
    742               }
    743               EMSOff_Check = 11;
   \                     ??EngineOff_EMSCheck_27:
   \   000004B8   ........           LDR.W    R0,??DataTable50_10
   \   000004BC   0B21               MOVS     R1,#+11
   \   000004BE   0170               STRB     R1,[R0, #+0]
    744               if ( (Info.EMS_Data.Tilt_X < TILT_LOW ) || ( Info.EMS_Data.Tilt_X > TILT_HIGH ) )   //  기울기X 가 범위안에 들어가는가
   \   000004C0   ........           LDR.W    R0,??DataTable50_4
   \   000004C4   90F95300           LDRSB    R0,[R0, #+83]
   \   000004C8   FB38               SUBS     R0,R0,#+251
   \   000004CA   C0B2               UXTB     R0,R0            ;; ZeroExt  R0,R0,#+24,#+24
   \   000004CC   0B28               CMP      R0,#+11
   \   000004CE   17D3               BCC.N    ??EngineOff_EMSCheck_28
    745               {
    746                    Info.EMS3Sec_Count = 3;
   \   000004D0   ........           LDR.W    R0,??DataTable50_4
   \   000004D4   0321               MOVS     R1,#+3
   \   000004D6   80F86510           STRB     R1,[R0, #+101]
    747                    Info.EMS3Min_Count = 180;          
   \   000004DA   ........           LDR.W    R0,??DataTable50_4
   \   000004DE   B421               MOVS     R1,#+180
   \   000004E0   80F86610           STRB     R1,[R0, #+102]
    748                    EMSOff_Timer = MS_TIMER;  
   \   000004E4   ........           LDR.W    R0,??DataTable50_1  ;; 0x40000c00
   \   000004E8   ........           BL       TIM_GetCounter
   \   000004EC   ........           LDR.W    R1,??DataTable50_9
   \   000004F0   0880               STRH     R0,[R1, #+0]
    749                    EnginOffLimit_Time = MS_TIMER_1sec;              // 3 분 공회전 대기 Clear  
   \   000004F2   ........           LDR.W    R0,??DataTable50_8
   \   000004F6   ........           LDR.W    R1,??DataTable50_11
   \   000004FA   0988               LDRH     R1,[R1, #+0]
   \   000004FC   0180               STRH     R1,[R0, #+0]
    750                    return;  
   \   000004FE   BFE0               B.N      ??EngineOff_EMSCheck_18
    751               }
    752               EMSOff_Check = 12;
   \                     ??EngineOff_EMSCheck_28:
   \   00000500   ........           LDR.W    R0,??DataTable50_10
   \   00000504   0C21               MOVS     R1,#+12
   \   00000506   0170               STRB     R1,[R0, #+0]
    753               if ( ( Info.EMS_Data.Tilt_Y < TILT_LOW ) || ( Info.EMS_Data.Tilt_Y > TILT_HIGH ) )  //  기울기 Y가 범위안에 들어가는가?
   \   00000508   ........           LDR.W    R0,??DataTable50_4
   \   0000050C   90F95400           LDRSB    R0,[R0, #+84]
   \   00000510   FB38               SUBS     R0,R0,#+251
   \   00000512   C0B2               UXTB     R0,R0            ;; ZeroExt  R0,R0,#+24,#+24
   \   00000514   0B28               CMP      R0,#+11
   \   00000516   17D3               BCC.N    ??EngineOff_EMSCheck_29
    754               {
    755                    Info.EMS3Sec_Count = 3;
   \   00000518   ........           LDR.W    R0,??DataTable50_4
   \   0000051C   0321               MOVS     R1,#+3
   \   0000051E   80F86510           STRB     R1,[R0, #+101]
    756                    Info.EMS3Min_Count = 180;          
   \   00000522   ........           LDR.W    R0,??DataTable50_4
   \   00000526   B421               MOVS     R1,#+180
   \   00000528   80F86610           STRB     R1,[R0, #+102]
    757                    EMSOff_Timer = MS_TIMER;  
   \   0000052C   ........           LDR.W    R0,??DataTable50_1  ;; 0x40000c00
   \   00000530   ........           BL       TIM_GetCounter
   \   00000534   ........           LDR.W    R1,??DataTable50_9
   \   00000538   0880               STRH     R0,[R1, #+0]
    758                    EnginOffLimit_Time = MS_TIMER_1sec;              // 3 분 공회전 대기 Clear  
   \   0000053A   ........           LDR.W    R0,??DataTable50_8
   \   0000053E   ........           LDR.W    R1,??DataTable50_11
   \   00000542   0988               LDRH     R1,[R1, #+0]
   \   00000544   0180               STRH     R1,[R0, #+0]
    759                    return;
   \   00000546   9BE0               B.N      ??EngineOff_EMSCheck_18
    760               }
    761               EMSOff_Check = 13;
   \                     ??EngineOff_EMSCheck_29:
   \   00000548   ........           LDR.W    R0,??DataTable50_10
   \   0000054C   0D21               MOVS     R1,#+13
   \   0000054E   0170               STRB     R1,[R0, #+0]
    762               if ( SFLASH_Memory.GPS_EMS_Use != 0  )  //  GPS 플래그 확인
   \   00000550   ........           LDR.W    R0,??DataTable50_5
   \   00000554   90F88900           LDRB     R0,[R0, #+137]
   \   00000558   0028               CMP      R0,#+0
   \   0000055A   1CD0               BEQ.N    ??EngineOff_EMSCheck_30
    763                    if( Flag.GPS_IsRoute != 1 ) 
   \   0000055C   ........           LDR.W    R0,??DataTable50_6
   \   00000560   007B               LDRB     R0,[R0, #+12]
   \   00000562   0128               CMP      R0,#+1
   \   00000564   17D0               BEQ.N    ??EngineOff_EMSCheck_30
    764                    {
    765                         Info.EMS3Sec_Count = 3;
   \   00000566   ........           LDR.W    R0,??DataTable50_4
   \   0000056A   0321               MOVS     R1,#+3
   \   0000056C   80F86510           STRB     R1,[R0, #+101]
    766                         Info.EMS3Min_Count = 180;               
   \   00000570   ........           LDR.W    R0,??DataTable50_4
   \   00000574   B421               MOVS     R1,#+180
   \   00000576   80F86610           STRB     R1,[R0, #+102]
    767                         EMSOff_Timer = MS_TIMER;
   \   0000057A   ........           LDR.W    R0,??DataTable50_1  ;; 0x40000c00
   \   0000057E   ........           BL       TIM_GetCounter
   \   00000582   ........           LDR.W    R1,??DataTable50_9
   \   00000586   0880               STRH     R0,[R1, #+0]
    768                         EnginOffLimit_Time = MS_TIMER_1sec;              // 3 분 공회전 대기 Clear  
   \   00000588   ........           LDR.W    R0,??DataTable50_8
   \   0000058C   ........           LDR.W    R1,??DataTable50_11
   \   00000590   0988               LDRH     R1,[R1, #+0]
   \   00000592   0180               STRH     R1,[R0, #+0]
    769                         return;
   \   00000594   74E0               B.N      ??EngineOff_EMSCheck_18
    770                    }
    771               EMSOff_Check = 14;
   \                     ??EngineOff_EMSCheck_30:
   \   00000596   ........           LDR.W    R0,??DataTable50_10
   \   0000059A   0E21               MOVS     R1,#+14
   \   0000059C   0170               STRB     R1,[R0, #+0]
    772          ///////////////////////////////////////////////////////////////////////////////////////////////////     
    773              // 파킹 모드
    774               if ( ( Info.Input_Status & INPUT_PARKING_BREAK_FLAG ) )
   \   0000059E   ........           LDR.W    R0,??DataTable50_4
   \   000005A2   90F85D00           LDRB     R0,[R0, #+93]
   \   000005A6   4007               LSLS     R0,R0,#+29
   \   000005A8   53D5               BPL.N    ??EngineOff_EMSCheck_31
    775               {          
    776                    EMSOff_Check = 15;
   \   000005AA   ........           LDR.W    R0,??DataTable50_10
   \   000005AE   0F21               MOVS     R1,#+15
   \   000005B0   0170               STRB     R1,[R0, #+0]
    777          
    778          	     // 공회전 정지를 했다면 
    779          	    if( EnginOffLimit_Flag )
   \   000005B2   ........           LDR.W    R0,??DataTable50_7
   \   000005B6   0078               LDRB     R0,[R0, #+0]
   \   000005B8   0028               CMP      R0,#+0
   \   000005BA   14D0               BEQ.N    ??EngineOff_EMSCheck_32
    780          	    {		    //다시진입 3분간 진입 금지제한
    781          		    if( !CheckTimeOver1Sec ( 183 , EnginOffLimit_Time ) )	
   \   000005BC   ........           LDR.W    R0,??DataTable50_8
   \   000005C0   0188               LDRH     R1,[R0, #+0]
   \   000005C2   B720               MOVS     R0,#+183
   \   000005C4   ........           BL       CheckTimeOver1Sec
   \   000005C8   0028               CMP      R0,#+0
   \   000005CA   0CD1               BNE.N    ??EngineOff_EMSCheck_32
    782                        {
    783                             Info.EMS3Sec_Count = 3;
   \   000005CC   ........           LDR.W    R0,??DataTable50_4
   \   000005D0   0321               MOVS     R1,#+3
   \   000005D2   80F86510           STRB     R1,[R0, #+101]
    784                             EMSOff_Timer = MS_TIMER; 
   \   000005D6   ........           LDR.W    R0,??DataTable50_1  ;; 0x40000c00
   \   000005DA   ........           BL       TIM_GetCounter
   \   000005DE   ........           LDR.W    R1,??DataTable50_9
   \   000005E2   0880               STRH     R0,[R1, #+0]
    785          			    return;
   \   000005E4   4CE0               B.N      ??EngineOff_EMSCheck_18
    786                        }
    787                              //EnginOffLimit_Time = MS_TIMER_1sec;
    788          	    }
    789                    EMSOff_Check = 16;	    
   \                     ??EngineOff_EMSCheck_32:
   \   000005E6   ........           LDR.W    R0,??DataTable50_10
   \   000005EA   1021               MOVS     R1,#+16
   \   000005EC   0170               STRB     R1,[R0, #+0]
    790          	    
    791                    if( ! CheckTimeOver ( 3000 , EMSOff_Timer ) )		// 15. 모든 조건이 만족하였을때 3초대기
   \   000005EE   ........           LDR.W    R0,??DataTable50_9
   \   000005F2   0188               LDRH     R1,[R0, #+0]
   \   000005F4   40F6B830           MOVW     R0,#+3000
   \   000005F8   ........           BL       CheckTimeOver
   \   000005FC   0028               CMP      R0,#+0
   \   000005FE   3FD0               BEQ.N    ??EngineOff_EMSCheck_18
    792                        return;	    
    793                    {
    794          		    // LOG -------------------------------------------------------------------------
    795          		    // 로그 기록단위 500ms 
    796          		    EMSOff_Check = 17;
   \                     ??EngineOff_EMSCheck_33:
   \   00000600   ........           LDR.W    R0,??DataTable50_10
   \   00000604   1121               MOVS     R1,#+17
   \   00000606   0170               STRB     R1,[R0, #+0]
    797          		    if(LOGWRITE & LOG_EMS_ENGINE)                       
   \   00000608   ........           LDR.W    R0,??DataTable51
   \   0000060C   0078               LDRB     R0,[R0, #+0]
   \   0000060E   C006               LSLS     R0,R0,#+27
   \   00000610   08D5               BPL.N    ??EngineOff_EMSCheck_34
    798          		    {
    799          			    sprintf((char*)Buffer,"ENGINE_OFF PARKING_BREAK CHECK \r\n "); 
   \   00000612   ........           LDR.W    R1,??DataTable51_1
   \   00000616   ....               LDR.N    R0,??DataTable49_4
   \   00000618   ........           BL       sprintf
    800          			    Write_Log(Buffer, NORMAL_LOG);
   \   0000061C   0121               MOVS     R1,#+1
   \   0000061E   ....               LDR.N    R0,??DataTable49_4
   \   00000620   ........           BL       Write_Log
    801          		    }
    802          		    // -----------------------------------------------------------------------------	
    803          		    EnginOffLimit_Time = MS_TIMER_1sec;
   \                     ??EngineOff_EMSCheck_34:
   \   00000624   ........           LDR.W    R0,??DataTable50_8
   \   00000628   ........           LDR.W    R1,??DataTable50_11
   \   0000062C   0988               LDRH     R1,[R1, #+0]
   \   0000062E   0180               STRH     R1,[R0, #+0]
    804          		    EnginOffLimit_Flag = 1;
   \   00000630   ........           LDR.W    R0,??DataTable50_7
   \   00000634   0121               MOVS     R1,#+1
   \   00000636   0170               STRB     R1,[R0, #+0]
    805          		    
    806          		    EnginOffActionFlag = 1;  // 공회전 모드
   \   00000638   ........           LDR.W    R0,??DataTable50_3
   \   0000063C   0121               MOVS     R1,#+1
   \   0000063E   0170               STRB     R1,[R0, #+0]
    807          		    EnginOffActionStep = 0 ;  // 공회전 정지 모드
   \   00000640   ........           LDR.W    R0,??DataTable51_2
   \   00000644   0021               MOVS     R1,#+0
   \   00000646   0170               STRB     R1,[R0, #+0]
    808          		    
    809          //		    First_Check = 0 ;
    810          		    Ref_OverDrive = 0;
   \   00000648   ........           LDR.W    R0,??DataTable51_3
   \   0000064C   0021               MOVS     R1,#+0
   \   0000064E   0170               STRB     R1,[R0, #+0]
   \   00000650   16E0               B.N      ??EngineOff_EMSCheck_35
    811                        
    812                    }
    813               }
    814               /*else if ( (INPUT_DATA & INPUT_BREAK_FLAG ) )    // 브레이크를 밟고 있는가?
    815               {
    816                    EMSOff_Check = 16;
    817                    if( Ref_OverDrive )     				// 일정이상 속도를 내고 이동 했을 경우 공회전정지
    818                    {
    819                         if( First_Check == 0)			// 처음 진입시에 속도를 체크 한다.
    820                         {
    821                              First_Check = 1 ;
    822                              EMSOff_Timer = MS_TIMER;
    823                         }
    824          		   EmsStopTime = SFLASH_Memory.EmsStopTime * 1000;
    825                         if(! CheckTimeOver ( EmsStopTime , EMSOff_Timer ) )		// 기준을 휴지하며 일정 시간 유지하는가?
    826                              return;
    827                         else
    828                         {
    829                              EMSOff_Check = 16;
    830                              // LOG -------------------------------------------------------------------------
    831                              // 로그 기록단위 500ms 
    832                              if(LOGWRITE & LOG_EMS_ENGINE)                       
    833                              {
    834                                   sprintf((char*)Buffer,"ENGINE_OFF  BREAK CHECK \r\n "); 
    835                                   Write_Log(Buffer, NORMAL_LOG);
    836                              }            
    837                              // -----------------------------------------------------------------------------	                    
    838          		    EnginOffLimit_Time = MS_TIMER_1sec;
    839          		    EnginOffLimit_Flag = 1;
    840                              EnginOffActionFlag = 1;  	// 공회전 정지 모드
    841                              EnginOffActionStep = 0 ;  	// 공회전 정지 시작 스텝
    842                              First_Check = 0 ;     	// 첫진입
    843                              Ref_OverDrive = 0;		// 기준이상 속도체크 초기화
    844                         }
    845                    }
    846               }*/
    847               else
    848               {
    849                    Info.EMS3Sec_Count = 3;
   \                     ??EngineOff_EMSCheck_31:
   \   00000652   ........           LDR.W    R0,??DataTable50_4
   \   00000656   0321               MOVS     R1,#+3
   \   00000658   80F86510           STRB     R1,[R0, #+101]
    850                    Info.EMS3Min_Count = 180;     
   \   0000065C   ........           LDR.W    R0,??DataTable50_4
   \   00000660   B421               MOVS     R1,#+180
   \   00000662   80F86610           STRB     R1,[R0, #+102]
    851                    EnginOffLimit_Time = MS_TIMER_1sec;              // 3 분 공회전 대기 Clear          
   \   00000666   ........           LDR.W    R0,??DataTable50_8
   \   0000066A   ........           LDR.W    R1,??DataTable50_11
   \   0000066E   0988               LDRH     R1,[R1, #+0]
   \   00000670   0180               STRH     R1,[R0, #+0]
    852                    EMSOff_Timer = MS_TIMER;
   \   00000672   ........           LDR.W    R0,??DataTable50_1  ;; 0x40000c00
   \   00000676   ........           BL       TIM_GetCounter
   \   0000067A   ........           LDR.W    R1,??DataTable50_9
   \   0000067E   0880               STRH     R0,[R1, #+0]
    853               }
    854          }
   \                     ??EngineOff_EMSCheck_35:
   \                     ??EngineOff_EMSCheck_18:
   \   00000680   01BD               POP      {R0,PC}          ;; return

   \                                 In section .bss, align 2
   \                     ??EMSOff_Timer:
   \   00000000                      DS8 2

   \                                 In section .bss, align 2
   \                     ??CheckEms_1:
   \   00000000                      DS8 2
    855          

   \                                 In section .text, align 2, keep-with-next
    856          void Relay_Off_Clear(void)
    857          {
   \                     Relay_Off_Clear:
   \   00000000   80B5               PUSH     {R7,LR}
    858               static u16 EMS_WATCH_Timer3=0;
    859               
    860               switch( EMS_Reley_Off )          // 릴레이 오프 진입
   \   00000002   ........           LDR.W    R0,??DataTable51_4
   \   00000006   0078               LDRB     R0,[R0, #+0]
   \   00000008   0128               CMP      R0,#+1
   \   0000000A   06D0               BEQ.N    ??Relay_Off_Clear_0
   \   0000000C   5AD3               BCC.N    ??Relay_Off_Clear_1
   \   0000000E   0328               CMP      R0,#+3
   \   00000010   26D0               BEQ.N    ??Relay_Off_Clear_2
   \   00000012   0ED3               BCC.N    ??Relay_Off_Clear_3
   \   00000014   0428               CMP      R0,#+4
   \   00000016   3AD0               BEQ.N    ??Relay_Off_Clear_4
   \   00000018   54E0               B.N      ??Relay_Off_Clear_1
    861               {
    862                    case 1:
    863                    {               
    864                         EMS_WATCH_Timer3 = MS_TIMER;
   \                     ??Relay_Off_Clear_0:
   \   0000001A   ........           LDR.W    R0,??DataTable50_1  ;; 0x40000c00
   \   0000001E   ........           BL       TIM_GetCounter
   \   00000022   ........           LDR.W    R1,??DataTable51_5
   \   00000026   0880               STRH     R0,[R1, #+0]
    865                         EMS_Reley_Off = 2;          
   \   00000028   ........           LDR.W    R0,??DataTable51_4
   \   0000002C   0221               MOVS     R1,#+2
   \   0000002E   0170               STRB     R1,[R0, #+0]
    866                    }break;
   \   00000030   4CE0               B.N      ??Relay_Off_Clear_5
    867                    case 2:       // 릴레이 오프 동작 중
    868                    {
    869                         if(!CheckTimeOver(3000, EMS_WATCH_Timer3))return;  //3000ms 후에 라이트 오프      
   \                     ??Relay_Off_Clear_3:
   \   00000032   ........           LDR.W    R0,??DataTable51_5
   \   00000036   0188               LDRH     R1,[R0, #+0]
   \   00000038   40F6B830           MOVW     R0,#+3000
   \   0000003C   ........           BL       CheckTimeOver
   \   00000040   0028               CMP      R0,#+0
   \   00000042   43D0               BEQ.N    ??Relay_Off_Clear_6
    870                         EMS_WATCH_Timer3 = MS_TIMER;
   \                     ??Relay_Off_Clear_7:
   \   00000044   ........           LDR.W    R0,??DataTable50_1  ;; 0x40000c00
   \   00000048   ........           BL       TIM_GetCounter
   \   0000004C   ........           LDR.W    R1,??DataTable51_5
   \   00000050   0880               STRH     R0,[R1, #+0]
    871                         RESET_LIGHT();
   \   00000052   ........           BL       RESET_LIGHT
    872                         EMS_Reley_Off = 3;
   \   00000056   ........           LDR.W    R0,??DataTable51_4
   \   0000005A   0321               MOVS     R1,#+3
   \   0000005C   0170               STRB     R1,[R0, #+0]
    873                         
    874                    }break;
   \   0000005E   35E0               B.N      ??Relay_Off_Clear_5
    875                    case 3:
    876                    {
    877                         if(!CheckTimeOver(1000, EMS_WATCH_Timer3))return;  //1000ms 후에 히터 오프 
   \                     ??Relay_Off_Clear_2:
   \   00000060   ........           LDR.W    R0,??DataTable51_5
   \   00000064   0188               LDRH     R1,[R0, #+0]
   \   00000066   4FF47A70           MOV      R0,#+1000
   \   0000006A   ........           BL       CheckTimeOver
   \   0000006E   0028               CMP      R0,#+0
   \   00000070   2CD0               BEQ.N    ??Relay_Off_Clear_6
    878                         EMS_WATCH_Timer3 = MS_TIMER;
   \                     ??Relay_Off_Clear_8:
   \   00000072   ........           LDR.W    R0,??DataTable50_1  ;; 0x40000c00
   \   00000076   ........           BL       TIM_GetCounter
   \   0000007A   ........           LDR.W    R1,??DataTable51_5
   \   0000007E   0880               STRH     R0,[R1, #+0]
    879                         RESET_HITER();
   \   00000080   ........           BL       RESET_HITER
    880                         EMS_Reley_Off = 4;          
   \   00000084   ........           LDR.W    R0,??DataTable51_4
   \   00000088   0421               MOVS     R1,#+4
   \   0000008A   0170               STRB     R1,[R0, #+0]
    881                    }break;
   \   0000008C   1EE0               B.N      ??Relay_Off_Clear_5
    882                    case 4:
    883                    {
    884                         if(!CheckTimeOver(1000, EMS_WATCH_Timer3))return;  //1000ms 후에 에어컨 오프       
   \                     ??Relay_Off_Clear_4:
   \   0000008E   ........           LDR.W    R0,??DataTable51_5
   \   00000092   0188               LDRH     R1,[R0, #+0]
   \   00000094   4FF47A70           MOV      R0,#+1000
   \   00000098   ........           BL       CheckTimeOver
   \   0000009C   0028               CMP      R0,#+0
   \   0000009E   15D0               BEQ.N    ??Relay_Off_Clear_6
    885                         EMS_WATCH_Timer3 = MS_TIMER;
   \                     ??Relay_Off_Clear_9:
   \   000000A0   ........           LDR.W    R0,??DataTable50_1  ;; 0x40000c00
   \   000000A4   ........           BL       TIM_GetCounter
   \   000000A8   ........           LDR.W    R1,??DataTable51_5
   \   000000AC   0880               STRH     R0,[R1, #+0]
    886                         RESET_AIRCON();
   \   000000AE   ........           BL       RESET_AIRCON
    887                         EMS_Reley_Off = 0;          
   \   000000B2   ........           LDR.W    R0,??DataTable51_4
   \   000000B6   0021               MOVS     R1,#+0
   \   000000B8   0170               STRB     R1,[R0, #+0]
    888                         EnginOff_Flag = 0;
   \   000000BA   ........           LDR.W    R0,??DataTable51_6
   \   000000BE   0021               MOVS     R1,#+0
   \   000000C0   0170               STRB     R1,[R0, #+0]
    889                    }break;
   \   000000C2   03E0               B.N      ??Relay_Off_Clear_5
    890                    default:
    891                    {
    892                         EMS_Reley_Off = 0;
   \                     ??Relay_Off_Clear_1:
   \   000000C4   ........           LDR.W    R0,??DataTable51_4
   \   000000C8   0021               MOVS     R1,#+0
   \   000000CA   0170               STRB     R1,[R0, #+0]
    893                    }          
    894                    break;
    895               }          
    896          }
   \                     ??Relay_Off_Clear_5:
   \                     ??Relay_Off_Clear_6:
   \   000000CC   01BD               POP      {R0,PC}          ;; return

   \                                 In section .bss, align 2
   \                     ??EMS_WATCH_Timer3:
   \   00000000                      DS8 2

   \                                 In section .text, align 2, keep-with-next
    897          void Emergency(void)
    898          {
   \                     Emergency:
   \   00000000   80B5               PUSH     {R7,LR}
    899               static u16 EMS_Emc_Timer;     
    900               static u8 Check = 0;
    901               if( Check == 0 )
   \   00000002   ........           LDR.W    R0,??DataTable51_7
   \   00000006   0078               LDRB     R0,[R0, #+0]
   \   00000008   0028               CMP      R0,#+0
   \   0000000A   0FD1               BNE.N    ??Emergency_0
    902               {
    903                    if( GET_ENGINE_ON() == 1)       // 엔진온 출력이 나가고 있다면 타이머 
   \   0000000C   ........           BL       GET_ENGINE_ON
   \   00000010   0128               CMP      R0,#+1
   \   00000012   22D1               BNE.N    ??Emergency_1
    904                    {
    905                         EMS_Emc_Timer = MS_TIMER;
   \   00000014   ........           LDR.W    R0,??DataTable50_1  ;; 0x40000c00
   \   00000018   ........           BL       TIM_GetCounter
   \   0000001C   ........           LDR.W    R1,??DataTable51_8
   \   00000020   0880               STRH     R0,[R1, #+0]
    906                         Check = 1;
   \   00000022   ........           LDR.W    R0,??DataTable51_7
   \   00000026   0121               MOVS     R1,#+1
   \   00000028   0170               STRB     R1,[R0, #+0]
   \   0000002A   16E0               B.N      ??Emergency_1
    907                    }
    908               }else          // 출력이 나가고 있다면 3초간 대기
    909               {
    910                    if(GET_ENGINE_ON() == 0)
   \                     ??Emergency_0:
   \   0000002C   ........           BL       GET_ENGINE_ON
   \   00000030   0028               CMP      R0,#+0
   \   00000032   03D1               BNE.N    ??Emergency_2
    911                    {
    912                         Check = 0;
   \   00000034   ........           LDR.W    R0,??DataTable51_7
   \   00000038   0021               MOVS     R1,#+0
   \   0000003A   0170               STRB     R1,[R0, #+0]
    913                    }
    914                    if(CheckTimeOver(5000, EMS_Emc_Timer))            // 3초간 출력이 나가고 있다면 강제 클리어
   \                     ??Emergency_2:
   \   0000003C   ........           LDR.W    R0,??DataTable51_8
   \   00000040   0188               LDRH     R1,[R0, #+0]
   \   00000042   41F28830           MOVW     R0,#+5000
   \   00000046   ........           BL       CheckTimeOver
   \   0000004A   0028               CMP      R0,#+0
   \   0000004C   05D0               BEQ.N    ??Emergency_1
    915                    {
    916                         RESET_ENGINE_ON();
   \   0000004E   ........           BL       RESET_ENGINE_ON
    917                         Check = 0;
   \   00000052   ........           LDR.W    R0,??DataTable51_7
   \   00000056   0021               MOVS     R1,#+0
   \   00000058   0170               STRB     R1,[R0, #+0]
    918                    }
    919               }          
    920          }
   \                     ??Emergency_1:
   \   0000005A   01BD               POP      {R0,PC}          ;; return

   \                                 In section .bss, align 2
   \                     ??EMS_Emc_Timer:
   \   00000000                      DS8 2

   \                                 In section .bss, align 1
   \                     ??Check:
   \   00000000                      DS8 1

   \                                 In section .text, align 2, keep-with-next
    921          void EMS_Watching(void)
    922          {
   \                     EMS_Watching:
   \   00000000   80B5               PUSH     {R7,LR}
    923               static u16 EMS_WATCH_Timer;
    924               static u16 EMS_WATCH_Timer2;          
    925               // 공회전 정지 중에 차량의 RPM과 스피드가 살아난다면 
    926               // Key로 시동을 온 한것으로 간주하고
    927               // 동작을 시켜준다.        
    928                  
    929               
    930               if(EnginOff_Flag == 1)   
   \   00000002   ........           LDR.W    R0,??DataTable51_6
   \   00000006   0078               LDRB     R0,[R0, #+0]
   \   00000008   0128               CMP      R0,#+1
   \   0000000A   48D1               BNE.N    ??EMS_Watching_0
    931               {
    932                    if(Info.RPM_Value > 500)    //rpm이 0이 될때 까지 기둘린다.                    
   \   0000000C   ........           LDR.W    R0,??DataTable50_4
   \   00000010   B0F83500           LDRH     R0,[R0, #+53]
   \   00000014   40F2F511           MOVW     R1,#+501
   \   00000018   8842               CMP      R0,R1
   \   0000001A   12D3               BCC.N    ??EMS_Watching_1
    933                    {
    934                         if(!CheckTimeOver(500, EMS_WATCH_Timer))return;  //500ms 간 유지할때 시동온으로 간주
   \   0000001C   ........           LDR.W    R0,??DataTable51_9
   \   00000020   0188               LDRH     R1,[R0, #+0]
   \   00000022   4FF4FA70           MOV      R0,#+500
   \   00000026   ........           BL       CheckTimeOver
   \   0000002A   0028               CMP      R0,#+0
   \   0000002C   00F08A80           BEQ.W    ??EMS_Watching_2
    935                         {
    936                              EMS_Reley_Off = 1;
   \                     ??EMS_Watching_3:
   \   00000030   ........           LDR.W    R0,??DataTable51_4
   \   00000034   0121               MOVS     R1,#+1
   \   00000036   0170               STRB     R1,[R0, #+0]
    937                              EnginOff_Flag = 0;
   \   00000038   ........           LDR.W    R0,??DataTable51_6
   \   0000003C   0021               MOVS     R1,#+0
   \   0000003E   0170               STRB     R1,[R0, #+0]
   \   00000040   1EE0               B.N      ??EMS_Watching_4
    938                         }
    939                    }
    940                    else if(Info.SPEED_Value > 10)
   \                     ??EMS_Watching_1:
   \   00000042   ........           LDR.W    R0,??DataTable50_4
   \   00000046   90F83400           LDRB     R0,[R0, #+52]
   \   0000004A   0B28               CMP      R0,#+11
   \   0000004C   11D3               BCC.N    ??EMS_Watching_5
    941                    {
    942                         if(!CheckTimeOver(500, EMS_WATCH_Timer))return;  //500ms 간 유지할때 시동온으로 간주                         
   \   0000004E   ........           LDR.W    R0,??DataTable51_9
   \   00000052   0188               LDRH     R1,[R0, #+0]
   \   00000054   4FF4FA70           MOV      R0,#+500
   \   00000058   ........           BL       CheckTimeOver
   \   0000005C   0028               CMP      R0,#+0
   \   0000005E   71D0               BEQ.N    ??EMS_Watching_2
    943                         {
    944                              EMS_Reley_Off = 1;  
   \                     ??EMS_Watching_6:
   \   00000060   ........           LDR.W    R0,??DataTable51_4
   \   00000064   0121               MOVS     R1,#+1
   \   00000066   0170               STRB     R1,[R0, #+0]
    945                              EnginOff_Flag = 0;
   \   00000068   ........           LDR.W    R0,??DataTable51_6
   \   0000006C   0021               MOVS     R1,#+0
   \   0000006E   0170               STRB     R1,[R0, #+0]
   \   00000070   06E0               B.N      ??EMS_Watching_4
    946                         }               
    947                    }else
    948                    {
    949                          EMS_WATCH_Timer = MS_TIMER;
   \                     ??EMS_Watching_5:
   \   00000072   ........           LDR.W    R0,??DataTable50_1  ;; 0x40000c00
   \   00000076   ........           BL       TIM_GetCounter
   \   0000007A   ........           LDR.W    R1,??DataTable51_9
   \   0000007E   0880               STRH     R0,[R1, #+0]
    950                    }          
    951                    if ( !( Info.Input_Status & INPUT_KEYON_FLAG ) )    //  키가 켜져있는가?
   \                     ??EMS_Watching_4:
   \   00000080   ........           LDR.W    R0,??DataTable50_4
   \   00000084   90F85D00           LDRB     R0,[R0, #+93]
   \   00000088   0006               LSLS     R0,R0,#+24
   \   0000008A   24D4               BMI.N    ??EMS_Watching_7
    952                    {
    953                         EMS_Reley_Off = 1;    
   \   0000008C   ........           LDR.W    R0,??DataTable51_4
   \   00000090   0121               MOVS     R1,#+1
   \   00000092   0170               STRB     R1,[R0, #+0]
    954                         EnginOff_Flag = 0;
   \   00000094   ........           LDR.W    R0,??DataTable51_6
   \   00000098   0021               MOVS     R1,#+0
   \   0000009A   0170               STRB     R1,[R0, #+0]
   \   0000009C   1BE0               B.N      ??EMS_Watching_7
    955                    }          
    956               }     
    957               else           // 공회전 정지 중이 아닐때 30km(조정가능)이상 되었을때 정지조건에 추가한다.
    958               {
    959                    if( Info.SPEED_Value > SFLASH_Memory.EMS.LimitSpeed)
   \                     ??EMS_Watching_0:
   \   0000009E   ....               LDR.N    R0,??DataTable50_5
   \   000000A0   90F89300           LDRB     R0,[R0, #+147]
   \   000000A4   ....               LDR.N    R1,??DataTable50_4
   \   000000A6   91F83410           LDRB     R1,[R1, #+52]
   \   000000AA   8842               CMP      R0,R1
   \   000000AC   0DD2               BCS.N    ??EMS_Watching_8
    960                    {          
    961                         if(!CheckTimeOver(2000, EMS_WATCH_Timer))return;  // 2000ms 간 유지했을 경우 기준이상속도 체크
   \   000000AE   ........           LDR.W    R0,??DataTable51_9
   \   000000B2   0188               LDRH     R1,[R0, #+0]
   \   000000B4   4FF4FA60           MOV      R0,#+2000
   \   000000B8   ........           BL       CheckTimeOver
   \   000000BC   0028               CMP      R0,#+0
   \   000000BE   41D0               BEQ.N    ??EMS_Watching_2
    962                         {
    963                              Ref_OverDrive = 1;                           // 오버 플래그 셋
   \                     ??EMS_Watching_9:
   \   000000C0   ........           LDR.W    R0,??DataTable51_3
   \   000000C4   0121               MOVS     R1,#+1
   \   000000C6   0170               STRB     R1,[R0, #+0]
   \   000000C8   05E0               B.N      ??EMS_Watching_7
    964                         }               
    965                    }else
    966                    {
    967                         EMS_WATCH_Timer = MS_TIMER;
   \                     ??EMS_Watching_8:
   \   000000CA   ....               LDR.N    R0,??DataTable50_1  ;; 0x40000c00
   \   000000CC   ........           BL       TIM_GetCounter
   \   000000D0   ........           LDR.W    R1,??DataTable51_9
   \   000000D4   0880               STRH     R0,[R1, #+0]
    968                    }       
    969               }
    970               
    971               if ( !(Info.Input_Status & INPUT_PARKING_BREAK_FLAG ))
   \                     ??EMS_Watching_7:
   \   000000D6   ....               LDR.N    R0,??DataTable50_4
   \   000000D8   90F85D00           LDRB     R0,[R0, #+93]
   \   000000DC   4007               LSLS     R0,R0,#+29
   \   000000DE   0BD4               BMI.N    ??EMS_Watching_10
    972                    if( Info.SPEED_Value > 1 )	// 1km 이상 속도가
   \   000000E0   ....               LDR.N    R0,??DataTable50_4
   \   000000E2   90F83400           LDRB     R0,[R0, #+52]
   \   000000E6   0228               CMP      R0,#+2
   \   000000E8   06D3               BCC.N    ??EMS_Watching_10
    973                         if( Flag.RPM1Min == 0 )  // RPM이 나타난지 1초 이후라면
   \   000000EA   ....               LDR.N    R0,??DataTable50_6
   \   000000EC   8079               LDRB     R0,[R0, #+6]
   \   000000EE   0028               CMP      R0,#+0
   \   000000F0   02D1               BNE.N    ??EMS_Watching_10
    974                              EnginOffLimit_Flag = 0;       // 3초
   \   000000F2   ....               LDR.N    R0,??DataTable50_7
   \   000000F4   0021               MOVS     R1,#+0
   \   000000F6   0170               STRB     R1,[R0, #+0]
    975               
    976               if(!CheckTimeOver(1000, EMS_WATCH_Timer2))return;  //1000ms 에 한번씩 EMS를 동작 스텝을 기록한다..                  
   \                     ??EMS_Watching_10:
   \   000000F8   ........           LDR.W    R0,??DataTable51_10
   \   000000FC   0188               LDRH     R1,[R0, #+0]
   \   000000FE   4FF47A70           MOV      R0,#+1000
   \   00000102   ........           BL       CheckTimeOver
   \   00000106   0028               CMP      R0,#+0
   \   00000108   1CD0               BEQ.N    ??EMS_Watching_2
    977               
    978               EMS_WATCH_Timer2 = MS_TIMER;
   \                     ??EMS_Watching_11:
   \   0000010A   ....               LDR.N    R0,??DataTable50_1  ;; 0x40000c00
   \   0000010C   ........           BL       TIM_GetCounter
   \   00000110   ........           LDR.W    R1,??DataTable51_10
   \   00000114   0880               STRH     R0,[R1, #+0]
    979               
    980               // LOG -------------------------------------------------------------------------
    981               // 로그 기록단위 500ms 
    982               if(LOGWRITE & LOG_EMS_ENGINE)                       
   \   00000116   ........           LDR.W    R0,??DataTable51
   \   0000011A   0078               LDRB     R0,[R0, #+0]
   \   0000011C   C006               LSLS     R0,R0,#+27
   \   0000011E   11D5               BPL.N    ??EMS_Watching_12
    983               {
    984                    sprintf((char*)Buffer,"EMS Check-%d / %d [%04x] \r\n ",EMSOn_Check,EMSOff_Check,INPUT_DATA); 
   \   00000120   ........           LDR.W    R0,??DataTable51_11
   \   00000124   0090               STR      R0,[SP, #+0]
   \   00000126   ....               LDR.N    R0,??DataTable50_10
   \   00000128   0378               LDRB     R3,[R0, #+0]
   \   0000012A   ....               LDR.N    R0,??DataTable49_2
   \   0000012C   0278               LDRB     R2,[R0, #+0]
   \   0000012E   ........           ADR.W    R1,`?<Constant "EMS Check-%d / %d [%0...">`
   \   00000132   ........           LDR.W    R0,??DataTable51_12
   \   00000136   ........           BL       sprintf
    985                    Write_Log(Buffer, NORMAL_LOG);
   \   0000013A   0121               MOVS     R1,#+1
   \   0000013C   ........           LDR.W    R0,??DataTable51_12
   \   00000140   ........           BL       Write_Log
    986          
    987               }            
    988               // -----------------------------------------------------------------------------	      
    989          
    990          }
   \                     ??EMS_Watching_12:
   \                     ??EMS_Watching_2:
   \   00000144   01BD               POP      {R0,PC}          ;; return

   \                                 In section .bss, align 2
   \                     ??EMS_WATCH_Timer:
   \   00000000                      DS8 2

   \                                 In section .bss, align 2
   \                     ??EMS_WATCH_Timer2:
   \   00000000                      DS8 2

   \                                 In section .text, align 2, keep-with-next
    991          void EngineOn_Action(void)
    992          {
   \                     EngineOn_Action:
   \   00000000   80B5               PUSH     {R7,LR}
    993               static u16 EngineOn_Timer1 = 0;
    994               static u16 EngineOn_Timer2 = 0;     
    995               
    996               static u16 EngineOn_Fail_Timer = 0;
    997               
    998               static u8 EMS_Replay_FailCount = 0;
    999               
   1000               if(!EnginOnActionFlag)
   \   00000002   ........           LDR.W    R0,??DataTable51_13
   \   00000006   0078               LDRB     R0,[R0, #+0]
   \   00000008   0028               CMP      R0,#+0
   \   0000000A   04D1               BNE.N    ??EngineOn_Action_0
   1001               {
   1002                    EnginOnActionStep = 0;
   \   0000000C   ........           LDR.W    R0,??DataTable51_14
   \   00000010   0021               MOVS     R1,#+0
   \   00000012   0170               STRB     R1,[R0, #+0]
   1003                    return;	
   \   00000014   25E1               B.N      ??EngineOn_Action_1
   1004               }     
   1005               
   1006               switch(EnginOnActionStep)
   \                     ??EngineOn_Action_0:
   \   00000016   ........           LDR.W    R0,??DataTable51_14
   \   0000001A   0078               LDRB     R0,[R0, #+0]
   \   0000001C   0028               CMP      R0,#+0
   \   0000001E   07D0               BEQ.N    ??EngineOn_Action_2
   \   00000020   0228               CMP      R0,#+2
   \   00000022   4FD0               BEQ.N    ??EngineOn_Action_3
   \   00000024   2ED3               BCC.N    ??EngineOn_Action_4
   \   00000026   0428               CMP      R0,#+4
   \   00000028   00F0E480           BEQ.W    ??EngineOn_Action_5
   \   0000002C   5FD3               BCC.N    ??EngineOn_Action_6
   \   0000002E   0AE1               B.N      ??EngineOn_Action_7
   1007               {
   1008                 case 0x00:
   1009                    {
   1010                         
   1011                         if(!CheckTimeOver(50, EngineOn_Timer1))break;  //50ms 간 유지한다.              
   \                     ??EngineOn_Action_2:
   \   00000030   ........           LDR.W    R0,??DataTable51_15
   \   00000034   0188               LDRH     R1,[R0, #+0]
   \   00000036   3220               MOVS     R0,#+50
   \   00000038   ........           BL       CheckTimeOver
   \   0000003C   0028               CMP      R0,#+0
   \   0000003E   00F01081           BEQ.W    ??EngineOn_Action_8
   1012                         EngineOn_Timer1 = MS_TIMER;         
   \                     ??EngineOn_Action_9:
   \   00000042   ....               LDR.N    R0,??DataTable50_1  ;; 0x40000c00
   \   00000044   ........           BL       TIM_GetCounter
   \   00000048   ........           LDR.W    R1,??DataTable51_15
   \   0000004C   0880               STRH     R0,[R1, #+0]
   1013          		   
   1014                         //Info.Battery_Volt = Info.Battery_Volt; //25;//BATTERY_Value;
   1015                         // LOG -------------------------------------------------------------------------
   1016                         // 로그 기록단위 500ms 
   1017                         if(LOGWRITE & LOG_EMS_ENGINE)                       
   \   0000004E   ........           LDR.W    R0,??DataTable51
   \   00000052   0078               LDRB     R0,[R0, #+0]
   \   00000054   C006               LSLS     R0,R0,#+27
   \   00000056   10D5               BPL.N    ??EngineOn_Action_10
   1018                         {
   1019                              sprintf((char*)Buffer,"ENGINE_ON %d step, Battery=%d \r\n ",EnginOnActionStep,Info.EMS_Data.Battery_Volt); 
   \   00000058   ....               LDR.N    R0,??DataTable50_4
   \   0000005A   B0F84930           LDRH     R3,[R0, #+73]
   \   0000005E   ........           LDR.W    R0,??DataTable51_14
   \   00000062   0278               LDRB     R2,[R0, #+0]
   \   00000064   ........           ADR.W    R1,`?<Constant "ENGINE_ON %d step, Ba...">`
   \   00000068   ........           LDR.W    R0,??DataTable51_12
   \   0000006C   ........           BL       sprintf
   1020                              Write_Log(Buffer, NORMAL_LOG);
   \   00000070   0121               MOVS     R1,#+1
   \   00000072   ........           LDR.W    R0,??DataTable51_12
   \   00000076   ........           BL       Write_Log
   1021                         }            
   1022                         // -----------------------------------------------------------------------------	
   1023          
   1024                         EnginOnActionStep = 1;
   \                     ??EngineOn_Action_10:
   \   0000007A   ........           LDR.W    R0,??DataTable51_14
   \   0000007E   0121               MOVS     R1,#+1
   \   00000080   0170               STRB     R1,[R0, #+0]
   1025          
   1026                    }break;
   \   00000082   EEE0               B.N      ??EngineOn_Action_8
   1027                 case 0x01:
   1028                    {               
   1029                    //     EmsOutClear();    // 전출력 오프
   1030                         SET_ENGINE_ON();    // 엔진 온
   \                     ??EngineOn_Action_4:
   \   00000084   ........           BL       SET_ENGINE_ON
   1031                         EngineOn_Timer1 = MS_TIMER;               
   \   00000088   ....               LDR.N    R0,??DataTable50_1  ;; 0x40000c00
   \   0000008A   ........           BL       TIM_GetCounter
   \   0000008E   ........           LDR.W    R1,??DataTable51_15
   \   00000092   0880               STRH     R0,[R1, #+0]
   1032                         // LOG -------------------------------------------------------------------------
   1033                         // 로그 기록단위 500ms 
   1034                         if(LOGWRITE & LOG_EMS_ENGINE)                       
   \   00000094   ........           LDR.W    R0,??DataTable51
   \   00000098   0078               LDRB     R0,[R0, #+0]
   \   0000009A   C006               LSLS     R0,R0,#+27
   \   0000009C   0DD5               BPL.N    ??EngineOn_Action_11
   1035                         {
   1036                              sprintf((char*)Buffer,"ENGINE_ON %d step\r\n ",EnginOnActionStep); 
   \   0000009E   ........           LDR.W    R0,??DataTable51_14
   \   000000A2   0278               LDRB     R2,[R0, #+0]
   \   000000A4   ........           ADR.W    R1,`?<Constant "ENGINE_ON %d step\\r\\n ">`
   \   000000A8   ........           LDR.W    R0,??DataTable51_12
   \   000000AC   ........           BL       sprintf
   1037                              Write_Log(Buffer, NORMAL_LOG);
   \   000000B0   0121               MOVS     R1,#+1
   \   000000B2   ........           LDR.W    R0,??DataTable51_12
   \   000000B6   ........           BL       Write_Log
   1038                         }            
   1039                         // -----------------------------------------------------------------------------	               
   1040                         EnginOnActionStep = 2;
   \                     ??EngineOn_Action_11:
   \   000000BA   ........           LDR.W    R0,??DataTable51_14
   \   000000BE   0221               MOVS     R1,#+2
   \   000000C0   0170               STRB     R1,[R0, #+0]
   1041                         
   1042                    }break;
   \   000000C2   CEE0               B.N      ??EngineOn_Action_8
   1043                 case 0x02:
   1044                    {
   1045                         // 0.5초 이내에 발생되는 신호는 노이즈로 간주한다.
   1046                         if(!CheckTimeOver(500, EngineOn_Timer1))    // 0.5초안 시동이 켜지기를 기다린다.
   \                     ??EngineOn_Action_3:
   \   000000C4   ........           LDR.W    R0,??DataTable51_15
   \   000000C8   0188               LDRH     R1,[R0, #+0]
   \   000000CA   4FF4FA70           MOV      R0,#+500
   \   000000CE   ........           BL       CheckTimeOver
   \   000000D2   0028               CMP      R0,#+0
   \   000000D4   00F0C580           BEQ.W    ??EngineOn_Action_1
   1047                         { 
   1048                              return;
   1049                         } 
   1050                         else
   1051                         {
   1052                              EngineOn_Timer1 = MS_TIMER;
   \                     ??EngineOn_Action_12:
   \   000000D8   ....               LDR.N    R0,??DataTable50_1  ;; 0x40000c00
   \   000000DA   ........           BL       TIM_GetCounter
   \   000000DE   ........           LDR.W    R1,??DataTable51_15
   \   000000E2   0880               STRH     R0,[R1, #+0]
   1053                              EnginOnActionStep = 3;
   \   000000E4   ........           LDR.W    R0,??DataTable51_14
   \   000000E8   0321               MOVS     R1,#+3
   \   000000EA   0170               STRB     R1,[R0, #+0]
   1054                         }
   1055                    }break;
   \   000000EC   B9E0               B.N      ??EngineOn_Action_8
   1056               case 0x03:
   1057                    {
   1058                         if(!CheckTimeOver(2500, EngineOn_Timer1))    // 2.5초안 시동이 켜지기를 기다린다.
   \                     ??EngineOn_Action_6:
   \   000000EE   ........           LDR.W    R0,??DataTable51_15
   \   000000F2   0188               LDRH     R1,[R0, #+0]
   \   000000F4   40F6C410           MOVW     R0,#+2500
   \   000000F8   ........           BL       CheckTimeOver
   \   000000FC   0028               CMP      R0,#+0
   \   000000FE   33D1               BNE.N    ??EngineOn_Action_13
   1059                         {
   1060                              if(Info.RPM_Value > 400)    //rpm이 0이 될때 까지 기둘린다.                    
   \   00000100   ....               LDR.N    R0,??DataTable50_4
   \   00000102   B0F83500           LDRH     R0,[R0, #+53]
   \   00000106   40F29111           MOVW     R1,#+401
   \   0000010A   8842               CMP      R0,R1
   \   0000010C   25D3               BCC.N    ??EngineOn_Action_14
   1061                              {
   1062                                                     
   1063                                   if(!CheckTimeOver(100, EngineOn_Timer2))break;  //     100ms 간 유지하면 시동 온으로 인정한다.
   \   0000010E   ........           LDR.W    R0,??DataTable51_16
   \   00000112   0188               LDRH     R1,[R0, #+0]
   \   00000114   6420               MOVS     R0,#+100
   \   00000116   ........           BL       CheckTimeOver
   \   0000011A   0028               CMP      R0,#+0
   \   0000011C   00F0A180           BEQ.W    ??EngineOn_Action_8
   1064                                   {
   1065                                        RESET_ENGINE_ON();    // 엔진 온                              
   \                     ??EngineOn_Action_15:
   \   00000120   ........           BL       RESET_ENGINE_ON
   1066                                        // LOG -------------------------------------------------------------------------
   1067                                        // 로그  
   1068                                        if(LOGWRITE & LOG_EMS_ENGINE)                       
   \   00000124   ........           LDR.W    R0,??DataTable51
   \   00000128   0078               LDRB     R0,[R0, #+0]
   \   0000012A   C006               LSLS     R0,R0,#+27
   \   0000012C   10D5               BPL.N    ??EngineOn_Action_16
   1069                                        {
   1070                                             sprintf((char*)Buffer,"ENGINE_ON %d step %d rpm \r\n ",EnginOnActionStep,Info.RPM_Value);
   \   0000012E   ....               LDR.N    R0,??DataTable50_4
   \   00000130   B0F83530           LDRH     R3,[R0, #+53]
   \   00000134   ........           LDR.W    R0,??DataTable51_14
   \   00000138   0278               LDRB     R2,[R0, #+0]
   \   0000013A   ........           ADR.W    R1,`?<Constant "ENGINE_ON %d step %d ...">`
   \   0000013E   ........           LDR.W    R0,??DataTable51_12
   \   00000142   ........           BL       sprintf
   1071                                             Write_Log(Buffer, NORMAL_LOG);
   \   00000146   0121               MOVS     R1,#+1
   \   00000148   ........           LDR.W    R0,??DataTable51_12
   \   0000014C   ........           BL       Write_Log
   1072                                        }            
   1073                                        // -----------------------------------------------------------------------------	                              
   1074                                        EnginOnActionStep = 4;
   \                     ??EngineOn_Action_16:
   \   00000150   ........           LDR.W    R0,??DataTable51_14
   \   00000154   0421               MOVS     R1,#+4
   \   00000156   0170               STRB     R1,[R0, #+0]
   \   00000158   4BE0               B.N      ??EngineOn_Action_17
   1075                                   }                        
   1076                              }
   1077                              else
   1078                              {
   1079                                   EngineOn_Timer2 = MS_TIMER;
   \                     ??EngineOn_Action_14:
   \   0000015A   ....               LDR.N    R0,??DataTable50_1  ;; 0x40000c00
   \   0000015C   ........           BL       TIM_GetCounter
   \   00000160   ........           LDR.W    R1,??DataTable51_16
   \   00000164   0880               STRH     R0,[R1, #+0]
   \   00000166   44E0               B.N      ??EngineOn_Action_17
   1080                              }
   1081                         }
   1082                         else   // 재시동 실패 
   1083                         {
   1084                         // LOG -------------------------------------------------------------------------
   1085                         // 로그   
   1086                              if(LOGWRITE & LOG_EMS_ENGINE)
   \                     ??EngineOn_Action_13:
   \   00000168   ........           LDR.W    R0,??DataTable51
   \   0000016C   0078               LDRB     R0,[R0, #+0]
   \   0000016E   C006               LSLS     R0,R0,#+27
   \   00000170   0DD5               BPL.N    ??EngineOn_Action_18
   1087                              {
   1088                                   sprintf((char*)Buffer,"ENGINE_ON FAIL %d step\r\n ",EnginOnActionStep); 
   \   00000172   ........           LDR.W    R0,??DataTable51_14
   \   00000176   0278               LDRB     R2,[R0, #+0]
   \   00000178   ........           ADR.W    R1,`?<Constant "ENGINE_ON FAIL %d ste...">`
   \   0000017C   ........           LDR.W    R0,??DataTable51_12
   \   00000180   ........           BL       sprintf
   1089                                   Write_Log(Buffer, FAIL_LOG);
   \   00000184   0221               MOVS     R1,#+2
   \   00000186   ........           LDR.W    R0,??DataTable51_12
   \   0000018A   ........           BL       Write_Log
   1090                              }            
   1091                         // -----------------------------------------------------------------------------	                    
   1092                              RESET_ENGINE_ON();
   \                     ??EngineOn_Action_18:
   \   0000018E   ........           BL       RESET_ENGINE_ON
   1093                              
   1094                              if(EMS_Replay_FailCount == 0)           // 스타트 실패시부터 1분 타이머 설정
   \   00000192   ........           LDR.W    R0,??DataTable51_17
   \   00000196   0078               LDRB     R0,[R0, #+0]
   \   00000198   0028               CMP      R0,#+0
   \   0000019A   0CD1               BNE.N    ??EngineOn_Action_19
   1095                              {
   1096                                   EngineOn_Fail_Timer = MS_TIMER_1sec;
   \   0000019C   ........           LDR.W    R0,??DataTable51_18
   \   000001A0   ....               LDR.N    R1,??DataTable50_11
   \   000001A2   0988               LDRH     R1,[R1, #+0]
   \   000001A4   0180               STRH     R1,[R0, #+0]
   1097                                   EMS_Replay_FailCount ++;
   \   000001A6   ........           LDR.W    R0,??DataTable51_17
   \   000001AA   0078               LDRB     R0,[R0, #+0]
   \   000001AC   401C               ADDS     R0,R0,#+1
   \   000001AE   ........           LDR.W    R1,??DataTable51_17
   \   000001B2   0870               STRB     R0,[R1, #+0]
   \   000001B4   0FE0               B.N      ??EngineOn_Action_20
   1098                              }          
   1099                              else if( !CheckTimeOver1Sec ( 60 , EngineOn_Fail_Timer ) ) // 1분이내에 스타트 실패시 재시동금지
   \                     ??EngineOn_Action_19:
   \   000001B6   ........           LDR.W    R0,??DataTable51_18
   \   000001BA   0188               LDRH     R1,[R0, #+0]
   \   000001BC   3C20               MOVS     R0,#+60
   \   000001BE   ........           BL       CheckTimeOver1Sec
   \   000001C2   0028               CMP      R0,#+0
   \   000001C4   07D1               BNE.N    ??EngineOn_Action_20
   1100                              {
   1101                                   EngineOn_Fail_Timer = 0;
   \   000001C6   ........           LDR.W    R0,??DataTable51_18
   \   000001CA   0021               MOVS     R1,#+0
   \   000001CC   0180               STRH     R1,[R0, #+0]
   1102                                   EMS_Replay_Flag = 1;               // 1분간 재시도 2회실패 플래그 셋
   \   000001CE   ........           LDR.W    R0,??DataTable51_19
   \   000001D2   0121               MOVS     R1,#+1
   \   000001D4   0170               STRB     R1,[R0, #+0]
   1103                              }
   1104                              
   1105                              EnginOnLimit_Time = MS_TIMER;
   \                     ??EngineOn_Action_20:
   \   000001D6   ....               LDR.N    R0,??DataTable50_1  ;; 0x40000c00
   \   000001D8   ........           BL       TIM_GetCounter
   \   000001DC   ........           LDR.W    R1,??DataTable51_20
   \   000001E0   0880               STRH     R0,[R1, #+0]
   1106                              EnginOnActionStep = 0;                                        
   \   000001E2   ........           LDR.W    R0,??DataTable51_14
   \   000001E6   0021               MOVS     R1,#+0
   \   000001E8   0170               STRB     R1,[R0, #+0]
   1107                              EnginOnActionFlag = 0 ;
   \   000001EA   ........           LDR.W    R0,??DataTable51_13
   \   000001EE   0021               MOVS     R1,#+0
   \   000001F0   0170               STRB     R1,[R0, #+0]
   1108                         }
   1109                    }break;
   \                     ??EngineOn_Action_17:
   \   000001F2   36E0               B.N      ??EngineOn_Action_8
   1110                 case 0x04:                       // 시동온 동작 시작
   1111                    {
   1112                         EMS_Reley_Off = 1 ;      // 릴레이 동작 플래그
   \                     ??EngineOn_Action_5:
   \   000001F4   ........           LDR.W    R0,??DataTable51_4
   \   000001F8   0121               MOVS     R1,#+1
   \   000001FA   0170               STRB     R1,[R0, #+0]
   1113          
   1114                         EnginOnLimit_Time = MS_TIMER;
   \   000001FC   ....               LDR.N    R0,??DataTable50_1  ;; 0x40000c00
   \   000001FE   ........           BL       TIM_GetCounter
   \   00000202   ........           LDR.W    R1,??DataTable51_20
   \   00000206   0880               STRH     R0,[R1, #+0]
   1115                         EnginOffLimit_Time = MS_TIMER_1sec;
   \   00000208   ....               LDR.N    R0,??DataTable50_8
   \   0000020A   ....               LDR.N    R1,??DataTable50_11
   \   0000020C   0988               LDRH     R1,[R1, #+0]
   \   0000020E   0180               STRH     R1,[R0, #+0]
   1116                         EnginOffLimit_Flag = 1;
   \   00000210   ....               LDR.N    R0,??DataTable50_7
   \   00000212   0121               MOVS     R1,#+1
   \   00000214   0170               STRB     R1,[R0, #+0]
   1117                         EnginOnActionStep = 0;                                        
   \   00000216   ........           LDR.W    R0,??DataTable51_14
   \   0000021A   0021               MOVS     R1,#+0
   \   0000021C   0170               STRB     R1,[R0, #+0]
   1118                         EnginOnActionFlag = 0 ;
   \   0000021E   ........           LDR.W    R0,??DataTable51_13
   \   00000222   0021               MOVS     R1,#+0
   \   00000224   0170               STRB     R1,[R0, #+0]
   1119                         EnginOff_Flag = 0;   
   \   00000226   ........           LDR.W    R0,??DataTable51_6
   \   0000022A   0021               MOVS     R1,#+0
   \   0000022C   0170               STRB     R1,[R0, #+0]
   1120                         
   1121                         EngineOn_Fail_Timer = 0;
   \   0000022E   ........           LDR.W    R0,??DataTable51_18
   \   00000232   0021               MOVS     R1,#+0
   \   00000234   0180               STRH     R1,[R0, #+0]
   1122                         EMS_Replay_Flag = 0;     // 공회전 1분간 2 실패체크 플래그 클리어
   \   00000236   ........           LDR.W    R0,??DataTable51_19
   \   0000023A   0021               MOVS     R1,#+0
   \   0000023C   0170               STRB     R1,[R0, #+0]
   1123                         EMS_Replay_FailCount = 0;               
   \   0000023E   ........           LDR.W    R0,??DataTable51_17
   \   00000242   0021               MOVS     R1,#+0
   \   00000244   0170               STRB     R1,[R0, #+0]
   1124                    }
   1125                    
   1126                 default:
   1127                    {
   1128                         EnginOnLimit_Time = MS_TIMER;
   \                     ??EngineOn_Action_7:
   \   00000246   ....               LDR.N    R0,??DataTable50_1  ;; 0x40000c00
   \   00000248   ........           BL       TIM_GetCounter
   \   0000024C   ........           LDR.W    R1,??DataTable51_20
   \   00000250   0880               STRH     R0,[R1, #+0]
   1129                         EnginOnActionStep = 0;                                        
   \   00000252   ........           LDR.W    R0,??DataTable51_14
   \   00000256   0021               MOVS     R1,#+0
   \   00000258   0170               STRB     R1,[R0, #+0]
   1130                         EnginOnActionFlag = 0 ;               
   \   0000025A   ........           LDR.W    R0,??DataTable51_13
   \   0000025E   0021               MOVS     R1,#+0
   \   00000260   0170               STRB     R1,[R0, #+0]
   1131                    }break;
   1132               }          
   1133          }
   \                     ??EngineOn_Action_8:
   \                     ??EngineOn_Action_1:
   \   00000262   01BD               POP      {R0,PC}          ;; return

   \                                 In section .bss, align 2
   \                     ??EngineOn_Timer1:
   \   00000000                      DS8 2

   \                                 In section .bss, align 2
   \                     ??EngineOn_Timer2:
   \   00000000                      DS8 2

   \                                 In section .bss, align 2
   \                     ??EngineOn_Fail_Timer:
   \   00000000                      DS8 2

   \                                 In section .bss, align 1
   \                     ??EMS_Replay_FailCount:
   \   00000000                      DS8 1

   \                                 In section .text, align 2, keep-with-next
   1134          void EngineOff_Action(void)
   1135          {
   \                     EngineOff_Action:
   \   00000000   80B5               PUSH     {R7,LR}
   1136               static u16 EngineOff_Timer1 = 0;
   1137               static u16 EngineOff_Timer2 = 0;     
   1138               if(!EnginOffActionFlag)
   \   00000002   ....               LDR.N    R0,??DataTable51_21
   \   00000004   0078               LDRB     R0,[R0, #+0]
   \   00000006   0028               CMP      R0,#+0
   \   00000008   03D1               BNE.N    ??EngineOff_Action_0
   1139               {          
   1140                    EnginOffActionStep = 0;    
   \   0000000A   ....               LDR.N    R0,??DataTable51_2
   \   0000000C   0021               MOVS     R1,#+0
   \   0000000E   0170               STRB     R1,[R0, #+0]
   1141                    return;
   \   00000010   34E1               B.N      ??EngineOff_Action_1
   1142               }
   1143          	
   1144               switch(EnginOffActionStep)
   \                     ??EngineOff_Action_0:
   \   00000012   ....               LDR.N    R0,??DataTable51_2
   \   00000014   0078               LDRB     R0,[R0, #+0]
   \   00000016   0028               CMP      R0,#+0
   \   00000018   0DD0               BEQ.N    ??EngineOff_Action_2
   \   0000001A   0228               CMP      R0,#+2
   \   0000001C   7AD0               BEQ.N    ??EngineOff_Action_3
   \   0000001E   2BD3               BCC.N    ??EngineOff_Action_4
   \   00000020   0428               CMP      R0,#+4
   \   00000022   00F0B480           BEQ.W    ??EngineOff_Action_5
   \   00000026   C0F08F80           BCC.W    ??EngineOff_Action_6
   \   0000002A   0628               CMP      R0,#+6
   \   0000002C   00F0F380           BEQ.W    ??EngineOff_Action_7
   \   00000030   C0F0CF80           BCC.W    ??EngineOff_Action_8
   \   00000034   10E1               B.N      ??EngineOff_Action_9
   1145               {
   1146          	case 0x00 : 
   1147                     
   1148                     // LOG -------------------------------------------------------------------------
   1149                     // 로그 기록단위 500ms 
   1150                     if(LOGWRITE & LOG_EMS_ENGINE)                       
   \                     ??EngineOff_Action_2:
   \   00000036   ....               LDR.N    R0,??DataTable51
   \   00000038   0078               LDRB     R0,[R0, #+0]
   \   0000003A   C006               LSLS     R0,R0,#+27
   \   0000003C   0AD5               BPL.N    ??EngineOff_Action_10
   1151                    {
   1152                         sprintf((char*)Buffer,"ENGINE_OFF %d step\r\n ",EnginOffActionStep); 
   \   0000003E   ....               LDR.N    R0,??DataTable51_2
   \   00000040   0278               LDRB     R2,[R0, #+0]
   \   00000042   ........           ADR.W    R1,`?<Constant "ENGINE_OFF %d step\\r\\n ">`
   \   00000046   ....               LDR.N    R0,??DataTable51_12
   \   00000048   ........           BL       sprintf
   1153                         Write_Log(Buffer, NORMAL_LOG);
   \   0000004C   0121               MOVS     R1,#+1
   \   0000004E   ....               LDR.N    R0,??DataTable51_12
   \   00000050   ........           BL       Write_Log
   1154                    }            
   1155                    // -----------------------------------------------------------------------------	
   1156                    EmsOutClear();    // 전출력 오프  
   \                     ??EngineOff_Action_10:
   \   00000054   ........           BL       EmsOutClear
   1157                    SET_ENGINE_OFF();    // 엔진 온
   \   00000058   ........           BL       SET_ENGINE_OFF
   1158                    EnginOffActionStep = 1;   // 다음 스템
   \   0000005C   ....               LDR.N    R0,??DataTable51_2
   \   0000005E   0121               MOVS     R1,#+1
   \   00000060   0170               STRB     R1,[R0, #+0]
   1159                    EngineOff_Timer1 = MS_TIMER;    // 100ms 간격을 읽기
   \   00000062   ....               LDR.N    R0,??DataTable51_22  ;; 0x40000c00
   \   00000064   ........           BL       TIM_GetCounter
   \   00000068   ....               LDR.N    R1,??DataTable51_23
   \   0000006A   0880               STRH     R0,[R1, #+0]
   1160                    EngineOff_Timer2 = MS_TIMER;    // 10초간 대기
   \   0000006C   ....               LDR.N    R0,??DataTable51_22  ;; 0x40000c00
   \   0000006E   ........           BL       TIM_GetCounter
   \   00000072   ....               LDR.N    R1,??DataTable51_24
   \   00000074   0880               STRH     R0,[R1, #+0]
   1161                    break;
   \   00000076   01E1               B.N      ??EngineOff_Action_11
   1162          		
   1163          	case 0x01 : 
   1164                     {
   1165                          
   1166          		if(Info.RPM_Value == 0)    //rpm이 0이 될때 까지 기둘린다.
   \                     ??EngineOff_Action_4:
   \   00000078   ....               LDR.N    R0,??DataTable51_25
   \   0000007A   B0F83500           LDRH     R0,[R0, #+53]
   \   0000007E   0028               CMP      R0,#+0
   \   00000080   1AD1               BNE.N    ??EngineOff_Action_12
   1167                          {
   1168                               if(!CheckTimeOver(100, EngineOff_Timer1))break;  //100ms 간 유지한다.
   \   00000082   ....               LDR.N    R0,??DataTable51_23
   \   00000084   0188               LDRH     R1,[R0, #+0]
   \   00000086   6420               MOVS     R0,#+100
   \   00000088   ........           BL       CheckTimeOver
   \   0000008C   0028               CMP      R0,#+0
   \   0000008E   00F0F580           BEQ.W    ??EngineOff_Action_11
   1169                               EnginOffActionStep = 2;
   \                     ??EngineOff_Action_13:
   \   00000092   ....               LDR.N    R0,??DataTable51_2
   \   00000094   0221               MOVS     R1,#+2
   \   00000096   0170               STRB     R1,[R0, #+0]
   1170                     // LOG -------------------------------------------------------------------------
   1171                     // 로그 기록단위 정상적으로 종료됨
   1172                               if(LOGWRITE & LOG_EMS_ENGINE)                       
   \   00000098   ....               LDR.N    R0,??DataTable51
   \   0000009A   0078               LDRB     R0,[R0, #+0]
   \   0000009C   C006               LSLS     R0,R0,#+27
   \   0000009E   35D5               BPL.N    ??EngineOff_Action_14
   1173                               {
   1174                                    sprintf((char*)Buffer,"ENGINE_OFF %d step \r\n ",EnginOffActionStep); 
   \   000000A0   ....               LDR.N    R0,??DataTable51_2
   \   000000A2   0278               LDRB     R2,[R0, #+0]
   \   000000A4   ........           ADR.W    R1,`?<Constant "ENGINE_OFF %d step \\r\\n ">`
   \   000000A8   ....               LDR.N    R0,??DataTable51_12
   \   000000AA   ........           BL       sprintf
   1175                                    Write_Log(Buffer, NORMAL_LOG);
   \   000000AE   0121               MOVS     R1,#+1
   \   000000B0   ....               LDR.N    R0,??DataTable51_12
   \   000000B2   ........           BL       Write_Log
   \   000000B6   29E0               B.N      ??EngineOff_Action_14
   1176                               }            
   1177                    // -----------------------------------------------------------------------------
   1178                               
   1179                          }
   1180                          else        // rpm이 10초간 0으로 떨어지지 않으면 장치의 이상 
   1181                          {
   1182                               EngineOff_Timer1 = MS_TIMER;    // 100ms 간격을 읽기                     
   \                     ??EngineOff_Action_12:
   \   000000B8   ....               LDR.N    R0,??DataTable51_22  ;; 0x40000c00
   \   000000BA   ........           BL       TIM_GetCounter
   \   000000BE   ....               LDR.N    R1,??DataTable51_23
   \   000000C0   0880               STRH     R0,[R1, #+0]
   1183                               if(!CheckTimeOver(10000, EngineOff_Timer2))break;  //10초간 
   \   000000C2   ....               LDR.N    R0,??DataTable51_24
   \   000000C4   0188               LDRH     R1,[R0, #+0]
   \   000000C6   42F21070           MOVW     R0,#+10000
   \   000000CA   ........           BL       CheckTimeOver
   \   000000CE   0028               CMP      R0,#+0
   \   000000D0   00F0D480           BEQ.W    ??EngineOff_Action_11
   1184                     // LOG -------------------------------------------------------------------------
   1185                     // 로그 기록단위 Error
   1186                               if(LOGWRITE & LOG_EMS_ENGINE)                       
   \                     ??EngineOff_Action_15:
   \   000000D4   ....               LDR.N    R0,??DataTable51
   \   000000D6   0078               LDRB     R0,[R0, #+0]
   \   000000D8   C006               LSLS     R0,R0,#+27
   \   000000DA   0AD5               BPL.N    ??EngineOff_Action_16
   1187                               {
   1188                                    sprintf((char*)Buffer,"ENGINE_OFF %d step RPM_TimerOut\r\n ",EnginOffActionStep); 
   \   000000DC   ....               LDR.N    R0,??DataTable51_2
   \   000000DE   0278               LDRB     R2,[R0, #+0]
   \   000000E0   ........           ADR.W    R1,`?<Constant "ENGINE_OFF %d step RP...">`
   \   000000E4   ....               LDR.N    R0,??DataTable51_12
   \   000000E6   ........           BL       sprintf
   1189                                    Write_Log(Buffer, FAIL_LOG);
   \   000000EA   0221               MOVS     R1,#+2
   \   000000EC   ....               LDR.N    R0,??DataTable51_12
   \   000000EE   ........           BL       Write_Log
   1190                               }            
   1191                               RESET_ENGINE_OFF();
   \                     ??EngineOff_Action_16:
   \   000000F2   ........           BL       RESET_ENGINE_OFF
   1192                               EnginOnLimit_Time = MS_TIMER;   // 다시 정지모드로 들어오기 10초간 딜레이
   \   000000F6   ....               LDR.N    R0,??DataTable51_22  ;; 0x40000c00
   \   000000F8   ........           BL       TIM_GetCounter
   \   000000FC   ....               LDR.N    R1,??DataTable51_20
   \   000000FE   0880               STRH     R0,[R1, #+0]
   1193                               EnginOffActionStep = 0 ;   // step 과  Flag 클리어
   \   00000100   ....               LDR.N    R0,??DataTable51_2
   \   00000102   0021               MOVS     R1,#+0
   \   00000104   0170               STRB     R1,[R0, #+0]
   1194                               EnginOffActionFlag = 0 ;
   \   00000106   ....               LDR.N    R0,??DataTable51_21
   \   00000108   0021               MOVS     R1,#+0
   \   0000010A   0170               STRB     R1,[R0, #+0]
   1195                    // -----------------------------------------------------------------------------	                     
   1196                               
   1197                          }
   1198          
   1199          		EnginOffActionStep = 2;
   \                     ??EngineOff_Action_14:
   \   0000010C   ....               LDR.N    R0,??DataTable51_2
   \   0000010E   0221               MOVS     R1,#+2
   \   00000110   0170               STRB     R1,[R0, #+0]
   1200          		break;
   \   00000112   B3E0               B.N      ??EngineOff_Action_11
   1201                     }
   1202          	case 0x02 : 
   1203                     {
   1204                          RESET_ENGINE_OFF();    // 엔진 온
   \                     ??EngineOff_Action_3:
   \   00000114   ........           BL       RESET_ENGINE_OFF
   1205                          EnginOffActionStep = 3;
   \   00000118   ....               LDR.N    R0,??DataTable51_2
   \   0000011A   0321               MOVS     R1,#+3
   \   0000011C   0170               STRB     R1,[R0, #+0]
   1206                          EngineOff_Timer1 = MS_TIMER;    // 100ms 간격을 읽기                         
   \   0000011E   ....               LDR.N    R0,??DataTable51_22  ;; 0x40000c00
   \   00000120   ........           BL       TIM_GetCounter
   \   00000124   ....               LDR.N    R1,??DataTable51_23
   \   00000126   0880               STRH     R0,[R1, #+0]
   1207          
   1208                     // LOG -------------------------------------------------------------------------
   1209                     // 로그 기록단위 정상적으로 종료됨
   1210                               if(LOGWRITE & LOG_EMS_ENGINE)                       
   \   00000128   ....               LDR.N    R0,??DataTable51
   \   0000012A   0078               LDRB     R0,[R0, #+0]
   \   0000012C   C006               LSLS     R0,R0,#+27
   \   0000012E   0AD5               BPL.N    ??EngineOff_Action_17
   1211                               {
   1212                                    sprintf((char*)Buffer,"ENGINE_OFF %d step \r\n ",EnginOffActionStep); 
   \   00000130   ....               LDR.N    R0,??DataTable51_2
   \   00000132   0278               LDRB     R2,[R0, #+0]
   \   00000134   ........           ADR.W    R1,`?<Constant "ENGINE_OFF %d step \\r\\n ">`
   \   00000138   ....               LDR.N    R0,??DataTable51_12
   \   0000013A   ........           BL       sprintf
   1213                                    Write_Log(Buffer, NORMAL_LOG);
   \   0000013E   0121               MOVS     R1,#+1
   \   00000140   ....               LDR.N    R0,??DataTable51_12
   \   00000142   ........           BL       Write_Log
   1214                               }            
   1215                    // -----------------------------------------------------------------------------
   1216                           
   1217          		break;
   \                     ??EngineOff_Action_17:
   \   00000146   99E0               B.N      ??EngineOff_Action_11
   1218                     }
   1219          	case 0x03 : 
   1220                     {
   1221                          if(!CheckTimeOver(1000, EngineOff_Timer1))break;  //1초간 대기
   \                     ??EngineOff_Action_6:
   \   00000148   ....               LDR.N    R0,??DataTable51_23
   \   0000014A   0188               LDRH     R1,[R0, #+0]
   \   0000014C   4FF47A70           MOV      R0,#+1000
   \   00000150   ........           BL       CheckTimeOver
   \   00000154   0028               CMP      R0,#+0
   \   00000156   00F09180           BEQ.W    ??EngineOff_Action_11
   1222                          EngineOff_Timer1 = MS_TIMER;	
   \                     ??EngineOff_Action_18:
   \   0000015A   ....               LDR.N    R0,??DataTable51_22  ;; 0x40000c00
   \   0000015C   ........           BL       TIM_GetCounter
   \   00000160   ....               LDR.N    R1,??DataTable51_23
   \   00000162   0880               STRH     R0,[R1, #+0]
   1223                          SET_LIGHT();
   \   00000164   ........           BL       SET_LIGHT
   1224                          // LOG -------------------------------------------------------------------------
   1225                          // 로그 기록단위 정상적으로 종료됨
   1226                          if(LOGWRITE & LOG_EMS_ENGINE)                       
   \   00000168   ....               LDR.N    R0,??DataTable51
   \   0000016A   0078               LDRB     R0,[R0, #+0]
   \   0000016C   C006               LSLS     R0,R0,#+27
   \   0000016E   0AD5               BPL.N    ??EngineOff_Action_19
   1227                          {
   1228                               sprintf((char*)Buffer,"ENGINE_OFF %d step SET_LIGHT_RELAY\r\n ",EnginOffActionStep); 
   \   00000170   ....               LDR.N    R0,??DataTable51_2
   \   00000172   0278               LDRB     R2,[R0, #+0]
   \   00000174   ........           ADR.W    R1,`?<Constant "ENGINE_OFF %d step SE...">`
   \   00000178   ....               LDR.N    R0,??DataTable51_12
   \   0000017A   ........           BL       sprintf
   1229                               Write_Log(Buffer, NORMAL_LOG);
   \   0000017E   0121               MOVS     R1,#+1
   \   00000180   ....               LDR.N    R0,??DataTable51_12
   \   00000182   ........           BL       Write_Log
   1230                          }            
   1231                          // -----------------------------------------------------------------------------
   1232                          EnginOffActionStep = 4;		    
   \                     ??EngineOff_Action_19:
   \   00000186   ....               LDR.N    R0,??DataTable51_2
   \   00000188   0421               MOVS     R1,#+4
   \   0000018A   0170               STRB     R1,[R0, #+0]
   1233                          break;                                 
   \   0000018C   76E0               B.N      ??EngineOff_Action_11
   1234                     }
   1235          	case 0x04 : 
   1236                     {
   1237          		if(!CheckTimeOver(1000, EngineOff_Timer1))break;  //500ms 후에 AIRCON
   \                     ??EngineOff_Action_5:
   \   0000018E   ....               LDR.N    R0,??DataTable51_23
   \   00000190   0188               LDRH     R1,[R0, #+0]
   \   00000192   4FF47A70           MOV      R0,#+1000
   \   00000196   ........           BL       CheckTimeOver
   \   0000019A   0028               CMP      R0,#+0
   \   0000019C   6ED0               BEQ.N    ??EngineOff_Action_11
   1238          		EngineOff_Timer1 = MS_TIMER;	
   \                     ??EngineOff_Action_20:
   \   0000019E   ....               LDR.N    R0,??DataTable51_22  ;; 0x40000c00
   \   000001A0   ........           BL       TIM_GetCounter
   \   000001A4   ....               LDR.N    R1,??DataTable51_23
   \   000001A6   0880               STRH     R0,[R1, #+0]
   1239                     // LOG -------------------------------------------------------------------------
   1240                     // 로그 기록단위 정상적으로 종료됨
   1241                               if(LOGWRITE & LOG_EMS_ENGINE)                       
   \   000001A8   ....               LDR.N    R0,??DataTable51
   \   000001AA   0078               LDRB     R0,[R0, #+0]
   \   000001AC   C006               LSLS     R0,R0,#+27
   \   000001AE   0AD5               BPL.N    ??EngineOff_Action_21
   1242                               {
   1243                                    sprintf((char*)Buffer,"ENGINE_OFF %d step SET_AIRCON_RELAY\r\n ",EnginOffActionStep); 
   \   000001B0   ....               LDR.N    R0,??DataTable51_2
   \   000001B2   0278               LDRB     R2,[R0, #+0]
   \   000001B4   ........           ADR.W    R1,`?<Constant "ENGINE_OFF %d step SE...">_1`
   \   000001B8   ....               LDR.N    R0,??DataTable51_12
   \   000001BA   ........           BL       sprintf
   1244                                    Write_Log(Buffer, NORMAL_LOG);
   \   000001BE   0121               MOVS     R1,#+1
   \   000001C0   ....               LDR.N    R0,??DataTable51_12
   \   000001C2   ........           BL       Write_Log
   1245                               }            
   1246                    // -----------------------------------------------------------------------------                
   1247          		SET_HITER();
   \                     ??EngineOff_Action_21:
   \   000001C6   ........           BL       SET_HITER
   1248          	
   1249                           
   1250          		EnginOffActionStep = 5;
   \   000001CA   ....               LDR.N    R0,??DataTable51_2
   \   000001CC   0521               MOVS     R1,#+5
   \   000001CE   0170               STRB     R1,[R0, #+0]
   1251                          
   1252          		break;
   \   000001D0   54E0               B.N      ??EngineOff_Action_11
   1253                     }
   1254                    case 0x05 : 
   1255                    {
   1256                         if(!CheckTimeOver(1000, EngineOff_Timer1))break;  //500ms 후에 AIRCON
   \                     ??EngineOff_Action_8:
   \   000001D2   ....               LDR.N    R0,??DataTable51_23
   \   000001D4   0188               LDRH     R1,[R0, #+0]
   \   000001D6   4FF47A70           MOV      R0,#+1000
   \   000001DA   ........           BL       CheckTimeOver
   \   000001DE   0028               CMP      R0,#+0
   \   000001E0   4CD0               BEQ.N    ??EngineOff_Action_11
   1257                         EngineOff_Timer1 = MS_TIMER;	
   \                     ??EngineOff_Action_22:
   \   000001E2   ....               LDR.N    R0,??DataTable51_22  ;; 0x40000c00
   \   000001E4   ........           BL       TIM_GetCounter
   \   000001E8   ....               LDR.N    R1,??DataTable51_23
   \   000001EA   0880               STRH     R0,[R1, #+0]
   1258                         // LOG -------------------------------------------------------------------------
   1259                         // 로그 기록단위 정상적으로 종료됨
   1260                         if(LOGWRITE & LOG_EMS_ENGINE)                       
   \   000001EC   ....               LDR.N    R0,??DataTable51
   \   000001EE   0078               LDRB     R0,[R0, #+0]
   \   000001F0   C006               LSLS     R0,R0,#+27
   \   000001F2   0AD5               BPL.N    ??EngineOff_Action_23
   1261                         {
   1262                              sprintf((char*)Buffer,"ENGINE_OFF %d step SET_AIRCON_RELAY\r\n ",EnginOffActionStep); 
   \   000001F4   ....               LDR.N    R0,??DataTable51_2
   \   000001F6   0278               LDRB     R2,[R0, #+0]
   \   000001F8   ........           ADR.W    R1,`?<Constant "ENGINE_OFF %d step SE...">_1`
   \   000001FC   ....               LDR.N    R0,??DataTable51_12
   \   000001FE   ........           BL       sprintf
   1263                              Write_Log(Buffer, NORMAL_LOG);
   \   00000202   0121               MOVS     R1,#+1
   \   00000204   ....               LDR.N    R0,??DataTable51_12
   \   00000206   ........           BL       Write_Log
   1264                         }            
   1265                         // -----------------------------------------------------------------------------                
   1266                         SET_AIRCON();
   \                     ??EngineOff_Action_23:
   \   0000020A   ........           BL       SET_AIRCON
   1267                         EnginOffActionStep = 6;
   \   0000020E   ....               LDR.N    R0,??DataTable51_2
   \   00000210   0621               MOVS     R1,#+6
   \   00000212   0170               STRB     R1,[R0, #+0]
   1268                         break;
   \   00000214   32E0               B.N      ??EngineOff_Action_11
   1269                    }          
   1270                    case 0x06 : 
   1271                    {
   1272                         // LOG -------------------------------------------------------------------------
   1273                         // 로그 기록단위 정상적으로 종료됨
   1274                         if(LOGWRITE & LOG_EMS_ENGINE)                       
   \                     ??EngineOff_Action_7:
   \   00000216   ....               LDR.N    R0,??DataTable51
   \   00000218   0078               LDRB     R0,[R0, #+0]
   \   0000021A   C006               LSLS     R0,R0,#+27
   \   0000021C   0AD5               BPL.N    ??EngineOff_Action_24
   1275                         {
   1276                              sprintf((char*)Buffer,"ENGINE_OFF %d step Done\r\n ",EnginOffActionStep); 
   \   0000021E   ....               LDR.N    R0,??DataTable51_2
   \   00000220   0278               LDRB     R2,[R0, #+0]
   \   00000222   ........           ADR.W    R1,`?<Constant "ENGINE_OFF %d step Do...">`
   \   00000226   ....               LDR.N    R0,??DataTable51_12
   \   00000228   ........           BL       sprintf
   1277                              Write_Log(Buffer, NORMAL_LOG);
   \   0000022C   0121               MOVS     R1,#+1
   \   0000022E   ....               LDR.N    R0,??DataTable51_12
   \   00000230   ........           BL       Write_Log
   1278                         }            
   1279                         // -----------------------------------------------------------------------------      	
   1280                         EnginOffActionStep = 0;
   \                     ??EngineOff_Action_24:
   \   00000234   ....               LDR.N    R0,??DataTable51_2
   \   00000236   0021               MOVS     R1,#+0
   \   00000238   0170               STRB     R1,[R0, #+0]
   1281                         EnginOffActionFlag = 0;
   \   0000023A   ....               LDR.N    R0,??DataTable51_21
   \   0000023C   0021               MOVS     R1,#+0
   \   0000023E   0170               STRB     R1,[R0, #+0]
   1282                         EnginOff_Flag = 1;
   \   00000240   ....               LDR.N    R0,??DataTable51_6
   \   00000242   0121               MOVS     R1,#+1
   \   00000244   0170               STRB     R1,[R0, #+0]
   1283                         EnginOnLimit_Time = MS_TIMER;   // 다시 정지모드로 들어오기 3초간 딜레이
   \   00000246   ....               LDR.N    R0,??DataTable51_22  ;; 0x40000c00
   \   00000248   ........           BL       TIM_GetCounter
   \   0000024C   ....               LDR.N    R1,??DataTable51_20
   \   0000024E   0880               STRH     R0,[R1, #+0]
   1284                         EnginOffActionStep = 7;
   \   00000250   ....               LDR.N    R0,??DataTable51_2
   \   00000252   0721               MOVS     R1,#+7
   \   00000254   0170               STRB     R1,[R0, #+0]
   1285                         break;
   \   00000256   11E0               B.N      ??EngineOff_Action_11
   1286                    }
   1287          
   1288          	default : 
   1289                     {
   1290                     // LOG -------------------------------------------------------------------------
   1291                     // 로그 기록단위 정상적으로 종료됨
   1292                               if(LOGWRITE & LOG_EMS_ENGINE)                       
   \                     ??EngineOff_Action_9:
   \   00000258   ....               LDR.N    R0,??DataTable51
   \   0000025A   0078               LDRB     R0,[R0, #+0]
   \   0000025C   C006               LSLS     R0,R0,#+27
   \   0000025E   0AD5               BPL.N    ??EngineOff_Action_25
   1293                               {
   1294                                    sprintf((char*)Buffer,"ENGINE_OFF %d step / StepError \r\n ",EnginOffActionStep); 
   \   00000260   ....               LDR.N    R0,??DataTable51_2
   \   00000262   0278               LDRB     R2,[R0, #+0]
   \   00000264   ........           ADR.W    R1,`?<Constant "ENGINE_OFF %d step / ...">`
   \   00000268   ....               LDR.N    R0,??DataTable51_12
   \   0000026A   ........           BL       sprintf
   1295                                    Write_Log(Buffer, ERROR_LOG);
   \   0000026E   0421               MOVS     R1,#+4
   \   00000270   ....               LDR.N    R0,??DataTable51_12
   \   00000272   ........           BL       Write_Log
   1296                               }            
   1297                    // -----------------------------------------------------------------------------                      
   1298          		EnginOffActionStep = 0;
   \                     ??EngineOff_Action_25:
   \   00000276   ....               LDR.N    R0,??DataTable51_2
   \   00000278   0021               MOVS     R1,#+0
   \   0000027A   0170               STRB     R1,[R0, #+0]
   1299          
   1300          		break;
   1301                     }
   1302               }
   1303          }
   \                     ??EngineOff_Action_11:
   \                     ??EngineOff_Action_1:
   \   0000027C   01BD               POP      {R0,PC}          ;; return

   \                                 In section .bss, align 2
   \                     ??EngineOff_Timer1:
   \   00000000                      DS8 2

   \                                 In section .bss, align 2
   \                     ??EngineOff_Timer2:
   \   00000000                      DS8 2

   \                                 In section .text, align 4, keep-with-next
   \                     ??DataTable44:
   \   00000000   00100240           DC32     0x40021000

   \                                 In section .text, align 4, keep-with-next
   \                     ??DataTable44_1:
   \   00000000   00180240           DC32     0x40021800

   \                                 In section .text, align 4, keep-with-next
   \                     ??DataTable45:
   \   00000000   ........           DC32     OUTPUT_DATA

   \                                 In section .text, align 4, keep-with-next
   \                     ??DataTable45_1:
   \   00000000   00080240           DC32     0x40020800

   \                                 In section .text, align 4, keep-with-next
   \                     ??DataTable45_2:
   \   00000000   00000240           DC32     0x40020000

   \                                 In section .text, align 4, keep-with-next
   \                     ??DataTable45_3:
   \   00000000   000C0240           DC32     0x40020c00

   \                                 In section .text, align 4, keep-with-next
   \                     ??DataTable45_4:
   \   00000000   ........           DC32     EnginOnActionFlag

   \                                 In section .text, align 4, keep-with-next
   \                     ??DataTable45_5:
   \   00000000   ........           DC32     EnginOnActionStep

   \                                 In section .text, align 4, keep-with-next
   \                     ??DataTable45_6:
   \   00000000   ........           DC32     EnginOffActionFlag

   \                                 In section .text, align 4, keep-with-next
   \                     ??DataTable45_7:
   \   00000000   ........           DC32     EnginOffActionStep

   \                                 In section .text, align 4, keep-with-next
   \                     ??DataTable45_8:
   \   00000000   ........           DC32     EnginOnLimit_Time

   \                                 In section .text, align 4, keep-with-next
   \                     ??DataTable45_9:
   \   00000000   ........           DC32     EnginOff_Flag

   \                                 In section .text, align 4, keep-with-next
   \                     ??DataTable45_10:
   \   00000000   ........           DC32     Ref_OverDrive

   \                                 In section .text, align 4, keep-with-next
   \                     ??DataTable45_11:
   \   00000000   ........           DC32     EnginOffLimit_Time

   \                                 In section .text, align 4, keep-with-next
   \                     ??DataTable45_12:
   \   00000000   ........           DC32     Timer_1Sec

   \                                 In section .text, align 4, keep-with-next
   \                     ??DataTable45_13:
   \   00000000   ........           DC32     EnginOffLimit_Flag

   \                                 In section .text, align 4, keep-with-next
   \                     ??DataTable45_14:
   \   00000000   ........           DC32     EMS_Reley_Off

   \                                 In section .text, align 4, keep-with-next
   \                     ??DataTable45_15:
   \   00000000   ........           DC32     EMS_Replay_Flag

   \                                 In section .text, align 4, keep-with-next
   \                     ??DataTable45_16:
   \   00000000   ........           DC32     ??EMS_Driving_Timer

   \                                 In section .text, align 4, keep-with-next
   \                     ??DataTable45_17:
   \   00000000   000C0040           DC32     0x40000c00

   \                                 In section .text, align 4, keep-with-next
   \                     ??DataTable45_18:
   \   00000000   ........           DC32     Info

   \                                 In section .text, align 4, keep-with-next
   \                     ??DataTable45_19:
   \   00000000   ........           DC32     ??StartMotor_Flag

   \                                 In section .text, align 4, keep-with-next
   \                     ??DataTable45_20:
   \   00000000   ........           DC32     EMS_Drive_Value

   \                                 In section .text, align 4, keep-with-next
   \                     ??DataTable45_21:
   \   00000000   ........           DC32     ??ECO_Driving_Timer1

   \                                 In section .text, align 4, keep-with-next
   \                     ??DataTable45_22:
   \   00000000   ........           DC32     Speed_Check_Count

   \                                 In section .text, align 4, keep-with-next
   \                     ??DataTable45_23:
   \   00000000   ........           DC32     Speed_Buffer1

   \                                 In section .text, align 4, keep-with-next
   \                     ??DataTable45_24:
   \   00000000   ........           DC32     ??QuickStart_Timer

   \                                 In section .text, align 4, keep-with-next
   \                     ??DataTable45_25:
   \   00000000   ........           DC32     ??QuickStart_Flag

   \                                 In section .text, align 4, keep-with-next
   \                     ??DataTable45_26:
   \   00000000   ........           DC32     ??QuickCount

   \                                 In section .text, align 4, keep-with-next
   \                     ??DataTable45_27:
   \   00000000   ........           DC32     SFLASH_Memory

   \                                 In section .text, align 4, keep-with-next
   \                     ??DataTable45_28:
   \   00000000   ........           DC32     Speed_Buffer2

   \                                 In section .text, align 4, keep-with-next
   \                     ??DataTable45_29:
   \   00000000   ........           DC32     ECO_Driving

   \                                 In section .text, align 4, keep-with-next
   \                     ??DataTable45_30:
   \   00000000   ........           DC32     LOGWRITE

   \                                 In section .text, align 4, keep-with-next
   \                     ??DataTable45_31:
   \   00000000   ........           DC32     `?<Constant "ECO_QUICK_START CHECK...">`

   \                                 In section .text, align 4, keep-with-next
   \                     ??DataTable45_32:
   \   00000000   ........           DC32     Buffer

   \                                 In section .text, align 4, keep-with-next
   \                     ??DataTable45_33:
   \   00000000   ........           DC32     `?<Constant "ECO_QUICK_STOP CHECK \\r\\n ">`

   \                                 In section .text, align 4, keep-with-next
   \                     ??DataTable45_34:
   \   00000000   ........           DC32     ??ECO_Driving_Timer2

   \                                 In section .text, align 4, keep-with-next
   \                     ??DataTable45_35:
   \   00000000   ........           DC32     ??FastOverSpeed_Count

   \                                 In section .text, align 4, keep-with-next
   \                     ??DataTable45_36:
   \   00000000   ........           DC32     `?<Constant "ECO_FASTOVER CHECK %0...">`

   \                                 In section .text, align 4, keep-with-next
   \                     ??DataTable45_37:
   \   00000000   ........           DC32     `?<Constant "ECO_OVERLOAD_RPM CHEC...">`

   \                                 In section .text, align 4, keep-with-next
   \                     ??DataTable46:
   \   00000000   ........           DC32     `?<Constant "ENGINE_PIN CLEAR \\r\\n ">`

   \                                 In section .text, align 4, keep-with-next
   \                     `?<Constant "ECO_QUICK_START CHECK...">`:
   \   00000000                      ; Initializer data, 28 bytes
   \   00000000   45434F5F5155       DC8 69, 67, 79, 95, 81, 85, 73, 67, 75, 95
   \              49434B5F    
   \   0000000A   535441525420       DC8 83, 84, 65, 82, 84, 32, 67, 72, 69, 67
   \              43484543    
   \   00000014   4B200D0A2000       DC8 75, 32, 13, 10, 32, 0, 0, 0
   \              0000        

   \                                 In section .text, align 4, keep-with-next
   \                     ??DataTable48:
   \   00000000   ........           DC32     INPUT_DATA

   \                                 In section .text, align 4, keep-with-next
   \                     ??DataTable48_1:
   \   00000000   ........           DC32     Set_Info

   \                                 In section .text, align 4, keep-with-next
   \                     ??DataTable48_2:
   \   00000000   ........           DC32     ??CheckEms

   \                                 In section .text, align 4, keep-with-next
   \                     ??DataTable48_3:
   \   00000000   ........           DC32     EmsOnProgress

   \                                 In section .text, align 4, keep-with-next
   \                     `?<Constant "ECO_QUICK_STOP CHECK \\r\\n ">`:
   \   00000000                      ; Initializer data, 28 bytes
   \   00000000   45434F5F5155       DC8 69, 67, 79, 95, 81, 85, 73, 67, 75, 95
   \              49434B5F    
   \   0000000A   53544F502043       DC8 83, 84, 79, 80, 32, 67, 72, 69, 67, 75
   \              4845434B    
   \   00000014   200D0A200000       DC8 32, 13, 10, 32, 0, 0, 0, 0
   \              0000        

   \                                 In section .text, align 4, keep-with-next
   \                     `?<Constant "ECO_FASTOVER CHECK %0...">`:
   \   00000000                      ; Initializer data, 28 bytes
   \   00000000   45434F5F4641       DC8 69, 67, 79, 95, 70, 65, 83, 84, 79, 86
   \              53544F56    
   \   0000000A   455220434845       DC8 69, 82, 32, 67, 72, 69, 67, 75, 32, 37
   \              434B2025    
   \   00000014   303364200D0A       DC8 48, 51, 100, 32, 13, 10, 32, 0
   \              2000        

   \                                 In section .text, align 4, keep-with-next
   \                     ??DataTable49:
   \   00000000   ........           DC32     ??BreakOnFlag

   \                                 In section .text, align 4, keep-with-next
   \                     ??DataTable49_1:
   \   00000000   ........           DC32     ??StartOnTimer

   \                                 In section .text, align 4, keep-with-next
   \                     ??DataTable49_2:
   \   00000000   ........           DC32     EMSOn_Check

   \                                 In section .text, align 4, keep-with-next
   \                     ??DataTable49_3:
   \   00000000   ........           DC32     `?<Constant "ENGINE_ON START \\r\\n ">`

   \                                 In section .text, align 4, keep-with-next
   \                     ??DataTable49_4:
   \   00000000   ........           DC32     Buffer

   \                                 In section .text, align 4, keep-with-next
   \                     `?<Constant "ECO_OVERLOAD_RPM CHEC...">`:
   \   00000000                      ; Initializer data, 28 bytes
   \   00000000   45434F5F4F56       DC8 69, 67, 79, 95, 79, 86, 69, 82, 76, 79
   \              45524C4F    
   \   0000000A   41445F52504D       DC8 65, 68, 95, 82, 80, 77, 32, 67, 72, 69
   \              20434845    
   \   00000014   434B200D0A20       DC8 67, 75, 32, 13, 10, 32, 0, 0
   \              0000        

   \                                 In section .text, align 4, keep-with-next
   \                     `?<Constant "ENGINE_PIN CLEAR \\r\\n ">`:
   \   00000000                      ; Initializer data, 24 bytes
   \   00000000   454E47494E45       DC8 69, 78, 71, 73, 78, 69, 95, 80, 73, 78
   \              5F50494E    
   \   0000000A   20434C454152       DC8 32, 67, 76, 69, 65, 82, 32, 13, 10, 32
   \              200D0A20    
   \   00000014   00000000           DC8 0, 0, 0, 0

   \                                 In section .text, align 4, keep-with-next
   \                     ??DataTable50:
   \   00000000   ........           DC32     ??CheckEms_1

   \                                 In section .text, align 4, keep-with-next
   \                     ??DataTable50_1:
   \   00000000   000C0040           DC32     0x40000c00

   \                                 In section .text, align 4, keep-with-next
   \                     ??DataTable50_2:
   \   00000000   ........           DC32     EmsOffProgress

   \                                 In section .text, align 4, keep-with-next
   \                     ??DataTable50_3:
   \   00000000   ........           DC32     EnginOffActionFlag

   \                                 In section .text, align 4, keep-with-next
   \                     ??DataTable50_4:
   \   00000000   ........           DC32     Info

   \                                 In section .text, align 4, keep-with-next
   \                     ??DataTable50_5:
   \   00000000   ........           DC32     SFLASH_Memory

   \                                 In section .text, align 4, keep-with-next
   \                     ??DataTable50_6:
   \   00000000   ........           DC32     Flag

   \                                 In section .text, align 4, keep-with-next
   \                     ??DataTable50_7:
   \   00000000   ........           DC32     EnginOffLimit_Flag

   \                                 In section .text, align 4, keep-with-next
   \                     ??DataTable50_8:
   \   00000000   ........           DC32     EnginOffLimit_Time

   \                                 In section .text, align 4, keep-with-next
   \                     ??DataTable50_9:
   \   00000000   ........           DC32     ??EMSOff_Timer

   \                                 In section .text, align 4, keep-with-next
   \                     ??DataTable50_10:
   \   00000000   ........           DC32     EMSOff_Check

   \                                 In section .text, align 4, keep-with-next
   \                     ??DataTable50_11:
   \   00000000   ........           DC32     Timer_1Sec

   \                                 In section .text, align 4, keep-with-next
   \                     `?<Constant "ENGINE_ON START \\r\\n ">`:
   \   00000000                      ; Initializer data, 20 bytes
   \   00000000   454E47494E45       DC8 69, 78, 71, 73, 78, 69, 95, 79, 78, 32
   \              5F4F4E20    
   \   0000000A   535441525420       DC8 83, 84, 65, 82, 84, 32, 13, 10, 32, 0
   \              0D0A2000    

   \                                 In section .text, align 4, keep-with-next
   \                     `?<Constant "ENGINE_OFF PARKING_BR...">`:
   \   00000000                      ; Initializer data, 36 bytes
   \   00000000   454E47494E45       DC8 69, 78, 71, 73, 78, 69, 95, 79, 70, 70
   \              5F4F4646    
   \   0000000A   205041524B49       DC8 32, 80, 65, 82, 75, 73, 78, 71, 95, 66
   \              4E475F42    
   \   00000014   5245414B2043       DC8 82, 69, 65, 75, 32, 67, 72, 69, 67, 75
   \              4845434B    
   \   0000001E   200D0A200000       DC8 32, 13, 10, 32, 0, 0

   \                                 In section .text, align 4, keep-with-next
   \                     `?<Constant "EMS Check-%d / %d [%0...">`:
   \   00000000                      ; Initializer data, 32 bytes
   \   00000000   454D53204368       DC8 69, 77, 83, 32, 67, 104, 101, 99, 107, 45
   \              65636B2D    
   \   0000000A   2564202F2025       DC8 37, 100, 32, 47, 32, 37, 100, 32, 91, 37
   \              64205B25    
   \   00000014   3034785D200D       DC8 48, 52, 120, 93, 32, 13, 10, 32, 0, 0
   \              0A200000    
   \   0000001E   0000               DC8 0, 0

   \                                 In section .text, align 4, keep-with-next
   \                     `?<Constant "ENGINE_ON %d step, Ba...">`:
   \   00000000                      ; Initializer data, 36 bytes
   \   00000000   454E47494E45       DC8 69, 78, 71, 73, 78, 69, 95, 79, 78, 32
   \              5F4F4E20    
   \   0000000A   256420737465       DC8 37, 100, 32, 115, 116, 101, 112, 44, 32, 66
   \              702C2042    
   \   00000014   617474657279       DC8 97, 116, 116, 101, 114, 121, 61, 37, 100, 32
   \              3D256420    
   \   0000001E   0D0A20000000       DC8 13, 10, 32, 0, 0, 0

   \                                 In section .text, align 4, keep-with-next
   \                     `?<Constant "ENGINE_ON %d step\\r\\n ">`:
   \   00000000                      ; Initializer data, 24 bytes
   \   00000000   454E47494E45       DC8 69, 78, 71, 73, 78, 69, 95, 79, 78, 32
   \              5F4F4E20    
   \   0000000A   256420737465       DC8 37, 100, 32, 115, 116, 101, 112, 13, 10, 32
   \              700D0A20    
   \   00000014   00000000           DC8 0, 0, 0, 0

   \                                 In section .text, align 4, keep-with-next
   \                     `?<Constant "ENGINE_ON %d step %d ...">`:
   \   00000000                      ; Initializer data, 32 bytes
   \   00000000   454E47494E45       DC8 69, 78, 71, 73, 78, 69, 95, 79, 78, 32
   \              5F4F4E20    
   \   0000000A   256420737465       DC8 37, 100, 32, 115, 116, 101, 112, 32, 37, 100
   \              70202564    
   \   00000014   2072706D200D       DC8 32, 114, 112, 109, 32, 13, 10, 32, 0, 0
   \              0A200000    
   \   0000001E   0000               DC8 0, 0

   \                                 In section .text, align 4, keep-with-next
   \                     `?<Constant "ENGINE_ON FAIL %d ste...">`:
   \   00000000                      ; Initializer data, 28 bytes
   \   00000000   454E47494E45       DC8 69, 78, 71, 73, 78, 69, 95, 79, 78, 32
   \              5F4F4E20    
   \   0000000A   4641494C2025       DC8 70, 65, 73, 76, 32, 37, 100, 32, 115, 116
   \              64207374    
   \   00000014   65700D0A2000       DC8 101, 112, 13, 10, 32, 0, 0, 0
   \              0000        

   \                                 In section .text, align 4, keep-with-next
   \                     ??DataTable51:
   \   00000000   ........           DC32     LOGWRITE

   \                                 In section .text, align 4, keep-with-next
   \                     ??DataTable51_1:
   \   00000000   ........           DC32     `?<Constant "ENGINE_OFF PARKING_BR...">`

   \                                 In section .text, align 4, keep-with-next
   \                     ??DataTable51_2:
   \   00000000   ........           DC32     EnginOffActionStep

   \                                 In section .text, align 4, keep-with-next
   \                     ??DataTable51_3:
   \   00000000   ........           DC32     Ref_OverDrive

   \                                 In section .text, align 4, keep-with-next
   \                     ??DataTable51_4:
   \   00000000   ........           DC32     EMS_Reley_Off

   \                                 In section .text, align 4, keep-with-next
   \                     ??DataTable51_5:
   \   00000000   ........           DC32     ??EMS_WATCH_Timer3

   \                                 In section .text, align 4, keep-with-next
   \                     ??DataTable51_6:
   \   00000000   ........           DC32     EnginOff_Flag

   \                                 In section .text, align 4, keep-with-next
   \                     ??DataTable51_7:
   \   00000000   ........           DC32     ??Check

   \                                 In section .text, align 4, keep-with-next
   \                     ??DataTable51_8:
   \   00000000   ........           DC32     ??EMS_Emc_Timer

   \                                 In section .text, align 4, keep-with-next
   \                     ??DataTable51_9:
   \   00000000   ........           DC32     ??EMS_WATCH_Timer

   \                                 In section .text, align 4, keep-with-next
   \                     ??DataTable51_10:
   \   00000000   ........           DC32     ??EMS_WATCH_Timer2

   \                                 In section .text, align 4, keep-with-next
   \                     ??DataTable51_11:
   \   00000000   ........           DC32     INPUT_DATA

   \                                 In section .text, align 4, keep-with-next
   \                     ??DataTable51_12:
   \   00000000   ........           DC32     Buffer

   \                                 In section .text, align 4, keep-with-next
   \                     ??DataTable51_13:
   \   00000000   ........           DC32     EnginOnActionFlag

   \                                 In section .text, align 4, keep-with-next
   \                     ??DataTable51_14:
   \   00000000   ........           DC32     EnginOnActionStep

   \                                 In section .text, align 4, keep-with-next
   \                     ??DataTable51_15:
   \   00000000   ........           DC32     ??EngineOn_Timer1

   \                                 In section .text, align 4, keep-with-next
   \                     ??DataTable51_16:
   \   00000000   ........           DC32     ??EngineOn_Timer2

   \                                 In section .text, align 4, keep-with-next
   \                     ??DataTable51_17:
   \   00000000   ........           DC32     ??EMS_Replay_FailCount

   \                                 In section .text, align 4, keep-with-next
   \                     ??DataTable51_18:
   \   00000000   ........           DC32     ??EngineOn_Fail_Timer

   \                                 In section .text, align 4, keep-with-next
   \                     ??DataTable51_19:
   \   00000000   ........           DC32     EMS_Replay_Flag

   \                                 In section .text, align 4, keep-with-next
   \                     ??DataTable51_20:
   \   00000000   ........           DC32     EnginOnLimit_Time

   \                                 In section .text, align 4, keep-with-next
   \                     ??DataTable51_21:
   \   00000000   ........           DC32     EnginOffActionFlag

   \                                 In section .text, align 4, keep-with-next
   \                     ??DataTable51_22:
   \   00000000   000C0040           DC32     0x40000c00

   \                                 In section .text, align 4, keep-with-next
   \                     ??DataTable51_23:
   \   00000000   ........           DC32     ??EngineOff_Timer1

   \                                 In section .text, align 4, keep-with-next
   \                     ??DataTable51_24:
   \   00000000   ........           DC32     ??EngineOff_Timer2

   \                                 In section .text, align 4, keep-with-next
   \                     ??DataTable51_25:
   \   00000000   ........           DC32     Info

   \                                 In section .text, align 4, keep-with-next
   \                     `?<Constant "ENGINE_OFF %d step\\r\\n ">`:
   \   00000000                      ; Initializer data, 24 bytes
   \   00000000   454E47494E45       DC8 69, 78, 71, 73, 78, 69, 95, 79, 70, 70
   \              5F4F4646    
   \   0000000A   202564207374       DC8 32, 37, 100, 32, 115, 116, 101, 112, 13, 10
   \              65700D0A    
   \   00000014   20000000           DC8 32, 0, 0, 0

   \                                 In section .text, align 4, keep-with-next
   \                     `?<Constant "ENGINE_OFF %d step \\r\\n ">`:
   \   00000000                      ; Initializer data, 24 bytes
   \   00000000   454E47494E45       DC8 69, 78, 71, 73, 78, 69, 95, 79, 70, 70
   \              5F4F4646    
   \   0000000A   202564207374       DC8 32, 37, 100, 32, 115, 116, 101, 112, 32, 13
   \              6570200D    
   \   00000014   0A200000           DC8 10, 32, 0, 0

   \                                 In section .text, align 4, keep-with-next
   \                     `?<Constant "ENGINE_OFF %d step RP...">`:
   \   00000000                      ; Initializer data, 36 bytes
   \   00000000   454E47494E45       DC8 69, 78, 71, 73, 78, 69, 95, 79, 70, 70
   \              5F4F4646    
   \   0000000A   202564207374       DC8 32, 37, 100, 32, 115, 116, 101, 112, 32, 82
   \              65702052    
   \   00000014   504D5F54696D       DC8 80, 77, 95, 84, 105, 109, 101, 114, 79, 117
   \              65724F75    
   \   0000001E   740D0A200000       DC8 116, 13, 10, 32, 0, 0

   \                                 In section .text, align 4, keep-with-next
   \                     `?<Constant "ENGINE_OFF %d step SE...">`:
   \   00000000                      ; Initializer data, 40 bytes
   \   00000000   454E47494E45       DC8 69, 78, 71, 73, 78, 69, 95, 79, 70, 70
   \              5F4F4646    
   \   0000000A   202564207374       DC8 32, 37, 100, 32, 115, 116, 101, 112, 32, 83
   \              65702053    
   \   00000014   45545F4C4947       DC8 69, 84, 95, 76, 73, 71, 72, 84, 95, 82
   \              48545F52    
   \   0000001E   454C41590D0A       DC8 69, 76, 65, 89, 13, 10, 32, 0, 0, 0
   \              20000000    

   \                                 In section .text, align 4, keep-with-next
   \                     `?<Constant "ENGINE_OFF %d step SE...">_1`:
   \   00000000                      ; Initializer data, 40 bytes
   \   00000000   454E47494E45       DC8 69, 78, 71, 73, 78, 69, 95, 79, 70, 70
   \              5F4F4646    
   \   0000000A   202564207374       DC8 32, 37, 100, 32, 115, 116, 101, 112, 32, 83
   \              65702053    
   \   00000014   45545F414952       DC8 69, 84, 95, 65, 73, 82, 67, 79, 78, 95
   \              434F4E5F    
   \   0000001E   52454C41590D       DC8 82, 69, 76, 65, 89, 13, 10, 32, 0, 0
   \              0A200000    

   \                                 In section .text, align 4, keep-with-next
   \                     `?<Constant "ENGINE_OFF %d step Do...">`:
   \   00000000                      ; Initializer data, 28 bytes
   \   00000000   454E47494E45       DC8 69, 78, 71, 73, 78, 69, 95, 79, 70, 70
   \              5F4F4646    
   \   0000000A   202564207374       DC8 32, 37, 100, 32, 115, 116, 101, 112, 32, 68
   \              65702044    
   \   00000014   6F6E650D0A20       DC8 111, 110, 101, 13, 10, 32, 0, 0
   \              0000        

   \                                 In section .text, align 4, keep-with-next
   \                     `?<Constant "ENGINE_OFF %d step / ...">`:
   \   00000000                      ; Initializer data, 36 bytes
   \   00000000   454E47494E45       DC8 69, 78, 71, 73, 78, 69, 95, 79, 70, 70
   \              5F4F4646    
   \   0000000A   202564207374       DC8 32, 37, 100, 32, 115, 116, 101, 112, 32, 47
   \              6570202F    
   \   00000014   205374657045       DC8 32, 83, 116, 101, 112, 69, 114, 114, 111, 114
   \              72726F72    
   \   0000001E   200D0A200000       DC8 32, 13, 10, 32, 0, 0

   Maximum stack usage in bytes:

     Function           .cstack
     --------           -------
     ECO_Driving_Check       8
     EMS_Config              8
     EMS_Driving_Check       8
     EMS_Watching            8
     Emergency               8
     EmsOutClear             8
     Ems_Port_Check          0
     Ems_realtime_Check      8
     EngineOff_Action        8
     EngineOff_EMSCheck      8
     EngineOn_Action         8
     EngineOn_EMSCheck       8
     GET_ENGINE_ON           8
     Is_BREAK                8
     Is_FDOOR                8
     Is_GEAR                 8
     Is_KEYON                8
     Is_LLIGHT               8
     Is_PARKING_BREAK        8
     Is_RDISTANCE            8
     Is_RDOOR                8
     Is_RLIGHT               8
     RESET_AIRCON            8
     RESET_ENGINE_OFF        8
     RESET_ENGINE_ON         8
     RESET_HITER             8
     RESET_LIGHT             8
     Relay_Off_Clear         8
     SET_AIRCON              8
     SET_ENGINE_OFF          8
     SET_ENGINE_ON           8
     SET_HITER               8
     SET_LIGHT               8


   Section sizes:

     Function/Label                           Bytes
     --------------                           -----
     SET_ENGINE_ON                              32
     RESET_ENGINE_ON                            32
     SET_ENGINE_OFF                             32
     RESET_ENGINE_OFF                           32
     GET_ENGINE_ON                              26
     SET_AIRCON                                 30
     RESET_AIRCON                               30
     SET_LIGHT                                  32
     RESET_LIGHT                                32
     SET_HITER                                  30
     RESET_HITER                                30
     Is_BREAK                                   26
     Is_GEAR                                    24
     Is_PARKING_BREAK                           26
     Is_LLIGHT                                  26
     Is_RLIGHT                                  26
     Is_FDOOR                                   26
     Is_RDOOR                                   26
     Is_KEYON                                   26
     Is_RDISTANCE                               26
     EnginOnActionFlag                           1
     EnginOnActionStep                           1
     EnginOffActionFlag                          1
     EnginOffActionStep                          1
     EnginOnLimit_Time                           2
     EnginOffLimit_Time                          2
     EnginOff_Flag                               1
     EnginOffLimit_Flag                          1
     Ref_OverDrive                               1
     EMSOn_Check                                 1
     EMSOff_Check                                1
     EMS_Reley_Off                               1
     EMS_Replay_Flag                             1
     EmsOnProgress                               2
     EmsOffProgress                              2
     Speed_Buffer1                              12
     Speed_Buffer2                              12
     Speed_Check_Count                           1
     INPUT_DATA                                 12
     INPUT_REVERSE_DATA                          2
     OUTPUT_DATA                                 1
     EMS_Config                                100
     EMS_Driving_Check                         248
     EMS_Driving_Timer                           2
     StartMotor_Flag                             1
     ECO_Driving_Check                         814
     ECO_Driving_Timer1                          2
     ECO_Driving_Timer2                          2
     FastOverSpeed_Count                         1
     QuickStart_Timer                            2
     QuickStart_Flag                             1
     QuickCount                                  1
     EmsOutClear                                56
     Ems_realtime_Check                        418
     Ems_Port_Check                            162
     EngineOn_EMSCheck                         818
     StartOnTimer                                2
     BreakOnFlag                                 1
     CheckEms                                    2
     EngineOff_EMSCheck                       1666
     EMSOff_Timer                                2
     CheckEms                                    2
     Relay_Off_Clear                           206
     EMS_WATCH_Timer3                            2
     Emergency                                  92
     EMS_Emc_Timer                               2
     Check                                       1
     EMS_Watching                              326
     EMS_WATCH_Timer                             2
     EMS_WATCH_Timer2                            2
     EngineOn_Action                           612
     EngineOn_Timer1                             2
     EngineOn_Timer2                             2
     EngineOn_Fail_Timer                         2
     EMS_Replay_FailCount                        1
     EngineOff_Action                          638
     EngineOff_Timer1                            2
     EngineOff_Timer2                            2
     ??DataTable44                               4
     ??DataTable44_1                             4
     ??DataTable45                               4
     ??DataTable45_1                             4
     ??DataTable45_2                             4
     ??DataTable45_3                             4
     ??DataTable45_4                             4
     ??DataTable45_5                             4
     ??DataTable45_6                             4
     ??DataTable45_7                             4
     ??DataTable45_8                             4
     ??DataTable45_9                             4
     ??DataTable45_10                            4
     ??DataTable45_11                            4
     ??DataTable45_12                            4
     ??DataTable45_13                            4
     ??DataTable45_14                            4
     ??DataTable45_15                            4
     ??DataTable45_16                            4
     ??DataTable45_17                            4
     ??DataTable45_18                            4
     ??DataTable45_19                            4
     ??DataTable45_20                            4
     ??DataTable45_21                            4
     ??DataTable45_22                            4
     ??DataTable45_23                            4
     ??DataTable45_24                            4
     ??DataTable45_25                            4
     ??DataTable45_26                            4
     ??DataTable45_27                            4
     ??DataTable45_28                            4
     ??DataTable45_29                            4
     ??DataTable45_30                            4
     ??DataTable45_31                            4
     ??DataTable45_32                            4
     ??DataTable45_33                            4
     ??DataTable45_34                            4
     ??DataTable45_35                            4
     ??DataTable45_36                            4
     ??DataTable45_37                            4
     ??DataTable46                               4
     ?<Constant "ECO_QUICK_START CHECK...">     28
     ??DataTable48                               4
     ??DataTable48_1                             4
     ??DataTable48_2                             4
     ??DataTable48_3                             4
     ?<Constant "ECO_QUICK_STOP CHECK \r\n ">   28
     ?<Constant "ECO_FASTOVER CHECK %0...">     28
     ??DataTable49                               4
     ??DataTable49_1                             4
     ??DataTable49_2                             4
     ??DataTable49_3                             4
     ??DataTable49_4                             4
     ?<Constant "ECO_OVERLOAD_RPM CHEC...">     28
     ?<Constant "ENGINE_PIN CLEAR \r\n ">       24
     ??DataTable50                               4
     ??DataTable50_1                             4
     ??DataTable50_2                             4
     ??DataTable50_3                             4
     ??DataTable50_4                             4
     ??DataTable50_5                             4
     ??DataTable50_6                             4
     ??DataTable50_7                             4
     ??DataTable50_8                             4
     ??DataTable50_9                             4
     ??DataTable50_10                            4
     ??DataTable50_11                            4
     ?<Constant "ENGINE_ON START \r\n ">        20
     ?<Constant "ENGINE_OFF PARKING_BR...">     36
     ?<Constant "EMS Check-%d / %d [%0...">     32
     ?<Constant "ENGINE_ON %d step, Ba...">     36
     ?<Constant "ENGINE_ON %d step\r\n ">       24
     ?<Constant "ENGINE_ON %d step %d ...">     32
     ?<Constant "ENGINE_ON FAIL %d ste...">     28
     ??DataTable51                               4
     ??DataTable51_1                             4
     ??DataTable51_2                             4
     ??DataTable51_3                             4
     ??DataTable51_4                             4
     ??DataTable51_5                             4
     ??DataTable51_6                             4
     ??DataTable51_7                             4
     ??DataTable51_8                             4
     ??DataTable51_9                             4
     ??DataTable51_10                            4
     ??DataTable51_11                            4
     ??DataTable51_12                            4
     ??DataTable51_13                            4
     ??DataTable51_14                            4
     ??DataTable51_15                            4
     ??DataTable51_16                            4
     ??DataTable51_17                            4
     ??DataTable51_18                            4
     ??DataTable51_19                            4
     ??DataTable51_20                            4
     ??DataTable51_21                            4
     ??DataTable51_22                            4
     ??DataTable51_23                            4
     ??DataTable51_24                            4
     ??DataTable51_25                            4
     ?<Constant "ENGINE_OFF %d step\r\n ">      24
     ?<Constant "ENGINE_OFF %d step \r\n ">     24
     ?<Constant "ENGINE_OFF %d step RP...">     36
     ?<Constant "ENGINE_OFF %d step SE...">     40
     ?<Constant "ENGINE_OFF %d step SE...">_1   40
     ?<Constant "ENGINE_OFF %d step Do...">     28
     ?<Constant "ENGINE_OFF %d step / ...">     36

 
   100 bytes in section .bss
 7 650 bytes in section .text
 
 7 650 bytes of CODE memory
   100 bytes of DATA memory

Errors: none
Warnings: none
