###############################################################################
#                                                                             #
# IAR ANSI C/C++ Compiler V6.10.1.52143/W32 for ARM     20/Dec/2011  15:45:33 #
# Copyright 1999-2010 IAR Systems AB.                                         #
#                                                                             #
#    Cpu mode     =  thumb                                                    #
#    Endian       =  little                                                   #
#    Source file  =  E:\Work\Firmware\DTG\DTG_EMS_SYSTEM\Project\PC_COM.c     #
#    Command line =  E:\Work\Firmware\DTG\DTG_EMS_SYSTEM\Project\PC_COM.c -D  #
#                    USE_STDPERIPH_DRIVER -D STM32F2XX -D USE_STM3220F_EVAL   #
#                    -D USE_USB_OTG_FS -D RTC_CLOCK_SOURCE_LSE -lC            #
#                    E:\Work\Firmware\DTG\DTG_EMS_SYSTEM\Project\EWARM\STM322 #
#                    0F_EVAL\List\ -lA E:\Work\Firmware\DTG\DTG_EMS_SYSTEM\Pr #
#                    oject\EWARM\STM3220F_EVAL\List\ -o                       #
#                    E:\Work\Firmware\DTG\DTG_EMS_SYSTEM\Project\EWARM\STM322 #
#                    0F_EVAL\Obj\ --no_cse --no_unroll --no_inline            #
#                    --no_code_motion --no_tbaa --no_clustering               #
#                    --no_scheduling --debug --endian=little --cpu=Cortex-M3  #
#                    -e --fpu=None --dlib_config "C:\Program Files\IAR        #
#                    Systems\Embedded Workbench 6.0\arm\INC\c\DLib_Config_Ful #
#                    l.h" -I E:\Work\Firmware\DTG\DTG_EMS_SYSTEM\Project\EWAR #
#                    M\..\ -I E:\Work\Firmware\DTG\DTG_EMS_SYSTEM\Project\EWA #
#                    RM\..\..\Libraries\CMSIS\CM3\CoreSupport\ -I             #
#                    E:\Work\Firmware\DTG\DTG_EMS_SYSTEM\Project\EWARM\..\..\ #
#                    Libraries\CMSIS\CM3\DeviceSupport\ST\STM32F2xx\ -I       #
#                    E:\Work\Firmware\DTG\DTG_EMS_SYSTEM\Project\EWARM\..\..\ #
#                    Libraries\STM32F2xx_StdPeriph_Driver\inc\ -I             #
#                    E:\Work\Firmware\DTG\DTG_EMS_SYSTEM\Project\EWARM\..\..\ #
#                    Utilities\STM32_EVAL\ -I E:\Work\Firmware\DTG\DTG_EMS_SY #
#                    STEM\Project\EWARM\..\..\Utilities\STM32_EVAL\Common\    #
#                    -I E:\Work\Firmware\DTG\DTG_EMS_SYSTEM\Project\EWARM\..\ #
#                    ..\Utilities\STM32_EVAL\STM3220F_EVAL\ -I                #
#                    E:\Work\Firmware\DTG\DTG_EMS_SYSTEM\Project\EWARM\..\..\ #
#                    Libraries\STM32_USB_OTG_Driver\inc\ -I                   #
#                    E:\Work\Firmware\DTG\DTG_EMS_SYSTEM\Project\EWARM\..\..\ #
#                    Libraries\STM32_USB_Device_Library\Core\inc\ -I          #
#                    E:\Work\Firmware\DTG\DTG_EMS_SYSTEM\Project\EWARM\..\..\ #
#                    Libraries\STM32_USB_Device_Library\Class\msc\inc\ -I     #
#                    E:\Work\Firmware\DTG\DTG_EMS_SYSTEM\Project\EWARM\..\Usb #
#                    \ -I E:\Work\Firmware\DTG\DTG_EMS_SYSTEM\Project\EWARM\. #
#                    .\Usb\Inc\ -I E:\Work\Firmware\DTG\DTG_EMS_SYSTEM\Projec #
#                    t\EWARM\..\Usb\src\ -I E:\Work\Firmware\DTG\DTG_EMS_SYST #
#                    EM\Project\EWARM\..\..\Libraries\STM32_USB_HOST_Library\ #
#                    Core\inc\ -I E:\Work\Firmware\DTG\DTG_EMS_SYSTEM\Project #
#                    \EWARM\..\..\Libraries\STM32_USB_HOST_Library\Class\MSC\ #
#                    inc\ -Ol --use_c++_inline                                #
#    List file    =  E:\Work\Firmware\DTG\DTG_EMS_SYSTEM\Project\EWARM\STM322 #
#                    0F_EVAL\List\PC_COM.lst                                  #
#    Object file  =  E:\Work\Firmware\DTG\DTG_EMS_SYSTEM\Project\EWARM\STM322 #
#                    0F_EVAL\Obj\PC_COM.o                                     #
#                                                                             #
#                                                                             #
###############################################################################

E:\Work\Firmware\DTG\DTG_EMS_SYSTEM\Project\PC_COM.c
      1          #include "main.h"

   \                                 In section .text, align 2
   \   __intrinsic __interwork __softfp void *memcpy(void *, void const *, size_t)
   \                     memcpy:
   \   00000000   10B5               PUSH     {R4,LR}
   \   00000002   0400               MOVS     R4,R0
   \   00000004   2000               MOVS     R0,R4
   \   00000006   ........           BL       __aeabi_memcpy
   \   0000000A   2000               MOVS     R0,R4
   \   0000000C   10BD               POP      {R4,PC}          ;; return

   \                                 In section .text, align 2
   \   __intrinsic __interwork __softfp void *memset(void *, int, size_t)
   \                     memset:
   \   00000000   10B5               PUSH     {R4,LR}
   \   00000002   0400               MOVS     R4,R0
   \   00000004   1000               MOVS     R0,R2
   \   00000006   0A00               MOVS     R2,R1
   \   00000008   0100               MOVS     R1,R0
   \   0000000A   2000               MOVS     R0,R4
   \   0000000C   ........           BL       __aeabi_memset
   \   00000010   2000               MOVS     R0,R4
   \   00000012   10BD               POP      {R4,PC}          ;; return
      2          #include "PC_COM.h"
      3          #include "Serial.h"
      4          #include "EMS_System.h"
      5          #include "rtc.h"
      6          
      7          #include "fsmc_nand.h"
      8          #include "i2c_ee.h"
      9          #include "Memory.h"
     10          #include "WIFI.h"

   \                                 In section .text, align 2, keep-with-next
   \   static __interwork __softfp uint8_t IsAP_Connect(void)
   \                     IsAP_Connect:
   \   00000000   80B5               PUSH     {R7,LR}
   \   00000002   0221               MOVS     R1,#+2
   \   00000004   ........           LDR.W    R0,??DataTable34  ;; 0x40021000
   \   00000008   ........           BL       GPIO_ReadInputDataBit
   \   0000000C   0128               CMP      R0,#+1
   \   0000000E   01D1               BNE.N    ??IsAP_Connect_0
   \   00000010   0120               MOVS     R0,#+1
   \   00000012   00E0               B.N      ??IsAP_Connect_1
   \                     ??IsAP_Connect_0:
   \   00000014   0020               MOVS     R0,#+0
   \                     ??IsAP_Connect_1:
   \   00000016   02BD               POP      {R1,PC}          ;; return

   \                                 In section .text, align 2, keep-with-next
   \   static __interwork __softfp uint8_t IsTCP_Connect(void)
   \                     IsTCP_Connect:
   \   00000000   80B5               PUSH     {R7,LR}
   \   00000002   0121               MOVS     R1,#+1
   \   00000004   ........           LDR.W    R0,??DataTable34  ;; 0x40021000
   \   00000008   ........           BL       GPIO_ReadInputDataBit
   \   0000000C   0128               CMP      R0,#+1
   \   0000000E   01D1               BNE.N    ??IsTCP_Connect_0
   \   00000010   0120               MOVS     R0,#+1
   \   00000012   00E0               B.N      ??IsTCP_Connect_1
   \                     ??IsTCP_Connect_0:
   \   00000014   0020               MOVS     R0,#+0
   \                     ??IsTCP_Connect_1:
   \   00000016   02BD               POP      {R1,PC}          ;; return
     11          
     12          #include "eeprom.h"
     13          #include "nand_if.h"
     14          #include "History.h"
     15          
     16          

   \                                 In section .bss, align 4
     17          u8 Rx_PCBuffer[500];
   \                     Rx_PCBuffer:
   \   00000000                      DS8 500

   \                                 In section .bss, align 2
     18          u16 Rx_PCCount;
   \                     Rx_PCCount:
   \   00000000                      DS8 2
     19          

   \                                 In section .bss, align 1
     20          u8 WIFI_TestMode;
   \                     WIFI_TestMode:
   \   00000000                      DS8 1

   \                                 In section .text, align 2, keep-with-next
     21          void Send_WIFI_Status(void)
     22          {
   \                     Send_WIFI_Status:
   \   00000000   10B5               PUSH     {R4,LR}
     23               u8 WIFI_Flag;
     24              
     25               WIFI_Flag = Flag.Wifi_Check ;     
   \   00000002   ........           LDR.W    R0,??DataTable34_1
   \   00000006   0479               LDRB     R4,[R0, #+4]
     26               WIFI_Flag |= IsAP_Connect() << 1;
   \   00000008   ........           BL       IsAP_Connect
   \   0000000C   54EA4004           ORRS     R4,R4,R0, LSL #+1
     27               WIFI_Flag |= IsTCP_Connect() << 2;
   \   00000010   ........           BL       IsTCP_Connect
   \   00000014   54EA8004           ORRS     R4,R4,R0, LSL #+2
     28               memset(Buffer,0,sizeof(Buffer));
   \   00000018   4FF40072           MOV      R2,#+512
   \   0000001C   0021               MOVS     R1,#+0
   \   0000001E   ........           LDR.W    R0,??DataTable34_2
   \   00000022   ........           BL       memset
     29               sprintf((char*)Buffer,"WIFI%d,%d,[OK]\n" ,WIFI_Flag,Wifi_Result);
   \   00000026   ........           LDR.W    R0,??DataTable34_3
   \   0000002A   0378               LDRB     R3,[R0, #+0]
   \   0000002C   E4B2               UXTB     R4,R4            ;; ZeroExt  R4,R4,#+24,#+24
   \   0000002E   2200               MOVS     R2,R4
   \   00000030   ........           LDR.W    R1,??DataTable34_4
   \   00000034   ........           LDR.W    R0,??DataTable34_2
   \   00000038   ........           BL       sprintf
     30               puts_string(&PC_Comm,(char*)Buffer); 
   \   0000003C   ........           LDR.W    R1,??DataTable34_2
   \   00000040   ........           LDR.W    R0,??DataTable34_5
   \   00000044   ........           BL       puts_string
     31          }
   \   00000048   10BD               POP      {R4,PC}          ;; return
     32          

   \                                 In section .text, align 2, keep-with-next
     33          void Send_Refresh(void)
     34          {      
   \                     Send_Refresh:
   \   00000000   2DE9F041           PUSH     {R4-R8,LR}
   \   00000004   C0B0               SUB      SP,SP,#+256
     35               u8 WIFI_Flag;
     36              
     37               WIFI_Flag = Flag.Wifi_Check ;     
   \   00000006   ........           LDR.W    R0,??DataTable34_1
   \   0000000A   0679               LDRB     R6,[R0, #+4]
     38               WIFI_Flag |= IsAP_Connect() << 1;
   \   0000000C   ........           BL       IsAP_Connect
   \   00000010   56EA4006           ORRS     R6,R6,R0, LSL #+1
     39               WIFI_Flag |= IsTCP_Connect() << 2;
   \   00000014   ........           BL       IsTCP_Connect
   \   00000018   56EA8006           ORRS     R6,R6,R0, LSL #+2
     40               
     41               memset(Buffer,0,sizeof(Buffer));
   \   0000001C   4FF40072           MOV      R2,#+512
   \   00000020   0021               MOVS     R1,#+0
   \   00000022   ........           LDR.W    R0,??DataTable34_2
   \   00000026   ........           BL       memset
     42               sprintf((char*)Buffer,"DEBUG%02d/%02d/%02d,%02d:%02d:%02d,"
     43                       "%04d,%07d,%03d,%04d,"
     44                       "%+06.1f,%+06.1f,%+03d,%+03d,%02d,%04d,%04d,"
     45                       "%03d.%05d,%03d.%05d,%03d,%03d,%04.1f,%c,"
     46                       "%04d,%04d,%04d,%04d,%04d,%04d,"  
     47                       "%d,%d,%d,%d,"        // 운행시간
     48                       "%d,%d,%d,%d,%d,"     // ECO 검출
     49                       "%d,%d,%d,"                // 스피드 펄스 카운트
     50                       "%d,%d,%d,%d,%d,%d,%d,"        // 헤더정보
     51                       "%d,%d,%d,"                     // 부가정보
     52                       "%d,%d,%d,%d,"
     53                       "%d,%d,%d,%d,"
     54                       "[OK]\n",
     55                       SYSTEM_TIME.tm_year,SYSTEM_TIME.tm_mon,SYSTEM_TIME.tm_mday,
     56                       SYSTEM_TIME.tm_hour,SYSTEM_TIME.tm_min,SYSTEM_TIME.tm_sec,     
     57                       Info.DayDriveLength,
     58                       Info.TotalDriveLength,
     59                       Info.SPEED_Value,
     60                       Info.RPM_Value,
     61                       (float)Info.AccelX/10.0,
     62                       (float)Info.AccelY/10.0,
     63                       Info.EMS_Data.Tilt_X,
     64                       Info.EMS_Data.Tilt_Y,                
     65                       Info.MachineStatus,              
     66                       
     67                       EMS_Drive_Value.Day_StarterMotor,
     68                       Info.Total_StartCount,
     69                       
     70                       Info.GPSX/ 1000000,
     71                       Info.GPSX% 1000000,
     72                       Info.GPSY/ 1000000,
     73                       Info.GPSY% 1000000,                  
     74                       Info.Azimuth,
     75                       Info.EMS_Data.GPS_Speed,
     76                       (float)Info.EMS_Data.Gps_HDOP/10,
     77                       Flag.GPS_Check,
     78                       
     79                       Info.EMS_Data.CoolWaterTemp_Volt,
     80                       Info.EMS_Data.Battery_Volt,
     81                       Info.EMS_Data.AirPressure_Volt,
     82                       Info.EMS_Data.Acceller_Volt,
     83                       Info.EMS_Data.Fuel_Volt,
     84                       Info.EMS_Data.LPG_PWM_Value,
     85                       
     86                       EMS_Drive_Value.Drive_Time,
     87                       EMS_Drive_Value.DriveStop_Time,
     88                       EMS_Drive_Value.EngineStop_Time,
     89                       EMS_Drive_Value.EcoUse_Time,     
     90                       
     91                       EMS_Drive_Value.QuickStart_Count,
     92                       EMS_Drive_Value.QuickAccel_Count,
     93                       EMS_Drive_Value.QuickStop_Count,
     94                       EMS_Drive_Value.HighRPM_Count,                              
     95                       EMS_Drive_Value.Break_Count,                               
     96                       
     97                       Info.Total_Drive_PulsCount1,
     98                       Info.Total_Drive_PulsCount1,
     99                       Info.Total_Drive_PulsCount2,             
    100                       
    101                       NAND_Header_Index.Write_Point,
    102                       NAND_Header_Index.Page_Count,             
    103                       NAND_Data_Transmit.Start_Page,
    104                       NAND_Data_Transmit.End_Page,             
    105                       NAND_Header_Info.Start_Page,
    106                       NAND_Header_Info.End_Page,
    107                       Info.AccidentCount,            
    108          
    109                       Info.EMS3Sec_Count,
    110                       Info.EMS3Min_Count,
    111                       Info.Wifi_ErrorCount,
    112                       
    113                       EMSOn_Check,
    114                       EMSOff_Check,
    115                       EmsOnProgress,
    116                       EmsOffProgress,
    117                       
    118                       Info.Input_Status,
    119                       Info.Output_Status,             
    120                       WIFI_Flag,                        
    121                       Wifi_Result             
    122                            );   
   \   0000002A   ........           LDR.W    R0,??DataTable34_6
   \   0000002E   C46B               LDR      R4,[R0, #+60]
   \   00000030   ........           LDR.W    R5,??DataTable34_7  ;; 0xf4240
   \   00000034   ........           LDR.W    R0,??DataTable34_6
   \   00000038   876B               LDR      R7,[R0, #+56]
   \   0000003A   ........           LDR.W    R8,??DataTable34_7  ;; 0xf4240
   \   0000003E   ........           LDR.W    R0,??DataTable34_3
   \   00000042   0078               LDRB     R0,[R0, #+0]
   \   00000044   3E90               STR      R0,[SP, #+248]
   \   00000046   F6B2               UXTB     R6,R6            ;; ZeroExt  R6,R6,#+24,#+24
   \   00000048   3D96               STR      R6,[SP, #+244]
   \   0000004A   ........           LDR.W    R0,??DataTable34_6
   \   0000004E   90F85F00           LDRB     R0,[R0, #+95]
   \   00000052   3C90               STR      R0,[SP, #+240]
   \   00000054   ........           LDR.W    R0,??DataTable34_6
   \   00000058   B0F85D00           LDRH     R0,[R0, #+93]
   \   0000005C   3B90               STR      R0,[SP, #+236]
   \   0000005E   ........           LDR.W    R0,??DataTable34_8
   \   00000062   0088               LDRH     R0,[R0, #+0]
   \   00000064   3A90               STR      R0,[SP, #+232]
   \   00000066   ........           LDR.W    R0,??DataTable34_9
   \   0000006A   0088               LDRH     R0,[R0, #+0]
   \   0000006C   3990               STR      R0,[SP, #+228]
   \   0000006E   ........           LDR.W    R0,??DataTable34_10
   \   00000072   0078               LDRB     R0,[R0, #+0]
   \   00000074   3890               STR      R0,[SP, #+224]
   \   00000076   ........           LDR.W    R0,??DataTable34_11
   \   0000007A   0078               LDRB     R0,[R0, #+0]
   \   0000007C   3790               STR      R0,[SP, #+220]
   \   0000007E   ........           LDR.W    R0,??DataTable34_6
   \   00000082   90F86700           LDRB     R0,[R0, #+103]
   \   00000086   3690               STR      R0,[SP, #+216]
   \   00000088   ........           LDR.W    R0,??DataTable34_6
   \   0000008C   90F86600           LDRB     R0,[R0, #+102]
   \   00000090   3590               STR      R0,[SP, #+212]
   \   00000092   ........           LDR.W    R0,??DataTable34_6
   \   00000096   90F86500           LDRB     R0,[R0, #+101]
   \   0000009A   3490               STR      R0,[SP, #+208]
   \   0000009C   ........           LDR.W    R0,??DataTable34_6
   \   000000A0   808C               LDRH     R0,[R0, #+36]
   \   000000A2   3390               STR      R0,[SP, #+204]
   \   000000A4   ........           LDR.W    R0,??DataTable34_12
   \   000000A8   8068               LDR      R0,[R0, #+8]
   \   000000AA   3290               STR      R0,[SP, #+200]
   \   000000AC   ........           LDR.W    R0,??DataTable34_12
   \   000000B0   4068               LDR      R0,[R0, #+4]
   \   000000B2   3190               STR      R0,[SP, #+196]
   \   000000B4   ........           LDR.W    R0,??DataTable34_13
   \   000000B8   4068               LDR      R0,[R0, #+4]
   \   000000BA   3090               STR      R0,[SP, #+192]
   \   000000BC   ........           LDR.W    R0,??DataTable34_13
   \   000000C0   0068               LDR      R0,[R0, #+0]
   \   000000C2   2F90               STR      R0,[SP, #+188]
   \   000000C4   ........           LDR.W    R0,??DataTable34_14
   \   000000C8   4068               LDR      R0,[R0, #+4]
   \   000000CA   2E90               STR      R0,[SP, #+184]
   \   000000CC   ........           LDR.W    R0,??DataTable34_14
   \   000000D0   4088               LDRH     R0,[R0, #+2]
   \   000000D2   2D90               STR      R0,[SP, #+180]
   \   000000D4   ........           LDR.W    R0,??DataTable34_6
   \   000000D8   C08D               LDRH     R0,[R0, #+46]
   \   000000DA   2C90               STR      R0,[SP, #+176]
   \   000000DC   ........           LDR.W    R0,??DataTable34_6
   \   000000E0   D0F82A00           LDR      R0,[R0, #+42]
   \   000000E4   2B90               STR      R0,[SP, #+172]
   \   000000E6   ........           LDR.W    R0,??DataTable34_6
   \   000000EA   D0F82A00           LDR      R0,[R0, #+42]
   \   000000EE   2A90               STR      R0,[SP, #+168]
   \   000000F0   ........           LDR.W    R0,??DataTable34_15
   \   000000F4   408C               LDRH     R0,[R0, #+34]
   \   000000F6   2990               STR      R0,[SP, #+164]
   \   000000F8   ........           LDR.W    R0,??DataTable34_15
   \   000000FC   008C               LDRH     R0,[R0, #+32]
   \   000000FE   2890               STR      R0,[SP, #+160]
   \   00000100   ........           LDR.W    R0,??DataTable34_15
   \   00000104   C08B               LDRH     R0,[R0, #+30]
   \   00000106   2790               STR      R0,[SP, #+156]
   \   00000108   ........           LDR.W    R0,??DataTable34_15
   \   0000010C   408B               LDRH     R0,[R0, #+26]
   \   0000010E   2690               STR      R0,[SP, #+152]
   \   00000110   ........           LDR.W    R0,??DataTable34_15
   \   00000114   808B               LDRH     R0,[R0, #+28]
   \   00000116   2590               STR      R0,[SP, #+148]
   \   00000118   ........           LDR.W    R0,??DataTable34_15
   \   0000011C   4069               LDR      R0,[R0, #+20]
   \   0000011E   2490               STR      R0,[SP, #+144]
   \   00000120   ........           LDR.W    R0,??DataTable34_15
   \   00000124   0069               LDR      R0,[R0, #+16]
   \   00000126   2390               STR      R0,[SP, #+140]
   \   00000128   ........           LDR.W    R0,??DataTable34_15
   \   0000012C   C068               LDR      R0,[R0, #+12]
   \   0000012E   2290               STR      R0,[SP, #+136]
   \   00000130   ........           LDR.W    R0,??DataTable34_15
   \   00000134   4068               LDR      R0,[R0, #+4]
   \   00000136   2190               STR      R0,[SP, #+132]
   \   00000138   ........           LDR.W    R0,??DataTable34_6
   \   0000013C   B0F85100           LDRH     R0,[R0, #+81]
   \   00000140   2090               STR      R0,[SP, #+128]
   \   00000142   ........           LDR.W    R0,??DataTable34_6
   \   00000146   B0F84700           LDRH     R0,[R0, #+71]
   \   0000014A   1F90               STR      R0,[SP, #+124]
   \   0000014C   ........           LDR.W    R0,??DataTable34_6
   \   00000150   B0F84F00           LDRH     R0,[R0, #+79]
   \   00000154   1E90               STR      R0,[SP, #+120]
   \   00000156   ........           LDR.W    R0,??DataTable34_6
   \   0000015A   B0F84B00           LDRH     R0,[R0, #+75]
   \   0000015E   1D90               STR      R0,[SP, #+116]
   \   00000160   ........           LDR.W    R0,??DataTable34_6
   \   00000164   B0F84900           LDRH     R0,[R0, #+73]
   \   00000168   1C90               STR      R0,[SP, #+112]
   \   0000016A   ........           LDR.W    R0,??DataTable34_6
   \   0000016E   B0F84D00           LDRH     R0,[R0, #+77]
   \   00000172   1B90               STR      R0,[SP, #+108]
   \   00000174   ........           LDR.W    R0,??DataTable34_1
   \   00000178   C078               LDRB     R0,[R0, #+3]
   \   0000017A   1A90               STR      R0,[SP, #+104]
   \   0000017C   ........           LDR.W    R0,??DataTable34_6
   \   00000180   B0F85700           LDRH     R0,[R0, #+87]
   \   00000184   ........           BL       __aeabi_ui2f
   \   00000188   ........           LDR.W    R1,??DataTable34_16  ;; 0x41200000
   \   0000018C   ........           BL       __aeabi_fdiv
   \   00000190   ........           BL       __aeabi_f2d
   \   00000194   CDE91801           STRD     R0,R1,[SP, #+96]
   \   00000198   ........           LDR.W    R0,??DataTable34_6
   \   0000019C   B0F85500           LDRH     R0,[R0, #+85]
   \   000001A0   1690               STR      R0,[SP, #+88]
   \   000001A2   ........           LDR.W    R0,??DataTable34_6
   \   000001A6   B0F84000           LDRH     R0,[R0, #+64]
   \   000001AA   1590               STR      R0,[SP, #+84]
   \   000001AC   B4FBF5F0           UDIV     R0,R4,R5
   \   000001B0   05FB1040           MLS      R0,R5,R0,R4
   \   000001B4   1490               STR      R0,[SP, #+80]
   \   000001B6   ........           LDR.W    R0,??DataTable34_6
   \   000001BA   C06B               LDR      R0,[R0, #+60]
   \   000001BC   ........           LDR.W    R1,??DataTable34_7  ;; 0xf4240
   \   000001C0   B0FBF1F0           UDIV     R0,R0,R1
   \   000001C4   1390               STR      R0,[SP, #+76]
   \   000001C6   B7FBF8F0           UDIV     R0,R7,R8
   \   000001CA   08FB1070           MLS      R0,R8,R0,R7
   \   000001CE   1290               STR      R0,[SP, #+72]
   \   000001D0   ........           LDR.W    R0,??DataTable34_6
   \   000001D4   806B               LDR      R0,[R0, #+56]
   \   000001D6   ........           LDR.W    R1,??DataTable34_7  ;; 0xf4240
   \   000001DA   B0FBF1F0           UDIV     R0,R0,R1
   \   000001DE   1190               STR      R0,[SP, #+68]
   \   000001E0   ........           LDR.W    R0,??DataTable34_6
   \   000001E4   D0F82600           LDR      R0,[R0, #+38]
   \   000001E8   1090               STR      R0,[SP, #+64]
   \   000001EA   ........           LDR.W    R0,??DataTable34_15
   \   000001EE   008B               LDRH     R0,[R0, #+24]
   \   000001F0   0F90               STR      R0,[SP, #+60]
   \   000001F2   ........           LDR.W    R0,??DataTable34_6
   \   000001F6   90F84600           LDRB     R0,[R0, #+70]
   \   000001FA   0E90               STR      R0,[SP, #+56]
   \   000001FC   ........           LDR.W    R0,??DataTable34_6
   \   00000200   90F95400           LDRSB    R0,[R0, #+84]
   \   00000204   0D90               STR      R0,[SP, #+52]
   \   00000206   ........           LDR.W    R0,??DataTable34_6
   \   0000020A   90F95300           LDRSB    R0,[R0, #+83]
   \   0000020E   0C90               STR      R0,[SP, #+48]
   \   00000210   ........           LDR.W    R0,??DataTable34_6
   \   00000214   B0F94400           LDRSH    R0,[R0, #+68]
   \   00000218   ........           BL       __aeabi_i2f
   \   0000021C   ........           BL       __aeabi_f2d
   \   00000220   0022               MOVS     R2,#+0
   \   00000222   ........           LDR.W    R3,??DataTable34_17  ;; 0x40240000
   \   00000226   ........           BL       __aeabi_ddiv
   \   0000022A   CDE90A01           STRD     R0,R1,[SP, #+40]
   \   0000022E   ........           LDR.W    R0,??DataTable34_6
   \   00000232   B0F94200           LDRSH    R0,[R0, #+66]
   \   00000236   ........           BL       __aeabi_i2f
   \   0000023A   ........           BL       __aeabi_f2d
   \   0000023E   0022               MOVS     R2,#+0
   \   00000240   ........           LDR.W    R3,??DataTable34_17  ;; 0x40240000
   \   00000244   ........           BL       __aeabi_ddiv
   \   00000248   CDE90801           STRD     R0,R1,[SP, #+32]
   \   0000024C   ........           LDR.W    R0,??DataTable34_6
   \   00000250   B0F83500           LDRH     R0,[R0, #+53]
   \   00000254   0790               STR      R0,[SP, #+28]
   \   00000256   ........           LDR.W    R0,??DataTable34_6
   \   0000025A   90F83400           LDRB     R0,[R0, #+52]
   \   0000025E   0690               STR      R0,[SP, #+24]
   \   00000260   ........           LDR.W    R0,??DataTable34_6
   \   00000264   C069               LDR      R0,[R0, #+28]
   \   00000266   0590               STR      R0,[SP, #+20]
   \   00000268   ........           LDR.W    R0,??DataTable34_6
   \   0000026C   408B               LDRH     R0,[R0, #+26]
   \   0000026E   0490               STR      R0,[SP, #+16]
   \   00000270   ........           LDR.W    R0,??DataTable34_18
   \   00000274   0068               LDR      R0,[R0, #+0]
   \   00000276   0390               STR      R0,[SP, #+12]
   \   00000278   ........           LDR.W    R0,??DataTable34_18
   \   0000027C   4068               LDR      R0,[R0, #+4]
   \   0000027E   0290               STR      R0,[SP, #+8]
   \   00000280   ........           LDR.W    R0,??DataTable34_18
   \   00000284   8068               LDR      R0,[R0, #+8]
   \   00000286   0190               STR      R0,[SP, #+4]
   \   00000288   ........           LDR.W    R0,??DataTable34_18
   \   0000028C   C068               LDR      R0,[R0, #+12]
   \   0000028E   0090               STR      R0,[SP, #+0]
   \   00000290   ........           LDR.W    R0,??DataTable34_18
   \   00000294   0369               LDR      R3,[R0, #+16]
   \   00000296   ........           LDR.W    R0,??DataTable34_18
   \   0000029A   4269               LDR      R2,[R0, #+20]
   \   0000029C   ........           ADR.W    R1,`?<Constant "DEBUG%02d/%02d/%02d,%...">`
   \   000002A0   ........           LDR.W    R0,??DataTable34_2
   \   000002A4   ........           BL       sprintf
    123               
    124               puts_string(&PC_Comm,(char*)Buffer);
   \   000002A8   ........           LDR.W    R1,??DataTable34_2
   \   000002AC   ........           LDR.W    R0,??DataTable34_5
   \   000002B0   ........           BL       puts_string
    125          }
   \   000002B4   40B0               ADD      SP,SP,#+256
   \   000002B6   BDE8F081           POP      {R4-R8,PC}       ;; return
    126          

   \                                 In section .text, align 2, keep-with-next
    127          void Send_GPS(void)
    128          {
   \                     Send_GPS:
   \   00000000   00B5               PUSH     {LR}
   \   00000002   91B0               SUB      SP,SP,#+68
    129               sprintf((char *)Buffer,
    130                       "GPS%d,%d,"
    131                       "%d,%d,%d,%d,%d,%d,%d,%d,"
    132                       "%d,%d,%d,%d,%d,%d,%d,%d,[OK]\n",
    133                            GPS_RouteCheck.GPS_RouteEnable,
    134                            GPS_RouteCheck.GPS_RouteSection,
    135          
    136                            GPS_RouteCheck.Route[0].Longitude,
    137                            GPS_RouteCheck.Route[0].Latitude,
    138          
    139                            GPS_RouteCheck.Route[1].Longitude,
    140                            GPS_RouteCheck.Route[1].Latitude,
    141          
    142                            GPS_RouteCheck.Route[2].Longitude,
    143                            GPS_RouteCheck.Route[2].Latitude,
    144          
    145                            GPS_RouteCheck.Route[3].Longitude,
    146                            GPS_RouteCheck.Route[3].Latitude,
    147          
    148                            GPS_RouteCheck.Route[4].Longitude,
    149                            GPS_RouteCheck.Route[4].Latitude,
    150          
    151                            GPS_RouteCheck.Route[5].Longitude,
    152                            GPS_RouteCheck.Route[5].Latitude,
    153          
    154                            GPS_RouteCheck.Route[6].Longitude,
    155                            GPS_RouteCheck.Route[6].Latitude,
    156          
    157                            GPS_RouteCheck.Route[7].Longitude,
    158                            GPS_RouteCheck.Route[7].Latitude
    159                                 );
   \   00000004   ........           LDR.W    R0,??DataTable34_19
   \   00000008   D0F83E00           LDR      R0,[R0, #+62]
   \   0000000C   0F90               STR      R0,[SP, #+60]
   \   0000000E   ........           LDR.W    R0,??DataTable34_19
   \   00000012   D0F83A00           LDR      R0,[R0, #+58]
   \   00000016   0E90               STR      R0,[SP, #+56]
   \   00000018   ........           LDR.W    R0,??DataTable34_19
   \   0000001C   D0F83600           LDR      R0,[R0, #+54]
   \   00000020   0D90               STR      R0,[SP, #+52]
   \   00000022   ........           LDR.W    R0,??DataTable34_19
   \   00000026   D0F83200           LDR      R0,[R0, #+50]
   \   0000002A   0C90               STR      R0,[SP, #+48]
   \   0000002C   ........           LDR.W    R0,??DataTable34_19
   \   00000030   D0F82E00           LDR      R0,[R0, #+46]
   \   00000034   0B90               STR      R0,[SP, #+44]
   \   00000036   ........           LDR.W    R0,??DataTable34_19
   \   0000003A   D0F82A00           LDR      R0,[R0, #+42]
   \   0000003E   0A90               STR      R0,[SP, #+40]
   \   00000040   ........           LDR.W    R0,??DataTable34_19
   \   00000044   D0F82600           LDR      R0,[R0, #+38]
   \   00000048   0990               STR      R0,[SP, #+36]
   \   0000004A   ........           LDR.W    R0,??DataTable34_19
   \   0000004E   D0F82200           LDR      R0,[R0, #+34]
   \   00000052   0890               STR      R0,[SP, #+32]
   \   00000054   ........           LDR.W    R0,??DataTable34_19
   \   00000058   D0F81E00           LDR      R0,[R0, #+30]
   \   0000005C   0790               STR      R0,[SP, #+28]
   \   0000005E   ........           LDR.W    R0,??DataTable34_19
   \   00000062   D0F81A00           LDR      R0,[R0, #+26]
   \   00000066   0690               STR      R0,[SP, #+24]
   \   00000068   ........           LDR.W    R0,??DataTable34_19
   \   0000006C   D0F81600           LDR      R0,[R0, #+22]
   \   00000070   0590               STR      R0,[SP, #+20]
   \   00000072   ........           LDR.W    R0,??DataTable34_19
   \   00000076   D0F81200           LDR      R0,[R0, #+18]
   \   0000007A   0490               STR      R0,[SP, #+16]
   \   0000007C   ........           LDR.W    R0,??DataTable34_19
   \   00000080   D0F80E00           LDR      R0,[R0, #+14]
   \   00000084   0390               STR      R0,[SP, #+12]
   \   00000086   ........           LDR.W    R0,??DataTable34_19
   \   0000008A   D0F80A00           LDR      R0,[R0, #+10]
   \   0000008E   0290               STR      R0,[SP, #+8]
   \   00000090   ........           LDR.W    R0,??DataTable34_19
   \   00000094   D0F80600           LDR      R0,[R0, #+6]
   \   00000098   0190               STR      R0,[SP, #+4]
   \   0000009A   ........           LDR.W    R0,??DataTable34_19
   \   0000009E   D0F80200           LDR      R0,[R0, #+2]
   \   000000A2   0090               STR      R0,[SP, #+0]
   \   000000A4   ........           LDR.W    R0,??DataTable34_19
   \   000000A8   4378               LDRB     R3,[R0, #+1]
   \   000000AA   ........           LDR.W    R0,??DataTable34_19
   \   000000AE   0278               LDRB     R2,[R0, #+0]
   \   000000B0   ........           ADR.W    R1,`?<Constant "GPS%d,%d,%d,%d,%d,%d,...">`
   \   000000B4   ........           LDR.W    R0,??DataTable34_2
   \   000000B8   ........           BL       sprintf
    160               puts_string(&PC_Comm,(char*)Buffer);        
   \   000000BC   ........           LDR.W    R1,??DataTable34_2
   \   000000C0   ........           LDR.W    R0,??DataTable34_5
   \   000000C4   ........           BL       puts_string
    161          }
   \   000000C8   11B0               ADD      SP,SP,#+68
   \   000000CA   00BD               POP      {PC}             ;; return
    162          
    163          

   \                                 In section .text, align 2, keep-with-next
    164          void Send_WIFI(void)
    165          {
   \                     Send_WIFI:
   \   00000000   00B5               PUSH     {LR}
   \   00000002   83B0               SUB      SP,SP,#+12
    166            //   u16 Point,Point2;
    167               sprintf((char*)Buffer,
    168                       "WIFE%s,%s,%s,%s,[OK]\n",                                  
    169                       
    170                        SFLASH_Wifi.ServerIP,
    171                        SFLASH_Wifi.ServerPort,
    172                        SFLASH_Wifi.SSID,
    173                        SFLASH_Wifi.WWPA
    174                             );
   \   00000004   ........           LDR.W    R0,??DataTable34_20
   \   00000008   0190               STR      R0,[SP, #+4]
   \   0000000A   ........           LDR.W    R0,??DataTable34_21
   \   0000000E   0090               STR      R0,[SP, #+0]
   \   00000010   ........           LDR.W    R3,??DataTable34_22
   \   00000014   ........           LDR.W    R2,??DataTable34_23
   \   00000018   ........           ADR.W    R1,`?<Constant "WIFE%s,%s,%s,%s,[OK]\\n">`
   \   0000001C   ........           LDR.W    R0,??DataTable34_2
   \   00000020   ........           BL       sprintf
    175               
    176               puts_string(&PC_Comm,(char*)Buffer);                
   \   00000024   ........           LDR.W    R1,??DataTable34_2
   \   00000028   ........           LDR.W    R0,??DataTable34_5
   \   0000002C   ........           BL       puts_string
    177          }
   \   00000030   07BD               POP      {R0-R2,PC}       ;; return
    178          
    179          

   \                                 In section .text, align 2, keep-with-next
    180          void Send_Setting(void)
    181          {
   \                     Send_Setting:
   \   00000000   00B5               PUSH     {LR}
   \   00000002   ADB0               SUB      SP,SP,#+180
    182               sprintf((char*)Buffer,"SETTING%s,%s,%s,%s,%12s,"             
    183                       "%d,%d,%d,%d,%d,%d,"
    184                       "%d,%d,%d,%d,"
    185                       "%d,%d,%d,%d,%d,%d,%d,"
    186                       "%c,%d,%d,%d,%d," 
    187                       "%s,%s,%s,%s,%s,"
    188                       "%d,%d,"
    189                       "%d,%d,%d,%d," // Reserve
    190                       "%d,%d,%d,%d,"
    191                       "NAND%x,%x,%x,%x,[OK]\n",
    192                            
    193                            FirmVersion,//SFLASH_CarInfo.FirmWareVer,
    194                            SFLASH_CarInfo.SerialNumber,
    195                            SFLASH_CarInfo.MachineVer,
    196                            SFLASH_CarInfo.Recognition,
    197                            
    198                            SFLASH_CarInfo.CarNum,                               
    199                            
    200                            SFLASH_Memory.SPEED_Adjust,
    201                            SFLASH_Memory.RPM_Adjust,
    202                            
    203                            SFLASH_Memory.Distance_Adjust,
    204                            SFLASH_Memory.SPEED_Reference,
    205                            SFLASH_Memory.RPM_Reference,                                
    206                            SFLASH_Memory.Voice_Volume,
    207                            
    208                            SFLASH_Memory.FastOverSpeed ,         // 과속 기준
    209                            SFLASH_Memory.QuickStop,			// 급정지 기준
    210                            SFLASH_Memory.QuickAccel,			// 급출발 기준
    211                            SFLASH_Memory.OverloadRPM,			// 과부하 기준
    212                            
    213                            SFLASH_Memory.EMS.Battery_Volt,
    214                            SFLASH_Memory.EMS.ColdWaterTemp_Volt,
    215                            SFLASH_Memory.EMS.Air_Volt,
    216                            SFLASH_Memory.EMS.TILTX_Limit,
    217                            SFLASH_Memory.EMS.TILTY_Limit,
    218                            SFLASH_Memory.EMS.LimitSpeed,
    219                            SFLASH_Memory.EMS.StopTime,
    220                            
    221                            SFLASH_Memory.Tilt_Reference,
    222                            SFLASH_Memory.TiltRefX,
    223                            SFLASH_Memory.TiltRefY,
    224                            SFLASH_Memory.EventRefX,
    225                            SFLASH_Memory.EventRefY,
    226                            
    227                            SFLASH_Memory.Driver[0],
    228                            SFLASH_Memory.Driver[1],
    229                            SFLASH_Memory.Driver[2],
    230                            SFLASH_Memory.Driver[3],
    231                            SFLASH_Memory.Driver[4],
    232                            
    233          
    234                            SFLASH_Memory.Home.Longitude,        //경도 시작
    235                            SFLASH_Memory.Home.Latitude,         //위도 시작
    236          
    237                            SFLASH_Memory.QuickStart,            // 급가속 기준
    238                            SFLASH_Memory.DTG_EMS_Select,        // 
    239                            Info.Total_StartCount,               // 시동모터 횟수
    240                            Info.TotalDriveLength,               // 총운행거리
    241              
    242                            SFLASH_Memory.GPS_EMS_Use,                  
    243                            SFLASH_Memory.IO_Reverser,
    244                            SFLASH_Memory.Car_Maker, 
    245                            SFLASH_Memory.EMS.USE_Enable,
    246                            
    247                            //--------- 메모리 관련                                
    248                            NAND_ID.Maker_ID,
    249                            NAND_ID.Device_ID,
    250                            NAND_ID.Third_ID,
    251                            NAND_ID.Fourth_ID
    252                                 );      
   \   00000004   ........           LDR.W    R0,??DataTable34_24
   \   00000008   C078               LDRB     R0,[R0, #+3]
   \   0000000A   2B90               STR      R0,[SP, #+172]
   \   0000000C   ........           LDR.W    R0,??DataTable34_24
   \   00000010   8078               LDRB     R0,[R0, #+2]
   \   00000012   2A90               STR      R0,[SP, #+168]
   \   00000014   ........           LDR.W    R0,??DataTable34_24
   \   00000018   4078               LDRB     R0,[R0, #+1]
   \   0000001A   2990               STR      R0,[SP, #+164]
   \   0000001C   ........           LDR.W    R0,??DataTable34_24
   \   00000020   0078               LDRB     R0,[R0, #+0]
   \   00000022   2890               STR      R0,[SP, #+160]
   \   00000024   ........           LDR.W    R0,??DataTable34_25
   \   00000028   90F88A00           LDRB     R0,[R0, #+138]
   \   0000002C   2790               STR      R0,[SP, #+156]
   \   0000002E   ........           LDR.W    R0,??DataTable34_25
   \   00000032   0078               LDRB     R0,[R0, #+0]
   \   00000034   2690               STR      R0,[SP, #+152]
   \   00000036   ........           LDR.W    R0,??DataTable34_25
   \   0000003A   B0F8A000           LDRH     R0,[R0, #+160]
   \   0000003E   2590               STR      R0,[SP, #+148]
   \   00000040   ........           LDR.W    R0,??DataTable34_25
   \   00000044   90F88900           LDRB     R0,[R0, #+137]
   \   00000048   2490               STR      R0,[SP, #+144]
   \   0000004A   ........           LDR.W    R0,??DataTable34_6
   \   0000004E   C069               LDR      R0,[R0, #+28]
   \   00000050   2390               STR      R0,[SP, #+140]
   \   00000052   ........           LDR.W    R0,??DataTable34_6
   \   00000056   D0F82600           LDR      R0,[R0, #+38]
   \   0000005A   2290               STR      R0,[SP, #+136]
   \   0000005C   ........           LDR.W    R0,??DataTable34_25
   \   00000060   90F8A400           LDRB     R0,[R0, #+164]
   \   00000064   2190               STR      R0,[SP, #+132]
   \   00000066   ........           LDR.W    R0,??DataTable34_25
   \   0000006A   B0F89C00           LDRH     R0,[R0, #+156]
   \   0000006E   2090               STR      R0,[SP, #+128]
   \   00000070   ........           LDR.W    R0,??DataTable34_25
   \   00000074   D0F88500           LDR      R0,[R0, #+133]
   \   00000078   1F90               STR      R0,[SP, #+124]
   \   0000007A   ........           LDR.W    R0,??DataTable34_25
   \   0000007E   D0F88100           LDR      R0,[R0, #+129]
   \   00000082   1E90               STR      R0,[SP, #+120]
   \   00000084   ........           LDR.W    R0,??DataTable34_26
   \   00000088   1D90               STR      R0,[SP, #+116]
   \   0000008A   ........           LDR.W    R0,??DataTable34_27
   \   0000008E   1C90               STR      R0,[SP, #+112]
   \   00000090   ........           LDR.W    R0,??DataTable34_28
   \   00000094   1B90               STR      R0,[SP, #+108]
   \   00000096   ........           LDR.W    R0,??DataTable34_29
   \   0000009A   1A90               STR      R0,[SP, #+104]
   \   0000009C   ........           LDR.W    R0,??DataTable34_30
   \   000000A0   1990               STR      R0,[SP, #+100]
   \   000000A2   ........           LDR.W    R0,??DataTable34_25
   \   000000A6   D0F87D00           LDR      R0,[R0, #+125]
   \   000000AA   1890               STR      R0,[SP, #+96]
   \   000000AC   ........           LDR.W    R0,??DataTable34_25
   \   000000B0   D0F87900           LDR      R0,[R0, #+121]
   \   000000B4   1790               STR      R0,[SP, #+92]
   \   000000B6   ........           LDR.W    R0,??DataTable34_25
   \   000000BA   D0F87500           LDR      R0,[R0, #+117]
   \   000000BE   1690               STR      R0,[SP, #+88]
   \   000000C0   ........           LDR.W    R0,??DataTable34_25
   \   000000C4   D0F87100           LDR      R0,[R0, #+113]
   \   000000C8   1590               STR      R0,[SP, #+84]
   \   000000CA   ........           LDR.W    R0,??DataTable34_25
   \   000000CE   90F87000           LDRB     R0,[R0, #+112]
   \   000000D2   1490               STR      R0,[SP, #+80]
   \   000000D4   ........           LDR.W    R0,??DataTable34_25
   \   000000D8   B0F89400           LDRH     R0,[R0, #+148]
   \   000000DC   1390               STR      R0,[SP, #+76]
   \   000000DE   ........           LDR.W    R0,??DataTable34_25
   \   000000E2   90F89300           LDRB     R0,[R0, #+147]
   \   000000E6   1290               STR      R0,[SP, #+72]
   \   000000E8   ........           LDR.W    R0,??DataTable34_25
   \   000000EC   90F99200           LDRSB    R0,[R0, #+146]
   \   000000F0   1190               STR      R0,[SP, #+68]
   \   000000F2   ........           LDR.W    R0,??DataTable34_25
   \   000000F6   90F99100           LDRSB    R0,[R0, #+145]
   \   000000FA   1090               STR      R0,[SP, #+64]
   \   000000FC   ........           LDR.W    R0,??DataTable34_25
   \   00000100   B0F88F00           LDRH     R0,[R0, #+143]
   \   00000104   0F90               STR      R0,[SP, #+60]
   \   00000106   ........           LDR.W    R0,??DataTable34_25
   \   0000010A   B0F88D00           LDRH     R0,[R0, #+141]
   \   0000010E   0E90               STR      R0,[SP, #+56]
   \   00000110   ........           LDR.W    R0,??DataTable34_25
   \   00000114   B0F88B00           LDRH     R0,[R0, #+139]
   \   00000118   0D90               STR      R0,[SP, #+52]
   \   0000011A   ........           LDR.W    R0,??DataTable34_25
   \   0000011E   B0F89E00           LDRH     R0,[R0, #+158]
   \   00000122   0C90               STR      R0,[SP, #+48]
   \   00000124   ........           LDR.W    R0,??DataTable34_25
   \   00000128   B0F89800           LDRH     R0,[R0, #+152]
   \   0000012C   0B90               STR      R0,[SP, #+44]
   \   0000012E   ........           LDR.W    R0,??DataTable34_25
   \   00000132   B0F89A00           LDRH     R0,[R0, #+154]
   \   00000136   0A90               STR      R0,[SP, #+40]
   \   00000138   ........           LDR.W    R0,??DataTable34_25
   \   0000013C   B0F89600           LDRH     R0,[R0, #+150]
   \   00000140   0990               STR      R0,[SP, #+36]
   \   00000142   ........           LDR.W    R0,??DataTable34_25
   \   00000146   90F8A300           LDRB     R0,[R0, #+163]
   \   0000014A   0890               STR      R0,[SP, #+32]
   \   0000014C   ........           LDR.W    R0,??DataTable34_25
   \   00000150   B0F86E00           LDRH     R0,[R0, #+110]
   \   00000154   0790               STR      R0,[SP, #+28]
   \   00000156   ........           LDR.W    R0,??DataTable34_25
   \   0000015A   B0F86C00           LDRH     R0,[R0, #+108]
   \   0000015E   0690               STR      R0,[SP, #+24]
   \   00000160   ........           LDR.W    R0,??DataTable34_25
   \   00000164   806E               LDR      R0,[R0, #+104]
   \   00000166   0590               STR      R0,[SP, #+20]
   \   00000168   ........           LDR.W    R0,??DataTable34_25
   \   0000016C   006E               LDR      R0,[R0, #+96]
   \   0000016E   0490               STR      R0,[SP, #+16]
   \   00000170   ........           LDR.W    R0,??DataTable34_25
   \   00000174   406E               LDR      R0,[R0, #+100]
   \   00000176   0390               STR      R0,[SP, #+12]
   \   00000178   ........           LDR.W    R0,??DataTable34_31
   \   0000017C   0290               STR      R0,[SP, #+8]
   \   0000017E   ........           LDR.W    R0,??DataTable34_32
   \   00000182   0190               STR      R0,[SP, #+4]
   \   00000184   ........           LDR.W    R0,??DataTable34_33
   \   00000188   0090               STR      R0,[SP, #+0]
   \   0000018A   ........           LDR.W    R3,??DataTable34_34
   \   0000018E   ........           ADR.W    R2,`?<Constant "111219-01">`
   \   00000192   ........           ADR.W    R1,`?<Constant "SETTING%s,%s,%s,%s,%1...">`
   \   00000196   ........           LDR.W    R0,??DataTable34_2
   \   0000019A   ........           BL       sprintf
    253               puts_string(&PC_Comm,(char*)Buffer);     
   \   0000019E   ........           LDR.W    R1,??DataTable34_2
   \   000001A2   ........           LDR.W    R0,??DataTable35_1
   \   000001A6   ........           BL       puts_string
    254          }
   \   000001AA   2DB0               ADD      SP,SP,#+180
   \   000001AC   00BD               POP      {PC}             ;; return
    255          

   \                                 In section .text, align 2, keep-with-next
    256          void Send_Memroy(void)
    257          {                 
    258               
    259          }
   \                     Send_Memroy:
   \   00000000   7047               BX       LR               ;; return
    260          

   \                                 In section .text, align 2, keep-with-next
    261          void SettingGPS(char *String)
    262          {
   \                     SettingGPS:
   \   00000000   2DE9F043           PUSH     {R4-R9,LR}
   \   00000004   99B0               SUB      SP,SP,#+100
   \   00000006   0400               MOVS     R4,R0
    263               u8 TempChar[100];     
    264               int Point;
    265               u16 Point2, Setting_Count;     
    266               
    267               u16 Count,Count2;
    268               
    269               Point = -1;
   \   00000008   5FF0FF38           MOVS     R8,#-1
    270               Setting_Count = 0;    
   \   0000000C   0027               MOVS     R7,#+0
   \   0000000E   13E0               B.N      ??SettingGPS_0
    271                     
    272               while(1)
    273               {
    274                    Point2 = Point + 1;                          // , 다음부터 검사한다.
    275                    Point = FindString(String,Point2,',');
    276                    if(Point == 65535 || Point == -1)
    277                    {
    278                         Save_GPS();                          // 저장
    279                         strcpy((char*)Buffer,"[OK]\n");
    280                         puts_string(&PC_Comm,(char*)Buffer);                 
    281                         break;
    282                    }
    283                    memset(TempChar,0,sizeof(TempChar));
    284                    memcpy(TempChar, &String[Point2], Point - Point2 );
    285          
    286                    if(Setting_Count == 0)
    287                    {
    288                         GPS_RouteCheck.GPS_RouteEnable = atoi((char *)TempChar);                 
    289                    }                 
    290                    else if(Setting_Count == 1 )
    291                    {
    292                         GPS_RouteCheck.GPS_RouteSection = atoi((char *)TempChar);     
    293                         Count = 0;
    294                         Count2 = 0;
    295                    }else if( Setting_Count < 18)
    296                    {
    297                         if(Count == 0)
    298                              GPS_RouteCheck.Route[Count2].Longitude = atoi((char *)TempChar);
    299                         else if(Count == 1)
   \                     ??SettingGPS_1:
   \   00000010   B6B2               UXTH     R6,R6            ;; ZeroExt  R6,R6,#+16,#+16
   \   00000012   012E               CMP      R6,#+1
   \   00000014   09D1               BNE.N    ??SettingGPS_2
    300                              GPS_RouteCheck.Route[Count2].Latitude =  atoi((char *)TempChar);
   \   00000016   00A8               ADD      R0,SP,#+0
   \   00000018   ........           BL       atoi
   \   0000001C   ADB2               UXTH     R5,R5            ;; ZeroExt  R5,R5,#+16,#+16
   \   0000001E   ........           LDR.W    R1,??DataTable34_19
   \   00000022   11EBC501           ADDS     R1,R1,R5, LSL #+3
   \   00000026   C1F80600           STR      R0,[R1, #+6]
    301          //               else if(Count == 2)
    302          //                    GPS_RouteCheck.Route[Count2].Latitude2 = atoi(TempChar);
    303          //               else if(Count == 3)
    304          //                    GPS_RouteCheck.Route[Count2].Longitude2 = atoi(TempChar);
    305                         
    306                         Count++;
   \                     ??SettingGPS_2:
   \   0000002A   761C               ADDS     R6,R6,#+1
    307                         if(Count > 1 )
   \   0000002C   B6B2               UXTH     R6,R6            ;; ZeroExt  R6,R6,#+16,#+16
   \   0000002E   022E               CMP      R6,#+2
   \   00000030   01D3               BCC.N    ??SettingGPS_3
    308                         {
    309                              Count2++;
   \   00000032   6D1C               ADDS     R5,R5,#+1
    310                              Count = 0;                    
   \   00000034   0026               MOVS     R6,#+0
    311                         }
    312                    }
    313                    Setting_Count++;
   \                     ??SettingGPS_3:
   \   00000036   7F1C               ADDS     R7,R7,#+1
   \                     ??SettingGPS_0:
   \   00000038   18F10109           ADDS     R9,R8,#+1
   \   0000003C   2C22               MOVS     R2,#+44
   \   0000003E   1FFA89F9           UXTH     R9,R9            ;; ZeroExt  R9,R9,#+16,#+16
   \   00000042   4946               MOV      R1,R9
   \   00000044   2000               MOVS     R0,R4
   \   00000046   ........           BL       FindString
   \   0000004A   8046               MOV      R8,R0
   \   0000004C   4FF6FF70           MOVW     R0,#+65535
   \   00000050   8045               CMP      R8,R0
   \   00000052   02D0               BEQ.N    ??SettingGPS_4
   \   00000054   18F1010F           CMN      R8,#+1
   \   00000058   10D1               BNE.N    ??SettingGPS_5
   \                     ??SettingGPS_4:
   \   0000005A   ........           BL       Save_GPS
   \   0000005E   ........           ADR.W    R1,`?<Constant "[OK]\\n">`
   \   00000062   ........           LDR.W    R0,??DataTable34_2
   \   00000066   ........           BL       strcpy
   \   0000006A   ........           LDR.W    R1,??DataTable34_2
   \   0000006E   ........           LDR.W    R0,??DataTable34_5
   \   00000072   ........           BL       puts_string
    314               }
    315             
    316          }
   \   00000076   19B0               ADD      SP,SP,#+100
   \   00000078   BDE8F083           POP      {R4-R9,PC}       ;; return
   \                     ??SettingGPS_5:
   \   0000007C   6422               MOVS     R2,#+100
   \   0000007E   0021               MOVS     R1,#+0
   \   00000080   00A8               ADD      R0,SP,#+0
   \   00000082   ........           BL       memset
   \   00000086   1FFA89F9           UXTH     R9,R9            ;; ZeroExt  R9,R9,#+16,#+16
   \   0000008A   B8EB0902           SUBS     R2,R8,R9
   \   0000008E   1FFA89F9           UXTH     R9,R9            ;; ZeroExt  R9,R9,#+16,#+16
   \   00000092   19EB0401           ADDS     R1,R9,R4
   \   00000096   00A8               ADD      R0,SP,#+0
   \   00000098   ........           BL       memcpy
   \   0000009C   BFB2               UXTH     R7,R7            ;; ZeroExt  R7,R7,#+16,#+16
   \   0000009E   002F               CMP      R7,#+0
   \   000000A0   06D1               BNE.N    ??SettingGPS_6
   \   000000A2   00A8               ADD      R0,SP,#+0
   \   000000A4   ........           BL       atoi
   \   000000A8   ........           LDR.W    R1,??DataTable34_19
   \   000000AC   0870               STRB     R0,[R1, #+0]
   \   000000AE   C2E7               B.N      ??SettingGPS_3
   \                     ??SettingGPS_6:
   \   000000B0   BFB2               UXTH     R7,R7            ;; ZeroExt  R7,R7,#+16,#+16
   \   000000B2   012F               CMP      R7,#+1
   \   000000B4   08D1               BNE.N    ??SettingGPS_7
   \   000000B6   00A8               ADD      R0,SP,#+0
   \   000000B8   ........           BL       atoi
   \   000000BC   ........           LDR.W    R1,??DataTable34_19
   \   000000C0   4870               STRB     R0,[R1, #+1]
   \   000000C2   0026               MOVS     R6,#+0
   \   000000C4   0025               MOVS     R5,#+0
   \   000000C6   B6E7               B.N      ??SettingGPS_3
   \                     ??SettingGPS_7:
   \   000000C8   BFB2               UXTH     R7,R7            ;; ZeroExt  R7,R7,#+16,#+16
   \   000000CA   122F               CMP      R7,#+18
   \   000000CC   B3D2               BCS.N    ??SettingGPS_3
   \   000000CE   B6B2               UXTH     R6,R6            ;; ZeroExt  R6,R6,#+16,#+16
   \   000000D0   002E               CMP      R6,#+0
   \   000000D2   9DD1               BNE.N    ??SettingGPS_1
   \   000000D4   00A8               ADD      R0,SP,#+0
   \   000000D6   ........           BL       atoi
   \   000000DA   ADB2               UXTH     R5,R5            ;; ZeroExt  R5,R5,#+16,#+16
   \   000000DC   ........           LDR.W    R1,??DataTable34_19
   \   000000E0   11EBC501           ADDS     R1,R1,R5, LSL #+3
   \   000000E4   C1F80200           STR      R0,[R1, #+2]
   \   000000E8   9FE7               B.N      ??SettingGPS_2
    317          

   \                                 In section .text, align 2, keep-with-next
    318          void SettingWIFI(char *String)
    319          {
   \                     SettingWIFI:
   \   00000000   F0B5               PUSH     {R4-R7,LR}
   \   00000002   99B0               SUB      SP,SP,#+100
   \   00000004   0400               MOVS     R4,R0
    320               u8 TempChar[100];     
    321               int Point;
    322               u16 Point2, Setting_Count;     
    323          
    324               Point = -1;
   \   00000006   5FF0FF35           MOVS     R5,#-1
    325               Setting_Count = 0;    
   \   0000000A   0027               MOVS     R7,#+0
   \   0000000C   08E0               B.N      ??SettingWIFI_0
    326               
    327               while(1)
    328               {
    329                    Point2 = Point + 1;                          // , 다음부터 검사한다.
    330                    Point = FindString(String,Point2,',');
    331                    if(Point == 65535 || Point == -1)
    332                    {
    333                         SFLASH_Wifi.Verify = SFLASH_VERIFY3_WIFI;  
    334                         Save_SFLASH_CarInfo();                          // 저장
    335                         //-------------------------------------------------------------------
    336                         // 데이터를 저장하고 WIFI 세팅한다.
    337                         Flag.Wifi_SettingFlag = 1 ;               
    338                         strcpy((char *)Buffer,"[OK]\n");
    339                         puts_string(&PC_Comm,(char*)Buffer);                 
    340                         break;
    341                    }
    342                    memset(TempChar,0,sizeof(TempChar));
    343                    memcpy(TempChar, &String[Point2], Point - Point2 );
    344          
    345                    if(Setting_Count == 0)
    346                    {
    347                         strcpy((char *)SFLASH_Wifi.ServerIP, (char *)TempChar);
    348                    }else if(Setting_Count == 1)
    349                    {
    350                         strcpy((char *)SFLASH_Wifi.ServerPort, (char *)TempChar);
    351                    }else if(Setting_Count == 2)
    352                    {               
    353                         strcpy((char *)SFLASH_Wifi.SSID,(char *)TempChar);               
    354                    }else if(Setting_Count == 3)
   \                     ??SettingWIFI_1:
   \   0000000E   BFB2               UXTH     R7,R7            ;; ZeroExt  R7,R7,#+16,#+16
   \   00000010   032F               CMP      R7,#+3
   \   00000012   04D1               BNE.N    ??SettingWIFI_2
    355                    {
    356                         strcpy((char *)SFLASH_Wifi.WWPA,(char *)TempChar);
   \   00000014   00A9               ADD      R1,SP,#+0
   \   00000016   ........           LDR.W    R0,??DataTable34_20
   \   0000001A   ........           BL       strcpy
    357                    }
    358                    Setting_Count++;         
   \                     ??SettingWIFI_2:
   \   0000001E   7F1C               ADDS     R7,R7,#+1
   \                     ??SettingWIFI_0:
   \   00000020   6E1C               ADDS     R6,R5,#+1
   \   00000022   2C22               MOVS     R2,#+44
   \   00000024   B6B2               UXTH     R6,R6            ;; ZeroExt  R6,R6,#+16,#+16
   \   00000026   3100               MOVS     R1,R6
   \   00000028   2000               MOVS     R0,R4
   \   0000002A   ........           BL       FindString
   \   0000002E   0500               MOVS     R5,R0
   \   00000030   4FF6FF70           MOVW     R0,#+65535
   \   00000034   8542               CMP      R5,R0
   \   00000036   02D0               BEQ.N    ??SettingWIFI_3
   \   00000038   15F1010F           CMN      R5,#+1
   \   0000003C   25D1               BNE.N    ??SettingWIFI_4
   \                     ??SettingWIFI_3:
   \   0000003E   ........           LDR.W    R0,??DataTable34_21
   \   00000042   4AF24731           MOVW     R1,#+41799
   \   00000046   A0F84710           STRH     R1,[R0, #+71]
   \   0000004A   ........           BL       Save_SFLASH_CarInfo
   \   0000004E   ........           LDR.W    R0,??DataTable34_1
   \   00000052   0121               MOVS     R1,#+1
   \   00000054   8173               STRB     R1,[R0, #+14]
   \   00000056   ........           ADR.W    R1,`?<Constant "[OK]\\n">`
   \   0000005A   ........           LDR.W    R0,??DataTable34_2
   \   0000005E   ........           BL       strcpy
   \   00000062   ........           LDR.W    R1,??DataTable34_2
   \   00000066   ........           LDR.W    R0,??DataTable34_5
   \   0000006A   ........           BL       puts_string
    359               }
    360               strcpy((char *)Buffer,"[OK]\n");
   \   0000006E   ........           ADR.W    R1,`?<Constant "[OK]\\n">`
   \   00000072   ........           LDR.W    R0,??DataTable34_2
   \   00000076   ........           BL       strcpy
    361               puts_string(&PC_Comm,(char*)Buffer);         
   \   0000007A   ........           LDR.W    R1,??DataTable34_2
   \   0000007E   ........           LDR.W    R0,??DataTable34_5
   \   00000082   ........           BL       puts_string
    362          }
   \   00000086   19B0               ADD      SP,SP,#+100
   \   00000088   F0BD               POP      {R4-R7,PC}       ;; return
   \                     ??SettingWIFI_4:
   \   0000008A   6422               MOVS     R2,#+100
   \   0000008C   0021               MOVS     R1,#+0
   \   0000008E   00A8               ADD      R0,SP,#+0
   \   00000090   ........           BL       memset
   \   00000094   B6B2               UXTH     R6,R6            ;; ZeroExt  R6,R6,#+16,#+16
   \   00000096   AA1B               SUBS     R2,R5,R6
   \   00000098   B6B2               UXTH     R6,R6            ;; ZeroExt  R6,R6,#+16,#+16
   \   0000009A   3119               ADDS     R1,R6,R4
   \   0000009C   00A8               ADD      R0,SP,#+0
   \   0000009E   ........           BL       memcpy
   \   000000A2   BFB2               UXTH     R7,R7            ;; ZeroExt  R7,R7,#+16,#+16
   \   000000A4   002F               CMP      R7,#+0
   \   000000A6   05D1               BNE.N    ??SettingWIFI_5
   \   000000A8   00A9               ADD      R1,SP,#+0
   \   000000AA   ........           LDR.W    R0,??DataTable34_23
   \   000000AE   ........           BL       strcpy
   \   000000B2   B4E7               B.N      ??SettingWIFI_2
   \                     ??SettingWIFI_5:
   \   000000B4   BFB2               UXTH     R7,R7            ;; ZeroExt  R7,R7,#+16,#+16
   \   000000B6   012F               CMP      R7,#+1
   \   000000B8   05D1               BNE.N    ??SettingWIFI_6
   \   000000BA   00A9               ADD      R1,SP,#+0
   \   000000BC   ........           LDR.W    R0,??DataTable34_22
   \   000000C0   ........           BL       strcpy
   \   000000C4   ABE7               B.N      ??SettingWIFI_2
   \                     ??SettingWIFI_6:
   \   000000C6   BFB2               UXTH     R7,R7            ;; ZeroExt  R7,R7,#+16,#+16
   \   000000C8   022F               CMP      R7,#+2
   \   000000CA   A0D1               BNE.N    ??SettingWIFI_1
   \   000000CC   00A9               ADD      R1,SP,#+0
   \   000000CE   ........           LDR.W    R0,??DataTable34_21
   \   000000D2   ........           BL       strcpy
   \   000000D6   A2E7               B.N      ??SettingWIFI_2

   \                                 In section .text, align 2, keep-with-next
    363          void SettingParameter(char *String)
    364          {
   \                     SettingParameter:
   \   00000000   F0B5               PUSH     {R4-R7,LR}
   \   00000002   99B0               SUB      SP,SP,#+100
   \   00000004   0400               MOVS     R4,R0
    365               u8 TempChar[100];     
    366          
    367               int Point;
    368               u16 Point2, Setting_Count;     
    369                  
    370               Point = -1;
   \   00000006   5FF0FF35           MOVS     R5,#-1
    371               Setting_Count = 0;    
   \   0000000A   0026               MOVS     R6,#+0
   \   0000000C   04E0               B.N      ??SettingParameter_0
    372               
    373               while(1)
    374               {
    375                    Point2 = Point + 1;                          // , 다음부터 검사한다.
    376                    Point = FindString(String,Point2,',');
    377                    if(Point == 65535 || Point == -1)
    378                    {         
    379                 
    380                         SFLASH_CarInfo.Verify = SFLASH_VERIFY0_CARINFO;               
    381                         SFLASH_Memory.Verify = SFLASH_VERIFY1_MEMORY;
    382                         Save_SFLASH_CarInfo();                          // 저장
    383                         Save_SFLASH();                                    // 저장     
    384                         Write_Header_EMS();
    385                         DataSetting();
    386                         strcpy((char *)Buffer,"[OK]\n");   
    387                         puts_string(&PC_Comm,(char*)Buffer);                      
    388                         break;
    389                    }
    390                    memset(TempChar,0,sizeof(TempChar));
    391                    memcpy(TempChar, &String[Point2], Point - Point2 );
    392                              
    393            
    394                    switch(Setting_Count++)
    395                    {
    396                    case 0:
    397                         strcpy((char *)SFLASH_CarInfo.FirmWareVer , (char *)TempChar);
   \                     ??SettingParameter_1:
   \   0000000E   00A9               ADD      R1,SP,#+0
   \   00000010   ........           LDR.W    R0,??DataTable35_2
   \   00000014   ........           BL       strcpy
    398                         break;
   \                     ??SettingParameter_0:
   \   00000018   6F1C               ADDS     R7,R5,#+1
   \   0000001A   2C22               MOVS     R2,#+44
   \   0000001C   BFB2               UXTH     R7,R7            ;; ZeroExt  R7,R7,#+16,#+16
   \   0000001E   3900               MOVS     R1,R7
   \   00000020   2000               MOVS     R0,R4
   \   00000022   ........           BL       FindString
   \   00000026   0500               MOVS     R5,R0
   \   00000028   4FF6FF70           MOVW     R0,#+65535
   \   0000002C   8542               CMP      R5,R0
   \   0000002E   02D0               BEQ.N    ??SettingParameter_2
   \   00000030   15F1010F           CMN      R5,#+1
   \   00000034   1ED1               BNE.N    ??SettingParameter_3
   \                     ??SettingParameter_2:
   \   00000036   ........           LDR.W    R0,??DataTable35_2
   \   0000003A   4AF24431           MOVW     R1,#+41796
   \   0000003E   A0F85D10           STRH     R1,[R0, #+93]
   \   00000042   ........           LDR.W    R0,??DataTable34_25
   \   00000046   4AF24531           MOVW     R1,#+41797
   \   0000004A   A0F8B010           STRH     R1,[R0, #+176]
   \   0000004E   ........           BL       Save_SFLASH_CarInfo
   \   00000052   ........           BL       Save_SFLASH
   \   00000056   ........           BL       Write_Header_EMS
   \   0000005A   ........           BL       DataSetting
   \   0000005E   ........           ADR.W    R1,`?<Constant "[OK]\\n">`
   \   00000062   ....               LDR.N    R0,??DataTable34_2
   \   00000064   ........           BL       strcpy
   \   00000068   ....               LDR.N    R1,??DataTable34_2
   \   0000006A   ....               LDR.N    R0,??DataTable34_5
   \   0000006C   ........           BL       puts_string
    399                    case 1:
    400                         strcpy((char *)SFLASH_CarInfo.SerialNumber , (char *)TempChar);
    401                         break;
    402                    case 2:
    403                         strcpy((char *)SFLASH_CarInfo.MachineVer , (char *)TempChar);
    404                         break;
    405                    case 3:
    406                         strcpy((char *)SFLASH_CarInfo.Recognition , (char *)TempChar);
    407                         break;
    408                    case 4:
    409                         strcpy((char *)SFLASH_CarInfo.CarNum , (char *)TempChar);
    410                         break;
    411                    case 5:
    412                         SFLASH_Memory.SPEED_Adjust = atoi((char *)TempChar);
    413                         break;
    414                    case 6:
    415                         SFLASH_Memory.RPM_Adjust = atoi((char *)TempChar);
    416                         break;
    417                    case 7:
    418                         SFLASH_Memory.Distance_Adjust = atoi((char *)TempChar);
    419                         break;
    420                    case 8:
    421                         SFLASH_Memory.SPEED_Reference = atoi((char *)TempChar);
    422                         break;
    423                    case 9:
    424                         SFLASH_Memory.RPM_Reference = atoi((char *)TempChar);
    425                         break;
    426                    case 10:
    427                         SFLASH_Memory.Voice_Volume = atoi((char *)TempChar);
    428                         break;
    429                    case 11:
    430                         SFLASH_Memory.FastOverSpeed = atoi((char *)TempChar);
    431                         break;
    432                    case 12:
    433                         SFLASH_Memory.QuickStop = atoi((char *)TempChar);
    434                         break;
    435                    case 13:
    436                         SFLASH_Memory.QuickAccel = atoi((char *)TempChar);
    437                         break;
    438                    case 14:
    439                         SFLASH_Memory.OverloadRPM = atoi((char *)TempChar);
    440                         break;                    
    441                    case 15:                             
    442                         SFLASH_Memory.EMS.Battery_Volt = atoi((char *)TempChar);
    443                         break;
    444                    case 16:
    445                         SFLASH_Memory.EMS.ColdWaterTemp_Volt = atoi((char *)TempChar);
    446                         break;
    447                    case 17:
    448                         SFLASH_Memory.EMS.Air_Volt = atoi((char *)TempChar);
    449                         break;
    450                    case 18:
    451                         SFLASH_Memory.EMS.TILTX_Limit = atoi((char *)TempChar);
    452                         break;
    453                    case 19:
    454                         SFLASH_Memory.EMS.TILTY_Limit = atoi((char *)TempChar);
    455                         break;
    456                    case 20:
    457                         SFLASH_Memory.EMS.LimitSpeed = atoi((char *)TempChar);
    458                         break;                             
    459                    case 21:
    460                         SFLASH_Memory.EMS.StopTime = atoi((char *)TempChar);
    461                         break;                             
    462                    case 22:
    463                         SFLASH_Memory.Tilt_Reference = TempChar[0];
    464                         break;                             
    465                    case 23:
    466                         SFLASH_Memory.TiltRefX = atoi((char *)TempChar);
    467                         break;                             
    468                    case 24:
    469                         SFLASH_Memory.TiltRefY = atoi((char *)TempChar);
    470                         break;                             
    471                    case 25:
    472                         SFLASH_Memory.EventRefX = atoi((char *)TempChar);
    473                         break;                 
    474                    case 26:
    475                         SFLASH_Memory.EventRefY = atoi((char *)TempChar);
    476                         break;        
    477                    case 27:
    478                         strcpy((char *)SFLASH_Memory.Driver[0] , (char *)TempChar);
    479                         break;        
    480                    case 28:
    481                         strcpy((char *)SFLASH_Memory.Driver[1] , (char *)TempChar);
    482                         break;
    483                    case 29:
    484                         strcpy((char *)SFLASH_Memory.Driver[2] , (char *)TempChar);
    485                         break;                                     
    486                    case 30:
    487                         strcpy((char *)SFLASH_Memory.Driver[3] , (char *)TempChar);
    488                         break;
    489                    case 31:
    490                         strcpy((char *)SFLASH_Memory.Driver[4] , (char *)TempChar);
    491                         break;        
    492                    case 32:
    493                         SFLASH_Memory.Home.Longitude =  atoi((char *)TempChar);
    494                         break;
    495                    case 33:
    496                         SFLASH_Memory.Home.Latitude = atoi((char *)TempChar);
    497                         break;
    498                    case 34:       // Reserve
    499                         SFLASH_Memory.QuickStart = atoi((char *)TempChar);
    500          //               SFLASH_Memory.Home.Longitude2 = atoi(TempChar);
    501                         break;
    502                    case 35:       // Reserve
    503                         SFLASH_Memory.DTG_EMS_Select = atoi((char *)TempChar);
    504          //               SFLASH_Memory.Home.Latitude2 =  atoi(TempChar);               
    505                         break;
    506                    case 36:       // Reserve
    507          //               Info.Total_StartCount = atoi(TempChar);            
    508                         break;
    509                    case 37:       // Reserve               
    510             
    511                         break;
    512                    case 38:
    513                         SFLASH_Memory.GPS_EMS_Use = atoi((char *)TempChar);
    514                         break;                             
    515                    case 39:
    516                         SFLASH_Memory.IO_Reverser = atoi((char *)TempChar);
    517                         break;
    518                    case 40:
    519                         SFLASH_Memory.Car_Maker = atoi((char *)TempChar);
    520                         break;                       
    521                    case 41:
    522                         SFLASH_Memory.EMS.USE_Enable = atoi((char *)TempChar);
    523                         break;  
    524                    }
    525               }
    526          }
   \   00000070   19B0               ADD      SP,SP,#+100
   \   00000072   F0BD               POP      {R4-R7,PC}       ;; return
   \                     ??SettingParameter_3:
   \   00000074   6422               MOVS     R2,#+100
   \   00000076   0021               MOVS     R1,#+0
   \   00000078   00A8               ADD      R0,SP,#+0
   \   0000007A   ........           BL       memset
   \   0000007E   BFB2               UXTH     R7,R7            ;; ZeroExt  R7,R7,#+16,#+16
   \   00000080   EA1B               SUBS     R2,R5,R7
   \   00000082   BFB2               UXTH     R7,R7            ;; ZeroExt  R7,R7,#+16,#+16
   \   00000084   3919               ADDS     R1,R7,R4
   \   00000086   00A8               ADD      R0,SP,#+0
   \   00000088   ........           BL       memcpy
   \   0000008C   3000               MOVS     R0,R6
   \   0000008E   461C               ADDS     R6,R0,#+1
   \   00000090   80B2               UXTH     R0,R0            ;; ZeroExt  R0,R0,#+16,#+16
   \   00000092   0028               CMP      R0,#+0
   \   00000094   BBD0               BEQ.N    ??SettingParameter_1
   \   00000096   0228               CMP      R0,#+2
   \   00000098   61D0               BEQ.N    ??SettingParameter_4
   \   0000009A   5BD3               BCC.N    ??SettingParameter_5
   \   0000009C   0428               CMP      R0,#+4
   \   0000009E   68D0               BEQ.N    ??SettingParameter_6
   \   000000A0   62D3               BCC.N    ??SettingParameter_7
   \   000000A2   0628               CMP      R0,#+6
   \   000000A4   70D0               BEQ.N    ??SettingParameter_8
   \   000000A6   69D3               BCC.N    ??SettingParameter_9
   \   000000A8   0828               CMP      R0,#+8
   \   000000AA   79D0               BEQ.N    ??SettingParameter_10
   \   000000AC   72D3               BCC.N    ??SettingParameter_11
   \   000000AE   0A28               CMP      R0,#+10
   \   000000B0   00F08480           BEQ.W    ??SettingParameter_12
   \   000000B4   7BD3               BCC.N    ??SettingParameter_13
   \   000000B6   0C28               CMP      R0,#+12
   \   000000B8   00F08E80           BEQ.W    ??SettingParameter_14
   \   000000BC   C0F08580           BCC.W    ??SettingParameter_15
   \   000000C0   0E28               CMP      R0,#+14
   \   000000C2   00F09780           BEQ.W    ??SettingParameter_16
   \   000000C6   C0F08E80           BCC.W    ??SettingParameter_17
   \   000000CA   1028               CMP      R0,#+16
   \   000000CC   00F0A080           BEQ.W    ??SettingParameter_18
   \   000000D0   C0F09780           BCC.W    ??SettingParameter_19
   \   000000D4   1228               CMP      R0,#+18
   \   000000D6   00F0A980           BEQ.W    ??SettingParameter_20
   \   000000DA   C0F0A080           BCC.W    ??SettingParameter_21
   \   000000DE   1428               CMP      R0,#+20
   \   000000E0   00F0B280           BEQ.W    ??SettingParameter_22
   \   000000E4   C0F0A980           BCC.W    ??SettingParameter_23
   \   000000E8   1628               CMP      R0,#+22
   \   000000EA   00F0BB80           BEQ.W    ??SettingParameter_24
   \   000000EE   C0F0B280           BCC.W    ??SettingParameter_25
   \   000000F2   1828               CMP      R0,#+24
   \   000000F4   00F0C380           BEQ.W    ??SettingParameter_26
   \   000000F8   C0F0BA80           BCC.W    ??SettingParameter_27
   \   000000FC   1A28               CMP      R0,#+26
   \   000000FE   00F0CC80           BEQ.W    ??SettingParameter_28
   \   00000102   C0F0C380           BCC.W    ??SettingParameter_29
   \   00000106   1C28               CMP      R0,#+28
   \   00000108   00F0D380           BEQ.W    ??SettingParameter_30
   \   0000010C   C0F0CC80           BCC.W    ??SettingParameter_31
   \   00000110   1E28               CMP      R0,#+30
   \   00000112   00F0D880           BEQ.W    ??SettingParameter_32
   \   00000116   C0F0D180           BCC.W    ??SettingParameter_33
   \   0000011A   2028               CMP      R0,#+32
   \   0000011C   00F0DD80           BEQ.W    ??SettingParameter_34
   \   00000120   C0F0D680           BCC.W    ??SettingParameter_35
   \   00000124   2228               CMP      R0,#+34
   \   00000126   00F0E680           BEQ.W    ??SettingParameter_36
   \   0000012A   C0F0DD80           BCC.W    ??SettingParameter_37
   \   0000012E   2428               CMP      R0,#+36
   \   00000130   00F0EF80           BEQ.W    ??SettingParameter_38
   \   00000134   C0F0E680           BCC.W    ??SettingParameter_39
   \   00000138   2628               CMP      R0,#+38
   \   0000013A   00F0EC80           BEQ.W    ??SettingParameter_40
   \   0000013E   C0F0E980           BCC.W    ??SettingParameter_41
   \   00000142   2828               CMP      R0,#+40
   \   00000144   00F0F580           BEQ.W    ??SettingParameter_42
   \   00000148   C0F0EC80           BCC.W    ??SettingParameter_43
   \   0000014C   2928               CMP      R0,#+41
   \   0000014E   00F0F680           BEQ.W    ??SettingParameter_44
   \   00000152   61E7               B.N      ??SettingParameter_0
   \                     ??SettingParameter_5:
   \   00000154   00A9               ADD      R1,SP,#+0
   \   00000156   ....               LDR.N    R0,??DataTable34_34
   \   00000158   ........           BL       strcpy
   \   0000015C   5CE7               B.N      ??SettingParameter_0
   \                     ??SettingParameter_4:
   \   0000015E   00A9               ADD      R1,SP,#+0
   \   00000160   ....               LDR.N    R0,??DataTable34_33
   \   00000162   ........           BL       strcpy
   \   00000166   57E7               B.N      ??SettingParameter_0
   \                     ??SettingParameter_7:
   \   00000168   00A9               ADD      R1,SP,#+0
   \   0000016A   ....               LDR.N    R0,??DataTable34_32
   \   0000016C   ........           BL       strcpy
   \   00000170   52E7               B.N      ??SettingParameter_0
   \                     ??SettingParameter_6:
   \   00000172   00A9               ADD      R1,SP,#+0
   \   00000174   ....               LDR.N    R0,??DataTable34_31
   \   00000176   ........           BL       strcpy
   \   0000017A   4DE7               B.N      ??SettingParameter_0
   \                     ??SettingParameter_9:
   \   0000017C   00A8               ADD      R0,SP,#+0
   \   0000017E   ........           BL       atoi
   \   00000182   ....               LDR.N    R1,??DataTable34_25
   \   00000184   4866               STR      R0,[R1, #+100]
   \   00000186   47E7               B.N      ??SettingParameter_0
   \                     ??SettingParameter_8:
   \   00000188   00A8               ADD      R0,SP,#+0
   \   0000018A   ........           BL       atoi
   \   0000018E   ....               LDR.N    R1,??DataTable34_25
   \   00000190   0866               STR      R0,[R1, #+96]
   \   00000192   41E7               B.N      ??SettingParameter_0
   \                     ??SettingParameter_11:
   \   00000194   00A8               ADD      R0,SP,#+0
   \   00000196   ........           BL       atoi
   \   0000019A   ....               LDR.N    R1,??DataTable34_25
   \   0000019C   8866               STR      R0,[R1, #+104]
   \   0000019E   3BE7               B.N      ??SettingParameter_0
   \                     ??SettingParameter_10:
   \   000001A0   00A8               ADD      R0,SP,#+0
   \   000001A2   ........           BL       atoi
   \   000001A6   ....               LDR.N    R1,??DataTable34_25
   \   000001A8   A1F86C00           STRH     R0,[R1, #+108]
   \   000001AC   34E7               B.N      ??SettingParameter_0
   \                     ??SettingParameter_13:
   \   000001AE   00A8               ADD      R0,SP,#+0
   \   000001B0   ........           BL       atoi
   \   000001B4   ....               LDR.N    R1,??DataTable34_25
   \   000001B6   A1F86E00           STRH     R0,[R1, #+110]
   \   000001BA   2DE7               B.N      ??SettingParameter_0
   \                     ??SettingParameter_12:
   \   000001BC   00A8               ADD      R0,SP,#+0
   \   000001BE   ........           BL       atoi
   \   000001C2   ....               LDR.N    R1,??DataTable34_25
   \   000001C4   81F8A300           STRB     R0,[R1, #+163]
   \   000001C8   26E7               B.N      ??SettingParameter_0
   \                     ??SettingParameter_15:
   \   000001CA   00A8               ADD      R0,SP,#+0
   \   000001CC   ........           BL       atoi
   \   000001D0   ....               LDR.N    R1,??DataTable34_25
   \   000001D2   A1F89600           STRH     R0,[R1, #+150]
   \   000001D6   1FE7               B.N      ??SettingParameter_0
   \                     ??SettingParameter_14:
   \   000001D8   00A8               ADD      R0,SP,#+0
   \   000001DA   ........           BL       atoi
   \   000001DE   ....               LDR.N    R1,??DataTable34_25
   \   000001E0   A1F89A00           STRH     R0,[R1, #+154]
   \   000001E4   18E7               B.N      ??SettingParameter_0
   \                     ??SettingParameter_17:
   \   000001E6   00A8               ADD      R0,SP,#+0
   \   000001E8   ........           BL       atoi
   \   000001EC   ....               LDR.N    R1,??DataTable34_25
   \   000001EE   A1F89800           STRH     R0,[R1, #+152]
   \   000001F2   11E7               B.N      ??SettingParameter_0
   \                     ??SettingParameter_16:
   \   000001F4   00A8               ADD      R0,SP,#+0
   \   000001F6   ........           BL       atoi
   \   000001FA   ....               LDR.N    R1,??DataTable34_25
   \   000001FC   A1F89E00           STRH     R0,[R1, #+158]
   \   00000200   0AE7               B.N      ??SettingParameter_0
   \                     ??SettingParameter_19:
   \   00000202   00A8               ADD      R0,SP,#+0
   \   00000204   ........           BL       atoi
   \   00000208   ....               LDR.N    R1,??DataTable34_25
   \   0000020A   A1F88B00           STRH     R0,[R1, #+139]
   \   0000020E   03E7               B.N      ??SettingParameter_0
   \                     ??SettingParameter_18:
   \   00000210   00A8               ADD      R0,SP,#+0
   \   00000212   ........           BL       atoi
   \   00000216   ....               LDR.N    R1,??DataTable34_25
   \   00000218   A1F88D00           STRH     R0,[R1, #+141]
   \   0000021C   FCE6               B.N      ??SettingParameter_0
   \                     ??SettingParameter_21:
   \   0000021E   00A8               ADD      R0,SP,#+0
   \   00000220   ........           BL       atoi
   \   00000224   ....               LDR.N    R1,??DataTable34_25
   \   00000226   A1F88F00           STRH     R0,[R1, #+143]
   \   0000022A   F5E6               B.N      ??SettingParameter_0
   \                     ??SettingParameter_20:
   \   0000022C   00A8               ADD      R0,SP,#+0
   \   0000022E   ........           BL       atoi
   \   00000232   ....               LDR.N    R1,??DataTable34_25
   \   00000234   81F89100           STRB     R0,[R1, #+145]
   \   00000238   EEE6               B.N      ??SettingParameter_0
   \                     ??SettingParameter_23:
   \   0000023A   00A8               ADD      R0,SP,#+0
   \   0000023C   ........           BL       atoi
   \   00000240   ....               LDR.N    R1,??DataTable34_25
   \   00000242   81F89200           STRB     R0,[R1, #+146]
   \   00000246   E7E6               B.N      ??SettingParameter_0
   \                     ??SettingParameter_22:
   \   00000248   00A8               ADD      R0,SP,#+0
   \   0000024A   ........           BL       atoi
   \   0000024E   ....               LDR.N    R1,??DataTable34_25
   \   00000250   81F89300           STRB     R0,[R1, #+147]
   \   00000254   E0E6               B.N      ??SettingParameter_0
   \                     ??SettingParameter_25:
   \   00000256   00A8               ADD      R0,SP,#+0
   \   00000258   ........           BL       atoi
   \   0000025C   ....               LDR.N    R1,??DataTable34_25
   \   0000025E   A1F89400           STRH     R0,[R1, #+148]
   \   00000262   D9E6               B.N      ??SettingParameter_0
   \                     ??SettingParameter_24:
   \   00000264   ....               LDR.N    R0,??DataTable34_25
   \   00000266   9DF80010           LDRB     R1,[SP, #+0]
   \   0000026A   80F87010           STRB     R1,[R0, #+112]
   \   0000026E   D3E6               B.N      ??SettingParameter_0
   \                     ??SettingParameter_27:
   \   00000270   00A8               ADD      R0,SP,#+0
   \   00000272   ........           BL       atoi
   \   00000276   ....               LDR.N    R1,??DataTable34_25
   \   00000278   C1F87100           STR      R0,[R1, #+113]
   \   0000027C   CCE6               B.N      ??SettingParameter_0
   \                     ??SettingParameter_26:
   \   0000027E   00A8               ADD      R0,SP,#+0
   \   00000280   ........           BL       atoi
   \   00000284   ....               LDR.N    R1,??DataTable34_25
   \   00000286   C1F87500           STR      R0,[R1, #+117]
   \   0000028A   C5E6               B.N      ??SettingParameter_0
   \                     ??SettingParameter_29:
   \   0000028C   00A8               ADD      R0,SP,#+0
   \   0000028E   ........           BL       atoi
   \   00000292   ....               LDR.N    R1,??DataTable34_25
   \   00000294   C1F87900           STR      R0,[R1, #+121]
   \   00000298   BEE6               B.N      ??SettingParameter_0
   \                     ??SettingParameter_28:
   \   0000029A   00A8               ADD      R0,SP,#+0
   \   0000029C   ........           BL       atoi
   \   000002A0   ....               LDR.N    R1,??DataTable34_25
   \   000002A2   C1F87D00           STR      R0,[R1, #+125]
   \   000002A6   B7E6               B.N      ??SettingParameter_0
   \                     ??SettingParameter_31:
   \   000002A8   00A9               ADD      R1,SP,#+0
   \   000002AA   ....               LDR.N    R0,??DataTable34_30
   \   000002AC   ........           BL       strcpy
   \   000002B0   B2E6               B.N      ??SettingParameter_0
   \                     ??SettingParameter_30:
   \   000002B2   00A9               ADD      R1,SP,#+0
   \   000002B4   ....               LDR.N    R0,??DataTable34_29
   \   000002B6   ........           BL       strcpy
   \   000002BA   ADE6               B.N      ??SettingParameter_0
   \                     ??SettingParameter_33:
   \   000002BC   00A9               ADD      R1,SP,#+0
   \   000002BE   ....               LDR.N    R0,??DataTable34_28
   \   000002C0   ........           BL       strcpy
   \   000002C4   A8E6               B.N      ??SettingParameter_0
   \                     ??SettingParameter_32:
   \   000002C6   00A9               ADD      R1,SP,#+0
   \   000002C8   ....               LDR.N    R0,??DataTable34_27
   \   000002CA   ........           BL       strcpy
   \   000002CE   A3E6               B.N      ??SettingParameter_0
   \                     ??SettingParameter_35:
   \   000002D0   00A9               ADD      R1,SP,#+0
   \   000002D2   ....               LDR.N    R0,??DataTable34_26
   \   000002D4   ........           BL       strcpy
   \   000002D8   9EE6               B.N      ??SettingParameter_0
   \                     ??SettingParameter_34:
   \   000002DA   00A8               ADD      R0,SP,#+0
   \   000002DC   ........           BL       atoi
   \   000002E0   ....               LDR.N    R1,??DataTable34_25
   \   000002E2   C1F88100           STR      R0,[R1, #+129]
   \   000002E6   97E6               B.N      ??SettingParameter_0
   \                     ??SettingParameter_37:
   \   000002E8   00A8               ADD      R0,SP,#+0
   \   000002EA   ........           BL       atoi
   \   000002EE   ....               LDR.N    R1,??DataTable34_25
   \   000002F0   C1F88500           STR      R0,[R1, #+133]
   \   000002F4   90E6               B.N      ??SettingParameter_0
   \                     ??SettingParameter_36:
   \   000002F6   00A8               ADD      R0,SP,#+0
   \   000002F8   ........           BL       atoi
   \   000002FC   ....               LDR.N    R1,??DataTable34_25
   \   000002FE   A1F89C00           STRH     R0,[R1, #+156]
   \   00000302   89E6               B.N      ??SettingParameter_0
   \                     ??SettingParameter_39:
   \   00000304   00A8               ADD      R0,SP,#+0
   \   00000306   ........           BL       atoi
   \   0000030A   ....               LDR.N    R1,??DataTable34_25
   \   0000030C   81F8A400           STRB     R0,[R1, #+164]
   \   00000310   82E6               B.N      ??SettingParameter_0
   \                     ??SettingParameter_38:
   \   00000312   81E6               B.N      ??SettingParameter_0
   \                     ??SettingParameter_41:
   \   00000314   80E6               B.N      ??SettingParameter_0
   \                     ??SettingParameter_40:
   \   00000316   00A8               ADD      R0,SP,#+0
   \   00000318   ........           BL       atoi
   \   0000031C   ....               LDR.N    R1,??DataTable34_25
   \   0000031E   81F88900           STRB     R0,[R1, #+137]
   \   00000322   79E6               B.N      ??SettingParameter_0
   \                     ??SettingParameter_43:
   \   00000324   00A8               ADD      R0,SP,#+0
   \   00000326   ........           BL       atoi
   \   0000032A   ....               LDR.N    R1,??DataTable34_25
   \   0000032C   A1F8A000           STRH     R0,[R1, #+160]
   \   00000330   72E6               B.N      ??SettingParameter_0
   \                     ??SettingParameter_42:
   \   00000332   00A8               ADD      R0,SP,#+0
   \   00000334   ........           BL       atoi
   \   00000338   ....               LDR.N    R1,??DataTable34_25
   \   0000033A   0870               STRB     R0,[R1, #+0]
   \   0000033C   6CE6               B.N      ??SettingParameter_0
   \                     ??SettingParameter_44:
   \   0000033E   00A8               ADD      R0,SP,#+0
   \   00000340   ........           BL       atoi
   \   00000344   ....               LDR.N    R1,??DataTable34_25
   \   00000346   81F88A00           STRB     R0,[R1, #+138]
   \   0000034A   65E6               B.N      ??SettingParameter_0
    527          
    528          

   \                                 In section .text, align 2, keep-with-next
    529          void PC_Communication(void)
    530          {
   \                     PC_Communication:
   \   00000000   10B5               PUSH     {R4,LR}
   \   00000002   88B0               SUB      SP,SP,#+32
    531               
    532               u8 data ;
    533               static u8 data2;
    534               static u8 Load_Memory_Flag = 0;
    535               static u8 Load_Memory_Flag2 = 0;
    536               static u16 PC_Timer = 0;
    537               static u16 Memeory_SendCount = 0;
    538               u16 i;
    539          
    540               u32 GetData;   
    541               
    542               NAND_ADDRESS NAND_PAGE;
    543               
    544               HEADER_Info Temp_Info;
    545               
    546               if(!CheckTimeOver(20,PC_Timer))
   \   00000004   ........           LDR.W    R0,??DataTable35_3
   \   00000008   0188               LDRH     R1,[R0, #+0]
   \   0000000A   1420               MOVS     R0,#+20
   \   0000000C   ........           BL       CheckTimeOver
   \   00000010   0028               CMP      R0,#+0
   \   00000012   00F01582           BEQ.W    ??PC_Communication_0
    547                    return;       
    548               PC_Timer = MS_TIMER;
   \                     ??PC_Communication_1:
   \   00000016   ........           LDR.W    R0,??DataTable35_4  ;; 0x40000c00
   \   0000001A   ........           BL       TIM_GetCounter
   \   0000001E   ........           LDR.W    R1,??DataTable35_3
   \   00000022   0880               STRH     R0,[R1, #+0]
    549               
    550               if(Load_Memory_Flag)          // 메모리 전송
   \   00000024   ........           LDR.W    R0,??DataTable35_5
   \   00000028   0078               LDRB     R0,[R0, #+0]
   \   0000002A   0028               CMP      R0,#+0
   \   0000002C   48D0               BEQ.N    ??PC_Communication_2
    551               {
    552                    if( Memeory_SendCount <= NAND_Header_Index.Header_Count )
   \   0000002E   ........           LDR.W    R0,??DataTable35_6
   \   00000032   0088               LDRH     R0,[R0, #+0]
   \   00000034   ........           LDR.W    R1,??DataTable35_7
   \   00000038   0988               LDRH     R1,[R1, #+0]
   \   0000003A   8842               CMP      R0,R1
   \   0000003C   2CD3               BCC.N    ??PC_Communication_3
    553                    {          
    554                         Temp_Info = Read_Header_Information(Memeory_SendCount);
   \   0000003E   ........           LDR.W    R0,??DataTable35_7
   \   00000042   0188               LDRH     R1,[R0, #+0]
   \   00000044   03A8               ADD      R0,SP,#+12
   \   00000046   ........           BL       Read_Header_Information
    555                         if(Temp_Info.Verify == I2C_EEPROM_VERIFY3 )
   \   0000004A   BDF81800           LDRH     R0,[SP, #+24]
   \   0000004E   4EF60661           MOVW     R1,#+60934
   \   00000052   8842               CMP      R0,R1
   \   00000054   34D1               BNE.N    ??PC_Communication_2
    556                         {
    557                              //               memcpy(&Temp_Info,Buffer, sizeof(HEADER_Info));
    558                              sprintf((char*)Buffer,"MEMORY%d,%d,%d,%d,%d,",            
    559                                      Temp_Info.Date[0],
    560                                      Temp_Info.Date[1],
    561                                      Temp_Info.Date[2],
    562                                      Temp_Info.Start_Page,                
    563                                      Temp_Info.End_Page
    564                                           );                            
   \   00000056   0598               LDR      R0,[SP, #+20]
   \   00000058   0290               STR      R0,[SP, #+8]
   \   0000005A   0498               LDR      R0,[SP, #+16]
   \   0000005C   0190               STR      R0,[SP, #+4]
   \   0000005E   9DF80E00           LDRB     R0,[SP, #+14]
   \   00000062   0090               STR      R0,[SP, #+0]
   \   00000064   9DF80D30           LDRB     R3,[SP, #+13]
   \   00000068   9DF80C20           LDRB     R2,[SP, #+12]
   \   0000006C   ........           ADR.W    R1,`?<Constant "MEMORY%d,%d,%d,%d,%d,">`
   \   00000070   ........           LDR.W    R0,??DataTable35_8
   \   00000074   ........           BL       sprintf
    565                              puts_string(&PC_Comm,(char*)Buffer);
   \   00000078   ........           LDR.W    R1,??DataTable35_8
   \   0000007C   ........           LDR.W    R0,??DataTable35_1
   \   00000080   ........           BL       puts_string
    566                              Memeory_SendCount++;
   \   00000084   ........           LDR.W    R0,??DataTable35_7
   \   00000088   0088               LDRH     R0,[R0, #+0]
   \   0000008A   401C               ADDS     R0,R0,#+1
   \   0000008C   ........           LDR.W    R1,??DataTable35_7
   \   00000090   0880               STRH     R0,[R1, #+0]
    567                              
    568                              IWDG_ReloadCounter();                   // Clear IWDG
   \   00000092   ........           BL       IWDG_ReloadCounter
   \   00000096   13E0               B.N      ??PC_Communication_2
    569                         }          
    570                    }
    571          //          else if( Memeory_SendCount == NAND_Header_Index.Header_Count )
    572          //          {
    573          //               sprintf((char*)Buffer,"MEMORY%d,%d,%d,%d,%d,",            
    574          //                       NAND_Header_Info.Date[0],
    575          //                       NAND_Header_Info.Date[1],
    576          //                       NAND_Header_Info.Date[2],
    577          //                       NAND_Header_Info.Start_Page,                
    578          //                       NAND_Header_Info.End_Page
    579          //                        );                            
    580          //               puts_string(&PC_Comm,(char*)Buffer);
    581          //               Memeory_SendCount++;
    582          //               IWDG_ReloadCounter();                
    583          //          }                
    584                    else
    585                    {
    586                         strcpy((char *)Buffer,"[OK]\n");
   \                     ??PC_Communication_3:
   \   00000098   ........           ADR.W    R1,`?<Constant "[OK]\\n">`
   \   0000009C   ........           LDR.W    R0,??DataTable35_8
   \   000000A0   ........           BL       strcpy
    587                         puts_string(&PC_Comm,(char*)Buffer);
   \   000000A4   ........           LDR.W    R1,??DataTable35_8
   \   000000A8   ........           LDR.W    R0,??DataTable35_1
   \   000000AC   ........           BL       puts_string
    588                         Memeory_SendCount = 0;
   \   000000B0   ........           LDR.W    R0,??DataTable35_7
   \   000000B4   0021               MOVS     R1,#+0
   \   000000B6   0180               STRH     R1,[R0, #+0]
    589                         Load_Memory_Flag = 0;
   \   000000B8   ........           LDR.W    R0,??DataTable35_5
   \   000000BC   0021               MOVS     R1,#+0
   \   000000BE   0170               STRB     R1,[R0, #+0]
    590                    }           
    591          
    592               }
    593               if(Load_Memory_Flag2 == 1)
   \                     ??PC_Communication_2:
   \   000000C0   ........           LDR.W    R0,??DataTable35_9
   \   000000C4   0078               LDRB     R0,[R0, #+0]
   \   000000C6   0128               CMP      R0,#+1
   \   000000C8   2FD1               BNE.N    ??PC_Communication_4
    594               {          
    595                    for( i = 0 ; i < 8192 ; i++)
   \   000000CA   0024               MOVS     R4,#+0
   \   000000CC   15E0               B.N      ??PC_Communication_5
    596                    {
    597                         IWDG_ReloadCounter();
   \                     ??PC_Communication_6:
   \   000000CE   ........           BL       IWDG_ReloadCounter
    598                         USART_SendData(USART1,NAND_Buffer[i ]) ;
   \   000000D2   A4B2               UXTH     R4,R4            ;; ZeroExt  R4,R4,#+16,#+16
   \   000000D4   ........           LDR.W    R0,??DataTable35_10
   \   000000D8   215C               LDRB     R1,[R4, R0]
   \   000000DA   89B2               UXTH     R1,R1            ;; ZeroExt  R1,R1,#+16,#+16
   \   000000DC   ........           LDR.W    R0,??DataTable35_11  ;; 0x40011000
   \   000000E0   ........           BL       USART_SendData
    599                         while (USART_GetFlagStatus(USART1, USART_FLAG_TC) == RESET)  ;
   \                     ??PC_Communication_7:
   \   000000E4   4021               MOVS     R1,#+64
   \   000000E6   ........           LDR.W    R0,??DataTable35_11  ;; 0x40011000
   \   000000EA   ........           BL       USART_GetFlagStatus
   \   000000EE   0028               CMP      R0,#+0
   \   000000F0   F8D0               BEQ.N    ??PC_Communication_7
    600                         Delay(5);
   \   000000F2   0520               MOVS     R0,#+5
   \   000000F4   ........           BL       Delay
    601                    }
   \   000000F8   641C               ADDS     R4,R4,#+1
   \                     ??PC_Communication_5:
   \   000000FA   A4B2               UXTH     R4,R4            ;; ZeroExt  R4,R4,#+16,#+16
   \   000000FC   B4F5005F           CMP      R4,#+8192
   \   00000100   E5D3               BCC.N    ??PC_Communication_6
    602                    Delay(500);
   \   00000102   4FF4FA70           MOV      R0,#+500
   \   00000106   ........           BL       Delay
    603                    strcpy((char *)Buffer,"[OK]\n");
   \   0000010A   ........           ADR.W    R1,`?<Constant "[OK]\\n">`
   \   0000010E   ........           LDR.W    R0,??DataTable35_8
   \   00000112   ........           BL       strcpy
    604                    puts_string(&PC_Comm,(char*)Buffer);    
   \   00000116   ........           LDR.W    R1,??DataTable35_8
   \   0000011A   ........           LDR.W    R0,??DataTable35_1
   \   0000011E   ........           BL       puts_string
    605          
    606                    Load_Memory_Flag2 = 0;          
   \   00000122   ........           LDR.W    R0,??DataTable35_9
   \   00000126   0021               MOVS     R1,#+0
   \   00000128   0170               STRB     R1,[R0, #+0]
    607               }
    608               if (PC_Comm.rxep != PC_Comm.rxsp)
   \                     ??PC_Communication_4:
   \   0000012A   ........           LDR.W    R0,??DataTable35_1
   \   0000012E   B0F80204           LDRH     R0,[R0, #+1026]
   \   00000132   ........           LDR.W    R1,??DataTable35_1
   \   00000136   B1F80014           LDRH     R1,[R1, #+1024]
   \   0000013A   8842               CMP      R0,R1
   \   0000013C   00F08081           BEQ.W    ??PC_Communication_8
    609               {
    610                    data = PC_Comm.rxbuf[PC_Comm.rxsp++];
   \   00000140   ....               LDR.N    R0,??DataTable35_1
   \   00000142   B0F80004           LDRH     R0,[R0, #+1024]
   \   00000146   ....               LDR.N    R1,??DataTable35_1
   \   00000148   445C               LDRB     R4,[R0, R1]
   \   0000014A   ....               LDR.N    R0,??DataTable35_1
   \   0000014C   B0F80004           LDRH     R0,[R0, #+1024]
   \   00000150   401C               ADDS     R0,R0,#+1
   \   00000152   ....               LDR.N    R1,??DataTable35_1
   \   00000154   A1F80004           STRH     R0,[R1, #+1024]
    611          
    612                    if( WIFI_TestMode == 1 )      // PC와 커맨드 모드일때
   \   00000158   ....               LDR.N    R0,??DataTable35_12
   \   0000015A   0078               LDRB     R0,[R0, #+0]
   \   0000015C   0128               CMP      R0,#+1
   \   0000015E   4AD1               BNE.N    ??PC_Communication_9
    613                    {
    614                         if(data == 0x0a && data2 == 0x0d)
   \   00000160   E4B2               UXTB     R4,R4            ;; ZeroExt  R4,R4,#+24,#+24
   \   00000162   0A2C               CMP      R4,#+10
   \   00000164   34D1               BNE.N    ??PC_Communication_10
   \   00000166   ....               LDR.N    R0,??DataTable35_13
   \   00000168   0078               LDRB     R0,[R0, #+0]
   \   0000016A   0D28               CMP      R0,#+13
   \   0000016C   30D1               BNE.N    ??PC_Communication_10
    615                              //                    if( data == 0x0d)       // 스크립트 모드
    616                         {
    617                              Clear_Serial1();
   \   0000016E   ........           BL       Clear_Serial1
    618                              if( memcmp(Rx_PCBuffer ,"WIFIMODE",8) == 0 )
   \   00000172   0822               MOVS     R2,#+8
   \   00000174   ........           ADR.W    R1,`?<Constant "WIFIMODE">`
   \   00000178   ....               LDR.N    R0,??DataTable35_14
   \   0000017A   ........           BL       memcmp
   \   0000017E   0028               CMP      R0,#+0
   \   00000180   0CD1               BNE.N    ??PC_Communication_11
    619                              {
    620                                   WIFI_TestMode = 0;
   \   00000182   ....               LDR.N    R0,??DataTable35_12
   \   00000184   0021               MOVS     R1,#+0
   \   00000186   0170               STRB     R1,[R0, #+0]
    621                                   sprintf((char *)Buffer,"[WIFI_X][OK]\n");
   \   00000188   ........           ADR.W    R1,`?<Constant "[WIFI_X][OK]\\n">`
   \   0000018C   ....               LDR.N    R0,??DataTable35_8
   \   0000018E   ........           BL       sprintf
    622                                   puts_string(&PC_Comm,(char*)Buffer);
   \   00000192   ....               LDR.N    R1,??DataTable35_8
   \   00000194   ....               LDR.N    R0,??DataTable35_1
   \   00000196   ........           BL       puts_string
   \   0000019A   0FE0               B.N      ??PC_Communication_12
    623                              }else if( memcmp(Rx_PCBuffer ,"+++",3) == 0 )
   \                     ??PC_Communication_11:
   \   0000019C   0322               MOVS     R2,#+3
   \   0000019E   ....               ADR.N    R1,??DataTable35  ;; "+++"
   \   000001A0   ....               LDR.N    R0,??DataTable35_14
   \   000001A2   ........           BL       memcmp
   \   000001A6   0028               CMP      R0,#+0
   \   000001A8   04D1               BNE.N    ??PC_Communication_13
    624                              {
    625                                   puts_string(&RF_Module, "+++");     // AUTO CONNECTTING                                  
   \   000001AA   ....               ADR.N    R1,??DataTable35  ;; "+++"
   \   000001AC   ....               LDR.N    R0,??DataTable35_15
   \   000001AE   ........           BL       puts_string
   \   000001B2   03E0               B.N      ??PC_Communication_12
    626                              }else
    627                              {
    628                                   //                              Rx_PCBuffer[Rx_PCCount++] = data;          // 스크립트모드
    629                                   puts_string(&RF_Module, (char *)Rx_PCBuffer);     // AUTO CONNECTTING
   \                     ??PC_Communication_13:
   \   000001B4   ....               LDR.N    R1,??DataTable35_14
   \   000001B6   ....               LDR.N    R0,??DataTable35_15
   \   000001B8   ........           BL       puts_string
    630                              }
    631                              memset(Rx_PCBuffer,0,sizeof(Rx_PCBuffer));
   \                     ??PC_Communication_12:
   \   000001BC   4FF4FA72           MOV      R2,#+500
   \   000001C0   0021               MOVS     R1,#+0
   \   000001C2   ....               LDR.N    R0,??DataTable35_14
   \   000001C4   ........           BL       memset
    632                              Rx_PCCount = 0;
   \   000001C8   ....               LDR.N    R0,??DataTable35_16
   \   000001CA   0021               MOVS     R1,#+0
   \   000001CC   0180               STRH     R1,[R0, #+0]
   \   000001CE   35E1               B.N      ??PC_Communication_14
    633                         }
    634                         else
    635                         {
    636                              Rx_PCBuffer[Rx_PCCount++] = data;
   \                     ??PC_Communication_10:
   \   000001D0   ....               LDR.N    R0,??DataTable35_16
   \   000001D2   0088               LDRH     R0,[R0, #+0]
   \   000001D4   ....               LDR.N    R1,??DataTable35_14
   \   000001D6   4454               STRB     R4,[R0, R1]
   \   000001D8   ....               LDR.N    R0,??DataTable35_16
   \   000001DA   0088               LDRH     R0,[R0, #+0]
   \   000001DC   401C               ADDS     R0,R0,#+1
   \   000001DE   ....               LDR.N    R1,??DataTable35_16
   \   000001E0   0880               STRH     R0,[R1, #+0]
    637                              Rx_PCCount %= 100;
   \   000001E2   ....               LDR.N    R0,??DataTable35_16
   \   000001E4   0088               LDRH     R0,[R0, #+0]
   \   000001E6   6421               MOVS     R1,#+100
   \   000001E8   90FBF1F2           SDIV     R2,R0,R1
   \   000001EC   01FB1200           MLS      R0,R1,R2,R0
   \   000001F0   ....               LDR.N    R1,??DataTable35_16
   \   000001F2   0880               STRH     R0,[R1, #+0]
   \   000001F4   22E1               B.N      ??PC_Communication_14
    638                         }               
    639                    }
    640                    else
    641                    {
    642                         if(data == 0x0a)
   \                     ??PC_Communication_9:
   \   000001F6   E4B2               UXTB     R4,R4            ;; ZeroExt  R4,R4,#+24,#+24
   \   000001F8   0A2C               CMP      R4,#+10
   \   000001FA   40F01681           BNE.W    ??PC_Communication_15
    643                         {
    644                              //puts_string(&RF_Module,(char*)Rx_PCBuffer);
    645                              Clear_Serial1();
   \   000001FE   ........           BL       Clear_Serial1
    646                              
    647                              if( memcmp(Rx_PCBuffer ,"REFRESH",7) == 0 )
   \   00000202   0722               MOVS     R2,#+7
   \   00000204   ........           ADR.W    R1,`?<Constant "REFRESH">`
   \   00000208   ....               LDR.N    R0,??DataTable35_14
   \   0000020A   ........           BL       memcmp
   \   0000020E   0028               CMP      R0,#+0
   \   00000210   01D1               BNE.N    ??PC_Communication_16
    648                              {
    649                                   Send_Refresh();
   \   00000212   ........           BL       Send_Refresh
    650                              }
    651                              if( memcmp(Rx_PCBuffer ,"REFREWIFI",8) == 0 )
   \                     ??PC_Communication_16:
   \   00000216   0822               MOVS     R2,#+8
   \   00000218   ........           ADR.W    R1,`?<Constant "REFREWIFI">`
   \   0000021C   ....               LDR.N    R0,??DataTable35_14
   \   0000021E   ........           BL       memcmp
   \   00000222   0028               CMP      R0,#+0
   \   00000224   02D1               BNE.N    ??PC_Communication_17
    652                              {
    653                                   Send_WIFI_Status();
   \   00000226   ........           BL       Send_WIFI_Status
   \   0000022A   F4E0               B.N      ??PC_Communication_18
    654                              }                    
    655                              else if( memcmp(Rx_PCBuffer ,"LOADSET",7) == 0 )        // 맞으면
   \                     ??PC_Communication_17:
   \   0000022C   0722               MOVS     R2,#+7
   \   0000022E   ........           ADR.W    R1,`?<Constant "LOADSET">`
   \   00000232   ....               LDR.N    R0,??DataTable35_14
   \   00000234   ........           BL       memcmp
   \   00000238   0028               CMP      R0,#+0
   \   0000023A   02D1               BNE.N    ??PC_Communication_19
    656                              {
    657                                   Send_Setting();
   \   0000023C   ........           BL       Send_Setting
   \   00000240   E9E0               B.N      ??PC_Communication_18
    658                              }
    659                              else if( memcmp(Rx_PCBuffer ,"LOADMEMORY1",11) == 0 )
   \                     ??PC_Communication_19:
   \   00000242   0B22               MOVS     R2,#+11
   \   00000244   ........           ADR.W    R1,`?<Constant "LOADMEMORY1">`
   \   00000248   ....               LDR.N    R0,??DataTable35_14
   \   0000024A   ........           BL       memcmp
   \   0000024E   0028               CMP      R0,#+0
   \   00000250   06D1               BNE.N    ??PC_Communication_20
    660                              {
    661                                   Load_Memory_Flag = 1;
   \   00000252   ....               LDR.N    R0,??DataTable35_5
   \   00000254   0121               MOVS     R1,#+1
   \   00000256   0170               STRB     R1,[R0, #+0]
    662                                   Memeory_SendCount = 0;
   \   00000258   ....               LDR.N    R0,??DataTable35_7
   \   0000025A   0021               MOVS     R1,#+0
   \   0000025C   0180               STRH     R1,[R0, #+0]
   \   0000025E   DAE0               B.N      ??PC_Communication_18
    663                              }
    664                              else if( memcmp(Rx_PCBuffer ,"LOADMEMORY2",11) == 0 )
   \                     ??PC_Communication_20:
   \   00000260   0B22               MOVS     R2,#+11
   \   00000262   ........           ADR.W    R1,`?<Constant "LOADMEMORY2">`
   \   00000266   ....               LDR.N    R0,??DataTable35_14
   \   00000268   ........           BL       memcmp
   \   0000026C   0028               CMP      R0,#+0
   \   0000026E   1FD1               BNE.N    ??PC_Communication_21
    665                              {
    666                                   if(!Load_Memory_Flag)          // 해더를 전송중이 아니면 NAND를 불러온다.
   \   00000270   ....               LDR.N    R0,??DataTable35_5
   \   00000272   0078               LDRB     R0,[R0, #+0]
   \   00000274   0028               CMP      R0,#+0
   \   00000276   40F0CE80           BNE.W    ??PC_Communication_18
    667                                   {
    668                                        GetData = atoi( (char *)&Rx_PCBuffer[11] );
   \   0000027A   ....               LDR.N    R0,??DataTable35_17
   \   0000027C   ........           BL       atoi
   \   00000280   0100               MOVS     R1,R0
    669                                        NAND_PAGE = Get_NAND_PageAddress(GetData);  
   \   00000282   89B2               UXTH     R1,R1            ;; ZeroExt  R1,R1,#+16,#+16
   \   00000284   00A8               ADD      R0,SP,#+0
   \   00000286   ........           BL       Get_NAND_PageAddress
    670                                        memset(NAND_Buffer, 0 ,sizeof(NAND_Buffer) );
   \   0000028A   42F20102           MOVW     R2,#+8193
   \   0000028E   0021               MOVS     R1,#+0
   \   00000290   ....               LDR.N    R0,??DataTable35_10
   \   00000292   ........           BL       memset
    671                                        FSMC_NAND_ReadSmallPage( NAND_Buffer, NAND_PAGE, 1);		// 데이터를 기록을 읽는다.
   \   00000296   0123               MOVS     R3,#+1
   \   00000298   DDE90012           LDRD     R1,R2,[SP, #+0]
   \   0000029C   ....               LDR.N    R0,??DataTable35_10
   \   0000029E   ........           BL       FSMC_NAND_ReadSmallPage
    672                                        Memeory_SendCount = 0;
   \   000002A2   ....               LDR.N    R0,??DataTable35_7
   \   000002A4   0021               MOVS     R1,#+0
   \   000002A6   0180               STRH     R1,[R0, #+0]
    673                                        Load_Memory_Flag2 = 1;
   \   000002A8   ....               LDR.N    R0,??DataTable35_9
   \   000002AA   0121               MOVS     R1,#+1
   \   000002AC   0170               STRB     R1,[R0, #+0]
   \   000002AE   B2E0               B.N      ??PC_Communication_18
    674                                   }
    675                              }
    676                              else if( memcmp(Rx_PCBuffer ,"SETTILT",7) == 0 )
   \                     ??PC_Communication_21:
   \   000002B0   0722               MOVS     R2,#+7
   \   000002B2   ........           ADR.W    R1,`?<Constant "SETTILT">`
   \   000002B6   ....               LDR.N    R0,??DataTable35_14
   \   000002B8   ........           BL       memcmp
   \   000002BC   0028               CMP      R0,#+0
   \   000002BE   04D1               BNE.N    ??PC_Communication_22
    677                              {
    678                                   Tilt_Setting_Reference();
                                          ^
Warning[Pe223]: function "Tilt_Setting_Reference" declared implicitly
   \   000002C0   ........           BL       Tilt_Setting_Reference
    679                                   Send_Setting();
   \   000002C4   ........           BL       Send_Setting
   \   000002C8   A5E0               B.N      ??PC_Communication_18
    680                              }
    681                              else if( memcmp(Rx_PCBuffer ,"SAVESETTING",11) == 0 )
   \                     ??PC_Communication_22:
   \   000002CA   0B22               MOVS     R2,#+11
   \   000002CC   ........           ADR.W    R1,`?<Constant "SAVESETTING">`
   \   000002D0   ....               LDR.N    R0,??DataTable35_14
   \   000002D2   ........           BL       memcmp
   \   000002D6   0028               CMP      R0,#+0
   \   000002D8   03D1               BNE.N    ??PC_Communication_23
    682                              {
    683                                   SettingParameter((char *)&Rx_PCBuffer[11]);
   \   000002DA   ....               LDR.N    R0,??DataTable35_17
   \   000002DC   ........           BL       SettingParameter
   \   000002E0   99E0               B.N      ??PC_Communication_18
    684                              }  // end of SaveSetting
    685                              else if( memcmp(Rx_PCBuffer ,"SAVEGPS",7) == 0 )
   \                     ??PC_Communication_23:
   \   000002E2   0722               MOVS     R2,#+7
   \   000002E4   ........           ADR.W    R1,`?<Constant "SAVEGPS">`
   \   000002E8   ....               LDR.N    R0,??DataTable35_14
   \   000002EA   ........           BL       memcmp
   \   000002EE   0028               CMP      R0,#+0
   \   000002F0   03D1               BNE.N    ??PC_Communication_24
    686                              {
    687                                   SettingGPS((char *)&Rx_PCBuffer[7]);
   \   000002F2   ....               LDR.N    R0,??DataTable35_18
   \   000002F4   ........           BL       SettingGPS
   \   000002F8   8DE0               B.N      ??PC_Communication_18
    688                              }  // end of SaveSetting
    689                              else if( memcmp(Rx_PCBuffer ,"SAVEWIFI",8) == 0 )
   \                     ??PC_Communication_24:
   \   000002FA   0822               MOVS     R2,#+8
   \   000002FC   ........           ADR.W    R1,`?<Constant "SAVEWIFI">`
   \   00000300   ....               LDR.N    R0,??DataTable35_14
   \   00000302   ........           BL       memcmp
   \   00000306   0028               CMP      R0,#+0
   \   00000308   03D1               BNE.N    ??PC_Communication_25
    690                              {
    691                                   SettingWIFI((char *)&Rx_PCBuffer[8]);
   \   0000030A   ....               LDR.N    R0,??DataTable35_19
   \   0000030C   ........           BL       SettingWIFI
   \   00000310   81E0               B.N      ??PC_Communication_18
    692                              }  // end of SaveSetting                    
    693                              else if( memcmp(Rx_PCBuffer ,"SETLENGTH",9) == 0 )
   \                     ??PC_Communication_25:
   \   00000312   0922               MOVS     R2,#+9
   \   00000314   ........           ADR.W    R1,`?<Constant "SETLENGTH">`
   \   00000318   ....               LDR.N    R0,??DataTable35_14
   \   0000031A   ........           BL       memcmp
   \   0000031E   0028               CMP      R0,#+0
   \   00000320   12D1               BNE.N    ??PC_Communication_26
    694                              {
    695                                   
    696                                   Info.Total_StartCount = 0;
   \   00000322   ....               LDR.N    R0,??DataTable35_20
   \   00000324   0021               MOVS     R1,#+0
   \   00000326   C0F82610           STR      R1,[R0, #+38]
    697                                   Info.Total_Drive_PulsCount1 = 0;
   \   0000032A   ....               LDR.N    R0,??DataTable35_20
   \   0000032C   0021               MOVS     R1,#+0
   \   0000032E   C0F82A10           STR      R1,[R0, #+42]
    698                                   Info.Total_Drive_PulsCount2 = 0;          
   \   00000332   ....               LDR.N    R0,??DataTable35_20
   \   00000334   0021               MOVS     R1,#+0
   \   00000336   C185               STRH     R1,[R0, #+46]
    699                                   memset(&EMS_Drive_Value ,  0 , sizeof(EMS_Drive_Value));                         
   \   00000338   2422               MOVS     R2,#+36
   \   0000033A   0021               MOVS     R1,#+0
   \   0000033C   ....               LDR.N    R0,??DataTable35_21
   \   0000033E   ........           BL       memset
    700                                   Write_Header_EMS();           // 인덱스를 저장한다.
   \   00000342   ........           BL       Write_Header_EMS
   \   00000346   66E0               B.N      ??PC_Communication_18
    701                                   // EEPROM 저장
    702                              }
    703                              else if( memcmp(Rx_PCBuffer ,"WIFIMODE",8) == 0 )
   \                     ??PC_Communication_26:
   \   00000348   0822               MOVS     R2,#+8
   \   0000034A   ........           ADR.W    R1,`?<Constant "WIFIMODE">`
   \   0000034E   ....               LDR.N    R0,??DataTable35_14
   \   00000350   ........           BL       memcmp
   \   00000354   0028               CMP      R0,#+0
   \   00000356   0ED1               BNE.N    ??PC_Communication_27
    704                              {
    705                                   WIFI_TestMode = 1;
   \   00000358   ....               LDR.N    R0,??DataTable35_12
   \   0000035A   0121               MOVS     R1,#+1
   \   0000035C   0170               STRB     R1,[R0, #+0]
    706                                   sprintf((char *)Buffer,"[WIFI_O][OK]\n");
   \   0000035E   ........           ADR.W    R1,`?<Constant "[WIFI_O][OK]\\n">`
   \   00000362   ....               LDR.N    R0,??DataTable35_8
   \   00000364   ........           BL       sprintf
    707                                   puts_string(&PC_Comm,(char*)Buffer);
   \   00000368   ....               LDR.N    R1,??DataTable35_8
   \   0000036A   ....               LDR.N    R0,??DataTable35_1
   \   0000036C   ........           BL       puts_string
    708                                   Wifi_Reset();
   \   00000370   ........           BL       Wifi_Reset
   \   00000374   4FE0               B.N      ??PC_Communication_18
    709                              }
    710                              else if( memcmp(Rx_PCBuffer ,"LOADGPS",7) == 0 )
   \                     ??PC_Communication_27:
   \   00000376   0722               MOVS     R2,#+7
   \   00000378   ........           ADR.W    R1,`?<Constant "LOADGPS">`
   \   0000037C   ....               LDR.N    R0,??DataTable35_14
   \   0000037E   ........           BL       memcmp
   \   00000382   0028               CMP      R0,#+0
   \   00000384   02D1               BNE.N    ??PC_Communication_28
    711                              {
    712                                   Send_GPS();
   \   00000386   ........           BL       Send_GPS
   \   0000038A   44E0               B.N      ??PC_Communication_18
    713                              }                    
    714                              else if( memcmp(Rx_PCBuffer ,"LOADWIFI",8) == 0 )
   \                     ??PC_Communication_28:
   \   0000038C   0822               MOVS     R2,#+8
   \   0000038E   ........           ADR.W    R1,`?<Constant "LOADWIFI">`
   \   00000392   ....               LDR.N    R0,??DataTable35_14
   \   00000394   ........           BL       memcmp
   \   00000398   0028               CMP      R0,#+0
   \   0000039A   02D1               BNE.N    ??PC_Communication_29
    715                              {
    716                                   Send_WIFI();
   \   0000039C   ........           BL       Send_WIFI
   \   000003A0   39E0               B.N      ??PC_Communication_18
    717                              }
    718                              else if( memcmp(Rx_PCBuffer ,"CLEARMEMORY",11) == 0 )
   \                     ??PC_Communication_29:
   \   000003A2   0B22               MOVS     R2,#+11
   \   000003A4   ........           ADR.W    R1,`?<Constant "CLEARMEMORY">`
   \   000003A8   ....               LDR.N    R0,??DataTable35_14
   \   000003AA   ........           BL       memcmp
   \   000003AE   0028               CMP      R0,#+0
   \   000003B0   31D1               BNE.N    ??PC_Communication_18
    719                              {
    720                                   memset(&EMS_Drive_Value ,  0 , sizeof(EMS_Drive_Value));
   \   000003B2   2422               MOVS     R2,#+36
   \   000003B4   0021               MOVS     R1,#+0
   \   000003B6   ....               LDR.N    R0,??DataTable35_21
   \   000003B8   ........           BL       memset
    721                                   memset(&I2C_Ems_Accure ,  0 , sizeof(I2C_Ems_Accure));
   \   000003BC   0F22               MOVS     R2,#+15
   \   000003BE   0021               MOVS     R1,#+0
   \   000003C0   ....               LDR.N    R0,??DataTable35_22
   \   000003C2   ........           BL       memset
    722                                   memset(&NAND_Header_Info ,  0 , sizeof(NAND_Header_Info));
   \   000003C6   1022               MOVS     R2,#+16
   \   000003C8   0021               MOVS     R1,#+0
   \   000003CA   ....               LDR.N    R0,??DataTable35_23
   \   000003CC   ........           BL       memset
    723                                   memset(&NAND_Header_Index, 0, sizeof(NAND_Header_Index));
   \   000003D0   0A22               MOVS     R2,#+10
   \   000003D2   0021               MOVS     R1,#+0
   \   000003D4   ....               LDR.N    R0,??DataTable35_6
   \   000003D6   ........           BL       memset
    724                                   memset(&NAND_Data_Transmit , 0, sizeof(NAND_Data_Transmit));
   \   000003DA   0A22               MOVS     R2,#+10
   \   000003DC   0021               MOVS     R1,#+0
   \   000003DE   ....               LDR.N    R0,??DataTable35_24
   \   000003E0   ........           BL       memset
    725                                   //memset(&LookUpTable , 0, sizeof(LookUpTable));
    726                                   
    727                                   FSMC_NAND_EraseBlock(Get_NAND_PageAddress(0));
   \   000003E4   0021               MOVS     R1,#+0
   \   000003E6   00A8               ADD      R0,SP,#+0
   \   000003E8   ........           BL       Get_NAND_PageAddress
   \   000003EC   DDE90001           LDRD     R0,R1,[SP, #+0]
   \   000003F0   ........           BL       FSMC_NAND_EraseBlock
    728                                   Write_Header_EMS();                // 누적 거리를 클리어 한다.
   \   000003F4   ........           BL       Write_Header_EMS
    729                                   Write_Header_Index();              // NAND 인덱스를 저장
   \   000003F8   ........           BL       Write_Header_Index
    730                                   Write_Transmit_Header();           // 정송 시작과 끝을 저장한다.
   \   000003FC   ........           BL       Write_Transmit_Header
    731                                   Write_Header_Information();          // 실제 NAND 데이터를 저장하고 기록 한다.                         
   \   00000400   ........           BL       Write_Header_Information
    732                                   sprintf((char *)Buffer,"[OK]\n");
   \   00000404   ........           ADR.W    R1,`?<Constant "[OK]\\n">`
   \   00000408   ....               LDR.N    R0,??DataTable35_8
   \   0000040A   ........           BL       sprintf
    733                                   puts_string(&PC_Comm,(char*)Buffer);                         
   \   0000040E   ....               LDR.N    R1,??DataTable35_8
   \   00000410   ....               LDR.N    R0,??DataTable35_1
   \   00000412   ........           BL       puts_string
    734                              }                    
    735                                                 
    736                              memset(Rx_PCBuffer,0,sizeof(Rx_PCBuffer));
   \                     ??PC_Communication_18:
   \   00000416   4FF4FA72           MOV      R2,#+500
   \   0000041A   0021               MOVS     R1,#+0
   \   0000041C   ....               LDR.N    R0,??DataTable35_14
   \   0000041E   ........           BL       memset
    737                              Rx_PCCount = 0;              
   \   00000422   ....               LDR.N    R0,??DataTable35_16
   \   00000424   0021               MOVS     R1,#+0
   \   00000426   0180               STRH     R1,[R0, #+0]
   \   00000428   08E0               B.N      ??PC_Communication_14
    738                         }
    739                         
    740                         else       // 0x0a 가 아니면
    741                         {              
    742                              Rx_PCBuffer[Rx_PCCount++] = data;         
   \                     ??PC_Communication_15:
   \   0000042A   ....               LDR.N    R0,??DataTable35_16
   \   0000042C   0088               LDRH     R0,[R0, #+0]
   \   0000042E   ....               LDR.N    R1,??DataTable35_14
   \   00000430   4454               STRB     R4,[R0, R1]
   \   00000432   ....               LDR.N    R0,??DataTable35_16
   \   00000434   0088               LDRH     R0,[R0, #+0]
   \   00000436   401C               ADDS     R0,R0,#+1
   \   00000438   ....               LDR.N    R1,??DataTable35_16
   \   0000043A   0880               STRH     R0,[R1, #+0]
    743                         }               
    744                    }
    745                    data2 = data;
   \                     ??PC_Communication_14:
   \   0000043C   ....               LDR.N    R0,??DataTable35_13
   \   0000043E   0470               STRB     R4,[R0, #+0]
    746               }
    747          }
   \                     ??PC_Communication_8:
   \                     ??PC_Communication_0:
   \   00000440   08B0               ADD      SP,SP,#+32
   \   00000442   10BD               POP      {R4,PC}          ;; return

   \                                 In section .bss, align 1
   \                     ??data2:
   \   00000000                      DS8 1

   \                                 In section .bss, align 1
   \                     ??Load_Memory_Flag:
   \   00000000                      DS8 1

   \                                 In section .bss, align 1
   \                     ??Load_Memory_Flag2:
   \   00000000                      DS8 1

   \                                 In section .bss, align 2
   \                     ??PC_Timer:
   \   00000000                      DS8 2

   \                                 In section .bss, align 2
   \                     ??Memeory_SendCount:
   \   00000000                      DS8 2

   \                                 In section .text, align 4, keep-with-next
   \                     ??DataTable34:
   \   00000000   00100240           DC32     0x40021000

   \                                 In section .text, align 4, keep-with-next
   \                     ??DataTable34_1:
   \   00000000   ........           DC32     Flag

   \                                 In section .text, align 4, keep-with-next
   \                     ??DataTable34_2:
   \   00000000   ........           DC32     Buffer

   \                                 In section .text, align 4, keep-with-next
   \                     ??DataTable34_3:
   \   00000000   ........           DC32     Wifi_Result

   \                                 In section .text, align 4, keep-with-next
   \                     ??DataTable34_4:
   \   00000000   ........           DC32     `?<Constant "WIFI%d,%d,[OK]\\n">`

   \                                 In section .text, align 4, keep-with-next
   \                     ??DataTable34_5:
   \   00000000   ........           DC32     PC_Comm

   \                                 In section .text, align 4, keep-with-next
   \                     ??DataTable34_6:
   \   00000000   ........           DC32     Info

   \                                 In section .text, align 4, keep-with-next
   \                     ??DataTable34_7:
   \   00000000   40420F00           DC32     0xf4240

   \                                 In section .text, align 4, keep-with-next
   \                     ??DataTable34_8:
   \   00000000   ........           DC32     EmsOffProgress

   \                                 In section .text, align 4, keep-with-next
   \                     ??DataTable34_9:
   \   00000000   ........           DC32     EmsOnProgress

   \                                 In section .text, align 4, keep-with-next
   \                     ??DataTable34_10:
   \   00000000   ........           DC32     EMSOff_Check

   \                                 In section .text, align 4, keep-with-next
   \                     ??DataTable34_11:
   \   00000000   ........           DC32     EMSOn_Check

   \                                 In section .text, align 4, keep-with-next
   \                     ??DataTable34_12:
   \   00000000   ........           DC32     NAND_Header_Info

   \                                 In section .text, align 4, keep-with-next
   \                     ??DataTable34_13:
   \   00000000   ........           DC32     NAND_Data_Transmit

   \                                 In section .text, align 4, keep-with-next
   \                     ??DataTable34_14:
   \   00000000   ........           DC32     NAND_Header_Index

   \                                 In section .text, align 4, keep-with-next
   \                     ??DataTable34_15:
   \   00000000   ........           DC32     EMS_Drive_Value

   \                                 In section .text, align 4, keep-with-next
   \                     ??DataTable34_16:
   \   00000000   00002041           DC32     0x41200000

   \                                 In section .text, align 4, keep-with-next
   \                     ??DataTable34_17:
   \   00000000   00002440           DC32     0x40240000

   \                                 In section .text, align 4, keep-with-next
   \                     ??DataTable34_18:
   \   00000000   ........           DC32     SYSTEM_TIME

   \                                 In section .text, align 4, keep-with-next
   \                     ??DataTable34_19:
   \   00000000   ........           DC32     GPS_RouteCheck

   \                                 In section .text, align 4, keep-with-next
   \                     ??DataTable34_20:
   \   00000000   ........           DC32     SFLASH_Wifi+0x1E

   \                                 In section .text, align 4, keep-with-next
   \                     ??DataTable34_21:
   \   00000000   ........           DC32     SFLASH_Wifi

   \                                 In section .text, align 4, keep-with-next
   \                     ??DataTable34_22:
   \   00000000   ........           DC32     SFLASH_Wifi+0x42

   \                                 In section .text, align 4, keep-with-next
   \                     ??DataTable34_23:
   \   00000000   ........           DC32     SFLASH_Wifi+0x32

   \                                 In section .text, align 4, keep-with-next
   \                     ??DataTable34_24:
   \   00000000   ........           DC32     NAND_ID

   \                                 In section .text, align 4, keep-with-next
   \                     ??DataTable34_25:
   \   00000000   ........           DC32     SFLASH_Memory

   \                                 In section .text, align 4, keep-with-next
   \                     ??DataTable34_26:
   \   00000000   ........           DC32     SFLASH_Memory+0x4D

   \                                 In section .text, align 4, keep-with-next
   \                     ??DataTable34_27:
   \   00000000   ........           DC32     SFLASH_Memory+0x3A

   \                                 In section .text, align 4, keep-with-next
   \                     ??DataTable34_28:
   \   00000000   ........           DC32     SFLASH_Memory+0x27

   \                                 In section .text, align 4, keep-with-next
   \                     ??DataTable34_29:
   \   00000000   ........           DC32     SFLASH_Memory+0x14

   \                                 In section .text, align 4, keep-with-next
   \                     ??DataTable34_30:
   \   00000000   ........           DC32     SFLASH_Memory+0x1

   \                                 In section .text, align 4, keep-with-next
   \                     ??DataTable34_31:
   \   00000000   ........           DC32     SFLASH_CarInfo+0x50

   \                                 In section .text, align 4, keep-with-next
   \                     ??DataTable34_32:
   \   00000000   ........           DC32     SFLASH_CarInfo+0x3C

   \                                 In section .text, align 4, keep-with-next
   \                     ??DataTable34_33:
   \   00000000   ........           DC32     SFLASH_CarInfo+0x28

   \                                 In section .text, align 4, keep-with-next
   \                     ??DataTable34_34:
   \   00000000   ........           DC32     SFLASH_CarInfo+0x14

   \                                 In section .text, align 4, keep-with-next
   \                     `?<Constant "WIFI%d,%d,[OK]\\n">`:
   \   00000000                      ; Initializer data, 16 bytes
   \   00000000   574946492564       DC8 87, 73, 70, 73, 37, 100, 44, 37, 100, 44
   \              2C25642C    
   \   0000000A   5B4F4B5D0A00       DC8 91, 79, 75, 93, 10, 0

   \                                 In section .text, align 4, keep-with-next
   \                     `?<Constant "DEBUG%02d/%02d/%02d,%...">`:
   \   00000000                      ; Initializer data, 264 bytes
   \   00000000   444542554725       DC8 68, 69, 66, 85, 71, 37, 48, 50, 100, 47
   \              3032642F    
   \   0000000A   253032642F25       DC8 37, 48, 50, 100, 47, 37, 48, 50, 100, 44
   \              3032642C    
   \   00000014   253032643A25       DC8 37, 48, 50, 100, 58, 37, 48, 50, 100, 58
   \              3032643A    
   \   0000001E   253032642C25       DC8 37, 48, 50, 100, 44, 37, 48, 52, 100, 44
   \              3034642C    
   \   00000028   253037642C25       DC8 37, 48, 55, 100, 44, 37, 48, 51, 100, 44
   \              3033642C    
   \   00000032   253034642C25       DC8 37, 48, 52, 100, 44, 37, 43, 48, 54, 46
   \              2B30362E    
   \   0000003C   31662C252B30       DC8 49, 102, 44, 37, 43, 48, 54, 46, 49, 102
   \              362E3166    
   \   00000046   2C252B303364       DC8 44, 37, 43, 48, 51, 100, 44, 37, 43, 48
   \              2C252B30    
   \   00000050   33642C253032       DC8 51, 100, 44, 37, 48, 50, 100, 44, 37, 48
   \              642C2530    
   \   0000005A   34642C253034       DC8 52, 100, 44, 37, 48, 52, 100, 44, 37, 48
   \              642C2530    
   \   00000064   33642E253035       DC8 51, 100, 46, 37, 48, 53, 100, 44, 37, 48
   \              642C2530    
   \   0000006E   33642E253035       DC8 51, 100, 46, 37, 48, 53, 100, 44, 37, 48
   \              642C2530    
   \   00000078   33642C253033       DC8 51, 100, 44, 37, 48, 51, 100, 44, 37, 48
   \              642C2530    
   \   00000082   342E31662C25       DC8 52, 46, 49, 102, 44, 37, 99, 44, 37, 48
   \              632C2530    
   \   0000008C   34642C253034       DC8 52, 100, 44, 37, 48, 52, 100, 44, 37, 48
   \              642C2530    
   \   00000096   34642C253034       DC8 52, 100, 44, 37, 48, 52, 100, 44, 37, 48
   \              642C2530    
   \   000000A0   34642C253034       DC8 52, 100, 44, 37, 48, 52, 100, 44, 37, 100
   \              642C2564    
   \   000000AA   2C25642C2564       DC8 44, 37, 100, 44, 37, 100, 44, 37, 100, 44
   \              2C25642C    
   \   000000B4   25642C25642C       DC8 37, 100, 44, 37, 100, 44, 37, 100, 44, 37
   \              25642C25    
   \   000000BE   642C25642C25       DC8 100, 44, 37, 100, 44, 37, 100, 44, 37, 100
   \              642C2564    
   \   000000C8   2C25642C2564       DC8 44, 37, 100, 44, 37, 100, 44, 37, 100, 44
   \              2C25642C    
   \   000000D2   25642C25642C       DC8 37, 100, 44, 37, 100, 44, 37, 100, 44, 37
   \              25642C25    
   \   000000DC   642C25642C25       DC8 100, 44, 37, 100, 44, 37, 100, 44, 37, 100
   \              642C2564    
   \   000000E6   2C25642C2564       DC8 44, 37, 100, 44, 37, 100, 44, 37, 100, 44
   \              2C25642C    
   \   000000F0   25642C25642C       DC8 37, 100, 44, 37, 100, 44, 37, 100, 44, 37
   \              25642C25    
   \   000000FA   642C25642C25       DC8 100, 44, 37, 100, 44, 37, 100, 44, 91, 79
   \              642C5B4F    
   \   00000104   4B5D0A00           DC8 75, 93, 10, 0

   \                                 In section .text, align 4, keep-with-next
   \                     `?<Constant "GPS%d,%d,%d,%d,%d,%d,...">`:
   \   00000000                      ; Initializer data, 64 bytes
   \   00000000   47505325642C       DC8 71, 80, 83, 37, 100, 44, 37, 100, 44, 37
   \              25642C25    
   \   0000000A   642C25642C25       DC8 100, 44, 37, 100, 44, 37, 100, 44, 37, 100
   \              642C2564    
   \   00000014   2C25642C2564       DC8 44, 37, 100, 44, 37, 100, 44, 37, 100, 44
   \              2C25642C    
   \   0000001E   25642C25642C       DC8 37, 100, 44, 37, 100, 44, 37, 100, 44, 37
   \              25642C25    
   \   00000028   642C25642C25       DC8 100, 44, 37, 100, 44, 37, 100, 44, 37, 100
   \              642C2564    
   \   00000032   2C25642C2564       DC8 44, 37, 100, 44, 37, 100, 44, 91, 79, 75
   \              2C5B4F4B    
   \   0000003C   5D0A0000           DC8 93, 10, 0, 0

   \                                 In section .text, align 4, keep-with-next
   \                     `?<Constant "WIFE%s,%s,%s,%s,[OK]\\n">`:
   \   00000000                      ; Initializer data, 24 bytes
   \   00000000   574946452573       DC8 87, 73, 70, 69, 37, 115, 44, 37, 115, 44
   \              2C25732C    
   \   0000000A   25732C25732C       DC8 37, 115, 44, 37, 115, 44, 91, 79, 75, 93
   \              5B4F4B5D    
   \   00000014   0A000000           DC8 10, 0, 0, 0

   \                                 In section .text, align 4, keep-with-next
   \                     `?<Constant "SETTING%s,%s,%s,%s,%1...">`:
   \   00000000                      ; Initializer data, 160 bytes
   \   00000000   53455454494E       DC8 83, 69, 84, 84, 73, 78, 71, 37, 115, 44
   \              4725732C    
   \   0000000A   25732C25732C       DC8 37, 115, 44, 37, 115, 44, 37, 115, 44, 37
   \              25732C25    
   \   00000014   3132732C2564       DC8 49, 50, 115, 44, 37, 100, 44, 37, 100, 44
   \              2C25642C    
   \   0000001E   25642C25642C       DC8 37, 100, 44, 37, 100, 44, 37, 100, 44, 37
   \              25642C25    
   \   00000028   642C25642C25       DC8 100, 44, 37, 100, 44, 37, 100, 44, 37, 100
   \              642C2564    
   \   00000032   2C25642C2564       DC8 44, 37, 100, 44, 37, 100, 44, 37, 100, 44
   \              2C25642C    
   \   0000003C   25642C25642C       DC8 37, 100, 44, 37, 100, 44, 37, 100, 44, 37
   \              25642C25    
   \   00000046   642C25642C25       DC8 100, 44, 37, 100, 44, 37, 99, 44, 37, 100
   \              632C2564    
   \   00000050   2C25642C2564       DC8 44, 37, 100, 44, 37, 100, 44, 37, 100, 44
   \              2C25642C    
   \   0000005A   25732C25732C       DC8 37, 115, 44, 37, 115, 44, 37, 115, 44, 37
   \              25732C25    
   \   00000064   732C25732C25       DC8 115, 44, 37, 115, 44, 37, 100, 44, 37, 100
   \              642C2564    
   \   0000006E   2C25642C2564       DC8 44, 37, 100, 44, 37, 100, 44, 37, 100, 44
   \              2C25642C    
   \   00000078   25642C25642C       DC8 37, 100, 44, 37, 100, 44, 37, 100, 44, 37
   \              25642C25    
   \   00000082   642C25642C4E       DC8 100, 44, 37, 100, 44, 78, 65, 78, 68, 37
   \              414E4425    
   \   0000008C   782C25782C25       DC8 120, 44, 37, 120, 44, 37, 120, 44, 37, 120
   \              782C2578    
   \   00000096   2C5B4F4B5D0A       DC8 44, 91, 79, 75, 93, 10, 0, 0, 0, 0
   \              00000000    

   \                                 In section .text, align 4, keep-with-next
   \                     `?<Constant "111219-01">`:
   \   00000000                      ; Initializer data, 12 bytes
   \   00000000   313131323139       DC8 49, 49, 49, 50, 49, 57, 45, 48, 49, 0
   \              2D303100    
   \   0000000A   0000               DC8 0, 0

   \                                 In section .text, align 4, keep-with-next
   \                     `?<Constant "[OK]\\n">`:
   \   00000000                      ; Initializer data, 8 bytes
   \   00000000   5B4F4B5D0A00       DC8 91, 79, 75, 93, 10, 0, 0, 0
   \              0000        

   \                                 In section .text, align 4, keep-with-next
   \                     ??DataTable35:
   \   00000000   2B2B2B00           DC8      "+++"

   \                                 In section .text, align 4, keep-with-next
   \                     ??DataTable35_1:
   \   00000000   ........           DC32     PC_Comm

   \                                 In section .text, align 4, keep-with-next
   \                     ??DataTable35_2:
   \   00000000   ........           DC32     SFLASH_CarInfo

   \                                 In section .text, align 4, keep-with-next
   \                     ??DataTable35_3:
   \   00000000   ........           DC32     ??PC_Timer

   \                                 In section .text, align 4, keep-with-next
   \                     ??DataTable35_4:
   \   00000000   000C0040           DC32     0x40000c00

   \                                 In section .text, align 4, keep-with-next
   \                     ??DataTable35_5:
   \   00000000   ........           DC32     ??Load_Memory_Flag

   \                                 In section .text, align 4, keep-with-next
   \                     ??DataTable35_6:
   \   00000000   ........           DC32     NAND_Header_Index

   \                                 In section .text, align 4, keep-with-next
   \                     ??DataTable35_7:
   \   00000000   ........           DC32     ??Memeory_SendCount

   \                                 In section .text, align 4, keep-with-next
   \                     ??DataTable35_8:
   \   00000000   ........           DC32     Buffer

   \                                 In section .text, align 4, keep-with-next
   \                     ??DataTable35_9:
   \   00000000   ........           DC32     ??Load_Memory_Flag2

   \                                 In section .text, align 4, keep-with-next
   \                     ??DataTable35_10:
   \   00000000   ........           DC32     NAND_Buffer

   \                                 In section .text, align 4, keep-with-next
   \                     ??DataTable35_11:
   \   00000000   00100140           DC32     0x40011000

   \                                 In section .text, align 4, keep-with-next
   \                     ??DataTable35_12:
   \   00000000   ........           DC32     WIFI_TestMode

   \                                 In section .text, align 4, keep-with-next
   \                     ??DataTable35_13:
   \   00000000   ........           DC32     ??data2

   \                                 In section .text, align 4, keep-with-next
   \                     ??DataTable35_14:
   \   00000000   ........           DC32     Rx_PCBuffer

   \                                 In section .text, align 4, keep-with-next
   \                     ??DataTable35_15:
   \   00000000   ........           DC32     RF_Module

   \                                 In section .text, align 4, keep-with-next
   \                     ??DataTable35_16:
   \   00000000   ........           DC32     Rx_PCCount

   \                                 In section .text, align 4, keep-with-next
   \                     ??DataTable35_17:
   \   00000000   ........           DC32     Rx_PCBuffer+0xB

   \                                 In section .text, align 4, keep-with-next
   \                     ??DataTable35_18:
   \   00000000   ........           DC32     Rx_PCBuffer+0x7

   \                                 In section .text, align 4, keep-with-next
   \                     ??DataTable35_19:
   \   00000000   ........           DC32     Rx_PCBuffer+0x8

   \                                 In section .text, align 4, keep-with-next
   \                     ??DataTable35_20:
   \   00000000   ........           DC32     Info

   \                                 In section .text, align 4, keep-with-next
   \                     ??DataTable35_21:
   \   00000000   ........           DC32     EMS_Drive_Value

   \                                 In section .text, align 4, keep-with-next
   \                     ??DataTable35_22:
   \   00000000   ........           DC32     I2C_Ems_Accure

   \                                 In section .text, align 4, keep-with-next
   \                     ??DataTable35_23:
   \   00000000   ........           DC32     NAND_Header_Info

   \                                 In section .text, align 4, keep-with-next
   \                     ??DataTable35_24:
   \   00000000   ........           DC32     NAND_Data_Transmit

   \                                 In section .text, align 4, keep-with-next
   \                     `?<Constant "MEMORY%d,%d,%d,%d,%d,">`:
   \   00000000                      ; Initializer data, 24 bytes
   \   00000000   4D454D4F5259       DC8 77, 69, 77, 79, 82, 89, 37, 100, 44, 37
   \              25642C25    
   \   0000000A   642C25642C25       DC8 100, 44, 37, 100, 44, 37, 100, 44, 37, 100
   \              642C2564    
   \   00000014   2C000000           DC8 44, 0, 0, 0

   \                                 In section .text, align 4, keep-with-next
   \                     `?<Constant "WIFIMODE">`:
   \   00000000                      ; Initializer data, 12 bytes
   \   00000000   574946494D4F       DC8 87, 73, 70, 73, 77, 79, 68, 69, 0, 0
   \              44450000    
   \   0000000A   0000               DC8 0, 0

   \                                 In section .text, align 4, keep-with-next
   \                     `?<Constant "[WIFI_X][OK]\\n">`:
   \   00000000                      ; Initializer data, 16 bytes
   \   00000000   5B574946495F       DC8 91, 87, 73, 70, 73, 95, 88, 93, 91, 79
   \              585D5B4F    
   \   0000000A   4B5D0A000000       DC8 75, 93, 10, 0, 0, 0

   \                                 In section .text, align 4, keep-with-next
   \                     `?<Constant "+++">`:
   \   00000000                      ; Initializer data, 4 bytes
   \   00000000   2B2B2B00           DC8 43, 43, 43, 0

   \                                 In section .text, align 4, keep-with-next
   \                     `?<Constant "REFRESH">`:
   \   00000000                      ; Initializer data, 8 bytes
   \   00000000   524546524553       DC8 82, 69, 70, 82, 69, 83, 72, 0
   \              4800        

   \                                 In section .text, align 4, keep-with-next
   \                     `?<Constant "REFREWIFI">`:
   \   00000000                      ; Initializer data, 12 bytes
   \   00000000   524546524557       DC8 82, 69, 70, 82, 69, 87, 73, 70, 73, 0
   \              49464900    
   \   0000000A   0000               DC8 0, 0

   \                                 In section .text, align 4, keep-with-next
   \                     `?<Constant "LOADSET">`:
   \   00000000                      ; Initializer data, 8 bytes
   \   00000000   4C4F41445345       DC8 76, 79, 65, 68, 83, 69, 84, 0
   \              5400        

   \                                 In section .text, align 4, keep-with-next
   \                     `?<Constant "LOADMEMORY1">`:
   \   00000000                      ; Initializer data, 12 bytes
   \   00000000   4C4F41444D45       DC8 76, 79, 65, 68, 77, 69, 77, 79, 82, 89
   \              4D4F5259    
   \   0000000A   3100               DC8 49, 0

   \                                 In section .text, align 4, keep-with-next
   \                     `?<Constant "LOADMEMORY2">`:
   \   00000000                      ; Initializer data, 12 bytes
   \   00000000   4C4F41444D45       DC8 76, 79, 65, 68, 77, 69, 77, 79, 82, 89
   \              4D4F5259    
   \   0000000A   3200               DC8 50, 0

   \                                 In section .text, align 4, keep-with-next
   \                     `?<Constant "SETTILT">`:
   \   00000000                      ; Initializer data, 8 bytes
   \   00000000   53455454494C       DC8 83, 69, 84, 84, 73, 76, 84, 0
   \              5400        

   \                                 In section .text, align 4, keep-with-next
   \                     `?<Constant "SAVESETTING">`:
   \   00000000                      ; Initializer data, 12 bytes
   \   00000000   534156455345       DC8 83, 65, 86, 69, 83, 69, 84, 84, 73, 78
   \              5454494E    
   \   0000000A   4700               DC8 71, 0

   \                                 In section .text, align 4, keep-with-next
   \                     `?<Constant "SAVEGPS">`:
   \   00000000                      ; Initializer data, 8 bytes
   \   00000000   534156454750       DC8 83, 65, 86, 69, 71, 80, 83, 0
   \              5300        

   \                                 In section .text, align 4, keep-with-next
   \                     `?<Constant "SAVEWIFI">`:
   \   00000000                      ; Initializer data, 12 bytes
   \   00000000   534156455749       DC8 83, 65, 86, 69, 87, 73, 70, 73, 0, 0
   \              46490000    
   \   0000000A   0000               DC8 0, 0

   \                                 In section .text, align 4, keep-with-next
   \                     `?<Constant "SETLENGTH">`:
   \   00000000                      ; Initializer data, 12 bytes
   \   00000000   5345544C454E       DC8 83, 69, 84, 76, 69, 78, 71, 84, 72, 0
   \              47544800    
   \   0000000A   0000               DC8 0, 0

   \                                 In section .text, align 4, keep-with-next
   \                     `?<Constant "[WIFI_O][OK]\\n">`:
   \   00000000                      ; Initializer data, 16 bytes
   \   00000000   5B574946495F       DC8 91, 87, 73, 70, 73, 95, 79, 93, 91, 79
   \              4F5D5B4F    
   \   0000000A   4B5D0A000000       DC8 75, 93, 10, 0, 0, 0

   \                                 In section .text, align 4, keep-with-next
   \                     `?<Constant "LOADGPS">`:
   \   00000000                      ; Initializer data, 8 bytes
   \   00000000   4C4F41444750       DC8 76, 79, 65, 68, 71, 80, 83, 0
   \              5300        

   \                                 In section .text, align 4, keep-with-next
   \                     `?<Constant "LOADWIFI">`:
   \   00000000                      ; Initializer data, 12 bytes
   \   00000000   4C4F41445749       DC8 76, 79, 65, 68, 87, 73, 70, 73, 0, 0
   \              46490000    
   \   0000000A   0000               DC8 0, 0

   \                                 In section .text, align 4, keep-with-next
   \                     `?<Constant "CLEARMEMORY">`:
   \   00000000                      ; Initializer data, 12 bytes
   \   00000000   434C4541524D       DC8 67, 76, 69, 65, 82, 77, 69, 77, 79, 82
   \              454D4F52    
   \   0000000A   5900               DC8 89, 0

   Maximum stack usage in bytes:

     Function         .cstack
     --------         -------
     IsAP_Connect          8
     IsTCP_Connect         8
     PC_Communication     40
     Send_GPS             72
     Send_Memroy           0
     Send_Refresh        280
     Send_Setting        184
     Send_WIFI            16
     Send_WIFI_Status      8
     SettingGPS          128
     SettingParameter    120
     SettingWIFI         120
     memcpy                8
     memset                8


   Section sizes:

     Function/Label                         Bytes
     --------------                         -----
     memcpy                                   14
     memset                                   20
     IsAP_Connect                             24
     IsTCP_Connect                            24
     Rx_PCBuffer                             500
     Rx_PCCount                                2
     WIFI_TestMode                             1
     Send_WIFI_Status                         74
     Send_Refresh                            698
     Send_GPS                                204
     Send_WIFI                                50
     Send_Setting                            430
     Send_Memroy                               2
     SettingGPS                              234
     SettingWIFI                             216
     SettingParameter                        844
     PC_Communication                       1092
     data2                                     1
     Load_Memory_Flag                          1
     Load_Memory_Flag2                         1
     PC_Timer                                  2
     Memeory_SendCount                         2
     ??DataTable34                             4
     ??DataTable34_1                           4
     ??DataTable34_2                           4
     ??DataTable34_3                           4
     ??DataTable34_4                           4
     ??DataTable34_5                           4
     ??DataTable34_6                           4
     ??DataTable34_7                           4
     ??DataTable34_8                           4
     ??DataTable34_9                           4
     ??DataTable34_10                          4
     ??DataTable34_11                          4
     ??DataTable34_12                          4
     ??DataTable34_13                          4
     ??DataTable34_14                          4
     ??DataTable34_15                          4
     ??DataTable34_16                          4
     ??DataTable34_17                          4
     ??DataTable34_18                          4
     ??DataTable34_19                          4
     ??DataTable34_20                          4
     ??DataTable34_21                          4
     ??DataTable34_22                          4
     ??DataTable34_23                          4
     ??DataTable34_24                          4
     ??DataTable34_25                          4
     ??DataTable34_26                          4
     ??DataTable34_27                          4
     ??DataTable34_28                          4
     ??DataTable34_29                          4
     ??DataTable34_30                          4
     ??DataTable34_31                          4
     ??DataTable34_32                          4
     ??DataTable34_33                          4
     ??DataTable34_34                          4
     ?<Constant "WIFI%d,%d,[OK]\n">           16
     ?<Constant "DEBUG%02d/%02d/%02d,%...">  264
     ?<Constant "GPS%d,%d,%d,%d,%d,%d,...">   64
     ?<Constant "WIFE%s,%s,%s,%s,[OK]\n">     24
     ?<Constant "SETTING%s,%s,%s,%s,%1...">  160
     ?<Constant "111219-01">                  12
     ?<Constant "[OK]\n">                      8
     ??DataTable35                             4
     ??DataTable35_1                           4
     ??DataTable35_2                           4
     ??DataTable35_3                           4
     ??DataTable35_4                           4
     ??DataTable35_5                           4
     ??DataTable35_6                           4
     ??DataTable35_7                           4
     ??DataTable35_8                           4
     ??DataTable35_9                           4
     ??DataTable35_10                          4
     ??DataTable35_11                          4
     ??DataTable35_12                          4
     ??DataTable35_13                          4
     ??DataTable35_14                          4
     ??DataTable35_15                          4
     ??DataTable35_16                          4
     ??DataTable35_17                          4
     ??DataTable35_18                          4
     ??DataTable35_19                          4
     ??DataTable35_20                          4
     ??DataTable35_21                          4
     ??DataTable35_22                          4
     ??DataTable35_23                          4
     ??DataTable35_24                          4
     ?<Constant "MEMORY%d,%d,%d,%d,%d,">      24
     ?<Constant "WIFIMODE">                   12
     ?<Constant "[WIFI_X][OK]\n">             16
     ?<Constant "+++">                         4
     ?<Constant "REFRESH">                     8
     ?<Constant "REFREWIFI">                  12
     ?<Constant "LOADSET">                     8
     ?<Constant "LOADMEMORY1">                12
     ?<Constant "LOADMEMORY2">                12
     ?<Constant "SETTILT">                     8
     ?<Constant "SAVESETTING">                12
     ?<Constant "SAVEGPS">                     8
     ?<Constant "SAVEWIFI">                   12
     ?<Constant "SETLENGTH">                  12
     ?<Constant "[WIFI_O][OK]\n">             16
     ?<Constant "LOADGPS">                     8
     ?<Constant "LOADWIFI">                   12
     ?<Constant "CLEARMEMORY">                12

 
   510 bytes in section .bss
 4 922 bytes in section .text
 
 4 888 bytes of CODE memory (+ 34 bytes shared)
   510 bytes of DATA memory

Errors: none
Warnings: 1
