###############################################################################
#                                                                             #
# IAR ANSI C/C++ Compiler V6.10.1.52143/W32 for ARM     19/Dec/2011  16:18:52 #
# Copyright 1999-2010 IAR Systems AB.                                         #
#                                                                             #
#    Cpu mode     =  thumb                                                    #
#    Endian       =  little                                                   #
#    Source file  =  E:\Work\Firmware\DTG\DTG_EMS_SYSTEM\Project\stm32f2xx_it #
#                    .c                                                       #
#    Command line =  E:\Work\Firmware\DTG\DTG_EMS_SYSTEM\Project\stm32f2xx_it #
#                    .c -D USE_STDPERIPH_DRIVER -D STM32F2XX -D               #
#                    USE_STM3220F_EVAL -D USE_USB_OTG_FS -D                   #
#                    RTC_CLOCK_SOURCE_LSE -lC E:\Work\Firmware\DTG\DTG_EMS_SY #
#                    STEM\Project\EWARM\STM3220F_EVAL\List\ -lA               #
#                    E:\Work\Firmware\DTG\DTG_EMS_SYSTEM\Project\EWARM\STM322 #
#                    0F_EVAL\List\ -o E:\Work\Firmware\DTG\DTG_EMS_SYSTEM\Pro #
#                    ject\EWARM\STM3220F_EVAL\Obj\ --no_cse --no_unroll       #
#                    --no_inline --no_code_motion --no_tbaa --no_clustering   #
#                    --no_scheduling --debug --endian=little --cpu=Cortex-M3  #
#                    -e --fpu=None --dlib_config "C:\Program Files\IAR        #
#                    Systems\Embedded Workbench 6.0\arm\INC\c\DLib_Config_Ful #
#                    l.h" -I E:\Work\Firmware\DTG\DTG_EMS_SYSTEM\Project\EWAR #
#                    M\..\ -I E:\Work\Firmware\DTG\DTG_EMS_SYSTEM\Project\EWA #
#                    RM\..\..\Libraries\CMSIS\CM3\CoreSupport\ -I             #
#                    E:\Work\Firmware\DTG\DTG_EMS_SYSTEM\Project\EWARM\..\..\ #
#                    Libraries\CMSIS\CM3\DeviceSupport\ST\STM32F2xx\ -I       #
#                    E:\Work\Firmware\DTG\DTG_EMS_SYSTEM\Project\EWARM\..\..\ #
#                    Libraries\STM32F2xx_StdPeriph_Driver\inc\ -I             #
#                    E:\Work\Firmware\DTG\DTG_EMS_SYSTEM\Project\EWARM\..\..\ #
#                    Utilities\STM32_EVAL\ -I E:\Work\Firmware\DTG\DTG_EMS_SY #
#                    STEM\Project\EWARM\..\..\Utilities\STM32_EVAL\Common\    #
#                    -I E:\Work\Firmware\DTG\DTG_EMS_SYSTEM\Project\EWARM\..\ #
#                    ..\Utilities\STM32_EVAL\STM3220F_EVAL\ -I                #
#                    E:\Work\Firmware\DTG\DTG_EMS_SYSTEM\Project\EWARM\..\..\ #
#                    Libraries\STM32_USB_OTG_Driver\inc\ -I                   #
#                    E:\Work\Firmware\DTG\DTG_EMS_SYSTEM\Project\EWARM\..\..\ #
#                    Libraries\STM32_USB_Device_Library\Core\inc\ -I          #
#                    E:\Work\Firmware\DTG\DTG_EMS_SYSTEM\Project\EWARM\..\..\ #
#                    Libraries\STM32_USB_Device_Library\Class\msc\inc\ -I     #
#                    E:\Work\Firmware\DTG\DTG_EMS_SYSTEM\Project\EWARM\..\Usb #
#                    \ -I E:\Work\Firmware\DTG\DTG_EMS_SYSTEM\Project\EWARM\. #
#                    .\Usb\Inc\ -I E:\Work\Firmware\DTG\DTG_EMS_SYSTEM\Projec #
#                    t\EWARM\..\Usb\src\ -I E:\Work\Firmware\DTG\DTG_EMS_SYST #
#                    EM\Project\EWARM\..\..\Libraries\STM32_USB_HOST_Library\ #
#                    Core\inc\ -I E:\Work\Firmware\DTG\DTG_EMS_SYSTEM\Project #
#                    \EWARM\..\..\Libraries\STM32_USB_HOST_Library\Class\MSC\ #
#                    inc\ -Ol --use_c++_inline                                #
#    List file    =  E:\Work\Firmware\DTG\DTG_EMS_SYSTEM\Project\EWARM\STM322 #
#                    0F_EVAL\List\stm32f2xx_it.lst                            #
#    Object file  =  E:\Work\Firmware\DTG\DTG_EMS_SYSTEM\Project\EWARM\STM322 #
#                    0F_EVAL\Obj\stm32f2xx_it.o                               #
#                                                                             #
#                                                                             #
###############################################################################

E:\Work\Firmware\DTG\DTG_EMS_SYSTEM\Project\stm32f2xx_it.c
      1          /**
      2          ******************************************************************************
      3          * @file    Project/STM32F2xx_StdPeriph_Template/stm32f2xx_it.c 
      4          * @author  MCD Application Team
      5          * @version V0.0.4
      6          * @date    13-January-2011
      7          * @brief   Main Interrupt Service Routines.
      8          *          This file provides template for all exceptions handler and 
      9          *          peripherals interrupt service routine.
     10          ******************************************************************************
     11          * @attention
     12          *
     13          * THE PRESENT FIRMWARE WHICH IS FOR GUIDANCE ONLY AIMS AT PROVIDING CUSTOMERS
     14          * WITH CODING INFORMATION REGARDING THEIR PRODUCTS IN ORDER FOR THEM TO SAVE
     15          * TIME. AS A RESULT, STMICROELECTRONICS SHALL NOT BE HELD LIABLE FOR ANY
     16          * DIRECT, INDIRECT OR CONSEQUENTIAL DAMAGES WITH RESPECT TO ANY CLAIMS ARISING
     17          * FROM THE CONTENT OF SUCH FIRMWARE AND/OR THE USE MADE BY CUSTOMERS OF THE
     18          * CODING INFORMATION CONTAINED HEREIN IN CONNECTION WITH THEIR PRODUCTS.
     19          *
     20          * <h2><center>&copy; COPYRIGHT 2011 STMicroelectronics</center></h2>
     21          ******************************************************************************
     22          */ 
     23          
     24          /* Includes ------------------------------------------------------------------*/
     25          #include "stm32f2xx_it.h"
     26          #include "main.h"
     27          
     28          /* Private typedef -----------------------------------------------------------*/
     29          /* Private define ------------------------------------------------------------*/
     30          /* Private macro -------------------------------------------------------------*/
     31          /* Private variables ---------------------------------------------------------*/
     32          /* Private function prototypes -----------------------------------------------*/
     33          /* Private functions ---------------------------------------------------------*/

   \                                 In section .bss, align 4
     34          u32 LPGBuffer[10];
   \                     LPGBuffer:
   \   00000000                      DS8 40

   \                                 In section .bss, align 2
     35          u16 LPGRising_Time;
   \                     LPGRising_Time:
   \   00000000                      DS8 2

   \                                 In section .bss, align 2
     36          u16 LPGFalling_Time;
   \                     LPGFalling_Time:
   \   00000000                      DS8 2
     37          //u8 LPG_PWM_Count;

   \                                 In section .bss, align 1
     38          u8 LPG_Loop;
   \                     LPG_Loop:
   \   00000000                      DS8 1

   \                                 In section .bss, align 1
     39          u8 LPG_Count;
   \                     LPG_Count:
   \   00000000                      DS8 1
     40          

   \                                 In section .bss, align 2
     41          u16 Timer_1ms;
   \                     Timer_1ms:
   \   00000000                      DS8 2
     42          

   \                                 In section .bss, align 4
     43          u32 RPM_PWM_Count;
   \                     RPM_PWM_Count:
   \   00000000                      DS8 4

   \                                 In section .bss, align 4
     44          u32 RPM_Count;
   \                     RPM_Count:
   \   00000000                      DS8 4

   \                                 In section .bss, align 4
     45          u32 RPM_Buffer[MAX_RPMSPEED_BUFFERCOUNT];
   \                     RPM_Buffer:
   \   00000000                      DS8 80

   \                                 In section .bss, align 1
     46          u8 RPM_Loop;
   \                     RPM_Loop:
   \   00000000                      DS8 1
     47          

   \                                 In section .bss, align 4
     48          u32 SPEED_PWM_Count;
   \                     SPEED_PWM_Count:
   \   00000000                      DS8 4

   \                                 In section .bss, align 4
     49          u32 SPEED_Count;
   \                     SPEED_Count:
   \   00000000                      DS8 4

   \                                 In section .bss, align 4
     50          u32 SPEED_Buffer[MAX_RPMSPEED_BUFFERCOUNT];
   \                     SPEED_Buffer:
   \   00000000                      DS8 80

   \                                 In section .bss, align 1
     51          u8 SPEED_Loop;
   \                     SPEED_Loop:
   \   00000000                      DS8 1

   \                                 In section .bss, align 1
     52          u8 SPEED_Check;
   \                     SPEED_Check:
   \   00000000                      DS8 1
     53          
     54          extern void USB_OTG_BSP_TimerIRQ (void);
     55          /******************************************************************************/
     56          /*            Cortex-M3 Processor Exceptions Handlers                         */
     57          /******************************************************************************/
     58          
     59          /**
     60          * @brief   This function handles NMI exception.
     61          * @param  None
     62          * @retval None
     63          */

   \                                 In section .text, align 2, keep-with-next
     64          void NMI_Handler(void)
     65          {
     66          }
   \                     NMI_Handler:
   \   00000000   7047               BX       LR               ;; return
     67          
     68          /**
     69          * @brief  This function handles Hard Fault exception.
     70          * @param  None
     71          * @retval None
     72          */

   \                                 In section .text, align 2, keep-with-next
     73          void HardFault_Handler(void)
     74          {
   \                     HardFault_Handler:
   \   00000000   80B5               PUSH     {R7,LR}
     75               /* Go to infinite loop when Hard Fault exception occurs */
     76               printf("SYSTEM DOWN [%d]",SYSTEM_STEP);
   \   00000002   ....               LDR.N    R0,??DataTable7
   \   00000004   0188               LDRH     R1,[R0, #+0]
   \   00000006   ........           ADR.W    R0,`?<Constant "SYSTEM DOWN [%d]">`
   \   0000000A   ........           BL       printf
     77               while (1)
   \                     ??HardFault_Handler_0:
   \   0000000E   FEE7               B.N      ??HardFault_Handler_0
     78               {
     79               }
     80          }
     81          
     82          /**
     83          * @brief  This function handles Memory Manage exception.    
     84          * @param  None
     85          * @retval None
     86          */

   \                                 In section .text, align 2, keep-with-next
     87          void MemManage_Handler(void)
     88          {
     89               /* Go to infinite loop when Memory Manage exception occurs */
     90               while (1)
   \                     MemManage_Handler:
   \                     ??MemManage_Handler_0:
   \   00000000   FEE7               B.N      ??MemManage_Handler_0
     91               {
     92               }
     93          }
     94          
     95          /**
     96          * @brief  This function handles Bus Fault exception.
     97          * @param  None
     98          * @retval None
     99          */

   \                                 In section .text, align 2, keep-with-next
    100          void BusFault_Handler(void)
    101          {
    102               /* Go to infinite loop when Bus Fault exception occurs */
    103               while (1)
   \                     BusFault_Handler:
   \                     ??BusFault_Handler_0:
   \   00000000   FEE7               B.N      ??BusFault_Handler_0
    104               {
    105               }
    106          }
    107          
    108          /**
    109          * @brief  This function handles Usage Fault exception.
    110          * @param  None
    111          * @retval None
    112          */

   \                                 In section .text, align 2, keep-with-next
    113          void UsageFault_Handler(void)
    114          {
    115               /* Go to infinite loop when Usage Fault exception occurs */
    116               while (1)
   \                     UsageFault_Handler:
   \                     ??UsageFault_Handler_0:
   \   00000000   FEE7               B.N      ??UsageFault_Handler_0
    117               {
    118               }
    119          }
    120          
    121          /**
    122          * @brief  This function handles SVCall exception.
    123          * @param  None
    124          * @retval None
    125          */

   \                                 In section .text, align 2, keep-with-next
    126          void SVC_Handler(void)
    127          {
    128          }
   \                     SVC_Handler:
   \   00000000   7047               BX       LR               ;; return
    129          
    130          /**
    131          * @brief  This function handles Debug Monitor exception.
    132          * @param  None
    133          * @retval None
    134          */

   \                                 In section .text, align 2, keep-with-next
    135          void DebugMon_Handler(void)
    136          {
    137          }
   \                     DebugMon_Handler:
   \   00000000   7047               BX       LR               ;; return
    138          
    139          /**
    140          * @brief  This function handles PendSVC exception.
    141          * @param  None
    142          * @retval None
    143          */

   \                                 In section .text, align 2, keep-with-next
    144          void PendSV_Handler(void)
    145          {
    146          }
   \                     PendSV_Handler:
   \   00000000   7047               BX       LR               ;; return
    147          /*void FSMC_IRQHandler(void)
    148          {
    149          
    150          }*/
    151          /**
    152          * @brief  This function handles SysTick Handler.
    153          * @param  None
    154          * @retval None
    155          */
    156          

   \                                 In section .text, align 2, keep-with-next
    157          void WWDG_IRQHandler(void)
    158          {
   \                     WWDG_IRQHandler:
   \   00000000   80B5               PUSH     {R7,LR}
    159              /* Update WWDG counter */
    160              WWDG_SetCounter(0x7F);
   \   00000002   7F20               MOVS     R0,#+127
   \   00000004   ........           BL       WWDG_SetCounter
    161          
    162              /* Clear EWI flag */
    163              WWDG_ClearFlag();
   \   00000008   ........           BL       WWDG_ClearFlag
    164          
    165          }
   \   0000000C   01BD               POP      {R0,PC}          ;; return
    166          

   \                                 In section .text, align 2, keep-with-next
    167          void SysTick_Handler(void)          // 현재 0.1ms
    168          {
    169               Timer_1ms++;
   \                     SysTick_Handler:
   \   00000000   ....               LDR.N    R0,??DataTable7_1
   \   00000002   0088               LDRH     R0,[R0, #+0]
   \   00000004   401C               ADDS     R0,R0,#+1
   \   00000006   ....               LDR.N    R1,??DataTable7_1
   \   00000008   0880               STRH     R0,[R1, #+0]
    170               //IWDG_ReloadCounter();
    171          
    172          //     m_sec++ ;
    173          //     m_sec %= 10000;     
    174               
    175          }
   \   0000000A   7047               BX       LR               ;; return

   \                                 In section .text, align 2, keep-with-next
    176          void EXTI9_5_IRQHandler(void)
    177          {
   \                     EXTI9_5_IRQHandler:
   \   00000000   10B5               PUSH     {R4,LR}
    178               u32 GapTime;
    179          
    180               GapTime = CheckTimeInterval_100us(  SPEED_PWM_Count );
   \   00000002   ....               LDR.N    R0,??DataTable7_2
   \   00000004   0068               LDR      R0,[R0, #+0]
   \   00000006   80B2               UXTH     R0,R0            ;; ZeroExt  R0,R0,#+16,#+16
   \   00000008   ........           BL       CheckTimeInterval_100us
   \   0000000C   0400               MOVS     R4,R0
    181               SPEED_PWM_Count = MS_TIMER_100us;     //  초기화  
   \   0000000E   ....               LDR.N    R0,??DataTable7_3  ;; 0x40000400
   \   00000010   ........           BL       TIM_GetCounter
   \   00000014   ....               LDR.N    R1,??DataTable7_2
   \   00000016   0860               STR      R0,[R1, #+0]
    182               
    183               if(GapTime < 20010)          // 1hz보다 크면          
   \   00000018   44F62A60           MOVW     R0,#+20010
   \   0000001C   8442               CMP      R4,R0
   \   0000001E   0AD2               BCS.N    ??EXTI9_5_IRQHandler_0
    184                     SPEED_Buffer[SPEED_Loop++ ] = GapTime;                  // 2.5 (나누기 2.5)
   \   00000020   ....               LDR.N    R0,??DataTable7_4
   \   00000022   0078               LDRB     R0,[R0, #+0]
   \   00000024   ....               LDR.N    R1,??DataTable7_5
   \   00000026   41F82040           STR      R4,[R1, R0, LSL #+2]
   \   0000002A   ....               LDR.N    R0,??DataTable7_4
   \   0000002C   0078               LDRB     R0,[R0, #+0]
   \   0000002E   401C               ADDS     R0,R0,#+1
   \   00000030   ....               LDR.N    R1,??DataTable7_4
   \   00000032   0870               STRB     R0,[R1, #+0]
   \   00000034   04E0               B.N      ??EXTI9_5_IRQHandler_1
    185               else
    186                     SPEED_Count++ ;                                   // 실제 누적된 카운트 값을 계산함
   \                     ??EXTI9_5_IRQHandler_0:
   \   00000036   ....               LDR.N    R0,??DataTable7_6
   \   00000038   0068               LDR      R0,[R0, #+0]
   \   0000003A   401C               ADDS     R0,R0,#+1
   \   0000003C   ....               LDR.N    R1,??DataTable7_6
   \   0000003E   0860               STR      R0,[R1, #+0]
    187               
    188               SPEED_Loop = SPEED_Loop % MAX_RPMSPEED_BUFFERCOUNT;   // 원형버퍼에 카운터 처리    
   \                     ??EXTI9_5_IRQHandler_1:
   \   00000040   ....               LDR.N    R0,??DataTable7_4
   \   00000042   0078               LDRB     R0,[R0, #+0]
   \   00000044   1421               MOVS     R1,#+20
   \   00000046   90FBF1F2           SDIV     R2,R0,R1
   \   0000004A   01FB1200           MLS      R0,R1,R2,R0
   \   0000004E   ....               LDR.N    R1,??DataTable7_4
   \   00000050   0870               STRB     R0,[R1, #+0]
    189               SPEED_Check = 1;
   \   00000052   ....               LDR.N    R0,??DataTable7_7
   \   00000054   0121               MOVS     R1,#+1
   \   00000056   0170               STRB     R1,[R0, #+0]
    190               //////////////////////////////////////////////////
    191               
    192               Info.Total_Drive_PulsCount1++;           // 저장용 펄스 계산
   \   00000058   ....               LDR.N    R0,??DataTable7_8
   \   0000005A   D0F82A00           LDR      R0,[R0, #+42]
   \   0000005E   401C               ADDS     R0,R0,#+1
   \   00000060   ....               LDR.N    R1,??DataTable7_8
   \   00000062   C1F82A00           STR      R0,[R1, #+42]
    193               EMS_Drive_Value.Today_Speed_PulsCount ++;      // 거리 계산용 펄스
   \   00000066   ....               LDR.N    R0,??DataTable7_9
   \   00000068   8068               LDR      R0,[R0, #+8]
   \   0000006A   401C               ADDS     R0,R0,#+1
   \   0000006C   ....               LDR.N    R1,??DataTable7_9
   \   0000006E   8860               STR      R0,[R1, #+8]
    194               
    195               EXTI_ClearITPendingBit(EXTI_Line6);  
   \   00000070   4020               MOVS     R0,#+64
   \   00000072   ........           BL       EXTI_ClearITPendingBit
    196          }
   \   00000076   10BD               POP      {R4,PC}          ;; return
    197          

   \                                 In section .text, align 2, keep-with-next
    198          void EXTI1_IRQHandler(void)
    199          {
   \                     EXTI1_IRQHandler:
   \   00000000   80B5               PUSH     {R7,LR}
    200               EXTI_ClearITPendingBit(EXTI_Line1); 
   \   00000002   0220               MOVS     R0,#+2
   \   00000004   ........           BL       EXTI_ClearITPendingBit
    201          }
   \   00000008   01BD               POP      {R0,PC}          ;; return
    202          

   \                                 In section .text, align 2, keep-with-next
    203          void EXTI15_10_IRQHandler(void)
    204          {
   \                     EXTI15_10_IRQHandler:
   \   00000000   10B5               PUSH     {R4,LR}
    205             	u16 Time;
    206          	if(EXTI_GetFlagStatus(EXTI_Line15))
   \   00000002   4FF40040           MOV      R0,#+32768
   \   00000006   ........           BL       EXTI_GetFlagStatus
   \   0000000A   0028               CMP      R0,#+0
   \   0000000C   25D0               BEQ.N    ??EXTI15_10_IRQHandler_0
    207               {
    208                    //      RPM_PWM_Count++;
    209                    RPM_Buffer[RPM_Loop++ ] = CheckTimeInterval_100us( RPM_PWM_Count ) ;  // / 2.5 (나누기 2.5)
   \   0000000E   ....               LDR.N    R0,??DataTable7_10
   \   00000010   0478               LDRB     R4,[R0, #+0]
   \   00000012   601C               ADDS     R0,R4,#+1
   \   00000014   ....               LDR.N    R1,??DataTable7_10
   \   00000016   0870               STRB     R0,[R1, #+0]
   \   00000018   ....               LDR.N    R0,??DataTable7_11
   \   0000001A   0068               LDR      R0,[R0, #+0]
   \   0000001C   80B2               UXTH     R0,R0            ;; ZeroExt  R0,R0,#+16,#+16
   \   0000001E   ........           BL       CheckTimeInterval_100us
   \   00000022   E4B2               UXTB     R4,R4            ;; ZeroExt  R4,R4,#+24,#+24
   \   00000024   ....               LDR.N    R1,??DataTable7_12
   \   00000026   41F82400           STR      R0,[R1, R4, LSL #+2]
    210                    RPM_Count ++ ;   // 실제 누적된 카운트 값을 계산함   
   \   0000002A   ....               LDR.N    R0,??DataTable7_13
   \   0000002C   0068               LDR      R0,[R0, #+0]
   \   0000002E   401C               ADDS     R0,R0,#+1
   \   00000030   ....               LDR.N    R1,??DataTable7_13
   \   00000032   0860               STR      R0,[R1, #+0]
    211                    RPM_Loop = RPM_Loop % MAX_RPMSPEED_BUFFERCOUNT;   // 원형버퍼에 카운터 처리      
   \   00000034   ....               LDR.N    R0,??DataTable7_10
   \   00000036   0078               LDRB     R0,[R0, #+0]
   \   00000038   1421               MOVS     R1,#+20
   \   0000003A   90FBF1F2           SDIV     R2,R0,R1
   \   0000003E   01FB1200           MLS      R0,R1,R2,R0
   \   00000042   ....               LDR.N    R1,??DataTable7_10
   \   00000044   0870               STRB     R0,[R1, #+0]
    212                    RPM_PWM_Count = MS_TIMER_100us;     //  초기화     
   \   00000046   ....               LDR.N    R0,??DataTable7_3  ;; 0x40000400
   \   00000048   ........           BL       TIM_GetCounter
   \   0000004C   ....               LDR.N    R1,??DataTable7_11
   \   0000004E   0860               STR      R0,[R1, #+0]
    213                    EXTI_ClearITPendingBit(EXTI_Line15);      
   \   00000050   4FF40040           MOV      R0,#+32768
   \   00000054   ........           BL       EXTI_ClearITPendingBit
   \   00000058   4FE0               B.N      ??EXTI15_10_IRQHandler_1
    214               }  
    215               else if(EXTI_GetFlagStatus(EXTI_Line10))
   \                     ??EXTI15_10_IRQHandler_0:
   \   0000005A   4FF48060           MOV      R0,#+1024
   \   0000005E   ........           BL       EXTI_GetFlagStatus
   \   00000062   0028               CMP      R0,#+0
   \   00000064   49D0               BEQ.N    ??EXTI15_10_IRQHandler_1
    216               {
    217                    LPG_Count++ ;
   \   00000066   ....               LDR.N    R0,??DataTable7_14
   \   00000068   0078               LDRB     R0,[R0, #+0]
   \   0000006A   401C               ADDS     R0,R0,#+1
   \   0000006C   ....               LDR.N    R1,??DataTable7_14
   \   0000006E   0870               STRB     R0,[R1, #+0]
    218                    LPG_Count %= 256;
   \   00000070   ....               LDR.N    R0,??DataTable7_14
   \   00000072   0078               LDRB     R0,[R0, #+0]
   \   00000074   4FF48071           MOV      R1,#+256
   \   00000078   90FBF1F2           SDIV     R2,R0,R1
   \   0000007C   02FB1102           MLS      R2,R2,R1,R0
   \   00000080   ....               LDR.N    R0,??DataTable7_14
   \   00000082   0270               STRB     R2,[R0, #+0]
    219                    Time = MS_TIMER_2us;
   \   00000084   ....               LDR.N    R0,??DataTable7_15  ;; 0x40001400
   \   00000086   ........           BL       TIM_GetCounter
   \   0000008A   0400               MOVS     R4,R0
    220                    TIM_SetCounter(TIM7,0);	
   \   0000008C   0021               MOVS     R1,#+0
   \   0000008E   ....               LDR.N    R0,??DataTable7_15  ;; 0x40001400
   \   00000090   ........           BL       TIM_SetCounter
    221                    {   
    222                         if (GPIO_ReadInputDataBit(GPIOD, GPIO_Pin_10) == Bit_SET)
   \   00000094   4FF48061           MOV      R1,#+1024
   \   00000098   ....               LDR.N    R0,??DataTable7_16  ;; 0x40020c00
   \   0000009A   ........           BL       GPIO_ReadInputDataBit
   \   0000009E   0128               CMP      R0,#+1
   \   000000A0   04D1               BNE.N    ??EXTI15_10_IRQHandler_2
    223                         {			
    224                              LPGRising_Time = Time - 75;
   \   000000A2   B4F14B00           SUBS     R0,R4,#+75
   \   000000A6   ....               LDR.N    R1,??DataTable7_17
   \   000000A8   0880               STRH     R0,[R1, #+0]
   \   000000AA   22E0               B.N      ??EXTI15_10_IRQHandler_3
    225                         }
    226                         else
    227                         {
    228                              LPGFalling_Time = Time + 75;
   \                     ??EXTI15_10_IRQHandler_2:
   \   000000AC   14F14B00           ADDS     R0,R4,#+75
   \   000000B0   ....               LDR.N    R1,??DataTable7_18
   \   000000B2   0880               STRH     R0,[R1, #+0]
    229                              //LPGBuffer[LPGCount++] = CheckTimeInterval_1us(LPGRising_Time);
    230                              LPGBuffer[LPG_Loop++] = ( ( LPGFalling_Time*1000 ) / ( LPGFalling_Time + LPGRising_Time ) );
   \   000000B4   ....               LDR.N    R0,??DataTable7_18
   \   000000B6   0088               LDRH     R0,[R0, #+0]
   \   000000B8   4FF47A71           MOV      R1,#+1000
   \   000000BC   4843               MULS     R0,R1,R0
   \   000000BE   ....               LDR.N    R1,??DataTable7_18
   \   000000C0   0988               LDRH     R1,[R1, #+0]
   \   000000C2   ....               LDR.N    R2,??DataTable7_17
   \   000000C4   1288               LDRH     R2,[R2, #+0]
   \   000000C6   5118               ADDS     R1,R2,R1
   \   000000C8   90FBF1F0           SDIV     R0,R0,R1
   \   000000CC   ....               LDR.N    R1,??DataTable7_19
   \   000000CE   0978               LDRB     R1,[R1, #+0]
   \   000000D0   ....               LDR.N    R2,??DataTable7_20
   \   000000D2   42F82100           STR      R0,[R2, R1, LSL #+2]
   \   000000D6   ....               LDR.N    R0,??DataTable7_19
   \   000000D8   0078               LDRB     R0,[R0, #+0]
   \   000000DA   401C               ADDS     R0,R0,#+1
   \   000000DC   ....               LDR.N    R1,??DataTable7_19
   \   000000DE   0870               STRB     R0,[R1, #+0]
    231                              LPG_Loop %= 10;			
   \   000000E0   ....               LDR.N    R0,??DataTable7_19
   \   000000E2   0078               LDRB     R0,[R0, #+0]
   \   000000E4   0A21               MOVS     R1,#+10
   \   000000E6   90FBF1F2           SDIV     R2,R0,R1
   \   000000EA   01FB1200           MLS      R0,R1,R2,R0
   \   000000EE   ....               LDR.N    R1,??DataTable7_19
   \   000000F0   0870               STRB     R0,[R1, #+0]
    232                         }
    233                    }
    234                    EXTI_ClearITPendingBit(EXTI_Line10); 
   \                     ??EXTI15_10_IRQHandler_3:
   \   000000F2   4FF48060           MOV      R0,#+1024
   \   000000F6   ........           BL       EXTI_ClearITPendingBit
    235               }
    236          }
   \                     ??EXTI15_10_IRQHandler_1:
   \   000000FA   10BD               POP      {R4,PC}          ;; return
    237          /*
    238          __IO uint16_t ic3_readvalue1 = 0, ic3_readvalue2 = 0;
    239          __IO uint16_t capture_number = 0;
    240          __IO uint32_t CAPTURE = 0;
    241          __IO uint32_t TIM2_FREQ = 0;
    242          __IO uint16_t IC3ReadValue1 = 0, IC3ReadValue2 = 0;
    243          __IO uint16_t CaptureNumber = 0;
    244          __IO uint32_t Capture = 0;
    245          __IO uint32_t TIM1Freq = 0;
    246          
    247          void TIM1_CC_IRQHandler(void)
    248          { 
    249          if(TIM_GetITStatus(TIM1, TIM_IT_CC2) == SET) 
    250          {
    251          
    252          TIM_ClearITPendingBit(TIM1, TIM_IT_CC2);
    253          if(CaptureNumber == 0)
    254          {
    255          IC3ReadValue1 = TIM_GetCapture2(TIM1);
    256          CaptureNumber = 1;
    257              }
    258              else if(CaptureNumber == 1)
    259          {
    260          
    261          IC3ReadValue2 = TIM_GetCapture2(TIM1); 
    262          
    263          if (IC3ReadValue2 > IC3ReadValue1)
    264          {
    265          Capture = (IC3ReadValue2 - IC3ReadValue1); 
    266                }
    267                else
    268          {
    269          Capture = ((0xFFFF - IC3ReadValue1) + IC3ReadValue2); 
    270                }
    271          // Frequency computation 
    272          TIM1Freq = (uint32_t) SystemCoreClock / Capture;
    273          CaptureNumber = 0;
    274              }
    275            }
    276          }*/
    277          

   \                                 In section .text, align 2, keep-with-next
    278          void TIM2_IRQHandler(void)
    279          { 
   \                     TIM2_IRQHandler:
   \   00000000   80B5               PUSH     {R7,LR}
    280          
    281               USB_OTG_BSP_TimerIRQ();     
   \   00000002   ........           BL       USB_OTG_BSP_TimerIRQ
    282          //     TIM_ClearITPendingBit(TIM2,TIM_IT_Update);  
    283          }
   \   00000006   01BD               POP      {R0,PC}          ;; return

   \                                 In section .text, align 2, keep-with-next
    284          void TIM3_IRQHandler(void)
    285          { 
   \                     TIM3_IRQHandler:
   \   00000000   80B5               PUSH     {R7,LR}
    286               // if(TIM_GetITStatus(TIM3, TIM_IT_CC2) == SET) 
    287               {
    288                    TIM_ClearITPendingBit(TIM3,TIM_IT_Update);  
   \   00000002   0121               MOVS     R1,#+1
   \   00000004   ....               LDR.N    R0,??DataTable7_3  ;; 0x40000400
   \   00000006   ........           BL       TIM_ClearITPendingBit
    289                    //      LPG_PWM_Count++;
    290                    //      SPEED_PWM_Count++;  
    291                    //      RPM_PWM_Count++;
    292                    //   GPIO_ToggleBits(GPIOG,GPIO_Pin_14);       
    293                    
    294               }
    295          }
   \   0000000A   01BD               POP      {R0,PC}          ;; return
    296          //////////////////////////////////////////////////////////////////////////
    297          // 현대와 대우 신형 측정방식
    298          // 100ms 안에 몇개의 데이터가 들어어는가?
    299          // 주파수가 낮을때 사용한다.
    300          // RPM_Count가  OverFlow되는 것을 조심
    301          

   \                                 In section .text, align 2, keep-with-next
    302          void TIM4_IRQHandler(void)    // 대우 구형 타이머 // 사용하지 않음
    303          { 
   \                     TIM4_IRQHandler:
   \   00000000   80B5               PUSH     {R7,LR}
    304               // if(TIM_GetITStatus(TIM3, TIM_IT_CC2) == SET) 
    305               {
    306                    TIM_ClearITPendingBit(TIM4,TIM_IT_Update);  
   \   00000002   0121               MOVS     R1,#+1
   \   00000004   ....               LDR.N    R0,??DataTable7_21  ;; 0x40000800
   \   00000006   ........           BL       TIM_ClearITPendingBit
    307                    //      GPIO_ToggleBits(GPIOG,GPIO_Pin_14); 
    308                    
    309                    /*      
    310                    RPM_Buffer[RPM_Count++ ] = ( RPM_PWM_Count * 20) ;  // / 2.5 (나누기 2.5)
    311                    RPM_Count = RPM_Count % 100;
    312                    RPM_PWM_Count = 0;     //  초기화
    313                    
    314                    SPEED_Buffer[SPEED_Count++ ] = ( SPEED_PWM_Count *10) ;  // / 2.5 (나누기 2.5)
    315                    SPEED_Count = SPEED_Count % 100;
    316                    SPEED_PWM_Count = 0;     //  초기화    
    317                    */
    318               }
    319          }
   \   0000000A   01BD               POP      {R0,PC}          ;; return
    320          
    321          /******************************************************************************/
    322          /*                 STM32F2xx Peripherals Interrupt Handlers                   */
    323          /*  Add here the Interrupt Handler for the used peripheral(s) (PPP), for the  */
    324          /*  available peripheral interrupt handler's name please refer to the startup */
    325          /*  file (startup_stm32f2xx.s).                                               */
    326          /******************************************************************************/
    327          /**
    328          * @brief  OTG_FS_IRQHandler
    329          *          This function handles USB-On-The-Go FS global interrupt request.
    330          *          requests.
    331          * @param  None
    332          * @retval None
    333          */
    334          #ifdef USE_USB_OTG_FS  

   \                                 In section .text, align 2, keep-with-next
    335          void OTG_FS_IRQHandler(void)
    336          #else
    337          void OTG_HS_IRQHandler(void)
    338          #endif
    339          {
   \                     OTG_FS_IRQHandler:
   \   00000000   80B5               PUSH     {R7,LR}
    340               USBH_OTG_ISR_Handler(&USB_OTG_Core);
   \   00000002   ....               LDR.N    R0,??DataTable7_22
   \   00000004   ........           BL       USBH_OTG_ISR_Handler
    341               
    342          }
   \   00000008   01BD               POP      {R0,PC}          ;; return

   \                                 In section .text, align 4, keep-with-next
   \                     ??DataTable7:
   \   00000000   ........           DC32     SYSTEM_STEP

   \                                 In section .text, align 4, keep-with-next
   \                     ??DataTable7_1:
   \   00000000   ........           DC32     Timer_1ms

   \                                 In section .text, align 4, keep-with-next
   \                     ??DataTable7_2:
   \   00000000   ........           DC32     SPEED_PWM_Count

   \                                 In section .text, align 4, keep-with-next
   \                     ??DataTable7_3:
   \   00000000   00040040           DC32     0x40000400

   \                                 In section .text, align 4, keep-with-next
   \                     ??DataTable7_4:
   \   00000000   ........           DC32     SPEED_Loop

   \                                 In section .text, align 4, keep-with-next
   \                     ??DataTable7_5:
   \   00000000   ........           DC32     SPEED_Buffer

   \                                 In section .text, align 4, keep-with-next
   \                     ??DataTable7_6:
   \   00000000   ........           DC32     SPEED_Count

   \                                 In section .text, align 4, keep-with-next
   \                     ??DataTable7_7:
   \   00000000   ........           DC32     SPEED_Check

   \                                 In section .text, align 4, keep-with-next
   \                     ??DataTable7_8:
   \   00000000   ........           DC32     Info

   \                                 In section .text, align 4, keep-with-next
   \                     ??DataTable7_9:
   \   00000000   ........           DC32     EMS_Drive_Value

   \                                 In section .text, align 4, keep-with-next
   \                     ??DataTable7_10:
   \   00000000   ........           DC32     RPM_Loop

   \                                 In section .text, align 4, keep-with-next
   \                     ??DataTable7_11:
   \   00000000   ........           DC32     RPM_PWM_Count

   \                                 In section .text, align 4, keep-with-next
   \                     ??DataTable7_12:
   \   00000000   ........           DC32     RPM_Buffer

   \                                 In section .text, align 4, keep-with-next
   \                     ??DataTable7_13:
   \   00000000   ........           DC32     RPM_Count

   \                                 In section .text, align 4, keep-with-next
   \                     ??DataTable7_14:
   \   00000000   ........           DC32     LPG_Count

   \                                 In section .text, align 4, keep-with-next
   \                     ??DataTable7_15:
   \   00000000   00140040           DC32     0x40001400

   \                                 In section .text, align 4, keep-with-next
   \                     ??DataTable7_16:
   \   00000000   000C0240           DC32     0x40020c00

   \                                 In section .text, align 4, keep-with-next
   \                     ??DataTable7_17:
   \   00000000   ........           DC32     LPGRising_Time

   \                                 In section .text, align 4, keep-with-next
   \                     ??DataTable7_18:
   \   00000000   ........           DC32     LPGFalling_Time

   \                                 In section .text, align 4, keep-with-next
   \                     ??DataTable7_19:
   \   00000000   ........           DC32     LPG_Loop

   \                                 In section .text, align 4, keep-with-next
   \                     ??DataTable7_20:
   \   00000000   ........           DC32     LPGBuffer

   \                                 In section .text, align 4, keep-with-next
   \                     ??DataTable7_21:
   \   00000000   00080040           DC32     0x40000800

   \                                 In section .text, align 4, keep-with-next
   \                     ??DataTable7_22:
   \   00000000   ........           DC32     USB_OTG_Core

   \                                 In section .text, align 4, keep-with-next
   \                     `?<Constant "SYSTEM DOWN [%d]">`:
   \   00000000                      ; Initializer data, 20 bytes
   \   00000000   53595354454D       DC8 83, 89, 83, 84, 69, 77, 32, 68, 79, 87
   \              20444F57    
   \   0000000A   4E205B25645D       DC8 78, 32, 91, 37, 100, 93, 0, 0, 0, 0
   \              00000000    
    343          /**
    344          * @brief  This function handles PPP interrupt request.
    345          * @param  None
    346          * @retval None
    347          */
    348          /*void PPP_IRQHandler(void)
    349          {
    350          }*/
    351          
    352          /**
    353          * @}
    354          */ 
    355          
    356          
    357          /******************* (C) COPYRIGHT 2011 STMicroelectronics *****END OF FILE****/

   Maximum stack usage in bytes:

     Function             .cstack
     --------             -------
     BusFault_Handler          0
     DebugMon_Handler          0
     EXTI15_10_IRQHandler      8
     EXTI1_IRQHandler          8
     EXTI9_5_IRQHandler        8
     HardFault_Handler         8
     MemManage_Handler         0
     NMI_Handler               0
     OTG_FS_IRQHandler         8
     PendSV_Handler            0
     SVC_Handler               0
     SysTick_Handler           0
     TIM2_IRQHandler           8
     TIM3_IRQHandler           8
     TIM4_IRQHandler           8
     UsageFault_Handler        0
     WWDG_IRQHandler           8


   Section sizes:

     Function/Label                 Bytes
     --------------                 -----
     LPGBuffer                        40
     LPGRising_Time                    2
     LPGFalling_Time                   2
     LPG_Loop                          1
     LPG_Count                         1
     Timer_1ms                         2
     RPM_PWM_Count                     4
     RPM_Count                         4
     RPM_Buffer                       80
     RPM_Loop                          1
     SPEED_PWM_Count                   4
     SPEED_Count                       4
     SPEED_Buffer                     80
     SPEED_Loop                        1
     SPEED_Check                       1
     NMI_Handler                       2
     HardFault_Handler                16
     MemManage_Handler                 2
     BusFault_Handler                  2
     UsageFault_Handler                2
     SVC_Handler                       2
     DebugMon_Handler                  2
     PendSV_Handler                    2
     WWDG_IRQHandler                  14
     SysTick_Handler                  12
     EXTI9_5_IRQHandler              120
     EXTI1_IRQHandler                 10
     EXTI15_10_IRQHandler            252
     TIM2_IRQHandler                   8
     TIM3_IRQHandler                  12
     TIM4_IRQHandler                  12
     OTG_FS_IRQHandler                10
     ??DataTable7                      4
     ??DataTable7_1                    4
     ??DataTable7_2                    4
     ??DataTable7_3                    4
     ??DataTable7_4                    4
     ??DataTable7_5                    4
     ??DataTable7_6                    4
     ??DataTable7_7                    4
     ??DataTable7_8                    4
     ??DataTable7_9                    4
     ??DataTable7_10                   4
     ??DataTable7_11                   4
     ??DataTable7_12                   4
     ??DataTable7_13                   4
     ??DataTable7_14                   4
     ??DataTable7_15                   4
     ??DataTable7_16                   4
     ??DataTable7_17                   4
     ??DataTable7_18                   4
     ??DataTable7_19                   4
     ??DataTable7_20                   4
     ??DataTable7_21                   4
     ??DataTable7_22                   4
     ?<Constant "SYSTEM DOWN [%d]">   20

 
 227 bytes in section .bss
 592 bytes in section .text
 
 592 bytes of CODE memory
 227 bytes of DATA memory

Errors: none
Warnings: none
