###############################################################################
#                                                                             #
# IAR ANSI C/C++ Compiler V6.10.1.52143/W32 for ARM     20/Dec/2011  16:23:42 #
# Copyright 1999-2010 IAR Systems AB.                                         #
#                                                                             #
#    Cpu mode     =  thumb                                                    #
#    Endian       =  little                                                   #
#    Source file  =  E:\Work\Firmware\DTG\WIFI_RELAY_TEST\Project\Wifi.c      #
#    Command line =  E:\Work\Firmware\DTG\WIFI_RELAY_TEST\Project\Wifi.c -D   #
#                    USE_STDPERIPH_DRIVER -D STM32F2XX -D USE_STM3220F_EVAL   #
#                    -D USE_USB_OTG_FS -D RTC_CLOCK_SOURCE_LSE -lC            #
#                    E:\Work\Firmware\DTG\WIFI_RELAY_TEST\Project\EWARM\STM32 #
#                    20F_EVAL\List\ -lA E:\Work\Firmware\DTG\WIFI_RELAY_TEST\ #
#                    Project\EWARM\STM3220F_EVAL\List\ -o                     #
#                    E:\Work\Firmware\DTG\WIFI_RELAY_TEST\Project\EWARM\STM32 #
#                    20F_EVAL\Obj\ --no_cse --no_unroll --no_inline           #
#                    --no_code_motion --no_tbaa --no_clustering               #
#                    --no_scheduling --debug --endian=little --cpu=Cortex-M3  #
#                    -e --fpu=None --dlib_config "C:\Program Files\IAR        #
#                    Systems\Embedded Workbench 6.0\arm\INC\c\DLib_Config_Ful #
#                    l.h" -I E:\Work\Firmware\DTG\WIFI_RELAY_TEST\Project\EWA #
#                    RM\..\ -I E:\Work\Firmware\DTG\WIFI_RELAY_TEST\Project\E #
#                    WARM\..\..\Libraries\CMSIS\CM3\CoreSupport\ -I           #
#                    E:\Work\Firmware\DTG\WIFI_RELAY_TEST\Project\EWARM\..\.. #
#                    \Libraries\CMSIS\CM3\DeviceSupport\ST\STM32F2xx\ -I      #
#                    E:\Work\Firmware\DTG\WIFI_RELAY_TEST\Project\EWARM\..\.. #
#                    \Libraries\STM32F2xx_StdPeriph_Driver\inc\ -I            #
#                    E:\Work\Firmware\DTG\WIFI_RELAY_TEST\Project\EWARM\..\.. #
#                    \Utilities\STM32_EVAL\ -I E:\Work\Firmware\DTG\WIFI_RELA #
#                    Y_TEST\Project\EWARM\..\..\Utilities\STM32_EVAL\Common\  #
#                    -I E:\Work\Firmware\DTG\WIFI_RELAY_TEST\Project\EWARM\.. #
#                    \..\Utilities\STM32_EVAL\STM3220F_EVAL\ -I               #
#                    E:\Work\Firmware\DTG\WIFI_RELAY_TEST\Project\EWARM\..\.. #
#                    \Libraries\STM32_USB_OTG_Driver\inc\ -I                  #
#                    E:\Work\Firmware\DTG\WIFI_RELAY_TEST\Project\EWARM\..\.. #
#                    \Libraries\STM32_USB_Device_Library\Core\inc\ -I         #
#                    E:\Work\Firmware\DTG\WIFI_RELAY_TEST\Project\EWARM\..\.. #
#                    \Libraries\STM32_USB_Device_Library\Class\msc\inc\ -I    #
#                    E:\Work\Firmware\DTG\WIFI_RELAY_TEST\Project\EWARM\..\Us #
#                    b\ -I E:\Work\Firmware\DTG\WIFI_RELAY_TEST\Project\EWARM #
#                    \..\Usb\Inc\ -I E:\Work\Firmware\DTG\WIFI_RELAY_TEST\Pro #
#                    ject\EWARM\..\Usb\src\ -I E:\Work\Firmware\DTG\WIFI_RELA #
#                    Y_TEST\Project\EWARM\..\..\Libraries\STM32_USB_HOST_Libr #
#                    ary\Core\inc\ -I E:\Work\Firmware\DTG\WIFI_RELAY_TEST\Pr #
#                    oject\EWARM\..\..\Libraries\STM32_USB_HOST_Library\Class #
#                    \MSC\inc\ -Ol --use_c++_inline                           #
#    List file    =  E:\Work\Firmware\DTG\WIFI_RELAY_TEST\Project\EWARM\STM32 #
#                    20F_EVAL\List\Wifi.lst                                   #
#    Object file  =  E:\Work\Firmware\DTG\WIFI_RELAY_TEST\Project\EWARM\STM32 #
#                    20F_EVAL\Obj\Wifi.o                                      #
#                                                                             #
#                                                                             #
###############################################################################

E:\Work\Firmware\DTG\WIFI_RELAY_TEST\Project\Wifi.c
      1          
      2          #include "main.h"

   \                                 In section .text, align 2
   \   __intrinsic __interwork __softfp void *memcpy(void *, void const *, size_t)
   \                     memcpy:
   \   00000000   10B5               PUSH     {R4,LR}
   \   00000002   0400               MOVS     R4,R0
   \   00000004   2000               MOVS     R0,R4
   \   00000006   ........           BL       __aeabi_memcpy
   \   0000000A   2000               MOVS     R0,R4
   \   0000000C   10BD               POP      {R4,PC}          ;; return

   \                                 In section .text, align 2
   \   __intrinsic __interwork __softfp void *memset(void *, int, size_t)
   \                     memset:
   \   00000000   10B5               PUSH     {R4,LR}
   \   00000002   0400               MOVS     R4,R0
   \   00000004   1000               MOVS     R0,R2
   \   00000006   0A00               MOVS     R2,R1
   \   00000008   0100               MOVS     R1,R0
   \   0000000A   2000               MOVS     R0,R4
   \   0000000C   ........           BL       __aeabi_memset
   \   00000010   2000               MOVS     R0,R4
   \   00000012   10BD               POP      {R4,PC}          ;; return

   \                                 In section .text, align 2
   \   __intrinsic __interwork __softfp char *strstr(char const *, char const *)
   \                     strstr:
   \   00000000   80B5               PUSH     {R7,LR}
   \   00000002   ........           BL       __iar_Strstr
   \   00000006   02BD               POP      {R1,PC}          ;; return
      3          #include "wifi.h"

   \                                 In section .text, align 2, keep-with-next
   \   static __interwork __softfp uint8_t IsTCP_Connect(void)
   \                     IsTCP_Connect:
   \   00000000   80B5               PUSH     {R7,LR}
   \   00000002   0121               MOVS     R1,#+1
   \   00000004   ........           LDR.W    R0,??DataTable35  ;; 0x40021000
   \   00000008   ........           BL       GPIO_ReadInputDataBit
   \   0000000C   0128               CMP      R0,#+1
   \   0000000E   01D1               BNE.N    ??IsTCP_Connect_0
   \   00000010   0120               MOVS     R0,#+1
   \   00000012   00E0               B.N      ??IsTCP_Connect_1
   \                     ??IsTCP_Connect_0:
   \   00000014   0020               MOVS     R0,#+0
   \                     ??IsTCP_Connect_1:
   \   00000016   02BD               POP      {R1,PC}          ;; return

   \                                 In section .text, align 2, keep-with-next
   \   static __interwork __softfp void WIFI_RESET_ON(void)
   \                     WIFI_RESET_ON:
   \   00000000   80B5               PUSH     {R7,LR}
   \   00000002   0821               MOVS     R1,#+8
   \   00000004   ........           LDR.W    R0,??DataTable35_1  ;; 0x40020c00
   \   00000008   ........           BL       GPIO_SetBits
   \   0000000C   01BD               POP      {R0,PC}          ;; return

   \                                 In section .text, align 2, keep-with-next
   \   static __interwork __softfp void WIFI_RESET_OFF(void)
   \                     WIFI_RESET_OFF:
   \   00000000   80B5               PUSH     {R7,LR}
   \   00000002   0821               MOVS     R1,#+8
   \   00000004   ........           LDR.W    R0,??DataTable35_1  ;; 0x40020c00
   \   00000008   ........           BL       GPIO_ResetBits
   \   0000000C   01BD               POP      {R0,PC}          ;; return
      4          #include "Serial.h"
      5          #include "Memory.h"
      6          #include "fsmc_nand.h"
      7          #include "rtc.h"
      8          #include "Key_Process.h"
      9          #include "Voice.h"

   \                                 In section .bss, align 4
     10          struct _TLV_DATA TLV_BUFFER;
   \                     TLV_BUFFER:
   \   00000000                      DS8 88

   \                                 In section .bss, align 4
     11          struct _TLV_DATA TLV_LOOP[MAX_DTG_DATA];
   \                     TLV_LOOP:
   \   00000000                      DS8 7652

   \                                 In section .bss, align 4
     12          struct _DTG_LOOP DTG_LOOP[MAX_DTG_DATA];
   \                     DTG_LOOP:
   \   00000000                      DS8 6480

   \                                 In section .bss, align 4
     13          u8 Tx_RFBuffer[7000];
   \                     Tx_RFBuffer:
   \   00000000                      DS8 7000

   \                                 In section .bss, align 4
     14          u8 Rx_RFBuffer[500];
   \                     Rx_RFBuffer:
   \   00000000                      DS8 500

   \                                 In section .bss, align 2
     15          u16 Rx_RFCount;
   \                     Rx_RFCount:
   \   00000000                      DS8 2

   \                                 In section .bss, align 2
     16          u16 Wifi_Timer;
   \                     Wifi_Timer:
   \   00000000                      DS8 2
     17          

   \                                 In section .bss, align 1
     18          u8 Wifi_OK;
   \                     Wifi_OK:
   \   00000000                      DS8 1

   \                                 In section .bss, align 1
     19          _WIFI_SEND Wifi_Send_Result;
   \                     Wifi_Send_Result:
   \   00000000                      DS8 1

   \                                 In section .bss, align 4
     20          _Protocol_Rev Protocol_Rev;
   \                     Protocol_Rev:
   \   00000000                      DS8 84

   \                                 In section .bss, align 1
     21          WIFI_RESULT Wifi_Result ;
   \                     Wifi_Result:
   \   00000000                      DS8 1
     22          

   \                                 In section .bss, align 2
     23          u16 Trans_PageCount;
   \                     Trans_PageCount:
   \   00000000                      DS8 2
     24          
     25          //Protocol KMapSend;

   \                                 In section .bss, align 4
     26          _Protocol_Div1 KMapSend;
   \                     KMapSend:
   \   00000000                      DS8 104

   \                                 In section .bss, align 4
     27          _Protocol_Div2 KMapSend_Div;
   \                     KMapSend_Div:
   \   00000000                      DS8 12
     28          

   \                                 In section .data, align 4
     29          const char *Wifi_SettingString[20] = {
   \                     Wifi_SettingString:
   \   00000000   ............       DC32 `?<Constant "AT\\r">`, `?<Constant "+++\\r">`
   \              ....        
   \   00000008   ............       DC32 `?<Constant "AT+WS=\\r">`, `?<Constant "AT+WD\\r">`
   \              ....        
   \   00000010   ............       DC32 `?<Constant "AT+WAUTH=0\\r">`, `?<Constant "AT+NDHCP=1\\r">`
   \              ....        
   \   00000018   ............       DC32 `?<Constant "AT+XDUM=1\\r">`, `?<Constant "AT+XEHT=0\\r">`
   \              ....        
   \   00000020   ............       DC32 `?<Constant "ATC0\\r">`, `?<Constant "AT+NAUTO=0,1,">`
   \              ....        
   \   00000028   ............       DC32 `?<Constant "AT+WAUTO=0,">`, `?<Constant "AT+WWPA=">`
   \              ....        
   \   00000030   ............       DC32 `?<Constant "AT&W0\\r">`, `?<Constant "ATA\\r">`
   \              ....        
   \   00000038   ........           DC32 `?<Constant "AT+WA=">`
   \   0000003C   000000000000       DC8 0, 0, 0, 0, 0, 0, 0, 0, 0, 0, 0, 0, 0, 0, 0, 0, 0, 0, 0, 0
   \              000000000000
   \              000000000000
   \              0000        
     30               "AT\r",                                      // 0 와이파이 접속 확인 응답 [ OK ]
     31               "+++\r",                                     // 1 컴앤드 모드
     32               "AT+WS=\r",                                  // 2 스캔모드
     33               "AT+WD\r",                                   // 3 기존연결 종료
     34               "AT+WAUTH=0\r",                              // 4 Authentication mode setting; 0 = NONE 1 = OPEN 2 = Shared Wite WEP
     35               "AT+NDHCP=1\r",                              // 5 DHCP 설정 0 disable 1 = Enable
     36               "AT+XDUM=1\r",                               // 6 UART Message is 1 = Disable  / 0 = Enable
     37               "AT+XEHT=0\r",                               // 7 Disable HardWare Trigger is 0 = Disable  / 1 = Enable
     38               "ATC0\r",                                    // 8 AutoConnect 0 = Disable /  1 = Enable
     39               "AT+NAUTO=0,1,",								// 9 접속 IP설정하기     
     40               "AT+WAUTO=0,",									// 10 "AT+WAUTO=0,U+NetF1F3\r", SSID 설정
     41               "AT+WWPA=",									// 11 "AT+WWPA=12345678\r",// 암호설정
     42               "AT&W0\r",										// 12 Save ProFile
     43               "ATA\r",                                     // 13 Auto Connection Mode
     44               "AT+WA=",                                     // 14 Only AP Connect 
     45          };

   \                                 In section .text, align 2, keep-with-next
     46          void Wifi_Reset(void)
     47          {
   \                     Wifi_Reset:
   \   00000000   80B5               PUSH     {R7,LR}
     48               WIFI_RESET_OFF();     
   \   00000002   ........           BL       WIFI_RESET_OFF
     49               Delay(10);    
   \   00000006   0A20               MOVS     R0,#+10
   \   00000008   ........           BL       Delay
     50               WIFI_RESET_ON();     
   \   0000000C   ........           BL       WIFI_RESET_ON
     51          }
   \   00000010   01BD               POP      {R0,PC}          ;; return

   \                                 In section .text, align 2, keep-with-next
     52          void Wifi_Config(void)
     53          {
   \                     Wifi_Config:
   \   00000000   00B5               PUSH     {LR}
   \   00000002   83B0               SUB      SP,SP,#+12
     54               // 추후에 핀변경
     55               GPIO_InitTypeDef GPIO_InitStructure;
     56               // 음성칩 포트 초기화 
     57               RCC_AHB1PeriphClockCmd(WIFI_AP_CONNECT_CLK, ENABLE);
   \   00000004   0121               MOVS     R1,#+1
   \   00000006   1020               MOVS     R0,#+16
   \   00000008   ........           BL       RCC_AHB1PeriphClockCmd
     58               GPIO_InitStructure.GPIO_Pin = WIFI_AP_CONNECT_PIN | WIFI_TCP_CONNECT_PIN ;
   \   0000000C   0320               MOVS     R0,#+3
   \   0000000E   0090               STR      R0,[SP, #+0]
     59               GPIO_InitStructure.GPIO_OType = GPIO_OType_PP;  
   \   00000010   0020               MOVS     R0,#+0
   \   00000012   8DF80600           STRB     R0,[SP, #+6]
     60               GPIO_InitStructure.GPIO_Mode = GPIO_Mode_IN;
   \   00000016   0020               MOVS     R0,#+0
   \   00000018   8DF80400           STRB     R0,[SP, #+4]
     61               GPIO_InitStructure.GPIO_PuPd = GPIO_PuPd_NOPULL ;
   \   0000001C   0020               MOVS     R0,#+0
   \   0000001E   8DF80700           STRB     R0,[SP, #+7]
     62               GPIO_Init(WIFI_AP_CONNECT_PORT, &GPIO_InitStructure);  
   \   00000022   00A9               ADD      R1,SP,#+0
   \   00000024   ........           LDR.W    R0,??DataTable35  ;; 0x40021000
   \   00000028   ........           BL       GPIO_Init
     63          
     64               RCC_AHB1PeriphClockCmd(WIFI_RESET_CLK, ENABLE);
   \   0000002C   0121               MOVS     R1,#+1
   \   0000002E   0820               MOVS     R0,#+8
   \   00000030   ........           BL       RCC_AHB1PeriphClockCmd
     65               GPIO_InitStructure.GPIO_Pin = WIFI_RESET_PIN ;
   \   00000034   0820               MOVS     R0,#+8
   \   00000036   0090               STR      R0,[SP, #+0]
     66               GPIO_InitStructure.GPIO_OType = GPIO_OType_PP;  
   \   00000038   0020               MOVS     R0,#+0
   \   0000003A   8DF80600           STRB     R0,[SP, #+6]
     67               GPIO_InitStructure.GPIO_Mode = GPIO_Mode_OUT;
   \   0000003E   0120               MOVS     R0,#+1
   \   00000040   8DF80400           STRB     R0,[SP, #+4]
     68               GPIO_InitStructure.GPIO_PuPd = GPIO_PuPd_UP ;
   \   00000044   0120               MOVS     R0,#+1
   \   00000046   8DF80700           STRB     R0,[SP, #+7]
     69               GPIO_Init(WIFI_RESET_PORT, &GPIO_InitStructure);  
   \   0000004A   00A9               ADD      R1,SP,#+0
   \   0000004C   ........           LDR.W    R0,??DataTable35_1  ;; 0x40020c00
   \   00000050   ........           BL       GPIO_Init
     70          
     71          
     72               Wifi_Result = WIFI_NO_INIT;
   \   00000054   ........           LDR.W    R0,??DataTable37
   \   00000058   0021               MOVS     R1,#+0
   \   0000005A   0170               STRB     R1,[R0, #+0]
     73               Wifi_Reset();
   \   0000005C   ........           BL       Wifi_Reset
     74          }
   \   00000060   07BD               POP      {R0-R2,PC}       ;; return

   \                                 In section .text, align 2, keep-with-next
     75          void ConvertString(char *Str,int Num)
     76          {	
     77          	Str[0] = (Num >> 24)&0xff;
   \                     ConvertString:
   \   00000000   0A16               ASRS     R2,R1,#+24
   \   00000002   0270               STRB     R2,[R0, #+0]
     78          	Str[1] = (Num >> 16)&0xff;
   \   00000004   0A14               ASRS     R2,R1,#+16
   \   00000006   4270               STRB     R2,[R0, #+1]
     79          	Str[2] = (Num >> 8)&0xff;
   \   00000008   0A12               ASRS     R2,R1,#+8
   \   0000000A   8270               STRB     R2,[R0, #+2]
     80          	Str[3] = Num &0xff;
   \   0000000C   C170               STRB     R1,[R0, #+3]
     81          }
   \   0000000E   7047               BX       LR               ;; return

   \                                 In section .text, align 2, keep-with-next
     82          u32 ConvertInteger(char *Str)
     83          {	
     84               u32 Num = 0;
   \                     ConvertInteger:
   \   00000000   0021               MOVS     R1,#+0
     85               Num = Str[0] << 24;
   \   00000002   0278               LDRB     R2,[R0, #+0]
   \   00000004   1206               LSLS     R2,R2,#+24
   \   00000006   1100               MOVS     R1,R2
     86               Num |= Str[1] << 16;
   \   00000008   4278               LDRB     R2,[R0, #+1]
   \   0000000A   51EA0241           ORRS     R1,R1,R2, LSL #+16
     87               Num |= Str[2] << 8;
   \   0000000E   8278               LDRB     R2,[R0, #+2]
   \   00000010   51EA0221           ORRS     R1,R1,R2, LSL #+8
     88               Num |= Str[3] ;     
   \   00000014   C078               LDRB     R0,[R0, #+3]
   \   00000016   0143               ORRS     R1,R0,R1
     89               return Num;
   \   00000018   0800               MOVS     R0,R1
   \   0000001A   7047               BX       LR               ;; return
     90          }

   \                                 In section .text, align 2, keep-with-next
     91          void ConvertString2(char *Str,int Num)
     92          {
     93          	Str[0] = (Num >> 8)&0xff;
   \                     ConvertString2:
   \   00000000   0A12               ASRS     R2,R1,#+8
   \   00000002   0270               STRB     R2,[R0, #+0]
     94          	Str[1] = Num &0xff;
   \   00000004   4170               STRB     R1,[R0, #+1]
     95          }
   \   00000006   7047               BX       LR               ;; return
     96          //
     97          // 안정화 된 다음에 세팅하는것이기 때문에 
     98          // 특별한 Step이 필요 없을듯 싶다.
     99          //
    100          

   \                                 In section .text, align 2, keep-with-next
    101          void Kmap_init(void)
    102          {
   \                     Kmap_init:
   \   00000000   80B5               PUSH     {R7,LR}
    103               static u8 MessageSeq = 0 ;
    104          		
    105          	memset(&KMapSend,0,sizeof(KMapSend));	
   \   00000002   6522               MOVS     R2,#+101
   \   00000004   0021               MOVS     R1,#+0
   \   00000006   ........           LDR.W    R0,??DataTable37_1
   \   0000000A   ........           BL       memset
    106          	KMapSend.ProtocolVer = 0x01;
   \   0000000E   ........           LDR.W    R0,??DataTable37_1
   \   00000012   0121               MOVS     R1,#+1
   \   00000014   0171               STRB     R1,[R0, #+4]
    107          	sprintf(KMapSend.DeviceID,"%s",SFLASH_CarInfo.SerialNumber);         //01025800001
   \   00000016   ........           LDR.W    R2,??DataTable35_2
   \   0000001A   ....               ADR.N    R1,??DataTable32  ;; 0x25, 0x73, 0x00, 0x00
   \   0000001C   ........           LDR.W    R0,??DataTable35_3
   \   00000020   ........           BL       sprintf
    108          
    109          	ConvertString(KMapSend.ServiceID, SERVICEID );
   \   00000024   40F6A171           MOVW     R1,#+4001
   \   00000028   ........           LDR.W    R0,??DataTable35_4
   \   0000002C   ........           BL       ConvertString
    110          
    111               MessageSeq %= 0x100;
   \   00000030   ........           LDR.W    R0,??DataTable35_5
   \   00000034   0078               LDRB     R0,[R0, #+0]
   \   00000036   4FF48071           MOV      R1,#+256
   \   0000003A   90FBF1F2           SDIV     R2,R0,R1
   \   0000003E   02FB1102           MLS      R2,R2,R1,R0
   \   00000042   ........           LDR.W    R0,??DataTable35_5
   \   00000046   0270               STRB     R2,[R0, #+0]
    112          	ConvertString(KMapSend.Message.Seq, MessageSeq++ );
   \   00000048   ........           LDR.W    R0,??DataTable35_5
   \   0000004C   0178               LDRB     R1,[R0, #+0]
   \   0000004E   481C               ADDS     R0,R1,#+1
   \   00000050   ........           LDR.W    R2,??DataTable35_5
   \   00000054   1070               STRB     R0,[R2, #+0]
   \   00000056   C9B2               UXTB     R1,R1            ;; ZeroExt  R1,R1,#+24,#+24
   \   00000058   ........           LDR.W    R0,??DataTable35_6
   \   0000005C   ........           BL       ConvertString
    113          	KMapSend.Message.PacketType = 'Q';
   \   00000060   ........           LDR.W    R0,??DataTable37_1
   \   00000064   5121               MOVS     R1,#+81
   \   00000066   80F82D10           STRB     R1,[R0, #+45]
    114          	KMapSend.Message.RequestType = 'M';
   \   0000006A   ........           LDR.W    R0,??DataTable37_1
   \   0000006E   4D21               MOVS     R1,#+77
   \   00000070   80F82E10           STRB     R1,[R0, #+46]
    115          	KMapSend.Message.CommandCode = 0x50; //단말 데이터 전송: DATA_MREQ
   \   00000074   ........           LDR.W    R0,??DataTable37_1
   \   00000078   5021               MOVS     R1,#+80
   \   0000007A   80F82F10           STRB     R1,[R0, #+47]
    116          	KMapSend.Message.ActionID = 1;
   \   0000007E   ........           LDR.W    R0,??DataTable37_1
   \   00000082   0121               MOVS     R1,#+1
   \   00000084   80F83010           STRB     R1,[R0, #+48]
    117          	// 파라미터 세팅 1
    118          	ConvertString( KMapSend.Message.Parameter1.Length ,3 );
   \   00000088   0321               MOVS     R1,#+3
   \   0000008A   ........           LDR.W    R0,??DataTable35_7
   \   0000008E   ........           BL       ConvertString
    119          	strcpy(KMapSend.Message.Parameter1.Name, "OPC");
   \   00000092   ....               ADR.N    R1,??DataTable32_1  ;; "OPC"
   \   00000094   ........           LDR.W    R0,??DataTable35_8
   \   00000098   ........           BL       strcpy
    120          	ConvertString( KMapSend.Message.Parameter1.ValueLength , 1);
   \   0000009C   0121               MOVS     R1,#+1
   \   0000009E   ........           LDR.W    R0,??DataTable35_9
   \   000000A2   ........           BL       ConvertString
    121          	KMapSend.Message.Parameter1.OPCData = 0x01;
   \   000000A6   ........           LDR.W    R0,??DataTable37_1
   \   000000AA   0121               MOVS     R1,#+1
   \   000000AC   80F84010           STRB     R1,[R0, #+64]
    122               
    123          	// 파라미터 세팅 2
    124          	ConvertString( KMapSend.Message.Parameter2.Length ,3 );
   \   000000B0   0321               MOVS     R1,#+3
   \   000000B2   ........           LDR.W    R0,??DataTable35_10
   \   000000B6   ........           BL       ConvertString
    125          	strcpy(KMapSend.Message.Parameter2.Name, "DAT");
   \   000000BA   ....               ADR.N    R1,??DataTable32_2  ;; "DAT"
   \   000000BC   ........           LDR.W    R0,??DataTable35_11
   \   000000C0   ........           BL       strcpy
    126          
    127          	strcpy(KMapSend.Message.Parameter2.DTG_DATA.CarNum, (char *)SFLASH_CarInfo.CarNum);
   \   000000C4   ........           LDR.W    R1,??DataTable35_12
   \   000000C8   ........           LDR.W    R0,??DataTable35_13
   \   000000CC   ........           BL       strcpy
    128          	strcpy(KMapSend.Message.Parameter2.DTG_DATA.DriverName,"0000100");
   \   000000D0   ........           LDR.W    R1,??DataTable35_14
   \   000000D4   ........           LDR.W    R0,??DataTable35_15
   \   000000D8   ........           BL       strcpy
    129          	KMapSend.Message.Parameter2.DTG_DATA.fuel= 0x01;						// 연료 소모량 포함
   \   000000DC   ........           LDR.W    R0,??DataTable37_1
   \   000000E0   0121               MOVS     R1,#+1
   \   000000E2   80F85F10           STRB     R1,[R0, #+95]
    130          	KMapSend.Message.Parameter2.DTG_DATA.division = 0x01;				// 1초데이터
   \   000000E6   ........           LDR.W    R0,??DataTable37_1
   \   000000EA   0121               MOVS     R1,#+1
   \   000000EC   80F86410           STRB     R1,[R0, #+100]
    131          
    132               
    133          //#ifdef MODA_TEST     
    134          //	ConvertString(KMapSend.Message.Parameter2.DTG_DATA.DataNum , 5 );			// 수집 데이터
    135          //#else
    136          //     ConvertString(KMapSend.Message.Parameter2.DTG_DATA.DataNum , DATA_IN_PAGE_SIZE );			// 수집 데이터
    137          //#endif 
    138               
    139               // 파라미터 세팅 3
    140          	ConvertString( KMapSend_Div.Parameter3.Length ,3 );
   \   000000F0   0321               MOVS     R1,#+3
   \   000000F2   ........           LDR.W    R0,??DataTable35_16
   \   000000F6   ........           BL       ConvertString
    141          	strcpy(KMapSend_Div.Parameter3.Name, "OPT");
   \   000000FA   ....               ADR.N    R1,??DataTable32_3  ;; "OPT"
   \   000000FC   ........           LDR.W    R0,??DataTable35_17
   \   00000100   ........           BL       strcpy
    142          //	ConvertString( KMapSend_Div.Parameter3.ValueLength, sizeof( KMapSend_Div.Parameter3.TLV_DATA ) );
    143          	
    144          #ifdef MODA_TEST
    145               
    146          	KMapSend_Div.Parameter3.TLV_DATA.TLVTag1 = 0x04;
    147          	ConvertString(KMapSend_Div.Parameter3.TLV_DATA.Length1 , 3);
    148          
    149          	KMapSend_Div.Parameter3.TLV_DATA.TLVTag2 = 0x05;
    150          	ConvertString(KMapSend_Div.Parameter3.TLV_DATA.Length2 , 3);
    151          
    152          	KMapSend_Div.Parameter3.TLV_DATA.TLVTag3 = 0x06;
    153          	ConvertString(KMapSend_Div.Parameter3.TLV_DATA.Length3 , 3);
    154          
    155          	KMapSend_Div.Parameter3.TLV_DATA.TLVTag4 = 0x07;
    156          	ConvertString(KMapSend_Div.Parameter3.TLV_DATA.Length4 , 3);
    157          
    158          #else
    159               
    160          	TLV_BUFFER.TLVTag1 = 0x11;
   \   00000104   ........           LDR.W    R0,??DataTable35_18
   \   00000108   1121               MOVS     R1,#+17
   \   0000010A   0170               STRB     R1,[R0, #+0]
    161          	ConvertString(TLV_BUFFER.Length1 , 4);
   \   0000010C   0421               MOVS     R1,#+4
   \   0000010E   ........           LDR.W    R0,??DataTable35_19
   \   00000112   ........           BL       ConvertString
    162          
    163          	TLV_BUFFER.TLVTag2 = 0x12;
   \   00000116   ........           LDR.W    R0,??DataTable35_18
   \   0000011A   1221               MOVS     R1,#+18
   \   0000011C   4172               STRB     R1,[R0, #+9]
    164          	ConvertString(TLV_BUFFER.Length2 , 4);
   \   0000011E   0421               MOVS     R1,#+4
   \   00000120   ........           LDR.W    R0,??DataTable35_20
   \   00000124   ........           BL       ConvertString
    165          
    166          	TLV_BUFFER.TLVTag3 = 0x13;
   \   00000128   ........           LDR.W    R0,??DataTable35_18
   \   0000012C   1321               MOVS     R1,#+19
   \   0000012E   8174               STRB     R1,[R0, #+18]
    167          	ConvertString(TLV_BUFFER.Length3 , 2);
   \   00000130   0221               MOVS     R1,#+2
   \   00000132   ........           LDR.W    R0,??DataTable35_21
   \   00000136   ........           BL       ConvertString
    168               
    169          	TLV_BUFFER.TLVTag4 = 0x14;
   \   0000013A   ........           LDR.W    R0,??DataTable35_18
   \   0000013E   1421               MOVS     R1,#+20
   \   00000140   4176               STRB     R1,[R0, #+25]
    170          	ConvertString(TLV_BUFFER.Length4 , 2);
   \   00000142   0221               MOVS     R1,#+2
   \   00000144   ........           LDR.W    R0,??DataTable36
   \   00000148   ........           BL       ConvertString
    171          
    172               TLV_BUFFER.TLVTag5 = 0x15;
   \   0000014C   ........           LDR.W    R0,??DataTable35_18
   \   00000150   1521               MOVS     R1,#+21
   \   00000152   80F82010           STRB     R1,[R0, #+32]
    173          	ConvertString(TLV_BUFFER.Length5 , 2);
   \   00000156   0221               MOVS     R1,#+2
   \   00000158   ........           LDR.W    R0,??DataTable36_1
   \   0000015C   ........           BL       ConvertString
    174               
    175          	TLV_BUFFER.TLVTag6 = 0x16;
   \   00000160   ........           LDR.W    R0,??DataTable35_18
   \   00000164   1621               MOVS     R1,#+22
   \   00000166   80F82710           STRB     R1,[R0, #+39]
    176          	ConvertString(TLV_BUFFER.Length6 , 2);
   \   0000016A   0221               MOVS     R1,#+2
   \   0000016C   ........           LDR.W    R0,??DataTable36_2
   \   00000170   ........           BL       ConvertString
    177          
    178               TLV_BUFFER.TLVTag7 = 0x17;
   \   00000174   ........           LDR.W    R0,??DataTable35_18
   \   00000178   1721               MOVS     R1,#+23
   \   0000017A   80F82E10           STRB     R1,[R0, #+46]
    179          	ConvertString(TLV_BUFFER.Length7 , 2);
   \   0000017E   0221               MOVS     R1,#+2
   \   00000180   ........           LDR.W    R0,??DataTable36_3
   \   00000184   ........           BL       ConvertString
    180               
    181          	TLV_BUFFER.TLVTag8 = 0x18;
   \   00000188   ........           LDR.W    R0,??DataTable35_18
   \   0000018C   1821               MOVS     R1,#+24
   \   0000018E   80F83510           STRB     R1,[R0, #+53]
    182          	ConvertString(TLV_BUFFER.Length8 , 2);
   \   00000192   0221               MOVS     R1,#+2
   \   00000194   ........           LDR.W    R0,??DataTable36_4
   \   00000198   ........           BL       ConvertString
    183               
    184               TLV_BUFFER.TLVTag9 = 0x19;
   \   0000019C   ........           LDR.W    R0,??DataTable35_18
   \   000001A0   1921               MOVS     R1,#+25
   \   000001A2   80F83C10           STRB     R1,[R0, #+60]
    185          	ConvertString(TLV_BUFFER.Length9 , 4);
   \   000001A6   0421               MOVS     R1,#+4
   \   000001A8   ........           LDR.W    R0,??DataTable36_5
   \   000001AC   ........           BL       ConvertString
    186          
    187          	TLV_BUFFER.TLVTag10 = 0x1A;
   \   000001B0   ........           LDR.W    R0,??DataTable35_18
   \   000001B4   1A21               MOVS     R1,#+26
   \   000001B6   80F84510           STRB     R1,[R0, #+69]
    188          	ConvertString(TLV_BUFFER.Length10 , 4);
   \   000001BA   0421               MOVS     R1,#+4
   \   000001BC   ........           LDR.W    R0,??DataTable36_6
   \   000001C0   ........           BL       ConvertString
    189          
    190          	TLV_BUFFER.TLVTag11 = 0x1B;
   \   000001C4   ........           LDR.W    R0,??DataTable35_18
   \   000001C8   1B21               MOVS     R1,#+27
   \   000001CA   80F84E10           STRB     R1,[R0, #+78]
    191          	ConvertString(TLV_BUFFER.Length11 , 2);     
   \   000001CE   0221               MOVS     R1,#+2
   \   000001D0   ........           LDR.W    R0,??DataTable36_7
   \   000001D4   ........           BL       ConvertString
    192          #endif
    193               
    194          //	ConvertString( KMapSend.Message.Length , sizeof(KMapSend.Message.Parameter1) + sizeof(KMapSend.Message.Parameter2) + sizeof(KMapSend.Message.Parameter3));
    195          	ConvertString( KMapSend.Message.Parameter2.ValueLength , sizeof(KMapSend.Message.Parameter2.DTG_DATA) );
   \   000001D8   1921               MOVS     R1,#+25
   \   000001DA   ........           LDR.W    R0,??DataTable36_8
   \   000001DE   ........           BL       ConvertString
    196          //	ConvertString( KMapSend_Div.Parameter3.ValueLength , sizeof(KMapSend_Div.Parameter3.TLV_DATA) );     
    197          	ConvertString( KMapSend.PacketSize, ( sizeof( KMapSend )) - 4 ) ;
   \   000001E2   6121               MOVS     R1,#+97
   \   000001E4   ........           LDR.W    R0,??DataTable37_1
   \   000001E8   ........           BL       ConvertString
    198          //	ConvertString( KMapSend_Div.ErrorCode , 0 );
    199                    
    200               /////////////////////////////////////////////////////////////////////////////////////// 
    201          }
   \   000001EC   01BD               POP      {R0,PC}          ;; return

   \                                 In section .bss, align 1
   \                     ??MessageSeq:
   \   00000000                      DS8 1
    202          

   \                                 In section .text, align 2, keep-with-next
    203          u8 EMS_Setting( u32 PageNum )
    204          {
   \                     EMS_Setting:
   \   00000000   2DE9F04F           PUSH     {R4-R11,LR}
   \   00000004   B7B0               SUB      SP,SP,#+220
    205          
    206               u16 DataSize;
    207               u16 DTG_Size;
    208               u16 TLV_Size;
    209               u16 Error_Size;
    210          
    211               
    212               u32 PageTemp;
    213               static u32 SeqeunMsg = 1;
    214               
    215               u16 i;
    216          
    217               u16 DataCount ;
    218               
    219               TM_Struct  datetime;
    220               
    221               u8 Error_Code[4] = {0,};
   \   00000006   1BA8               ADD      R0,SP,#+108
   \   00000008   0021               MOVS     R1,#+0
   \   0000000A   0160               STR      R1,[R0, #+0]
    222               struct _BIN_NAND_DTG_DATA DTG_Binary;
    223               EMS_DRIVE_VALUE EMS_Drive_Temp;             
    224               
    225               if(KMap_Transmit_Count == 0 )    // 전송 중이 아니라면
   \   0000000C   ........           LDR.W    R0,??DataTable37_2
   \   00000010   0068               LDR      R0,[R0, #+0]
   \   00000012   0028               CMP      R0,#+0
   \   00000014   40F07B81           BNE.W    ??EMS_Setting_0
    226               {     
    227                    i = 1;
   \   00000018   0120               MOVS     R0,#+1
   \   0000001A   ADF85400           STRH     R0,[SP, #+84]
    228                    
    229                    memset(&DTG_Binary,0,sizeof(DTG_Binary));
   \   0000001E   4722               MOVS     R2,#+71
   \   00000020   0021               MOVS     R1,#+0
   \   00000022   25A8               ADD      R0,SP,#+148
   \   00000024   ........           BL       memset
    230                    {
    231          
    232                         {
    233          
    234                              sprintf((char*)Buffer,
    235                                      "%02d%02d%02d%02d%02d%02d00"
    236                                           "%04d%07d%03d%04d%d%04.1f"
    237                                                "%09d%09d%03d%+06.1f%+06.1f%02d",                  
    238                                                11,12,24,10,20,30,
    239                                                DTG_Binary.DayDriveLength%10000,
    240                                                DTG_Binary.TotalDriveLength%10000000,
    241                                                DTG_Binary.Speed%1000,
    242                                                DTG_Binary.RPM%10000,
    243                                                DTG_Binary.Sign_Break%10,
    244                                                (float)DTG_Binary.Ems_Data.Gps_HDOP/10,
    245                                                DTG_Binary.GPSX,
    246                                                DTG_Binary.GPSY,
    247                                                DTG_Binary.Azimuth%1000,
    248                                                (float)DTG_Binary.AccelX,
    249                                                (float)DTG_Binary.AccelY,
    250                                                DTG_Binary.MachineStatus
    251                                                     );
   \   00000028   BDF8BD50           LDRH     R5,[SP, #+189]
   \   0000002C   4FF47A70           MOV      R0,#+1000
   \   00000030   1A90               STR      R0,[SP, #+104]
   \   00000032   9DF8B4A0           LDRB     R10,[SP, #+180]
   \   00000036   0A20               MOVS     R0,#+10
   \   00000038   1990               STR      R0,[SP, #+100]
   \   0000003A   BDF8B260           LDRH     R6,[SP, #+178]
   \   0000003E   42F21070           MOVW     R0,#+10000
   \   00000042   1890               STR      R0,[SP, #+96]
   \   00000044   9DF8B170           LDRB     R7,[SP, #+177]
   \   00000048   4FF47A70           MOV      R0,#+1000
   \   0000004C   1790               STR      R0,[SP, #+92]
   \   0000004E   DDF8A980           LDR      R8,[SP, #+169]
   \   00000052   ........           LDR.W    R0,??DataTable36_9  ;; 0x989680
   \   00000056   1690               STR      R0,[SP, #+88]
   \   00000058   BDF8A790           LDRH     R9,[SP, #+167]
   \   0000005C   42F2107B           MOVW     R11,#+10000
   \   00000060   9DF8C300           LDRB     R0,[SP, #+195]
   \   00000064   1490               STR      R0,[SP, #+80]
   \   00000066   BDF9C100           LDRSH    R0,[SP, #+193]
   \   0000006A   ........           BL       __aeabi_i2f
   \   0000006E   ........           BL       __aeabi_f2d
   \   00000072   CDE91201           STRD     R0,R1,[SP, #+72]
   \   00000076   BDF9BF00           LDRSH    R0,[SP, #+191]
   \   0000007A   ........           BL       __aeabi_i2f
   \   0000007E   ........           BL       __aeabi_f2d
   \   00000082   CDE91001           STRD     R0,R1,[SP, #+64]
   \   00000086   1A98               LDR      R0,[SP, #+104]
   \   00000088   95FBF0F0           SDIV     R0,R5,R0
   \   0000008C   1A99               LDR      R1,[SP, #+104]
   \   0000008E   01FB1050           MLS      R0,R1,R0,R5
   \   00000092   0E90               STR      R0,[SP, #+56]
   \   00000094   DDF8B900           LDR      R0,[SP, #+185]
   \   00000098   0D90               STR      R0,[SP, #+52]
   \   0000009A   DDF8B500           LDR      R0,[SP, #+181]
   \   0000009E   0C90               STR      R0,[SP, #+48]
   \   000000A0   BDF8D400           LDRH     R0,[SP, #+212]
   \   000000A4   ........           BL       __aeabi_ui2f
   \   000000A8   ........           LDR.W    R1,??DataTable37_3  ;; 0x41200000
   \   000000AC   ........           BL       __aeabi_fdiv
   \   000000B0   ........           BL       __aeabi_f2d
   \   000000B4   CDE90A01           STRD     R0,R1,[SP, #+40]
   \   000000B8   1998               LDR      R0,[SP, #+100]
   \   000000BA   9AFBF0F0           SDIV     R0,R10,R0
   \   000000BE   1999               LDR      R1,[SP, #+100]
   \   000000C0   01FB10A0           MLS      R0,R1,R0,R10
   \   000000C4   0890               STR      R0,[SP, #+32]
   \   000000C6   1898               LDR      R0,[SP, #+96]
   \   000000C8   96FBF0F0           SDIV     R0,R6,R0
   \   000000CC   1899               LDR      R1,[SP, #+96]
   \   000000CE   01FB1060           MLS      R0,R1,R0,R6
   \   000000D2   0790               STR      R0,[SP, #+28]
   \   000000D4   1798               LDR      R0,[SP, #+92]
   \   000000D6   97FBF0F0           SDIV     R0,R7,R0
   \   000000DA   1799               LDR      R1,[SP, #+92]
   \   000000DC   01FB1070           MLS      R0,R1,R0,R7
   \   000000E0   0690               STR      R0,[SP, #+24]
   \   000000E2   1698               LDR      R0,[SP, #+88]
   \   000000E4   B8FBF0F0           UDIV     R0,R8,R0
   \   000000E8   1699               LDR      R1,[SP, #+88]
   \   000000EA   01FB1080           MLS      R0,R1,R0,R8
   \   000000EE   0590               STR      R0,[SP, #+20]
   \   000000F0   99FBFBF0           SDIV     R0,R9,R11
   \   000000F4   0BFB1090           MLS      R0,R11,R0,R9
   \   000000F8   0490               STR      R0,[SP, #+16]
   \   000000FA   1E20               MOVS     R0,#+30
   \   000000FC   0390               STR      R0,[SP, #+12]
   \   000000FE   1420               MOVS     R0,#+20
   \   00000100   0290               STR      R0,[SP, #+8]
   \   00000102   0A20               MOVS     R0,#+10
   \   00000104   0190               STR      R0,[SP, #+4]
   \   00000106   1820               MOVS     R0,#+24
   \   00000108   0090               STR      R0,[SP, #+0]
   \   0000010A   0C23               MOVS     R3,#+12
   \   0000010C   0B22               MOVS     R2,#+11
   \   0000010E   ........           LDR.W    R1,??DataTable37_4
   \   00000112   ........           LDR.W    R0,??DataTable37_5
   \   00000116   ........           BL       sprintf
    252                              memcpy(&DTG_LOOP[DataCount],Buffer,sizeof(struct _DTG_LOOP));              
                                                      ^
Warning[Pe549]: variable "DataCount" is used before its value is set

       u16 DataSize;
           ^
"E:\Work\Firmware\DTG\WIFI_RELAY_TEST\Project\Wifi.c",206  Warning[Pe177]: 
          variable "DataSize" was declared but never referenced

       u32 PageTemp;
           ^
"E:\Work\Firmware\DTG\WIFI_RELAY_TEST\Project\Wifi.c",212  Warning[Pe177]: 
          variable "PageTemp" was declared but never referenced

       TM_Struct  datetime;
                  ^
"E:\Work\Firmware\DTG\WIFI_RELAY_TEST\Project\Wifi.c",219  Warning[Pe177]: 
          variable "datetime" was declared but never referenced
   \   0000011A   4822               MOVS     R2,#+72
   \   0000011C   ........           LDR.W    R1,??DataTable37_5
   \   00000120   A4B2               UXTH     R4,R4            ;; ZeroExt  R4,R4,#+16,#+16
   \   00000122   4820               MOVS     R0,#+72
   \   00000124   ........           LDR.W    R3,??DataTable37_6
   \   00000128   00FB0430           MLA      R0,R0,R4,R3
   \   0000012C   ........           BL       memcpy
    253                              
    254                         }
    255                         memcpy( &EMS_Drive_Temp, &NAND_Buffer, EMS_SIZE );
   \   00000130   2422               MOVS     R2,#+36
   \   00000132   ........           LDR.W    R1,??DataTable37_7
   \   00000136   1CA8               ADD      R0,SP,#+112
   \   00000138   ........           BL       memcpy
    256                         ConvertString(TLV_BUFFER.Data1, EMS_Drive_Temp.DriveStop_Time );                  // 정지시간
   \   0000013C   1F99               LDR      R1,[SP, #+124]
   \   0000013E   ........           LDR.W    R0,??DataTable37_8
   \   00000142   ........           BL       ConvertString
    257                         ConvertString(TLV_BUFFER.Data2, EMS_Drive_Temp.EngineStop_Time );                  // 공회전정지시간
   \   00000146   2099               LDR      R1,[SP, #+128]
   \   00000148   ........           LDR.W    R0,??DataTable37_9
   \   0000014C   ........           BL       ConvertString
    258                         ConvertString2(TLV_BUFFER.Data3, EMS_Drive_Temp.Day_StarterMotor );                  // 일일스타트모터수
   \   00000150   BDF88810           LDRH     R1,[SP, #+136]
   \   00000154   ........           LDR.W    R0,??DataTable37_10
   \   00000158   ........           BL       ConvertString2
    259                         ConvertString2(TLV_BUFFER.Data4, Info.Total_StartCount );                        // 총스타트 모터수
   \   0000015C   ........           LDR.W    R0,??DataTable37_11
   \   00000160   D0F82610           LDR      R1,[R0, #+38]
   \   00000164   ........           LDR.W    R0,??DataTable37_12
   \   00000168   ........           BL       ConvertString2
    260                         ConvertString2(TLV_BUFFER.Data5, EMS_Drive_Temp.QuickAccel_Count );                  // 급가속
   \   0000016C   BDF88A10           LDRH     R1,[SP, #+138]
   \   00000170   ........           LDR.W    R0,??DataTable37_13
   \   00000174   ........           BL       ConvertString2
    261                         ConvertString2(TLV_BUFFER.Data6, EMS_Drive_Temp.QuickStop_Count );                  //급정지 시간
   \   00000178   BDF88E10           LDRH     R1,[SP, #+142]
   \   0000017C   ........           LDR.W    R0,??DataTable37_14
   \   00000180   ........           BL       ConvertString2
    262                         ConvertString2(TLV_BUFFER.Data7, EMS_Drive_Temp.HighRPM_Count );                  //고RPM  시간
   \   00000184   BDF89010           LDRH     R1,[SP, #+144]
   \   00000188   ........           LDR.W    R0,??DataTable37_15
   \   0000018C   ........           BL       ConvertString2
    263                         ConvertString2(TLV_BUFFER.Data8, EMS_Drive_Temp.Break_Count );                  //  브레이크 시간         
   \   00000190   BDF89210           LDRH     R1,[SP, #+146]
   \   00000194   ........           LDR.W    R0,??DataTable37_16
   \   00000198   ........           BL       ConvertString2
    264                         ConvertString(TLV_BUFFER.Data9, EMS_Drive_Temp.Drive_Time );                  // 운행시간
   \   0000019C   1D99               LDR      R1,[SP, #+116]
   \   0000019E   ........           LDR.W    R0,??DataTable37_17
   \   000001A2   ........           BL       ConvertString
    265                         ConvertString2(TLV_BUFFER.Data10, EMS_Drive_Temp.EcoUse_Time );                  // 고RPM 시간         
   \   000001A6   2199               LDR      R1,[SP, #+132]
   \   000001A8   ........           LDR.W    R0,??DataTable37_18
   \   000001AC   ........           BL       ConvertString2
    266                         ConvertString2(TLV_BUFFER.Data11, EMS_Drive_Temp.QuickStart_Count );                  // 고RPM 시간        
   \   000001B0   BDF88C10           LDRH     R1,[SP, #+140]
   \   000001B4   ........           LDR.W    R0,??DataTable37_19
   \   000001B8   ........           BL       ConvertString2
    267                         
    268                         memcpy(&TLV_LOOP[DataCount],&TLV_BUFFER,sizeof(struct _TLV_DATA)); 
   \   000001BC   5522               MOVS     R2,#+85
   \   000001BE   ........           LDR.W    R1,??DataTable35_18
   \   000001C2   A4B2               UXTH     R4,R4            ;; ZeroExt  R4,R4,#+16,#+16
   \   000001C4   5520               MOVS     R0,#+85
   \   000001C6   ........           LDR.W    R3,??DataTable37_20
   \   000001CA   00FB0430           MLA      R0,R0,R4,R3
   \   000001CE   ........           BL       memcpy
    269                         DataCount++;                           
   \   000001D2   641C               ADDS     R4,R4,#+1
    270                    }
    271                    Trans_PageCount = i;
   \   000001D4   ........           LDR.W    R0,??DataTable37_21
   \   000001D8   BDF85410           LDRH     R1,[SP, #+84]
   \   000001DC   0180               STRH     R1,[R0, #+0]
    272                    
    273                    ConvertString( KMapSend.Message.Seq,SeqeunMsg++);
   \   000001DE   ........           LDR.W    R0,??DataTable37_22
   \   000001E2   0168               LDR      R1,[R0, #+0]
   \   000001E4   481C               ADDS     R0,R1,#+1
   \   000001E6   ........           LDR.W    R2,??DataTable37_22
   \   000001EA   1060               STR      R0,[R2, #+0]
   \   000001EC   ........           LDR.W    R0,??DataTable35_6
   \   000001F0   ........           BL       ConvertString
    274                    
    275                    ConvertString(KMapSend.Message.Parameter2.DTG_DATA.DataNum , DataCount );			// 수집 데이터          
   \   000001F4   A4B2               UXTH     R4,R4            ;; ZeroExt  R4,R4,#+16,#+16
   \   000001F6   2100               MOVS     R1,R4
   \   000001F8   ........           LDR.W    R0,??DataTable37_23
   \   000001FC   ........           BL       ConvertString
    276                    
    277                    DTG_Size = sizeof(DTG_LOOP[0]) * DataCount ;
   \   00000200   4820               MOVS     R0,#+72
   \   00000202   00FB04F5           MUL      R5,R0,R4
    278                    TLV_Size = sizeof(struct _TLV_DATA) * DataCount ;
   \   00000206   5520               MOVS     R0,#+85
   \   00000208   4443               MULS     R4,R0,R4
    279                    Error_Size = 4;
   \   0000020A   0420               MOVS     R0,#+4
    280                    ConvertString( KMapSend.Message.Length , sizeof(KMapSend.Message.Parameter1) + sizeof(KMapSend.Message.Parameter2) + DTG_Size +  sizeof(KMapSend_Div.Parameter3) + TLV_Size + Error_Size);
   \   0000020C   ADB2               UXTH     R5,R5            ;; ZeroExt  R5,R5,#+16,#+16
   \   0000020E   A4B2               UXTH     R4,R4            ;; ZeroExt  R4,R4,#+16,#+16
   \   00000210   6119               ADDS     R1,R4,R5
   \   00000212   80B2               UXTH     R0,R0            ;; ZeroExt  R0,R0,#+16,#+16
   \   00000214   4018               ADDS     R0,R0,R1
   \   00000216   10F13B01           ADDS     R1,R0,#+59
   \   0000021A   ........           LDR.W    R0,??DataTable37_24
   \   0000021E   ........           BL       ConvertString
    281                    ConvertString( KMapSend.Message.Parameter2.ValueLength , DTG_Size );	     
   \   00000222   ADB2               UXTH     R5,R5            ;; ZeroExt  R5,R5,#+16,#+16
   \   00000224   2900               MOVS     R1,R5
   \   00000226   ........           LDR.W    R0,??DataTable36_8
   \   0000022A   ........           BL       ConvertString
    282                    ConvertString( KMapSend_Div.Parameter3.ValueLength , TLV_Size );	
   \   0000022E   A4B2               UXTH     R4,R4            ;; ZeroExt  R4,R4,#+16,#+16
   \   00000230   2100               MOVS     R1,R4
   \   00000232   ........           LDR.W    R0,??DataTable37_25
   \   00000236   ........           BL       ConvertString
    283                    ConvertString( KMapSend.PacketSize, ( sizeof( KMapSend ) + DTG_Size +  sizeof(KMapSend_Div) + TLV_Size ) ) ;
   \   0000023A   ADB2               UXTH     R5,R5            ;; ZeroExt  R5,R5,#+16,#+16
   \   0000023C   A4B2               UXTH     R4,R4            ;; ZeroExt  R4,R4,#+16,#+16
   \   0000023E   6019               ADDS     R0,R4,R5
   \   00000240   10F17001           ADDS     R1,R0,#+112
   \   00000244   ........           LDR.W    R0,??DataTable37_1
   \   00000248   ........           BL       ConvertString
    284                    
    285                    memset( Tx_RFBuffer, 0, sizeof (Tx_RFBuffer) );
   \   0000024C   41F65832           MOVW     R2,#+7000
   \   00000250   0021               MOVS     R1,#+0
   \   00000252   ........           LDR.W    R0,??DataTable37_26
   \   00000256   ........           BL       memset
    286                    
    287                    KMap_Transmit_Count = sizeof(KMapSend);
   \   0000025A   ........           LDR.W    R0,??DataTable37_2
   \   0000025E   6521               MOVS     R1,#+101
   \   00000260   0160               STR      R1,[R0, #+0]
    288                    
    289                    // 헤더부분 복사
    290                    memcpy(&Tx_RFBuffer,&KMapSend, KMap_Transmit_Count);          // 전송해야될 데이타 크기
   \   00000262   ........           LDR.W    R0,??DataTable37_2
   \   00000266   0268               LDR      R2,[R0, #+0]
   \   00000268   ........           LDR.W    R1,??DataTable37_1
   \   0000026C   ........           LDR.W    R0,??DataTable37_26
   \   00000270   ........           BL       memcpy
    291                    // 메인부분 복사
    292                    memcpy(&Tx_RFBuffer[KMap_Transmit_Count] , &DTG_LOOP, DTG_Size);          // 전송해야될 데이타 크기
   \   00000274   ADB2               UXTH     R5,R5            ;; ZeroExt  R5,R5,#+16,#+16
   \   00000276   2A00               MOVS     R2,R5
   \   00000278   ........           LDR.W    R1,??DataTable37_6
   \   0000027C   ........           LDR.W    R0,??DataTable37_2
   \   00000280   0068               LDR      R0,[R0, #+0]
   \   00000282   ........           LDR.W    R3,??DataTable37_26
   \   00000286   C018               ADDS     R0,R0,R3
   \   00000288   ........           BL       memcpy
    293                    KMap_Transmit_Count += DTG_Size;
   \   0000028C   ........           LDR.W    R0,??DataTable37_2
   \   00000290   0068               LDR      R0,[R0, #+0]
   \   00000292   ADB2               UXTH     R5,R5            ;; ZeroExt  R5,R5,#+16,#+16
   \   00000294   2818               ADDS     R0,R5,R0
   \   00000296   ........           LDR.W    R1,??DataTable37_2
   \   0000029A   0860               STR      R0,[R1, #+0]
    294                    // 끝부분 복사
    295                    memcpy(&Tx_RFBuffer[KMap_Transmit_Count] , &KMapSend_Div, sizeof(KMapSend_Div));          // 전송해야될 데이타 크기
   \   0000029C   0B22               MOVS     R2,#+11
   \   0000029E   ........           LDR.W    R1,??DataTable35_16
   \   000002A2   ........           LDR.W    R0,??DataTable37_2
   \   000002A6   0068               LDR      R0,[R0, #+0]
   \   000002A8   ........           LDR.W    R3,??DataTable37_26
   \   000002AC   C018               ADDS     R0,R0,R3
   \   000002AE   ........           BL       memcpy
    296                    
    297                    KMap_Transmit_Count += sizeof(KMapSend_Div);
   \   000002B2   ........           LDR.W    R0,??DataTable37_2
   \   000002B6   0068               LDR      R0,[R0, #+0]
   \   000002B8   0B30               ADDS     R0,R0,#+11
   \   000002BA   ........           LDR.W    R1,??DataTable37_2
   \   000002BE   0860               STR      R0,[R1, #+0]
    298                    
    299                    memcpy(&Tx_RFBuffer[KMap_Transmit_Count] , &TLV_LOOP, TLV_Size);          // 전송해야될 데이타 크기
   \   000002C0   A4B2               UXTH     R4,R4            ;; ZeroExt  R4,R4,#+16,#+16
   \   000002C2   2200               MOVS     R2,R4
   \   000002C4   ........           LDR.W    R1,??DataTable37_20
   \   000002C8   ........           LDR.W    R0,??DataTable37_2
   \   000002CC   0068               LDR      R0,[R0, #+0]
   \   000002CE   ........           LDR.W    R3,??DataTable37_26
   \   000002D2   C018               ADDS     R0,R0,R3
   \   000002D4   ........           BL       memcpy
    300                    
    301                    KMap_Transmit_Count += TLV_Size;                 
   \   000002D8   ........           LDR.W    R0,??DataTable37_2
   \   000002DC   0068               LDR      R0,[R0, #+0]
   \   000002DE   A4B2               UXTH     R4,R4            ;; ZeroExt  R4,R4,#+16,#+16
   \   000002E0   2018               ADDS     R0,R4,R0
   \   000002E2   ........           LDR.W    R1,??DataTable37_2
   \   000002E6   0860               STR      R0,[R1, #+0]
    302                    
    303                    memcpy(&Tx_RFBuffer[KMap_Transmit_Count] , &Error_Code, sizeof(Error_Code));          // 전송해야될 데이타 크기
   \   000002E8   0422               MOVS     R2,#+4
   \   000002EA   1BA9               ADD      R1,SP,#+108
   \   000002EC   ........           LDR.W    R0,??DataTable37_2
   \   000002F0   0068               LDR      R0,[R0, #+0]
   \   000002F2   ........           LDR.W    R3,??DataTable37_26
   \   000002F6   C018               ADDS     R0,R0,R3
   \   000002F8   ........           BL       memcpy
    304                    
    305                    KMap_Transmit_Count += sizeof(Error_Code);       
   \   000002FC   ........           LDR.W    R0,??DataTable37_2
   \   00000300   0068               LDR      R0,[R0, #+0]
   \   00000302   001D               ADDS     R0,R0,#+4
   \   00000304   ........           LDR.W    R1,??DataTable37_2
   \   00000308   0860               STR      R0,[R1, #+0]
    306                    
    307                    return 1;
   \   0000030A   0120               MOVS     R0,#+1
   \   0000030C   00E0               B.N      ??EMS_Setting_1
    308               }
    309               return 0;
   \                     ??EMS_Setting_0:
   \   0000030E   0020               MOVS     R0,#+0
   \                     ??EMS_Setting_1:
   \   00000310   37B0               ADD      SP,SP,#+220
   \   00000312   BDE8F08F           POP      {R4-R11,PC}      ;; return
    310          }

   \                                 In section .data, align 4
   \                     ??SeqeunMsg:
   \   00000000   01000000           DC32 1
    311          

   \                                 In section .text, align 2, keep-with-next
    312          u8 KMap_Setting(u32 PageNum)
    313          {
   \                     KMap_Setting:
   \   00000000   2DE9F04F           PUSH     {R4-R11,LR}
   \   00000004   C1B0               SUB      SP,SP,#+260
    314               u16 i;
    315               u16 DataSize;
    316               u16 DTG_Size;
    317               u16 TLV_Size;
    318               u16 Error_Size;
    319          
    320               static u32 SeqeunMsg = 1;
    321               struct _BIN_NAND_DTG_DATA DTG_Binary;
    322               EMS_DRIVE_VALUE EMS_Drive_Temp;      
    323             
    324               u16 DataCount ;
    325               u8 Error_Code[4] = {0,};
   \   00000006   1CA9               ADD      R1,SP,#+112
   \   00000008   0022               MOVS     R2,#+0
   \   0000000A   0A60               STR      R2,[R1, #+0]
    326               
    327               if(KMap_Transmit_Count == 0 )    
   \   0000000C   ........           LDR.W    R1,??DataTable39
   \   00000010   0968               LDR      R1,[R1, #+0]
   \   00000012   0029               CMP      R1,#+0
   \   00000014   40F09581           BNE.W    ??KMap_Setting_0
    328               {
    329                    DTG_EMS_DataLoad(PageNum);
   \   00000018   ........           BL       DTG_EMS_DataLoad
    330                    DataSize = sizeof(DTG_Binary);    
   \   0000001C   4720               MOVS     R0,#+71
   \   0000001E   ADF85400           STRH     R0,[SP, #+84]
    331                    
    332                    TM_Struct  datetime;
    333                    KMap_Transmit_Count = 0;
   \   00000022   ........           LDR.W    R0,??DataTable39
   \   00000026   0021               MOVS     R1,#+0
   \   00000028   0160               STR      R1,[R0, #+0]
    334                    
    335                    memcpy( &EMS_Drive_Temp, &NAND_Buffer, EMS_SIZE );
   \   0000002A   2422               MOVS     R2,#+36
   \   0000002C   ........           LDR.W    R1,??DataTable37_7
   \   00000030   1DA8               ADD      R0,SP,#+116
   \   00000032   ........           BL       memcpy
    336                    DataCount = 0;
   \   00000036   0024               MOVS     R4,#+0
    337                    for ( i = 0 ; i < DATA_IN_PAGE_SIZE ; i ++ )     
   \   00000038   0025               MOVS     R5,#+0
   \   0000003A   A4E0               B.N      ??KMap_Setting_1
    338                    {              
    339          
    340                         IWDG_ReloadCounter();                   // Clear IWDG
   \                     ??KMap_Setting_2:
   \   0000003C   ........           BL       IWDG_ReloadCounter
    341                         memcpy( &DTG_Binary, &NAND_Buffer[ ( EMS_SIZE + ( i * DataSize ) ) ], DataSize );
   \   00000040   BDF85420           LDRH     R2,[SP, #+84]
   \   00000044   ADB2               UXTH     R5,R5            ;; ZeroExt  R5,R5,#+16,#+16
   \   00000046   BDF85400           LDRH     R0,[SP, #+84]
   \   0000004A   ........           LDR.W    R1,??DataTable37_7
   \   0000004E   00FB0510           MLA      R0,R0,R5,R1
   \   00000052   10F12401           ADDS     R1,R0,#+36
   \   00000056   2FA8               ADD      R0,SP,#+188
   \   00000058   ........           BL       memcpy
    342                         if(DTG_Binary.DataValid == 1)
   \   0000005C   9DF80201           LDRB     R0,[SP, #+258]
   \   00000060   0128               CMP      R0,#+1
   \   00000062   40F08F80           BNE.W    ??KMap_Setting_3
    343                         {
    344                              RTC_BinaryToDate(DTG_Binary.Datetime,&datetime);
   \   00000066   26A9               ADD      R1,SP,#+152
   \   00000068   DDF8D500           LDR      R0,[SP, #+213]
   \   0000006C   ........           BL       RTC_BinaryToDate
    345                              sprintf((char*)Buffer,
    346                                      "%02d%02d%02d%02d%02d%02d00"
    347                                      "%04d%07d%03d%04d%d%04.1f"
    348                                      "%09d%09d%03d%+06.1f%+06.1f%02d",                  
    349                                      datetime.tm_year-2000,datetime.tm_mon,datetime.tm_mday,
    350                                      datetime.tm_hour,datetime.tm_min,datetime.tm_sec,
    351                                      DTG_Binary.DayDriveLength%10000,
    352                                      DTG_Binary.TotalDriveLength%10000000,
    353                                      DTG_Binary.Speed%1000,
    354                                      DTG_Binary.RPM%10000,
    355                                      DTG_Binary.Sign_Break%10,
    356                                      (float)DTG_Binary.Ems_Data.Gps_HDOP/10,
    357                                      DTG_Binary.GPSX,
    358                                      DTG_Binary.GPSY,
    359                                      DTG_Binary.Azimuth%1000,
    360                                      (float)DTG_Binary.AccelX,
    361                                      (float)DTG_Binary.AccelY,
    362                                      DTG_Binary.MachineStatus
    363                                 );
   \   00000070   BDF8E560           LDRH     R6,[SP, #+229]
   \   00000074   4FF47A70           MOV      R0,#+1000
   \   00000078   1B90               STR      R0,[SP, #+108]
   \   0000007A   9DF8DCB0           LDRB     R11,[SP, #+220]
   \   0000007E   0A20               MOVS     R0,#+10
   \   00000080   1A90               STR      R0,[SP, #+104]
   \   00000082   BDF8DA70           LDRH     R7,[SP, #+218]
   \   00000086   42F21070           MOVW     R0,#+10000
   \   0000008A   1990               STR      R0,[SP, #+100]
   \   0000008C   9DF8D9A0           LDRB     R10,[SP, #+217]
   \   00000090   4FF47A70           MOV      R0,#+1000
   \   00000094   1890               STR      R0,[SP, #+96]
   \   00000096   DDF8D180           LDR      R8,[SP, #+209]
   \   0000009A   ........           LDR.W    R0,??DataTable36_9  ;; 0x989680
   \   0000009E   1790               STR      R0,[SP, #+92]
   \   000000A0   BDF8CF90           LDRH     R9,[SP, #+207]
   \   000000A4   42F21070           MOVW     R0,#+10000
   \   000000A8   1690               STR      R0,[SP, #+88]
   \   000000AA   9DF8EB00           LDRB     R0,[SP, #+235]
   \   000000AE   1490               STR      R0,[SP, #+80]
   \   000000B0   BDF9E900           LDRSH    R0,[SP, #+233]
   \   000000B4   ........           BL       __aeabi_i2f
   \   000000B8   ........           BL       __aeabi_f2d
   \   000000BC   CDE91201           STRD     R0,R1,[SP, #+72]
   \   000000C0   BDF9E700           LDRSH    R0,[SP, #+231]
   \   000000C4   ........           BL       __aeabi_i2f
   \   000000C8   ........           BL       __aeabi_f2d
   \   000000CC   CDE91001           STRD     R0,R1,[SP, #+64]
   \   000000D0   1B98               LDR      R0,[SP, #+108]
   \   000000D2   96FBF0F0           SDIV     R0,R6,R0
   \   000000D6   1B99               LDR      R1,[SP, #+108]
   \   000000D8   01FB1060           MLS      R0,R1,R0,R6
   \   000000DC   0E90               STR      R0,[SP, #+56]
   \   000000DE   DDF8E100           LDR      R0,[SP, #+225]
   \   000000E2   0D90               STR      R0,[SP, #+52]
   \   000000E4   DDF8DD00           LDR      R0,[SP, #+221]
   \   000000E8   0C90               STR      R0,[SP, #+48]
   \   000000EA   BDF8FC00           LDRH     R0,[SP, #+252]
   \   000000EE   ........           BL       __aeabi_ui2f
   \   000000F2   ........           LDR.W    R1,??DataTable37_3  ;; 0x41200000
   \   000000F6   ........           BL       __aeabi_fdiv
   \   000000FA   ........           BL       __aeabi_f2d
   \   000000FE   CDE90A01           STRD     R0,R1,[SP, #+40]
   \   00000102   1A98               LDR      R0,[SP, #+104]
   \   00000104   9BFBF0F0           SDIV     R0,R11,R0
   \   00000108   1A99               LDR      R1,[SP, #+104]
   \   0000010A   01FB10B0           MLS      R0,R1,R0,R11
   \   0000010E   0890               STR      R0,[SP, #+32]
   \   00000110   1998               LDR      R0,[SP, #+100]
   \   00000112   97FBF0F0           SDIV     R0,R7,R0
   \   00000116   1999               LDR      R1,[SP, #+100]
   \   00000118   01FB1070           MLS      R0,R1,R0,R7
   \   0000011C   0790               STR      R0,[SP, #+28]
   \   0000011E   1898               LDR      R0,[SP, #+96]
   \   00000120   9AFBF0F0           SDIV     R0,R10,R0
   \   00000124   1899               LDR      R1,[SP, #+96]
   \   00000126   01FB10A0           MLS      R0,R1,R0,R10
   \   0000012A   0690               STR      R0,[SP, #+24]
   \   0000012C   1798               LDR      R0,[SP, #+92]
   \   0000012E   B8FBF0F0           UDIV     R0,R8,R0
   \   00000132   1799               LDR      R1,[SP, #+92]
   \   00000134   01FB1080           MLS      R0,R1,R0,R8
   \   00000138   0590               STR      R0,[SP, #+20]
   \   0000013A   1698               LDR      R0,[SP, #+88]
   \   0000013C   99FBF0F0           SDIV     R0,R9,R0
   \   00000140   1699               LDR      R1,[SP, #+88]
   \   00000142   01FB1090           MLS      R0,R1,R0,R9
   \   00000146   0490               STR      R0,[SP, #+16]
   \   00000148   2698               LDR      R0,[SP, #+152]
   \   0000014A   0390               STR      R0,[SP, #+12]
   \   0000014C   2798               LDR      R0,[SP, #+156]
   \   0000014E   0290               STR      R0,[SP, #+8]
   \   00000150   2898               LDR      R0,[SP, #+160]
   \   00000152   0190               STR      R0,[SP, #+4]
   \   00000154   2998               LDR      R0,[SP, #+164]
   \   00000156   0090               STR      R0,[SP, #+0]
   \   00000158   2A9B               LDR      R3,[SP, #+168]
   \   0000015A   2B98               LDR      R0,[SP, #+172]
   \   0000015C   B0F5FA62           SUBS     R2,R0,#+2000
   \   00000160   ........           LDR.W    R1,??DataTable37_4
   \   00000164   ........           LDR.W    R0,??DataTable37_5
   \   00000168   ........           BL       sprintf
    364                         memcpy(&DTG_LOOP[DataCount],Buffer,sizeof(struct _DTG_LOOP));              
   \   0000016C   4822               MOVS     R2,#+72
   \   0000016E   ........           LDR.W    R1,??DataTable37_5
   \   00000172   A4B2               UXTH     R4,R4            ;; ZeroExt  R4,R4,#+16,#+16
   \   00000174   4820               MOVS     R0,#+72
   \   00000176   ........           LDR.W    R3,??DataTable37_6
   \   0000017A   00FB0430           MLA      R0,R0,R4,R3
   \   0000017E   ........           BL       memcpy
    365                         DataCount++;
   \   00000182   641C               ADDS     R4,R4,#+1
    366                         }
    367                         
    368                    }     
   \                     ??KMap_Setting_3:
   \   00000184   6D1C               ADDS     R5,R5,#+1
   \                     ??KMap_Setting_1:
   \   00000186   ADB2               UXTH     R5,R5            ;; ZeroExt  R5,R5,#+16,#+16
   \   00000188   5A2D               CMP      R5,#+90
   \   0000018A   FFF457AF           BCC.W    ??KMap_Setting_2
    369          //               memcpy( &EMS_Drive_Temp, &NAND_Buffer, EMS_SIZE );
    370                    ConvertString(TLV_BUFFER.Data1, EMS_Drive_Temp.DriveStop_Time );                  // 정지시간
   \   0000018E   2099               LDR      R1,[SP, #+128]
   \   00000190   ........           LDR.W    R0,??DataTable37_8
   \   00000194   ........           BL       ConvertString
    371                    ConvertString(TLV_BUFFER.Data2, EMS_Drive_Temp.EngineStop_Time );                  // 공회전정지시간
   \   00000198   2199               LDR      R1,[SP, #+132]
   \   0000019A   ........           LDR.W    R0,??DataTable37_9
   \   0000019E   ........           BL       ConvertString
    372                    ConvertString2(TLV_BUFFER.Data3, EMS_Drive_Temp.Day_StarterMotor );                  // 일일스타트모터수
   \   000001A2   BDF88C10           LDRH     R1,[SP, #+140]
   \   000001A6   ........           LDR.W    R0,??DataTable37_10
   \   000001AA   ........           BL       ConvertString2
    373                    ConvertString2(TLV_BUFFER.Data4, Info.Total_StartCount );                        // 총스타트 모터수
   \   000001AE   ........           LDR.W    R0,??DataTable37_11
   \   000001B2   D0F82610           LDR      R1,[R0, #+38]
   \   000001B6   ........           LDR.W    R0,??DataTable37_12
   \   000001BA   ........           BL       ConvertString2
    374                    ConvertString2(TLV_BUFFER.Data5, EMS_Drive_Temp.QuickAccel_Count );                  // 급가속
   \   000001BE   BDF88E10           LDRH     R1,[SP, #+142]
   \   000001C2   ........           LDR.W    R0,??DataTable37_13
   \   000001C6   ........           BL       ConvertString2
    375                    ConvertString2(TLV_BUFFER.Data6, EMS_Drive_Temp.QuickStop_Count );                  //급정지 시간
   \   000001CA   BDF89210           LDRH     R1,[SP, #+146]
   \   000001CE   ........           LDR.W    R0,??DataTable37_14
   \   000001D2   ........           BL       ConvertString2
    376                    ConvertString2(TLV_BUFFER.Data7, EMS_Drive_Temp.HighRPM_Count );                  //고RPM  시간
   \   000001D6   BDF89410           LDRH     R1,[SP, #+148]
   \   000001DA   ........           LDR.W    R0,??DataTable37_15
   \   000001DE   ........           BL       ConvertString2
    377                    ConvertString2(TLV_BUFFER.Data8, EMS_Drive_Temp.Break_Count );                  //  브레이크 시간         
   \   000001E2   BDF89610           LDRH     R1,[SP, #+150]
   \   000001E6   ........           LDR.W    R0,??DataTable37_16
   \   000001EA   ........           BL       ConvertString2
    378                    ConvertString(TLV_BUFFER.Data9, EMS_Drive_Temp.Drive_Time );                  // 운행시간
   \   000001EE   1E99               LDR      R1,[SP, #+120]
   \   000001F0   ........           LDR.W    R0,??DataTable37_17
   \   000001F4   ........           BL       ConvertString
    379                    ConvertString2(TLV_BUFFER.Data10, EMS_Drive_Temp.EcoUse_Time );                  // 고RPM 시간         
   \   000001F8   2299               LDR      R1,[SP, #+136]
   \   000001FA   ........           LDR.W    R0,??DataTable37_18
   \   000001FE   ........           BL       ConvertString2
    380                    ConvertString2(TLV_BUFFER.Data11, EMS_Drive_Temp.QuickStart_Count );                  // 고RPM 시간        
   \   00000202   BDF89010           LDRH     R1,[SP, #+144]
   \   00000206   ........           LDR.W    R0,??DataTable37_19
   \   0000020A   ........           BL       ConvertString2
    381                    
    382                    memcpy(&TLV_LOOP[0],&TLV_BUFFER,sizeof(struct _TLV_DATA));           
   \   0000020E   5522               MOVS     R2,#+85
   \   00000210   ....               LDR.N    R1,??DataTable35_18
   \   00000212   ........           LDR.W    R0,??DataTable37_20
   \   00000216   ........           BL       memcpy
    383                    ConvertString( KMapSend.Message.Seq,SeqeunMsg++);
   \   0000021A   ........           LDR.W    R0,??DataTable39_1
   \   0000021E   0168               LDR      R1,[R0, #+0]
   \   00000220   481C               ADDS     R0,R1,#+1
   \   00000222   ........           LDR.W    R2,??DataTable39_1
   \   00000226   1060               STR      R0,[R2, #+0]
   \   00000228   ....               LDR.N    R0,??DataTable35_6
   \   0000022A   ........           BL       ConvertString
    384                    
    385          #ifdef MODA_TEST
    386                    sprintf(KMapSend.DeviceID,"%s",DEVICEID);         //01025800001
    387               	memcpy(KMapSend.Message.Parameter2.DTG_DATA.DriverName,"0002100",7);          
    388                    memcpy(KMapSend.Message.Parameter2.DTG_DATA.CarNum, "서울35가1234",12);          
    389                    sprintf((char*)Buffer,"%03d",( DTG_Binary.Ems_Data.CoolWaterTemp_Volt /100) % 1000);        // 냉각수
    390                    memcpy(&KMapSend_Div.Parameter3.TLV_DATA.Data1,Buffer,3);          
    391                    sprintf((char*)Buffer,"%03d", (DTG_Binary.Ems_Data.Battery_Volt/100)%1000);        // 배터리
    392                    memcpy(&KMapSend_Div.Parameter3.TLV_DATA.Data2,Buffer,3);          
    393                    sprintf((char*)Buffer,"%03d", (DTG_Binary.Ems_Data.AirPressure_Volt /100) %1000);        // 에어
    394                    memcpy(&KMapSend_Div.Parameter3.TLV_DATA.Data3,Buffer,3);          
    395                    sprintf((char*)Buffer,"%03d", (DTG_Binary.Ems_Data.Fuel_Volt/100)% 1000);        // 연료     
    396                    memcpy(&KMapSend_Div.Parameter3.TLV_DATA.Data4,Buffer,3);          
    397          #else
    398          //          ConvertString(KMapSend_Div.Parameter3.TLV_DATA.Data1, EMS_Drive_Temp.DriveStop_Time );                  // 정지시간
    399          //          ConvertString(KMapSend_Div.Parameter3.TLV_DATA.Data2, EMS_Drive_Temp.EngineStop_Time );                  // 공회전정지시간
    400          //          ConvertString2(KMapSend_Div.Parameter3.TLV_DATA.Data3, EMS_Drive_Temp.Day_StarterMotor );                  // 일일스타트모터수
    401          //          ConvertString2(KMapSend_Div.Parameter3.TLV_DATA.Data4, EMS_Drive_Temp.Day_StarterMotor );                  // 일일스타트모터수
    402          //          ConvertString2(KMapSend_Div.Parameter3.TLV_DATA.Data5, EMS_Drive_Temp.QuickStart_Count );                  // 총스타트 모터수
    403          //          ConvertString2(KMapSend_Div.Parameter3.TLV_DATA.Data6, EMS_Drive_Temp.QuickStop_Count );                  //급가속 시간
    404          //          ConvertString2(KMapSend_Div.Parameter3.TLV_DATA.Data7, EMS_Drive_Temp.HighRPM_Count );                  //급정지 시간
    405          //          ConvertString2(KMapSend_Div.Parameter3.TLV_DATA.Data8, EMS_Drive_Temp.Break_Count );                  // 고RPM 시간         
    406          //          ConvertString(KMapSend_Div.Parameter3.TLV_DATA.Data9, EMS_Drive_Temp.Drive_Time );                  // 운행시간
    407          //          ConvertString2(KMapSend_Div.Parameter3.TLV_DATA.Data10, EMS_Drive_Temp.EcoUse_Time );                  // 고RPM 시간         
    408          //          ConvertString2(KMapSend_Div.Parameter3.TLV_DATA.Data11, EMS_Drive_Temp.QuickStart_Count );                  // 고RPM 시간                   
    409          #endif
    410          
    411                    ConvertString(KMapSend.Message.Parameter2.DTG_DATA.DataNum , DataCount );			// 수집 데이터          
   \   0000022E   A4B2               UXTH     R4,R4            ;; ZeroExt  R4,R4,#+16,#+16
   \   00000230   2100               MOVS     R1,R4
   \   00000232   ........           LDR.W    R0,??DataTable37_23
   \   00000236   ........           BL       ConvertString
    412                    DTG_Size = sizeof(DTG_LOOP[0]) * DataCount;
   \   0000023A   4820               MOVS     R0,#+72
   \   0000023C   4443               MULS     R4,R0,R4
    413                    
    414                    TLV_Size = sizeof(struct _TLV_DATA) ;
   \   0000023E   5525               MOVS     R5,#+85
    415                    Error_Size = 4;
   \   00000240   0420               MOVS     R0,#+4
    416                    ConvertString( KMapSend.Message.Length , sizeof(KMapSend.Message.Parameter1) + sizeof(KMapSend.Message.Parameter2) + DTG_Size +  sizeof(KMapSend_Div.Parameter3) + TLV_Size + Error_Size);
   \   00000242   A4B2               UXTH     R4,R4            ;; ZeroExt  R4,R4,#+16,#+16
   \   00000244   ADB2               UXTH     R5,R5            ;; ZeroExt  R5,R5,#+16,#+16
   \   00000246   2919               ADDS     R1,R5,R4
   \   00000248   80B2               UXTH     R0,R0            ;; ZeroExt  R0,R0,#+16,#+16
   \   0000024A   4018               ADDS     R0,R0,R1
   \   0000024C   10F13B01           ADDS     R1,R0,#+59
   \   00000250   ........           LDR.W    R0,??DataTable37_24
   \   00000254   ........           BL       ConvertString
    417                    ConvertString( KMapSend.Message.Parameter2.ValueLength , DTG_Size );	     
   \   00000258   A4B2               UXTH     R4,R4            ;; ZeroExt  R4,R4,#+16,#+16
   \   0000025A   2100               MOVS     R1,R4
   \   0000025C   ........           LDR.W    R0,??DataTable36_8
   \   00000260   ........           BL       ConvertString
    418                    ConvertString( KMapSend_Div.Parameter3.ValueLength , TLV_Size );	
   \   00000264   ADB2               UXTH     R5,R5            ;; ZeroExt  R5,R5,#+16,#+16
   \   00000266   2900               MOVS     R1,R5
   \   00000268   ........           LDR.W    R0,??DataTable37_25
   \   0000026C   ........           BL       ConvertString
    419                    ConvertString( KMapSend.PacketSize, ( sizeof( KMapSend ) + DTG_Size +  sizeof(KMapSend_Div) + TLV_Size ) ) ;
   \   00000270   A4B2               UXTH     R4,R4            ;; ZeroExt  R4,R4,#+16,#+16
   \   00000272   ADB2               UXTH     R5,R5            ;; ZeroExt  R5,R5,#+16,#+16
   \   00000274   2819               ADDS     R0,R5,R4
   \   00000276   10F17001           ADDS     R1,R0,#+112
   \   0000027A   ........           LDR.W    R0,??DataTable37_1
   \   0000027E   ........           BL       ConvertString
    420                    
    421                    memset( Tx_RFBuffer, 0, sizeof (Tx_RFBuffer) );
   \   00000282   41F65832           MOVW     R2,#+7000
   \   00000286   0021               MOVS     R1,#+0
   \   00000288   ........           LDR.W    R0,??DataTable37_26
   \   0000028C   ........           BL       memset
    422                    
    423                    KMap_Transmit_Count = sizeof(KMapSend);
   \   00000290   ........           LDR.W    R0,??DataTable39
   \   00000294   6521               MOVS     R1,#+101
   \   00000296   0160               STR      R1,[R0, #+0]
    424                    
    425                    // 헤더부분 복사
    426                    memcpy(&Tx_RFBuffer,&KMapSend, KMap_Transmit_Count);          // 전송해야될 데이타 크기
   \   00000298   ........           LDR.W    R0,??DataTable39
   \   0000029C   0268               LDR      R2,[R0, #+0]
   \   0000029E   ........           LDR.W    R1,??DataTable37_1
   \   000002A2   ........           LDR.W    R0,??DataTable37_26
   \   000002A6   ........           BL       memcpy
    427                    // 메인부분 복사
    428                    memcpy(&Tx_RFBuffer[KMap_Transmit_Count] , &DTG_LOOP, DTG_Size);          // 전송해야될 데이타 크기
   \   000002AA   A4B2               UXTH     R4,R4            ;; ZeroExt  R4,R4,#+16,#+16
   \   000002AC   2200               MOVS     R2,R4
   \   000002AE   ........           LDR.W    R1,??DataTable37_6
   \   000002B2   ........           LDR.W    R0,??DataTable39
   \   000002B6   0068               LDR      R0,[R0, #+0]
   \   000002B8   ........           LDR.W    R3,??DataTable37_26
   \   000002BC   C018               ADDS     R0,R0,R3
   \   000002BE   ........           BL       memcpy
    429                    KMap_Transmit_Count += DTG_Size;
   \   000002C2   ........           LDR.W    R0,??DataTable39
   \   000002C6   0068               LDR      R0,[R0, #+0]
   \   000002C8   A4B2               UXTH     R4,R4            ;; ZeroExt  R4,R4,#+16,#+16
   \   000002CA   2018               ADDS     R0,R4,R0
   \   000002CC   ........           LDR.W    R1,??DataTable39
   \   000002D0   0860               STR      R0,[R1, #+0]
    430                    // 끝부분 복사
    431                    memcpy(&Tx_RFBuffer[KMap_Transmit_Count] , &KMapSend_Div, sizeof(KMapSend_Div));          // 전송해야될 데이타 크기
   \   000002D2   0B22               MOVS     R2,#+11
   \   000002D4   ....               LDR.N    R1,??DataTable35_16
   \   000002D6   ........           LDR.W    R0,??DataTable39
   \   000002DA   0068               LDR      R0,[R0, #+0]
   \   000002DC   ........           LDR.W    R3,??DataTable37_26
   \   000002E0   C018               ADDS     R0,R0,R3
   \   000002E2   ........           BL       memcpy
    432                    
    433                    KMap_Transmit_Count += sizeof(KMapSend_Div);
   \   000002E6   ........           LDR.W    R0,??DataTable39
   \   000002EA   0068               LDR      R0,[R0, #+0]
   \   000002EC   0B30               ADDS     R0,R0,#+11
   \   000002EE   ........           LDR.W    R1,??DataTable39
   \   000002F2   0860               STR      R0,[R1, #+0]
    434                    
    435                    memcpy(&Tx_RFBuffer[KMap_Transmit_Count] , &TLV_LOOP, TLV_Size);          // 전송해야될 데이타 크기
   \   000002F4   ADB2               UXTH     R5,R5            ;; ZeroExt  R5,R5,#+16,#+16
   \   000002F6   2A00               MOVS     R2,R5
   \   000002F8   ........           LDR.W    R1,??DataTable37_20
   \   000002FC   ........           LDR.W    R0,??DataTable39
   \   00000300   0068               LDR      R0,[R0, #+0]
   \   00000302   ........           LDR.W    R3,??DataTable37_26
   \   00000306   C018               ADDS     R0,R0,R3
   \   00000308   ........           BL       memcpy
    436                    
    437                    KMap_Transmit_Count += TLV_Size;                 
   \   0000030C   ........           LDR.W    R0,??DataTable39
   \   00000310   0068               LDR      R0,[R0, #+0]
   \   00000312   ADB2               UXTH     R5,R5            ;; ZeroExt  R5,R5,#+16,#+16
   \   00000314   2818               ADDS     R0,R5,R0
   \   00000316   ........           LDR.W    R1,??DataTable39
   \   0000031A   0860               STR      R0,[R1, #+0]
    438                    
    439                    memcpy(&Tx_RFBuffer[KMap_Transmit_Count] , &Error_Code, sizeof(Error_Code));          // 전송해야될 데이타 크기
   \   0000031C   0422               MOVS     R2,#+4
   \   0000031E   1CA9               ADD      R1,SP,#+112
   \   00000320   ........           LDR.W    R0,??DataTable39
   \   00000324   0068               LDR      R0,[R0, #+0]
   \   00000326   ........           LDR.W    R3,??DataTable37_26
   \   0000032A   C018               ADDS     R0,R0,R3
   \   0000032C   ........           BL       memcpy
    440                    
    441                    KMap_Transmit_Count += sizeof(Error_Code);       
   \   00000330   ........           LDR.W    R0,??DataTable39
   \   00000334   0068               LDR      R0,[R0, #+0]
   \   00000336   001D               ADDS     R0,R0,#+4
   \   00000338   ........           LDR.W    R1,??DataTable39
   \   0000033C   0860               STR      R0,[R1, #+0]
    442                    
    443                    return 1;
   \   0000033E   0120               MOVS     R0,#+1
   \   00000340   00E0               B.N      ??KMap_Setting_4
    444               }
    445               return 0;
   \                     ??KMap_Setting_0:
   \   00000342   0020               MOVS     R0,#+0
   \                     ??KMap_Setting_4:
   \   00000344   41B0               ADD      SP,SP,#+260
   \   00000346   BDE8F08F           POP      {R4-R11,PC}      ;; return
    446          }

   \                                 In section .data, align 4
   \                     ??SeqeunMsg_1:
   \   00000000   01000000           DC32 1
    447          
    448          

   \                                 In section .text, align 2, keep-with-next
    449          u8 ModaSend(u32 PageNum)
    450          {
   \                     ModaSend:
   \   00000000   2DE9F04F           PUSH     {R4-R11,LR}
   \   00000004   93B0               SUB      SP,SP,#+76
   \   00000006   ADF5D05D           SUB      SP,SP,#+6656
    451               u16 i;
    452               u16 DataSize;
    453               static u32 SeqeunMsg = 1;
    454               struct _BIN_NAND_DTG_DATA DTG_Binary;
    455               EMS_DRIVE_VALUE EMS_Drive_Temp;      
    456               struct _DTG_LOOP DTG_LOOP[MAX_DTG_DATA];
    457               if(KMap_Transmit_Count == 0 )    
   \   0000000A   ........           LDR.W    R1,??DataTable37_2
   \   0000000E   0968               LDR      R1,[R1, #+0]
   \   00000010   0029               CMP      R1,#+0
   \   00000012   40F0E580           BNE.W    ??ModaSend_0
    458               {
    459                    DTG_EMS_DataLoad(PageNum);
   \   00000016   ........           BL       DTG_EMS_DataLoad
    460                    DataSize = sizeof(DTG_Binary);    
   \   0000001A   4720               MOVS     R0,#+71
   \   0000001C   ADF85400           STRH     R0,[SP, #+84]
    461                    
    462                    TM_Struct  datetime;
    463                    KMap_Transmit_Count = 0;
   \   00000020   ........           LDR.W    R0,??DataTable37_2
   \   00000024   0021               MOVS     R1,#+0
   \   00000026   0160               STR      R1,[R0, #+0]
    464                    
    465                    memcpy( &EMS_Drive_Temp, &NAND_Buffer, EMS_SIZE );
   \   00000028   2422               MOVS     R2,#+36
   \   0000002A   ........           LDR.W    R1,??DataTable37_7
   \   0000002E   41F62820           MOVW     R0,#+6696
   \   00000032   6844               ADD      R0,R0,SP
   \   00000034   ........           BL       memcpy
    466                    
    467                    for ( i = 0 ; i < 5 ; i ++ )     
   \   00000038   0024               MOVS     R4,#+0
   \   0000003A   AAE0               B.N      ??ModaSend_1
    468                    {              
    469          
    470                         IWDG_ReloadCounter();                   // Clear IWDG
   \                     ??ModaSend_2:
   \   0000003C   ........           BL       IWDG_ReloadCounter
    471                         memcpy( &DTG_Binary, &NAND_Buffer[ ( EMS_SIZE + ( i * DataSize ) ) ], DataSize );
   \   00000040   BDF85420           LDRH     R2,[SP, #+84]
   \   00000044   A4B2               UXTH     R4,R4            ;; ZeroExt  R4,R4,#+16,#+16
   \   00000046   BDF85400           LDRH     R0,[SP, #+84]
   \   0000004A   ........           LDR.W    R1,??DataTable37_7
   \   0000004E   00FB0410           MLA      R0,R0,R4,R1
   \   00000052   10F12401           ADDS     R1,R0,#+36
   \   00000056   24A8               ADD      R0,SP,#+144
   \   00000058   ........           BL       memcpy
    472                         RTC_BinaryToDate(DTG_Binary.Datetime,&datetime);
   \   0000005C   1BA9               ADD      R1,SP,#+108
   \   0000005E   DDF8A900           LDR      R0,[SP, #+169]
   \   00000062   ........           BL       RTC_BinaryToDate
    473                         sprintf((char*)Buffer,
    474                            "%02d%02d%02d%02d%02d%02d00"
    475                            "%04d%07d%03d%04d%d%04.1f"
    476                            "%09d%09d%03d%+06.1f%+06.1f%02d",                  
    477                            datetime.tm_year-2000,datetime.tm_mon,datetime.tm_mday,
    478                            datetime.tm_hour,datetime.tm_min,datetime.tm_sec,
    479                            DTG_Binary.DayDriveLength%10000,
    480                            DTG_Binary.TotalDriveLength%10000000,
    481                            DTG_Binary.Speed%1000,
    482                            DTG_Binary.RPM%10000,
    483                            DTG_Binary.Sign_Break%10,
    484                            (float)DTG_Binary.Ems_Data.Gps_HDOP/10,
    485                            DTG_Binary.GPSX,
    486                            DTG_Binary.GPSY,
    487                            DTG_Binary.Azimuth%1000,
    488                            (float)DTG_Binary.AccelX*0.0098,
    489                            (float)DTG_Binary.AccelY*0.0098,
    490                            DTG_Binary.MachineStatus
    491                                 );
   \   00000066   BDF8B950           LDRH     R5,[SP, #+185]
   \   0000006A   4FF47A70           MOV      R0,#+1000
   \   0000006E   1A90               STR      R0,[SP, #+104]
   \   00000070   9DF8B0A0           LDRB     R10,[SP, #+176]
   \   00000074   0A20               MOVS     R0,#+10
   \   00000076   1990               STR      R0,[SP, #+100]
   \   00000078   BDF8AE60           LDRH     R6,[SP, #+174]
   \   0000007C   42F21070           MOVW     R0,#+10000
   \   00000080   1890               STR      R0,[SP, #+96]
   \   00000082   9DF8AD90           LDRB     R9,[SP, #+173]
   \   00000086   4FF47A70           MOV      R0,#+1000
   \   0000008A   1790               STR      R0,[SP, #+92]
   \   0000008C   DDF8A580           LDR      R8,[SP, #+165]
   \   00000090   ........           LDR.W    R0,??DataTable36_9  ;; 0x989680
   \   00000094   1690               STR      R0,[SP, #+88]
   \   00000096   BDF8A370           LDRH     R7,[SP, #+163]
   \   0000009A   42F2107B           MOVW     R11,#+10000
   \   0000009E   9DF8BF00           LDRB     R0,[SP, #+191]
   \   000000A2   1490               STR      R0,[SP, #+80]
   \   000000A4   BDF9BD00           LDRSH    R0,[SP, #+189]
   \   000000A8   ........           BL       __aeabi_i2f
   \   000000AC   ........           BL       __aeabi_f2d
   \   000000B0   0200               MOVS     R2,R0
   \   000000B2   0B00               MOVS     R3,R1
   \   000000B4   ........           LDR.W    R0,??DataTable39_2  ;; 0xbc01a36e
   \   000000B8   ........           LDR.W    R1,??DataTable39_3  ;; 0x3f841205
   \   000000BC   ........           BL       __aeabi_dmul
   \   000000C0   CDE91201           STRD     R0,R1,[SP, #+72]
   \   000000C4   BDF9BB00           LDRSH    R0,[SP, #+187]
   \   000000C8   ........           BL       __aeabi_i2f
   \   000000CC   ........           BL       __aeabi_f2d
   \   000000D0   0200               MOVS     R2,R0
   \   000000D2   0B00               MOVS     R3,R1
   \   000000D4   ........           LDR.W    R0,??DataTable39_2  ;; 0xbc01a36e
   \   000000D8   ........           LDR.W    R1,??DataTable39_3  ;; 0x3f841205
   \   000000DC   ........           BL       __aeabi_dmul
   \   000000E0   CDE91001           STRD     R0,R1,[SP, #+64]
   \   000000E4   1A98               LDR      R0,[SP, #+104]
   \   000000E6   95FBF0F0           SDIV     R0,R5,R0
   \   000000EA   1A99               LDR      R1,[SP, #+104]
   \   000000EC   01FB1050           MLS      R0,R1,R0,R5
   \   000000F0   0E90               STR      R0,[SP, #+56]
   \   000000F2   DDF8B500           LDR      R0,[SP, #+181]
   \   000000F6   0D90               STR      R0,[SP, #+52]
   \   000000F8   DDF8B100           LDR      R0,[SP, #+177]
   \   000000FC   0C90               STR      R0,[SP, #+48]
   \   000000FE   BDF8D000           LDRH     R0,[SP, #+208]
   \   00000102   ........           BL       __aeabi_ui2f
   \   00000106   ........           LDR.W    R1,??DataTable37_3  ;; 0x41200000
   \   0000010A   ........           BL       __aeabi_fdiv
   \   0000010E   ........           BL       __aeabi_f2d
   \   00000112   CDE90A01           STRD     R0,R1,[SP, #+40]
   \   00000116   1998               LDR      R0,[SP, #+100]
   \   00000118   9AFBF0F0           SDIV     R0,R10,R0
   \   0000011C   1999               LDR      R1,[SP, #+100]
   \   0000011E   01FB10A0           MLS      R0,R1,R0,R10
   \   00000122   0890               STR      R0,[SP, #+32]
   \   00000124   1898               LDR      R0,[SP, #+96]
   \   00000126   96FBF0F0           SDIV     R0,R6,R0
   \   0000012A   1899               LDR      R1,[SP, #+96]
   \   0000012C   01FB1060           MLS      R0,R1,R0,R6
   \   00000130   0790               STR      R0,[SP, #+28]
   \   00000132   1798               LDR      R0,[SP, #+92]
   \   00000134   99FBF0F0           SDIV     R0,R9,R0
   \   00000138   1799               LDR      R1,[SP, #+92]
   \   0000013A   01FB1090           MLS      R0,R1,R0,R9
   \   0000013E   0690               STR      R0,[SP, #+24]
   \   00000140   1698               LDR      R0,[SP, #+88]
   \   00000142   B8FBF0F0           UDIV     R0,R8,R0
   \   00000146   1699               LDR      R1,[SP, #+88]
   \   00000148   01FB1080           MLS      R0,R1,R0,R8
   \   0000014C   0590               STR      R0,[SP, #+20]
   \   0000014E   97FBFBF0           SDIV     R0,R7,R11
   \   00000152   0BFB1070           MLS      R0,R11,R0,R7
   \   00000156   0490               STR      R0,[SP, #+16]
   \   00000158   1B98               LDR      R0,[SP, #+108]
   \   0000015A   0390               STR      R0,[SP, #+12]
   \   0000015C   1C98               LDR      R0,[SP, #+112]
   \   0000015E   0290               STR      R0,[SP, #+8]
   \   00000160   1D98               LDR      R0,[SP, #+116]
   \   00000162   0190               STR      R0,[SP, #+4]
   \   00000164   1E98               LDR      R0,[SP, #+120]
   \   00000166   0090               STR      R0,[SP, #+0]
   \   00000168   1F9B               LDR      R3,[SP, #+124]
   \   0000016A   2098               LDR      R0,[SP, #+128]
   \   0000016C   B0F5FA62           SUBS     R2,R0,#+2000
   \   00000170   ........           ADR.W    R1,`?<Constant "%02d%02d%02d%02d%02d%...">`
   \   00000174   ........           LDR.W    R0,??DataTable37_5
   \   00000178   ........           BL       sprintf
    492                         memcpy(&DTG_LOOP[i],Buffer,sizeof(struct _DTG_LOOP));              
   \   0000017C   4822               MOVS     R2,#+72
   \   0000017E   ........           LDR.W    R1,??DataTable37_5
   \   00000182   A4B2               UXTH     R4,R4            ;; ZeroExt  R4,R4,#+16,#+16
   \   00000184   4820               MOVS     R0,#+72
   \   00000186   36AB               ADD      R3,SP,#+216
   \   00000188   00FB0430           MLA      R0,R0,R4,R3
   \   0000018C   ........           BL       memcpy
    493                    }     
   \   00000190   641C               ADDS     R4,R4,#+1
   \                     ??ModaSend_1:
   \   00000192   A4B2               UXTH     R4,R4            ;; ZeroExt  R4,R4,#+16,#+16
   \   00000194   052C               CMP      R4,#+5
   \   00000196   FFF451AF           BCC.W    ??ModaSend_2
    494                    ConvertString( KMapSend.Message.Seq,SeqeunMsg++);
   \   0000019A   ........           LDR.W    R0,??DataTable39_4
   \   0000019E   0168               LDR      R1,[R0, #+0]
   \   000001A0   481C               ADDS     R0,R1,#+1
   \   000001A2   ........           LDR.W    R2,??DataTable39_4
   \   000001A6   1060               STR      R0,[R2, #+0]
   \   000001A8   ....               LDR.N    R0,??DataTable35_6
   \   000001AA   ........           BL       ConvertString
    495                   
    496          //          sprintf((char*)Buffer,"%03d",( DTG_Binary.Ems_Data.CoolWaterTemp_Volt /100) % 1000);        // 냉각수
    497          //          memcpy(&KMapSend_Div.Parameter3.TLV_DATA.Data1,Buffer,3);          
    498          //          sprintf((char*)Buffer,"%03d", (DTG_Binary.Ems_Data.Battery_Volt/100)%1000);        // 배터리
    499          //          memcpy(&KMapSend_Div.Parameter3.TLV_DATA.Data2,Buffer,3);          
    500          //          sprintf((char*)Buffer,"%03d", (DTG_Binary.Ems_Data.AirPressure_Volt /100) %1000);        // 에어
    501          //          memcpy(&KMapSend_Div.Parameter3.TLV_DATA.Data3,Buffer,3);          
    502          //          sprintf((char*)Buffer,"%03d", (DTG_Binary.Ems_Data.Fuel_Volt/100)% 1000);        // 연료     
    503          //          memcpy(&KMapSend_Div.Parameter3.TLV_DATA.Data4,Buffer,3);          
    504          
    505                    memset( Tx_RFBuffer, 0, sizeof (Tx_RFBuffer) );
   \   000001AE   41F65832           MOVW     R2,#+7000
   \   000001B2   0021               MOVS     R1,#+0
   \   000001B4   ........           LDR.W    R0,??DataTable37_26
   \   000001B8   ........           BL       memset
    506                    
    507                    KMap_Transmit_Count += sizeof(KMapSend);
   \   000001BC   ........           LDR.W    R0,??DataTable37_2
   \   000001C0   0068               LDR      R0,[R0, #+0]
   \   000001C2   6530               ADDS     R0,R0,#+101
   \   000001C4   ........           LDR.W    R1,??DataTable37_2
   \   000001C8   0860               STR      R0,[R1, #+0]
    508                    memcpy(&Tx_RFBuffer,&KMapSend, KMap_Transmit_Count);          // 전송해야될 데이타 크기
   \   000001CA   ........           LDR.W    R0,??DataTable37_2
   \   000001CE   0268               LDR      R2,[R0, #+0]
   \   000001D0   ........           LDR.W    R1,??DataTable37_1
   \   000001D4   ........           LDR.W    R0,??DataTable37_26
   \   000001D8   ........           BL       memcpy
    509                    return 1;
   \   000001DC   0120               MOVS     R0,#+1
   \   000001DE   00E0               B.N      ??ModaSend_3
    510               }
    511               return 0;
   \                     ??ModaSend_0:
   \   000001E0   0020               MOVS     R0,#+0
   \                     ??ModaSend_3:
   \   000001E2   13B0               ADD      SP,SP,#+76
   \   000001E4   0DF5D05D           ADD      SP,SP,#+6656
   \   000001E8   BDE8F08F           POP      {R4-R11,PC}      ;; return
    512          }

   \                                 In section .data, align 4
   \                     ??SeqeunMsg_2:
   \   00000000   01000000           DC32 1
    513          

   \                                 In section .text, align 2, keep-with-next
    514          void Wifi_Process(void)
    515          {
   \                     Wifi_Process:
   \   00000000   80B5               PUSH     {R7,LR}
    516               static u16 Wifi_MainTimer;
    517               static u16 Wifi_MainTimer2;     
    518               static u8 Connectting_Count = 0 ;  
    519               static u8 WaitTimeCount = 0;
    520               //static WIFI_RESULT Wifi_Result = WIFI_NO_INIT;
    521          
    522               //-------------------------------------------------------------------------
    523               // 와이 파이 세팅
    524               //
    525               if(!CheckTimeOver(100,Wifi_MainTimer2))        // 1000ms 마다 진입한다.
   \   00000002   ........           LDR.W    R0,??DataTable39_5
   \   00000006   0188               LDRH     R1,[R0, #+0]
   \   00000008   6420               MOVS     R0,#+100
   \   0000000A   ........           BL       CheckTimeOver
   \   0000000E   0028               CMP      R0,#+0
   \   00000010   00F00881           BEQ.W    ??Wifi_Process_0
    526                    return;
    527               Wifi_MainTimer2 = MS_TIMER;     
   \                     ??Wifi_Process_1:
   \   00000014   ........           LDR.W    R0,??DataTable39_6  ;; 0x40000c00
   \   00000018   ........           BL       TIM_GetCounter
   \   0000001C   ........           LDR.W    R1,??DataTable39_5
   \   00000020   0880               STRH     R0,[R1, #+0]
    528               
    529               if( Flag.Wifi_SettingFlag == 1 )             // 와이파이 세팅이 있다면
   \   00000022   ........           LDR.W    R0,??DataTable39_7
   \   00000026   807B               LDRB     R0,[R0, #+14]
   \   00000028   0128               CMP      R0,#+1
   \   0000002A   02D1               BNE.N    ??Wifi_Process_2
    530               {
    531                    Wifi_ProfileSetting();
   \   0000002C   ........           BL       Wifi_ProfileSetting
    532                    return;
   \   00000030   F8E0               B.N      ??Wifi_Process_0
    533               } 
    534               
    535               //-------------------------------------------------------------------------
    536               
    537               if(!CheckTimeOver(1000,Wifi_MainTimer))        // 1000ms 마다 진입한다.
   \                     ??Wifi_Process_2:
   \   00000032   ........           LDR.W    R0,??DataTable39_8
   \   00000036   0188               LDRH     R1,[R0, #+0]
   \   00000038   4FF47A70           MOV      R0,#+1000
   \   0000003C   ........           BL       CheckTimeOver
   \   00000040   0028               CMP      R0,#+0
   \   00000042   00F0EF80           BEQ.W    ??Wifi_Process_0
    538                    return;
    539               Wifi_MainTimer = MS_TIMER;
   \                     ??Wifi_Process_3:
   \   00000046   ........           LDR.W    R0,??DataTable39_6  ;; 0x40000c00
   \   0000004A   ........           BL       TIM_GetCounter
   \   0000004E   ........           LDR.W    R1,??DataTable39_8
   \   00000052   0880               STRH     R0,[R1, #+0]
    540               
    541               
    542               if(Connectting_Count >= 5)                // 5회이상 검사시 에러발생한다면
   \   00000054   ........           LDR.W    R0,??DataTable39_9
   \   00000058   0078               LDRB     R0,[R0, #+0]
   \   0000005A   0528               CMP      R0,#+5
   \   0000005C   11D3               BCC.N    ??Wifi_Process_4
    543               {
    544                    Info.Wifi_ErrorCount = 0;
   \   0000005E   ....               LDR.N    R0,??DataTable37_11
   \   00000060   0021               MOVS     R1,#+0
   \   00000062   80F86710           STRB     R1,[R0, #+103]
    545                    Connectting_Count = 0;
   \   00000066   ........           LDR.W    R0,??DataTable39_9
   \   0000006A   0021               MOVS     R1,#+0
   \   0000006C   0170               STRB     R1,[R0, #+0]
    546                    Wifi_Result = WIFI_NO_INIT;
   \   0000006E   ....               LDR.N    R0,??DataTable37
   \   00000070   0021               MOVS     R1,#+0
   \   00000072   0170               STRB     R1,[R0, #+0]
    547                    Wifi_Reset();
   \   00000074   ........           BL       Wifi_Reset
    548                    Flag.Wifi_Check = 0;                    // 응답을 기다린다.          
   \   00000078   ........           LDR.W    R0,??DataTable39_7
   \   0000007C   0021               MOVS     R1,#+0
   \   0000007E   0171               STRB     R1,[R0, #+4]
    549                    return;                                 // 더이상 검사하지 않는다.
   \   00000080   D0E0               B.N      ??Wifi_Process_0
    550               }
    551              
    552               if( WIFI_TestMode == 1 )      // PC와 커맨드 모드일때 
   \                     ??Wifi_Process_4:
   \   00000082   ........           LDR.W    R0,??DataTable39_10
   \   00000086   0078               LDRB     R0,[R0, #+0]
   \   00000088   0128               CMP      R0,#+1
   \   0000008A   00F0CB80           BEQ.W    ??Wifi_Process_0
    553                    return;
    554          
    555          
    556               WaitTimeCount++;
   \                     ??Wifi_Process_5:
   \   0000008E   ........           LDR.W    R0,??DataTable39_11
   \   00000092   0078               LDRB     R0,[R0, #+0]
   \   00000094   401C               ADDS     R0,R0,#+1
   \   00000096   ........           LDR.W    R1,??DataTable39_11
   \   0000009A   0870               STRB     R0,[R1, #+0]
    557               
    558               switch(Wifi_Result)
   \   0000009C   ....               LDR.N    R0,??DataTable37
   \   0000009E   0078               LDRB     R0,[R0, #+0]
   \   000000A0   0028               CMP      R0,#+0
   \   000000A2   09D0               BEQ.N    ??Wifi_Process_6
   \   000000A4   0128               CMP      R0,#+1
   \   000000A6   1DD0               BEQ.N    ??Wifi_Process_7
   \   000000A8   0428               CMP      R0,#+4
   \   000000AA   42D0               BEQ.N    ??Wifi_Process_8
   \   000000AC   0528               CMP      R0,#+5
   \   000000AE   60D0               BEQ.N    ??Wifi_Process_9
   \   000000B0   0628               CMP      R0,#+6
   \   000000B2   00F08380           BEQ.W    ??Wifi_Process_10
   \   000000B6   B5E0               B.N      ??Wifi_Process_11
    559               {
    560               case WIFI_NO_INIT:        // 와이파이가 초기 접속 테스트
    561                    {
    562                         puts_string(&RF_Module, (char*)Wifi_SettingString[0]);      // AT 접속 확인
   \                     ??Wifi_Process_6:
   \   000000B8   ........           LDR.W    R0,??DataTable39_12
   \   000000BC   0168               LDR      R1,[R0, #+0]
   \   000000BE   ........           LDR.W    R0,??DataTable39_13
   \   000000C2   ........           BL       puts_string
    563                         
    564                         puts_string(&RF_Module, (char*)Wifi_SettingString[1]);      // Command 모드 확인
   \   000000C6   ........           LDR.W    R0,??DataTable39_12
   \   000000CA   4168               LDR      R1,[R0, #+4]
   \   000000CC   ........           LDR.W    R0,??DataTable39_13
   \   000000D0   ........           BL       puts_string
    565                         
    566                         WaitTimeCount = 0;                      // 재접속 시간 클리어
   \   000000D4   ........           LDR.W    R0,??DataTable39_11
   \   000000D8   0021               MOVS     R1,#+0
   \   000000DA   0170               STRB     R1,[R0, #+0]
    567          
    568                         Wifi_Result = WIFI_NO_INIT_WAIT;
   \   000000DC   ....               LDR.N    R0,??DataTable37
   \   000000DE   0121               MOVS     R1,#+1
   \   000000E0   0170               STRB     R1,[R0, #+0]
    569                         
    570                    }break;
   \   000000E2   9FE0               B.N      ??Wifi_Process_11
    571               case WIFI_NO_INIT_WAIT:       // 5 초간 대기 후에 접속한다.
    572                    {
    573                         if(Wifi_OK == 1)
   \                     ??Wifi_Process_7:
   \   000000E4   ........           LDR.W    R0,??DataTable39_14
   \   000000E8   0078               LDRB     R0,[R0, #+0]
   \   000000EA   0128               CMP      R0,#+1
   \   000000EC   16D1               BNE.N    ??Wifi_Process_12
    574                         {
    575                              Wifi_OK = 0;
   \   000000EE   ........           LDR.W    R0,??DataTable39_14
   \   000000F2   0021               MOVS     R1,#+0
   \   000000F4   0170               STRB     R1,[R0, #+0]
    576                              Wifi_Result = WIFI_TCP_CONNECT;
   \   000000F6   ....               LDR.N    R0,??DataTable37
   \   000000F8   0421               MOVS     R1,#+4
   \   000000FA   0170               STRB     R1,[R0, #+0]
    577                              Info.Wifi_ErrorCount = 0;
   \   000000FC   ....               LDR.N    R0,??DataTable37_11
   \   000000FE   0021               MOVS     R1,#+0
   \   00000100   80F86710           STRB     R1,[R0, #+103]
    578                              Connectting_Count = 0;
   \   00000104   ........           LDR.W    R0,??DataTable39_9
   \   00000108   0021               MOVS     R1,#+0
   \   0000010A   0170               STRB     R1,[R0, #+0]
    579                              Flag.Wifi_Check = 1;                    // 응답을 기다린다.
   \   0000010C   ........           LDR.W    R0,??DataTable39_7
   \   00000110   0121               MOVS     R1,#+1
   \   00000112   0171               STRB     R1,[R0, #+4]
    580                              WaitTimeCount = 0;                      // 재접속 시간 클리어                    
   \   00000114   ........           LDR.W    R0,??DataTable39_11
   \   00000118   0021               MOVS     R1,#+0
   \   0000011A   0170               STRB     R1,[R0, #+0]
    581                         }
    582                         if( WaitTimeCount > 5)
   \                     ??Wifi_Process_12:
   \   0000011C   ........           LDR.W    R0,??DataTable39_11
   \   00000120   0078               LDRB     R0,[R0, #+0]
   \   00000122   0628               CMP      R0,#+6
   \   00000124   04D3               BCC.N    ??Wifi_Process_13
    583                         {
    584                              Wifi_Reset();
   \   00000126   ........           BL       Wifi_Reset
    585                              Wifi_Result = WIFI_NO_INIT;
   \   0000012A   ....               LDR.N    R0,??DataTable37
   \   0000012C   0021               MOVS     R1,#+0
   \   0000012E   0170               STRB     R1,[R0, #+0]
    586                         }
    587                    }break;
   \                     ??Wifi_Process_13:
   \   00000130   78E0               B.N      ??Wifi_Process_11
    588               case WIFI_TCP_CONNECT:
    589                    {
    590                         sprintf((char *)Buffer,"ATA\r");
   \                     ??Wifi_Process_8:
   \   00000132   ........           ADR.W    R1,`?<Constant "ATA\\r">`
   \   00000136   ....               LDR.N    R0,??DataTable37_5
   \   00000138   ........           BL       sprintf
    591                         puts_string(&RF_Module,(char *)Buffer); 
   \   0000013C   ....               LDR.N    R1,??DataTable37_5
   \   0000013E   ........           LDR.W    R0,??DataTable39_13
   \   00000142   ........           BL       puts_string
    592                         Connectting_Count ++;        
   \   00000146   ........           LDR.W    R0,??DataTable39_9
   \   0000014A   0078               LDRB     R0,[R0, #+0]
   \   0000014C   401C               ADDS     R0,R0,#+1
   \   0000014E   ........           LDR.W    R1,??DataTable39_9
   \   00000152   0870               STRB     R0,[R1, #+0]
    593                         Info.Wifi_ErrorCount ++;
   \   00000154   ....               LDR.N    R0,??DataTable37_11
   \   00000156   90F86700           LDRB     R0,[R0, #+103]
   \   0000015A   401C               ADDS     R0,R0,#+1
   \   0000015C   ....               LDR.N    R1,??DataTable37_11
   \   0000015E   81F86700           STRB     R0,[R1, #+103]
    594                         Wifi_Result = WIFI_TCP_CONNECTTING;
   \   00000162   ....               LDR.N    R0,??DataTable37
   \   00000164   0521               MOVS     R1,#+5
   \   00000166   0170               STRB     R1,[R0, #+0]
    595                         WaitTimeCount = 0;                      // 재접속 시간 클리어                    
   \   00000168   ........           LDR.W    R0,??DataTable39_11
   \   0000016C   0021               MOVS     R1,#+0
   \   0000016E   0170               STRB     R1,[R0, #+0]
    596                         
    597                    }break;
   \   00000170   58E0               B.N      ??Wifi_Process_11
    598               case WIFI_TCP_CONNECTTING:
    599                    {            
    600                         if(Wifi_OK == 1)
   \                     ??Wifi_Process_9:
   \   00000172   ........           LDR.W    R0,??DataTable39_14
   \   00000176   0078               LDRB     R0,[R0, #+0]
   \   00000178   0128               CMP      R0,#+1
   \   0000017A   16D1               BNE.N    ??Wifi_Process_14
    601                         {
    602                              Wifi_Send_Result = WIFI_INIT;
   \   0000017C   ........           LDR.W    R0,??DataTable39_15
   \   00000180   0021               MOVS     R1,#+0
   \   00000182   0170               STRB     R1,[R0, #+0]
    603                              Wifi_OK = 0;
   \   00000184   ........           LDR.W    R0,??DataTable39_14
   \   00000188   0021               MOVS     R1,#+0
   \   0000018A   0170               STRB     R1,[R0, #+0]
    604                              Wifi_Result = WIFI_CONNECTED;
   \   0000018C   ....               LDR.N    R0,??DataTable37
   \   0000018E   0621               MOVS     R1,#+6
   \   00000190   0170               STRB     R1,[R0, #+0]
    605                              Connectting_Count = 0;
   \   00000192   ........           LDR.W    R0,??DataTable39_9
   \   00000196   0021               MOVS     R1,#+0
   \   00000198   0170               STRB     R1,[R0, #+0]
    606                              Info.Wifi_ErrorCount = 0;
   \   0000019A   ....               LDR.N    R0,??DataTable37_11
   \   0000019C   0021               MOVS     R1,#+0
   \   0000019E   80F86710           STRB     R1,[R0, #+103]
    607                              WaitTimeCount = 0;                      // 재접속 시간 클리어                    
   \   000001A2   ........           LDR.W    R0,??DataTable39_11
   \   000001A6   0021               MOVS     R1,#+0
   \   000001A8   0170               STRB     R1,[R0, #+0]
    608                         }
    609                         if( WaitTimeCount > 15)
   \                     ??Wifi_Process_14:
   \   000001AA   ........           LDR.W    R0,??DataTable39_11
   \   000001AE   0078               LDRB     R0,[R0, #+0]
   \   000001B0   1028               CMP      R0,#+16
   \   000001B2   02D3               BCC.N    ??Wifi_Process_15
    610                              Wifi_Result = WIFI_TCP_CONNECT;               
   \   000001B4   ....               LDR.N    R0,??DataTable37
   \   000001B6   0421               MOVS     R1,#+4
   \   000001B8   0170               STRB     R1,[R0, #+0]
    611                    }break;          
   \                     ??Wifi_Process_15:
   \   000001BA   33E0               B.N      ??Wifi_Process_11
    612               case WIFI_CONNECTED:
    613                    {
    614                         if( IsTCP_Connect() == 1 )//|| IsAP_Connect() == 1)      // 서버에 접속되어 있지 않다면
   \                     ??Wifi_Process_10:
   \   000001BC   ........           BL       IsTCP_Connect
   \   000001C0   0128               CMP      R0,#+1
   \   000001C2   03D1               BNE.N    ??Wifi_Process_16
    615                         {
    616                              Wifi_Result = WIFI_NO_INIT;
   \   000001C4   ....               LDR.N    R0,??DataTable37
   \   000001C6   0021               MOVS     R1,#+0
   \   000001C8   0170               STRB     R1,[R0, #+0]
   \   000001CA   2BE0               B.N      ??Wifi_Process_17
    617                         }
    618                         else          //접속 완료 상태 데이터를 전송한다.
    619                         {
    620                              if(NAND_Data_Transmit.Start_Page < NAND_Data_Transmit.End_Page)
   \                     ??Wifi_Process_16:
   \   000001CC   ........           LDR.W    R0,??DataTable39_16
   \   000001D0   0068               LDR      R0,[R0, #+0]
   \   000001D2   ........           LDR.W    R1,??DataTable39_16
   \   000001D6   4968               LDR      R1,[R1, #+4]
   \   000001D8   8842               CMP      R0,R1
   \   000001DA   23D2               BCS.N    ??Wifi_Process_17
    621                              {
    622                                   if( Wifi_Send_Result == WIFI_TIME_OUT)       // 응답이 없을 경우 5회시 리셋후 처음부터 접속
   \   000001DC   ........           LDR.W    R0,??DataTable39_15
   \   000001E0   0078               LDRB     R0,[R0, #+0]
   \   000001E2   0428               CMP      R0,#+4
   \   000001E4   0DD1               BNE.N    ??Wifi_Process_18
    623                                   {
    624                                        Connectting_Count ++;
   \   000001E6   ........           LDR.W    R0,??DataTable39_9
   \   000001EA   0078               LDRB     R0,[R0, #+0]
   \   000001EC   401C               ADDS     R0,R0,#+1
   \   000001EE   ........           LDR.W    R1,??DataTable39_9
   \   000001F2   0870               STRB     R0,[R1, #+0]
    625                                        Info.Wifi_ErrorCount ++;
   \   000001F4   ....               LDR.N    R0,??DataTable37_11
   \   000001F6   90F86700           LDRB     R0,[R0, #+103]
   \   000001FA   401C               ADDS     R0,R0,#+1
   \   000001FC   ....               LDR.N    R1,??DataTable37_11
   \   000001FE   81F86700           STRB     R0,[R1, #+103]
    626                                   }
    627                                   
    628                                   if( Wifi_Send_Result != WIFI_WAIT && Wifi_Send_Result != WIFI_SEND)
   \                     ??Wifi_Process_18:
   \   00000202   ........           LDR.W    R0,??DataTable39_15
   \   00000206   0078               LDRB     R0,[R0, #+0]
   \   00000208   0228               CMP      R0,#+2
   \   0000020A   0BD0               BEQ.N    ??Wifi_Process_17
   \   0000020C   ........           LDR.W    R0,??DataTable39_15
   \   00000210   0078               LDRB     R0,[R0, #+0]
   \   00000212   0128               CMP      R0,#+1
   \   00000214   06D0               BEQ.N    ??Wifi_Process_17
    629                                   {
    630                                        // 와이파이가 대기중이거나 전송중이 아니라면
    631          
    632                                        EMS_Setting(0);
   \   00000216   0020               MOVS     R0,#+0
   \   00000218   ........           BL       EMS_Setting
    633                                        Wifi_Send_Result = WIFI_SEND;                            
   \   0000021C   ........           LDR.W    R0,??DataTable39_15
   \   00000220   0121               MOVS     R1,#+1
   \   00000222   0170               STRB     R1,[R0, #+0]
    634                                   }
    635                              }
    636                         }
    637                         
    638                    }// End of Swtich Case
    639                    break;
    640               } // ENd of Switch
    641          }
   \                     ??Wifi_Process_17:
   \                     ??Wifi_Process_11:
   \                     ??Wifi_Process_0:
   \   00000224   01BD               POP      {R0,PC}          ;; return

   \                                 In section .bss, align 2
   \                     ??Wifi_MainTimer:
   \   00000000                      DS8 2

   \                                 In section .bss, align 2
   \                     ??Wifi_MainTimer2:
   \   00000000                      DS8 2

   \                                 In section .bss, align 1
   \                     ??Connectting_Count:
   \   00000000                      DS8 1

   \                                 In section .bss, align 1
   \                     ??WaitTimeCount:
   \   00000000                      DS8 1
    642          
    643          

   \                                 In section .text, align 2, keep-with-next
    644          void Wifi_Send(void)                                                       // 와이파이 정상적으로 접속중일때 실제 전송
    645          {
   \                     Wifi_Send:
   \   00000000   80B5               PUSH     {R7,LR}
    646               static u32 Trans_Count = 0;     
    647               static u16 ReSend_Timer = 0;
    648               if(KMap_Transmit_Count != 0 )
   \   00000002   ....               LDR.N    R0,??DataTable37_2
   \   00000004   0068               LDR      R0,[R0, #+0]
   \   00000006   0028               CMP      R0,#+0
   \   00000008   76D0               BEQ.N    ??Wifi_Send_0
    649               {
    650                    if(RF_Module.txep == RF_Module.txsp)
   \   0000000A   ........           LDR.W    R0,??DataTable39_13
   \   0000000E   B0F80E08           LDRH     R0,[R0, #+2062]
   \   00000012   ........           LDR.W    R1,??DataTable39_13
   \   00000016   B1F80C18           LDRH     R1,[R1, #+2060]
   \   0000001A   8842               CMP      R0,R1
   \   0000001C   6CD1               BNE.N    ??Wifi_Send_0
    651                    {
    652                         memset(RF_Module.txbuf, 0 ,sizeof(RF_Module.txbuf));
   \   0000001E   4FF48062           MOV      R2,#+1024
   \   00000022   0021               MOVS     R1,#+0
   \   00000024   ........           LDR.W    R0,??DataTable39_17
   \   00000028   ........           BL       memset
    653                         RF_Module.txep = RF_Module.txsp = 0;
   \   0000002C   0020               MOVS     R0,#+0
   \   0000002E   ........           LDR.W    R1,??DataTable39_13
   \   00000032   A1F80C08           STRH     R0,[R1, #+2060]
   \   00000036   ........           LDR.W    R1,??DataTable39_13
   \   0000003A   A1F80E08           STRH     R0,[R1, #+2062]
    654                         
    655                         if(KMap_Transmit_Count > 512)
   \   0000003E   ....               LDR.N    R0,??DataTable37_2
   \   00000040   0068               LDR      R0,[R0, #+0]
   \   00000042   B0F5007F           CMP      R0,#+512
   \   00000046   25D9               BLS.N    ??Wifi_Send_1
    656                         {
    657                              memset (Buffer, 0, sizeof(Buffer));
   \   00000048   4FF40072           MOV      R2,#+512
   \   0000004C   0021               MOVS     R1,#+0
   \   0000004E   ....               LDR.N    R0,??DataTable37_5
   \   00000050   ........           BL       memset
    658                              memcpy((char *)Buffer,&Tx_RFBuffer[ Trans_Count ] , 512);
   \   00000054   4FF40072           MOV      R2,#+512
   \   00000058   ........           LDR.W    R0,??DataTable39_18
   \   0000005C   0068               LDR      R0,[R0, #+0]
   \   0000005E   ....               LDR.N    R1,??DataTable37_26
   \   00000060   4118               ADDS     R1,R0,R1
   \   00000062   ....               LDR.N    R0,??DataTable37_5
   \   00000064   ........           BL       memcpy
    659                              puts_data(&RF_Module,(char *)Buffer, 512);
   \   00000068   4FF40072           MOV      R2,#+512
   \   0000006C   ....               LDR.N    R1,??DataTable37_5
   \   0000006E   ........           LDR.W    R0,??DataTable39_13
   \   00000072   ........           BL       puts_data
    660                              Trans_Count += 512;
   \   00000076   ........           LDR.W    R0,??DataTable39_18
   \   0000007A   0068               LDR      R0,[R0, #+0]
   \   0000007C   00F20020           ADDW     R0,R0,#+512
   \   00000080   ........           LDR.W    R1,??DataTable39_18
   \   00000084   0860               STR      R0,[R1, #+0]
    661                              KMap_Transmit_Count -= 512;
   \   00000086   ....               LDR.N    R0,??DataTable37_2
   \   00000088   0068               LDR      R0,[R0, #+0]
   \   0000008A   B0F50070           SUBS     R0,R0,#+512
   \   0000008E   ....               LDR.N    R1,??DataTable37_2
   \   00000090   0860               STR      R0,[R1, #+0]
   \   00000092   31E0               B.N      ??Wifi_Send_0
    662          //                    printf("%d\r\n",Trans_Count);
    663                         }
    664                         else
    665                         {
    666                              memset (Buffer, 0, sizeof(Buffer));
   \                     ??Wifi_Send_1:
   \   00000094   4FF40072           MOV      R2,#+512
   \   00000098   0021               MOVS     R1,#+0
   \   0000009A   ....               LDR.N    R0,??DataTable37_5
   \   0000009C   ........           BL       memset
    667                              memcpy((char *)Buffer,&Tx_RFBuffer[ Trans_Count ] , KMap_Transmit_Count);
   \   000000A0   ....               LDR.N    R0,??DataTable37_2
   \   000000A2   0268               LDR      R2,[R0, #+0]
   \   000000A4   ........           LDR.W    R0,??DataTable39_18
   \   000000A8   0068               LDR      R0,[R0, #+0]
   \   000000AA   ....               LDR.N    R1,??DataTable37_26
   \   000000AC   4118               ADDS     R1,R0,R1
   \   000000AE   ....               LDR.N    R0,??DataTable37_5
   \   000000B0   ........           BL       memcpy
    668                              puts_data(&RF_Module,(char *)Buffer , KMap_Transmit_Count);
   \   000000B4   ....               LDR.N    R0,??DataTable37_2
   \   000000B6   0268               LDR      R2,[R0, #+0]
   \   000000B8   ....               LDR.N    R1,??DataTable37_5
   \   000000BA   ........           LDR.W    R0,??DataTable39_13
   \   000000BE   ........           BL       puts_data
    669                              Trans_Count += KMap_Transmit_Count;
   \   000000C2   ........           LDR.W    R0,??DataTable39_18
   \   000000C6   0068               LDR      R0,[R0, #+0]
   \   000000C8   ....               LDR.N    R1,??DataTable37_2
   \   000000CA   0968               LDR      R1,[R1, #+0]
   \   000000CC   0818               ADDS     R0,R1,R0
   \   000000CE   ........           LDR.W    R1,??DataTable39_18
   \   000000D2   0860               STR      R0,[R1, #+0]
    670                              Trans_Count = 0;
   \   000000D4   ........           LDR.W    R0,??DataTable39_18
   \   000000D8   0021               MOVS     R1,#+0
   \   000000DA   0160               STR      R1,[R0, #+0]
    671                              KMap_Transmit_Count = 0 ;
   \   000000DC   ....               LDR.N    R0,??DataTable37_2
   \   000000DE   0021               MOVS     R1,#+0
   \   000000E0   0160               STR      R1,[R0, #+0]
    672                              Wifi_Send_Result = WIFI_WAIT;           // 전송하고 기다리기
   \   000000E2   ........           LDR.W    R0,??DataTable39_15
   \   000000E6   0221               MOVS     R1,#+2
   \   000000E8   0170               STRB     R1,[R0, #+0]
    673                              ReSend_Timer = MS_TIMER;
   \   000000EA   ........           LDR.W    R0,??DataTable39_6  ;; 0x40000c00
   \   000000EE   ........           BL       TIM_GetCounter
   \   000000F2   ........           LDR.W    R1,??DataTable39_19
   \   000000F6   0880               STRH     R0,[R1, #+0]
    674          
    675          //                    printf("%d:%d:%d:%04d  Trans Complete \r\n",SYSTEM_TIME.tm_hour,SYSTEM_TIME.tm_min,SYSTEM_TIME.tm_sec, m_sec); 
    676                         }
    677                    }
    678               }
    679               // ---------- 전송을 완료 했는데 응답이 없다면
    680               if(Wifi_Send_Result == WIFI_WAIT)                      // 
   \                     ??Wifi_Send_0:
   \   000000F8   ........           LDR.W    R0,??DataTable39_15
   \   000000FC   0078               LDRB     R0,[R0, #+0]
   \   000000FE   0228               CMP      R0,#+2
   \   00000100   0CD1               BNE.N    ??Wifi_Send_2
    681               {
    682                    if(!CheckTimeOver(5000,ReSend_Timer))        // 기다리는데 응답이 없다면
   \   00000102   ........           LDR.W    R0,??DataTable39_19
   \   00000106   0188               LDRH     R1,[R0, #+0]
   \   00000108   41F28830           MOVW     R0,#+5000
   \   0000010C   ........           BL       CheckTimeOver
   \   00000110   0028               CMP      R0,#+0
   \   00000112   03D0               BEQ.N    ??Wifi_Send_3
    683                         return;
    684                    Wifi_Send_Result = WIFI_TIME_OUT;          
   \                     ??Wifi_Send_4:
   \   00000114   ........           LDR.W    R0,??DataTable39_15
   \   00000118   0421               MOVS     R1,#+4
   \   0000011A   0170               STRB     R1,[R0, #+0]
    685               }
    686          }
   \                     ??Wifi_Send_2:
   \                     ??Wifi_Send_3:
   \   0000011C   01BD               POP      {R0,PC}          ;; return

   \                                 In section .bss, align 4
   \                     ??Trans_Count:
   \   00000000                      DS8 4

   \                                 In section .bss, align 2
   \                     ??ReSend_Timer:
   \   00000000                      DS8 2
    687          

   \                                 In section .text, align 2, keep-with-next
    688          void RF_Communcation(void)
    689          {
   \                     RF_Communcation:
   \   00000000   10B5               PUSH     {R4,LR}
    690               u8 data;
    691               static u16 Rx_StartPoint = 0;
    692               static u16 Wait_Timer = 0;
    693               static u8 FirstReceive =0 ;
    694               u32 Answer;
    695               u32 Length;
    696          
    697               if(RF_Module.rxsp != RF_Module.rxep)
   \   00000002   ........           LDR.W    R0,??DataTable39_13
   \   00000006   B0F80004           LDRH     R0,[R0, #+1024]
   \   0000000A   ........           LDR.W    R1,??DataTable39_13
   \   0000000E   B1F80214           LDRH     R1,[R1, #+1026]
   \   00000012   8842               CMP      R0,R1
   \   00000014   74D0               BEQ.N    ??RF_Communcation_0
    698               {
    699                    data = RF_Module.rxbuf[RF_Module.rxsp++];
   \   00000016   ........           LDR.W    R0,??DataTable39_13
   \   0000001A   B0F80004           LDRH     R0,[R0, #+1024]
   \   0000001E   ........           LDR.W    R1,??DataTable39_13
   \   00000022   445C               LDRB     R4,[R0, R1]
   \   00000024   ........           LDR.W    R0,??DataTable39_13
   \   00000028   B0F80004           LDRH     R0,[R0, #+1024]
   \   0000002C   401C               ADDS     R0,R0,#+1
   \   0000002E   ........           LDR.W    R1,??DataTable39_13
   \   00000032   A1F80004           STRH     R0,[R1, #+1024]
    700                    
    701                    if(WIFI_TestMode == 1)        // PC와 직접 통신모드
   \   00000036   ........           LDR.W    R0,??DataTable39_10
   \   0000003A   0078               LDRB     R0,[R0, #+0]
   \   0000003C   0128               CMP      R0,#+1
   \   0000003E   05D1               BNE.N    ??RF_Communcation_1
    702                    {                
    703                         printf("%c",data);                 
   \   00000040   E4B2               UXTB     R4,R4            ;; ZeroExt  R4,R4,#+24,#+24
   \   00000042   2100               MOVS     R1,R4
   \   00000044   ....               ADR.N    R0,??DataTable38  ;; 0x25, 0x63, 0x00, 0x00
   \   00000046   ........           BL       printf
   \   0000004A   4DE0               B.N      ??RF_Communcation_2
    704                    }
    705                    else 
    706                    {
    707                         if(IsTCP_Connect() == 0)      // 서버에 접속되어 있지 않다면   
   \                     ??RF_Communcation_1:
   \   0000004C   ........           BL       IsTCP_Connect
   \   00000050   0028               CMP      R0,#+0
   \   00000052   10D1               BNE.N    ??RF_Communcation_3
    708                         {
    709                              if(FirstReceive == 0)
   \   00000054   ........           LDR.W    R0,??DataTable39_20
   \   00000058   0078               LDRB     R0,[R0, #+0]
   \   0000005A   0028               CMP      R0,#+0
   \   0000005C   25D1               BNE.N    ??RF_Communcation_4
    710                              {
    711                                   FirstReceive = 1;
   \   0000005E   ........           LDR.W    R0,??DataTable39_20
   \   00000062   0121               MOVS     R1,#+1
   \   00000064   0170               STRB     R1,[R0, #+0]
    712                                   Wait_Timer = MS_TIMER;        // 처음 수신을 받으면 1초간 대기
   \   00000066   ........           LDR.W    R0,??DataTable39_6  ;; 0x40000c00
   \   0000006A   ........           BL       TIM_GetCounter
   \   0000006E   ........           LDR.W    R1,??DataTable39_21
   \   00000072   0880               STRH     R0,[R1, #+0]
   \   00000074   19E0               B.N      ??RF_Communcation_4
    713                              } 
    714                         }
    715                         else if( data == 0x0a )       // 전문이 완료
   \                     ??RF_Communcation_3:
   \   00000076   E4B2               UXTB     R4,R4            ;; ZeroExt  R4,R4,#+24,#+24
   \   00000078   0A2C               CMP      R4,#+10
   \   0000007A   16D1               BNE.N    ??RF_Communcation_4
    716                         { 
    717                              if( strstr( ( char * ) Rx_RFBuffer, "[OK]" ) != NULL )
   \   0000007C   ........           ADR.W    R1,`?<Constant "[OK]">`
   \   00000080   ........           LDR.W    R0,??DataTable39_22
   \   00000084   ........           BL       strstr
   \   00000088   0028               CMP      R0,#+0
   \   0000008A   03D0               BEQ.N    ??RF_Communcation_5
    718                              {
    719                                   Wifi_OK = 1;
   \   0000008C   ........           LDR.W    R0,??DataTable39_14
   \   00000090   0121               MOVS     R1,#+1
   \   00000092   0170               STRB     R1,[R0, #+0]
    720                              }
    721                              Rx_RFCount = 0;
   \                     ??RF_Communcation_5:
   \   00000094   ........           LDR.W    R0,??DataTable39_23
   \   00000098   0021               MOVS     R1,#+0
   \   0000009A   0180               STRH     R1,[R0, #+0]
    722                              memset( Rx_RFBuffer, 0, sizeof(Rx_RFBuffer) );               
   \   0000009C   4FF4FA72           MOV      R2,#+500
   \   000000A0   0021               MOVS     R1,#+0
   \   000000A2   ........           LDR.W    R0,??DataTable39_22
   \   000000A6   ........           BL       memset
    723                         }
    724                         
    725                         Rx_RFBuffer[Rx_RFCount++] = data;
   \                     ??RF_Communcation_4:
   \   000000AA   ........           LDR.W    R0,??DataTable39_23
   \   000000AE   0088               LDRH     R0,[R0, #+0]
   \   000000B0   ........           LDR.W    R1,??DataTable39_22
   \   000000B4   4454               STRB     R4,[R0, R1]
   \   000000B6   ........           LDR.W    R0,??DataTable39_23
   \   000000BA   0088               LDRH     R0,[R0, #+0]
   \   000000BC   401C               ADDS     R0,R0,#+1
   \   000000BE   ........           LDR.W    R1,??DataTable39_23
   \   000000C2   0880               STRH     R0,[R1, #+0]
    726                         Rx_RFBuffer[Rx_RFCount] = 0;               
   \   000000C4   ........           LDR.W    R0,??DataTable39_23
   \   000000C8   0088               LDRH     R0,[R0, #+0]
   \   000000CA   ........           LDR.W    R1,??DataTable39_22
   \   000000CE   0022               MOVS     R2,#+0
   \   000000D0   4254               STRB     R2,[R0, R1]
    727                         
    728                         if(Rx_RFCount > 500)          // 오버플로어
   \   000000D2   ........           LDR.W    R0,??DataTable39_23
   \   000000D6   0088               LDRH     R0,[R0, #+0]
   \   000000D8   40F2F511           MOVW     R1,#+501
   \   000000DC   8842               CMP      R0,R1
   \   000000DE   03D3               BCC.N    ??RF_Communcation_2
    729                              Rx_RFCount = 0;
   \   000000E0   ........           LDR.W    R0,??DataTable39_23
   \   000000E4   0021               MOVS     R1,#+0
   \   000000E6   0180               STRH     R1,[R0, #+0]
    730                         
    731                    }
    732                    if(RF_Module.rxsp >= MAX_SERIAL_BUF)   RF_Module.rxsp = 0 ;                
   \                     ??RF_Communcation_2:
   \   000000E8   ........           LDR.W    R0,??DataTable39_13
   \   000000EC   B0F80004           LDRH     R0,[R0, #+1024]
   \   000000F0   B0F5806F           CMP      R0,#+1024
   \   000000F4   04D3               BCC.N    ??RF_Communcation_0
   \   000000F6   ........           LDR.W    R0,??DataTable39_13
   \   000000FA   0021               MOVS     R1,#+0
   \   000000FC   A0F80014           STRH     R1,[R0, #+1024]
    733               }     
    734               if(!CheckTimeOver(1000,Wait_Timer))       // 없을 경우 
   \                     ??RF_Communcation_0:
   \   00000100   ........           LDR.W    R0,??DataTable39_21
   \   00000104   0188               LDRH     R1,[R0, #+0]
   \   00000106   4FF47A70           MOV      R0,#+1000
   \   0000010A   ........           BL       CheckTimeOver
   \   0000010E   0028               CMP      R0,#+0
   \   00000110   24D0               BEQ.N    ??RF_Communcation_6
    735                    return;     
    736               if( FirstReceive == 1 )
   \                     ??RF_Communcation_7:
   \   00000112   ........           LDR.W    R0,??DataTable39_20
   \   00000116   0078               LDRB     R0,[R0, #+0]
   \   00000118   0128               CMP      R0,#+1
   \   0000011A   1FD1               BNE.N    ??RF_Communcation_8
    737               {
    738                    if( Rx_RFCount >= sizeof(Protocol_Rev))      // 수신된 데이터가 
   \   0000011C   ........           LDR.W    R0,??DataTable39_23
   \   00000120   0088               LDRH     R0,[R0, #+0]
   \   00000122   5428               CMP      R0,#+84
   \   00000124   22D2               BCS.N    ??RF_Communcation_9
    739                    {
    740                         while(1)
    741                         {
    742                              if(Rx_StartPoint == Rx_RFCount)
    743                              {
    744                                   Wifi_Send_Result = WIFI_ERROR_RESEND;
    745                                   Rx_RFCount = 0;
    746                                   Rx_StartPoint = 0;
    747                                   memset( Rx_RFBuffer, 0, sizeof(Rx_RFBuffer) );  
    748                                   return ; 
    749                              }
    750                              memcpy( &Protocol_Rev, &Rx_RFBuffer[Rx_StartPoint],sizeof(Protocol_Rev) );
    751                              Length = ConvertInteger (Protocol_Rev.PacketSize);
    752                              if( Length >= 80)
    753                              {
    754                                   //                              memcpy( &Protocol_Rev, &Rx_RFBuffer[Rx_StartPoint],sizeof(Protocol_Rev) );
    755                                   if(Protocol_Rev.ServiceID[2] == 0x0f && Protocol_Rev.ServiceID[3] == 0xa1)
    756                                   {
    757                                        if(Protocol_Rev.Message.Parameter4.Name[0] == 'R' && Protocol_Rev.Message.Parameter4.Name[2] == 'S')
    758                                        {
    759                                             Answer = ConvertInteger(Protocol_Rev.Message.Parameter4.Result);
    760                                             if(Answer == 0 || Answer == 101)
    761                                             {
    762                                                  FirstReceive = 0;
    763                                                  Rx_StartPoint = 0;
    764                                                  Wifi_Send_Result = WIFI_SEND_OK;// 수신 완료 메세지
    765          
    766                                                  Voice_OutAdd(VOICE_STARTOVER);
    767                                                  Rx_RFCount = 0;               // 버퍼 클리어
    768                                                  memset( Rx_RFBuffer, 0, sizeof(Rx_RFBuffer) );        
    769                                                  return ;
    770                                             }
    771                                             else              // 서버 처리 끝나면 추가
    772                                             {
    773                                                  Wifi_Send_Result = WIFI_ERROR_RESEND;// 수신 완료 메세지
    774          //                                        NAND_Data_Transmit.Start_Page++;        // 다음페이지 저농
    775                                                  Rx_RFCount = 0;               // 버퍼 클리어
    776                                                  Rx_StartPoint = 0;
    777                                                  memset( Rx_RFBuffer, 0, sizeof(Rx_RFBuffer) );  
    778                                                  return;
    779                                             }
    780                                        }
    781                                   }
    782                              }
    783                              Rx_StartPoint++;                    
    784                         }         // end of while
    785                    }
    786                    else      // 정상 패킷보다 작다면 클리어 시킨다.
    787                    {
    788                         Wifi_Send_Result = WIFI_ERROR_RESEND;
   \   00000126   ........           LDR.W    R0,??DataTable39_15
   \   0000012A   0321               MOVS     R1,#+3
   \   0000012C   0170               STRB     R1,[R0, #+0]
    789                         FirstReceive = 0;
   \   0000012E   ........           LDR.W    R0,??DataTable39_20
   \   00000132   0021               MOVS     R1,#+0
   \   00000134   0170               STRB     R1,[R0, #+0]
    790                         Rx_RFCount = 0;
   \   00000136   ........           LDR.W    R0,??DataTable39_23
   \   0000013A   0021               MOVS     R1,#+0
   \   0000013C   0180               STRH     R1,[R0, #+0]
    791                         Rx_StartPoint = 0;
   \   0000013E   ........           LDR.W    R0,??DataTable39_24
   \   00000142   0021               MOVS     R1,#+0
   \   00000144   0180               STRH     R1,[R0, #+0]
    792                         memset( Rx_RFBuffer, 0, sizeof(Rx_RFBuffer) );                 
   \   00000146   4FF4FA72           MOV      R2,#+500
   \   0000014A   0021               MOVS     R1,#+0
   \   0000014C   ........           LDR.W    R0,??DataTable39_22
   \   00000150   ........           BL       memset
    793                    }
    794                    FirstReceive = 0;
   \   00000154   ........           LDR.W    R0,??DataTable39_20
   \   00000158   0021               MOVS     R1,#+0
   \   0000015A   0170               STRB     R1,[R0, #+0]
    795               }
    796          }
   \                     ??RF_Communcation_8:
   \                     ??RF_Communcation_6:
   \   0000015C   10BD               POP      {R4,PC}          ;; return
   \                     ??RF_Communcation_10:
   \   0000015E   ........           LDR.W    R0,??DataTable39_24
   \   00000162   0088               LDRH     R0,[R0, #+0]
   \   00000164   401C               ADDS     R0,R0,#+1
   \   00000166   ........           LDR.W    R1,??DataTable39_24
   \   0000016A   0880               STRH     R0,[R1, #+0]
   \                     ??RF_Communcation_9:
   \   0000016C   ........           LDR.W    R0,??DataTable39_24
   \   00000170   0088               LDRH     R0,[R0, #+0]
   \   00000172   ....               LDR.N    R1,??DataTable39_23
   \   00000174   0988               LDRH     R1,[R1, #+0]
   \   00000176   8842               CMP      R0,R1
   \   00000178   0FD1               BNE.N    ??RF_Communcation_11
   \   0000017A   ....               LDR.N    R0,??DataTable39_15
   \   0000017C   0321               MOVS     R1,#+3
   \   0000017E   0170               STRB     R1,[R0, #+0]
   \   00000180   ....               LDR.N    R0,??DataTable39_23
   \   00000182   0021               MOVS     R1,#+0
   \   00000184   0180               STRH     R1,[R0, #+0]
   \   00000186   ....               LDR.N    R0,??DataTable39_24
   \   00000188   0021               MOVS     R1,#+0
   \   0000018A   0180               STRH     R1,[R0, #+0]
   \   0000018C   4FF4FA72           MOV      R2,#+500
   \   00000190   0021               MOVS     R1,#+0
   \   00000192   ....               LDR.N    R0,??DataTable39_22
   \   00000194   ........           BL       memset
   \   00000198   E0E7               B.N      ??RF_Communcation_6
   \                     ??RF_Communcation_11:
   \   0000019A   5422               MOVS     R2,#+84
   \   0000019C   ....               LDR.N    R0,??DataTable39_24
   \   0000019E   0088               LDRH     R0,[R0, #+0]
   \   000001A0   ....               LDR.N    R1,??DataTable39_22
   \   000001A2   4118               ADDS     R1,R0,R1
   \   000001A4   ....               LDR.N    R0,??DataTable39_25
   \   000001A6   ........           BL       memcpy
   \   000001AA   ....               LDR.N    R0,??DataTable39_25
   \   000001AC   ........           BL       ConvertInteger
   \   000001B0   5028               CMP      R0,#+80
   \   000001B2   D4D3               BCC.N    ??RF_Communcation_10
   \   000001B4   ....               LDR.N    R0,??DataTable39_25
   \   000001B6   90F82700           LDRB     R0,[R0, #+39]
   \   000001BA   0F28               CMP      R0,#+15
   \   000001BC   CFD1               BNE.N    ??RF_Communcation_10
   \   000001BE   ....               LDR.N    R0,??DataTable39_25
   \   000001C0   90F82800           LDRB     R0,[R0, #+40]
   \   000001C4   A128               CMP      R0,#+161
   \   000001C6   CAD1               BNE.N    ??RF_Communcation_10
   \   000001C8   ....               LDR.N    R0,??DataTable39_25
   \   000001CA   90F84500           LDRB     R0,[R0, #+69]
   \   000001CE   5228               CMP      R0,#+82
   \   000001D0   C5D1               BNE.N    ??RF_Communcation_10
   \   000001D2   ....               LDR.N    R0,??DataTable39_25
   \   000001D4   90F84700           LDRB     R0,[R0, #+71]
   \   000001D8   5328               CMP      R0,#+83
   \   000001DA   C0D1               BNE.N    ??RF_Communcation_10
   \   000001DC   ....               LDR.N    R0,??DataTable39_26
   \   000001DE   ........           BL       ConvertInteger
   \   000001E2   0028               CMP      R0,#+0
   \   000001E4   01D0               BEQ.N    ??RF_Communcation_12
   \   000001E6   6528               CMP      R0,#+101
   \   000001E8   15D1               BNE.N    ??RF_Communcation_13
   \                     ??RF_Communcation_12:
   \   000001EA   ....               LDR.N    R0,??DataTable39_20
   \   000001EC   0021               MOVS     R1,#+0
   \   000001EE   0170               STRB     R1,[R0, #+0]
   \   000001F0   ....               LDR.N    R0,??DataTable39_24
   \   000001F2   0021               MOVS     R1,#+0
   \   000001F4   0180               STRH     R1,[R0, #+0]
   \   000001F6   ....               LDR.N    R0,??DataTable39_15
   \   000001F8   0521               MOVS     R1,#+5
   \   000001FA   0170               STRB     R1,[R0, #+0]
   \   000001FC   0920               MOVS     R0,#+9
   \   000001FE   ........           BL       Voice_OutAdd
   \   00000202   ....               LDR.N    R0,??DataTable39_23
   \   00000204   0021               MOVS     R1,#+0
   \   00000206   0180               STRH     R1,[R0, #+0]
   \   00000208   4FF4FA72           MOV      R2,#+500
   \   0000020C   0021               MOVS     R1,#+0
   \   0000020E   ....               LDR.N    R0,??DataTable39_22
   \   00000210   ........           BL       memset
   \   00000214   A2E7               B.N      ??RF_Communcation_6
   \                     ??RF_Communcation_13:
   \   00000216   ....               LDR.N    R0,??DataTable39_15
   \   00000218   0321               MOVS     R1,#+3
   \   0000021A   0170               STRB     R1,[R0, #+0]
   \   0000021C   ....               LDR.N    R0,??DataTable39_23
   \   0000021E   0021               MOVS     R1,#+0
   \   00000220   0180               STRH     R1,[R0, #+0]
   \   00000222   ....               LDR.N    R0,??DataTable39_24
   \   00000224   0021               MOVS     R1,#+0
   \   00000226   0180               STRH     R1,[R0, #+0]
   \   00000228   4FF4FA72           MOV      R2,#+500
   \   0000022C   0021               MOVS     R1,#+0
   \   0000022E   ....               LDR.N    R0,??DataTable39_22
   \   00000230   ........           BL       memset
   \   00000234   92E7               B.N      ??RF_Communcation_6

   \                                 In section .bss, align 2
   \                     ??Rx_StartPoint:
   \   00000000                      DS8 2

   \                                 In section .bss, align 2
   \                     ??Wait_Timer:
   \   00000000                      DS8 2

   \                                 In section .bss, align 1
   \                     ??FirstReceive:
   \   00000000                      DS8 1

   \                                 In section .text, align 2, keep-with-next
    797          void Wifi_ProfileSetting(void)          // Wifi 세팅 완료하기
    798          {
   \                     Wifi_ProfileSetting:
   \   00000000   00B5               PUSH     {LR}
   \   00000002   8BB0               SUB      SP,SP,#+44
    799          	const int Message[10] = {0,4,5,6,7,8,9,10,11,12};     
   \   00000004   01A8               ADD      R0,SP,#+4
   \   00000006   ........           ADR.W    R1,`?<Constant {0, 4, 5, 6, 7, 8, 9, 10, 11, 12}>`
   \   0000000A   2822               MOVS     R2,#+40
   \   0000000C   ........           BL       __aeabi_memcpy4
    800               static u8 Setting_Step = 0;
    801               static WIFI_PROFILE Save_Step = WIFI_SAVE_INIT;
    802               static u8 WaitTimeCount = 0;
    803          
    804               static u8 Connectting_Count = 0 ;
    805               
    806               WaitTimeCount++;
   \   00000010   ....               LDR.N    R0,??DataTable39_27
   \   00000012   0078               LDRB     R0,[R0, #+0]
   \   00000014   401C               ADDS     R0,R0,#+1
   \   00000016   ....               LDR.N    R1,??DataTable39_27
   \   00000018   0870               STRB     R0,[R1, #+0]
    807               if(Connectting_Count > 5)                // 5회이상 검사시 에러발생한다면
   \   0000001A   ....               LDR.N    R0,??DataTable39_28
   \   0000001C   0078               LDRB     R0,[R0, #+0]
   \   0000001E   0628               CMP      R0,#+6
   \   00000020   0ED3               BCC.N    ??Wifi_ProfileSetting_0
    808               {          
    809                    Wifi_Reset();
   \   00000022   ........           BL       Wifi_Reset
    810                    Input_Mode = 4;
   \   00000026   ....               LDR.N    R0,??DataTable39_29
   \   00000028   0421               MOVS     R1,#+4
   \   0000002A   0170               STRB     R1,[R0, #+0]
    811                    Flag.Wifi_Check = 0;                    // 응답을 기다린다.
   \   0000002C   ....               LDR.N    R0,??DataTable39_7
   \   0000002E   0021               MOVS     R1,#+0
   \   00000030   0171               STRB     R1,[R0, #+4]
    812                    Flag.Wifi_SettingFlag = 0;          
   \   00000032   ....               LDR.N    R0,??DataTable39_7
   \   00000034   0021               MOVS     R1,#+0
   \   00000036   8173               STRB     R1,[R0, #+14]
    813                    Connectting_Count = 0;
   \   00000038   ....               LDR.N    R0,??DataTable39_28
   \   0000003A   0021               MOVS     R1,#+0
   \   0000003C   0170               STRB     R1,[R0, #+0]
    814                    return;                                 // 더이상 검사하지 않는다.
   \   0000003E   C5E0               B.N      ??Wifi_ProfileSetting_1
    815               }
    816               switch( Save_Step )              
   \                     ??Wifi_ProfileSetting_0:
   \   00000040   ....               LDR.N    R0,??DataTable39_30
   \   00000042   0078               LDRB     R0,[R0, #+0]
   \   00000044   0028               CMP      R0,#+0
   \   00000046   08D0               BEQ.N    ??Wifi_ProfileSetting_2
   \   00000048   0228               CMP      R0,#+2
   \   0000004A   39D0               BEQ.N    ??Wifi_ProfileSetting_3
   \   0000004C   1BD3               BCC.N    ??Wifi_ProfileSetting_4
   \   0000004E   0428               CMP      R0,#+4
   \   00000050   00F0B080           BEQ.W    ??Wifi_ProfileSetting_5
   \   00000054   C0F08A80           BCC.W    ??Wifi_ProfileSetting_6
   \   00000058   B8E0               B.N      ??Wifi_ProfileSetting_7
    817               {     
    818               case WIFI_SAVE_INIT:        // 와이파이가 초기 접속 테스트
    819                    {
    820                         puts_string(&RF_Module, (char*)Wifi_SettingString[0]);      // [AT] AT 접속 확인
   \                     ??Wifi_ProfileSetting_2:
   \   0000005A   ....               LDR.N    R0,??DataTable39_12
   \   0000005C   0168               LDR      R1,[R0, #+0]
   \   0000005E   ....               LDR.N    R0,??DataTable39_13
   \   00000060   ........           BL       puts_string
    821                         puts_string(&RF_Module, (char*)Wifi_SettingString[1]);      // [+++] Command 모드 확인
   \   00000064   ....               LDR.N    R0,??DataTable39_12
   \   00000066   4168               LDR      R1,[R0, #+4]
   \   00000068   ....               LDR.N    R0,??DataTable39_13
   \   0000006A   ........           BL       puts_string
    822                         
    823                         WaitTimeCount = 0;                      // 재접속 시간 클리어
   \   0000006E   ....               LDR.N    R0,??DataTable39_27
   \   00000070   0021               MOVS     R1,#+0
   \   00000072   0170               STRB     R1,[R0, #+0]
    824                         Connectting_Count ++;                   // 접속 횟수 체크
   \   00000074   ....               LDR.N    R0,??DataTable39_28
   \   00000076   0078               LDRB     R0,[R0, #+0]
   \   00000078   401C               ADDS     R0,R0,#+1
   \   0000007A   ....               LDR.N    R1,??DataTable39_28
   \   0000007C   0870               STRB     R0,[R1, #+0]
    825                         Save_Step = WIFI_SAVE_INIT_WAIT;
   \   0000007E   ....               LDR.N    R0,??DataTable39_30
   \   00000080   0121               MOVS     R1,#+1
   \   00000082   0170               STRB     R1,[R0, #+0]
    826                    }break;
   \   00000084   A2E0               B.N      ??Wifi_ProfileSetting_7
    827               case WIFI_SAVE_INIT_WAIT:       // 5 초간 대기 후에 접속한다.
    828                    {
    829                         if(Wifi_OK == 1)
   \                     ??Wifi_ProfileSetting_4:
   \   00000086   ....               LDR.N    R0,??DataTable39_14
   \   00000088   0078               LDRB     R0,[R0, #+0]
   \   0000008A   0128               CMP      R0,#+1
   \   0000008C   0ED1               BNE.N    ??Wifi_ProfileSetting_8
    830                         {
    831                              Save_Step = WIFI_SETTING;
   \   0000008E   ....               LDR.N    R0,??DataTable39_30
   \   00000090   0221               MOVS     R1,#+2
   \   00000092   0170               STRB     R1,[R0, #+0]
    832                              Connectting_Count = 0;
   \   00000094   ....               LDR.N    R0,??DataTable39_28
   \   00000096   0021               MOVS     R1,#+0
   \   00000098   0170               STRB     R1,[R0, #+0]
    833                              Flag.Wifi_Check = 1;                    // 응답을 기다린다.
   \   0000009A   ....               LDR.N    R0,??DataTable39_7
   \   0000009C   0121               MOVS     R1,#+1
   \   0000009E   0171               STRB     R1,[R0, #+4]
    834                              WaitTimeCount = 0;                      // 재접속 시간 클리어   
   \   000000A0   ....               LDR.N    R0,??DataTable39_27
   \   000000A2   0021               MOVS     R1,#+0
   \   000000A4   0170               STRB     R1,[R0, #+0]
    835                              Setting_Step = 1;
   \   000000A6   ....               LDR.N    R0,??DataTable39_31
   \   000000A8   0121               MOVS     R1,#+1
   \   000000AA   0170               STRB     R1,[R0, #+0]
    836                         }
    837                         if( WaitTimeCount > 10)
   \                     ??Wifi_ProfileSetting_8:
   \   000000AC   ....               LDR.N    R0,??DataTable39_27
   \   000000AE   0078               LDRB     R0,[R0, #+0]
   \   000000B0   0B28               CMP      R0,#+11
   \   000000B2   04D3               BCC.N    ??Wifi_ProfileSetting_9
    838                         {
    839                              Save_Step = WIFI_SAVE_INIT;
   \   000000B4   ....               LDR.N    R0,??DataTable39_30
   \   000000B6   0021               MOVS     R1,#+0
   \   000000B8   0170               STRB     R1,[R0, #+0]
    840                              Wifi_Reset();    
   \   000000BA   ........           BL       Wifi_Reset
    841                         }
    842                    }break;
   \                     ??Wifi_ProfileSetting_9:
   \   000000BE   85E0               B.N      ??Wifi_ProfileSetting_7
    843               case WIFI_SETTING:         // 와이파이가 정상적으로 삽입 된 상태
    844                    {
    845                         if(Setting_Step == 6)
   \                     ??Wifi_ProfileSetting_3:
   \   000000C0   ....               LDR.N    R0,??DataTable39_31
   \   000000C2   0078               LDRB     R0,[R0, #+0]
   \   000000C4   0628               CMP      R0,#+6
   \   000000C6   14D1               BNE.N    ??Wifi_ProfileSetting_10
    846                         {
    847                              sprintf((char*)Buffer,"%s%s,%s\r",Wifi_SettingString[Message[Setting_Step]],SFLASH_Wifi.ServerIP,SFLASH_Wifi.ServerPort  );
   \   000000C8   ....               LDR.N    R0,??DataTable39_32
   \   000000CA   0090               STR      R0,[SP, #+0]
   \   000000CC   ....               LDR.N    R3,??DataTable39_33
   \   000000CE   ....               LDR.N    R0,??DataTable39_31
   \   000000D0   0078               LDRB     R0,[R0, #+0]
   \   000000D2   01A9               ADD      R1,SP,#+4
   \   000000D4   51F82000           LDR      R0,[R1, R0, LSL #+2]
   \   000000D8   ....               LDR.N    R1,??DataTable39_12
   \   000000DA   51F82020           LDR      R2,[R1, R0, LSL #+2]
   \   000000DE   ........           ADR.W    R1,`?<Constant "%s%s,%s\\r">`
   \   000000E2   ....               LDR.N    R0,??DataTable39_34
   \   000000E4   ........           BL       sprintf
    848                              puts_string(&RF_Module,(char *)Buffer);      // AT 접속 확인                        
   \   000000E8   ....               LDR.N    R1,??DataTable39_34
   \   000000EA   ....               LDR.N    R0,??DataTable39_13
   \   000000EC   ........           BL       puts_string
   \   000000F0   38E0               B.N      ??Wifi_ProfileSetting_11
    849                         }else if (Setting_Step == 7)
   \                     ??Wifi_ProfileSetting_10:
   \   000000F2   ....               LDR.N    R0,??DataTable39_31
   \   000000F4   0078               LDRB     R0,[R0, #+0]
   \   000000F6   0728               CMP      R0,#+7
   \   000000F8   12D1               BNE.N    ??Wifi_ProfileSetting_12
    850                         {
    851                              sprintf((char*)Buffer,"%s%s\r",Wifi_SettingString[Message[Setting_Step]],SFLASH_Wifi.SSID);
   \   000000FA   ....               LDR.N    R3,??DataTable39_35
   \   000000FC   ....               LDR.N    R0,??DataTable39_31
   \   000000FE   0078               LDRB     R0,[R0, #+0]
   \   00000100   01A9               ADD      R1,SP,#+4
   \   00000102   51F82000           LDR      R0,[R1, R0, LSL #+2]
   \   00000106   ....               LDR.N    R1,??DataTable39_12
   \   00000108   51F82020           LDR      R2,[R1, R0, LSL #+2]
   \   0000010C   ........           ADR.W    R1,`?<Constant "%s%s\\r">`
   \   00000110   ....               LDR.N    R0,??DataTable39_34
   \   00000112   ........           BL       sprintf
    852                              puts_string(&RF_Module,(char *)Buffer);      // AT 접속 확인                        
   \   00000116   ....               LDR.N    R1,??DataTable39_34
   \   00000118   ....               LDR.N    R0,??DataTable39_13
   \   0000011A   ........           BL       puts_string
   \   0000011E   21E0               B.N      ??Wifi_ProfileSetting_11
    853                         }else if (Setting_Step == 8)
   \                     ??Wifi_ProfileSetting_12:
   \   00000120   ....               LDR.N    R0,??DataTable39_31
   \   00000122   0078               LDRB     R0,[R0, #+0]
   \   00000124   0828               CMP      R0,#+8
   \   00000126   12D1               BNE.N    ??Wifi_ProfileSetting_13
    854                         {
    855                              sprintf((char*)Buffer,"%s%s\r",Wifi_SettingString[Message[Setting_Step]],SFLASH_Wifi.WWPA);
   \   00000128   ....               LDR.N    R3,??DataTable39_36
   \   0000012A   ....               LDR.N    R0,??DataTable39_31
   \   0000012C   0078               LDRB     R0,[R0, #+0]
   \   0000012E   01A9               ADD      R1,SP,#+4
   \   00000130   51F82000           LDR      R0,[R1, R0, LSL #+2]
   \   00000134   ....               LDR.N    R1,??DataTable39_12
   \   00000136   51F82020           LDR      R2,[R1, R0, LSL #+2]
   \   0000013A   ........           ADR.W    R1,`?<Constant "%s%s\\r">`
   \   0000013E   ....               LDR.N    R0,??DataTable39_34
   \   00000140   ........           BL       sprintf
    856                              puts_string(&RF_Module,(char *)Buffer);      // AT 접속 확인                             
   \   00000144   ....               LDR.N    R1,??DataTable39_34
   \   00000146   ....               LDR.N    R0,??DataTable39_13
   \   00000148   ........           BL       puts_string
   \   0000014C   0AE0               B.N      ??Wifi_ProfileSetting_11
    857                         }else
    858                         {
    859                              puts_string(&RF_Module, (char*)Wifi_SettingString[Message[Setting_Step]]);      // AT 접속 확인    
   \                     ??Wifi_ProfileSetting_13:
   \   0000014E   ....               LDR.N    R0,??DataTable39_31
   \   00000150   0078               LDRB     R0,[R0, #+0]
   \   00000152   01A9               ADD      R1,SP,#+4
   \   00000154   51F82000           LDR      R0,[R1, R0, LSL #+2]
   \   00000158   ....               LDR.N    R1,??DataTable39_12
   \   0000015A   51F82010           LDR      R1,[R1, R0, LSL #+2]
   \   0000015E   ....               LDR.N    R0,??DataTable39_13
   \   00000160   ........           BL       puts_string
    860                         }
    861                         Save_Step = WIFI_SETTING_WAIT;
   \                     ??Wifi_ProfileSetting_11:
   \   00000164   ....               LDR.N    R0,??DataTable39_30
   \   00000166   0321               MOVS     R1,#+3
   \   00000168   0170               STRB     R1,[R0, #+0]
    862                    }break;
   \   0000016A   2FE0               B.N      ??Wifi_ProfileSetting_7
    863               case WIFI_SETTING_WAIT:
    864                    {
    865                         if( Wifi_OK == 1 )
   \                     ??Wifi_ProfileSetting_6:
   \   0000016C   ....               LDR.N    R0,??DataTable39_14
   \   0000016E   0078               LDRB     R0,[R0, #+0]
   \   00000170   0128               CMP      R0,#+1
   \   00000172   17D1               BNE.N    ??Wifi_ProfileSetting_14
    866                         {
    867                              Setting_Step++;
   \   00000174   ....               LDR.N    R0,??DataTable39_31
   \   00000176   0078               LDRB     R0,[R0, #+0]
   \   00000178   401C               ADDS     R0,R0,#+1
   \   0000017A   ....               LDR.N    R1,??DataTable39_31
   \   0000017C   0870               STRB     R0,[R1, #+0]
    868                              Save_Step = WIFI_SETTING;
   \   0000017E   ....               LDR.N    R0,??DataTable39_30
   \   00000180   0221               MOVS     R1,#+2
   \   00000182   0170               STRB     R1,[R0, #+0]
    869                              Connectting_Count = 0;
   \   00000184   ....               LDR.N    R0,??DataTable39_28
   \   00000186   0021               MOVS     R1,#+0
   \   00000188   0170               STRB     R1,[R0, #+0]
    870                              Flag.Wifi_Check = 1;                    // 응답을 기다린다.
   \   0000018A   ....               LDR.N    R0,??DataTable39_7
   \   0000018C   0121               MOVS     R1,#+1
   \   0000018E   0171               STRB     R1,[R0, #+4]
    871                              WaitTimeCount = 0;                      // 재접속 시간 클리어    
   \   00000190   ....               LDR.N    R0,??DataTable39_27
   \   00000192   0021               MOVS     R1,#+0
   \   00000194   0170               STRB     R1,[R0, #+0]
    872                              if(Setting_Step == 10)
   \   00000196   ....               LDR.N    R0,??DataTable39_31
   \   00000198   0078               LDRB     R0,[R0, #+0]
   \   0000019A   0A28               CMP      R0,#+10
   \   0000019C   02D1               BNE.N    ??Wifi_ProfileSetting_14
    873                                   Save_Step = WIFI_COMPLETE;
   \   0000019E   ....               LDR.N    R0,??DataTable39_30
   \   000001A0   0421               MOVS     R1,#+4
   \   000001A2   0170               STRB     R1,[R0, #+0]
    874                         }
    875                         if( WaitTimeCount > 10 )
   \                     ??Wifi_ProfileSetting_14:
   \   000001A4   ....               LDR.N    R0,??DataTable39_27
   \   000001A6   0078               LDRB     R0,[R0, #+0]
   \   000001A8   0B28               CMP      R0,#+11
   \   000001AA   02D3               BCC.N    ??Wifi_ProfileSetting_15
    876                              Save_Step = WIFI_SETTING;
   \   000001AC   ....               LDR.N    R0,??DataTable39_30
   \   000001AE   0221               MOVS     R1,#+2
   \   000001B0   0170               STRB     R1,[R0, #+0]
    877                    }break;
   \                     ??Wifi_ProfileSetting_15:
   \   000001B2   0BE0               B.N      ??Wifi_ProfileSetting_7
    878               case WIFI_COMPLETE:
    879                    {
    880                         Voice_OutAdd(VOICE_UPDATEDONE);
   \                     ??Wifi_ProfileSetting_5:
   \   000001B4   0820               MOVS     R0,#+8
   \   000001B6   ........           BL       Voice_OutAdd
    881                         Input_Mode = 3;
   \   000001BA   ....               LDR.N    R0,??DataTable39_29
   \   000001BC   0321               MOVS     R1,#+3
   \   000001BE   0170               STRB     R1,[R0, #+0]
    882                         Flag.Wifi_SettingFlag = 0;
   \   000001C0   ....               LDR.N    R0,??DataTable39_7
   \   000001C2   0021               MOVS     R1,#+0
   \   000001C4   8173               STRB     R1,[R0, #+14]
    883                         Save_Step = WIFI_SAVE_INIT;
   \   000001C6   ....               LDR.N    R0,??DataTable39_30
   \   000001C8   0021               MOVS     R1,#+0
   \   000001CA   0170               STRB     R1,[R0, #+0]
    884          
    885                    }break;
    886               }
    887          }
   \                     ??Wifi_ProfileSetting_7:
   \                     ??Wifi_ProfileSetting_1:
   \   000001CC   0BB0               ADD      SP,SP,#+44
   \   000001CE   00BD               POP      {PC}             ;; return

   \                                 In section .bss, align 1
   \                     ??Setting_Step:
   \   00000000                      DS8 1

   \                                 In section .bss, align 1
   \                     ??Save_Step:
   \   00000000                      DS8 1

   \                                 In section .bss, align 1
   \                     ??WaitTimeCount_1:
   \   00000000                      DS8 1

   \                                 In section .bss, align 1
   \                     ??Connectting_Count_1:
   \   00000000                      DS8 1

   \                                 In section .text, align 4, keep-with-next
   \                     ??DataTable32:
   \   00000000   25730000           DC8      0x25, 0x73, 0x00, 0x00

   \                                 In section .text, align 4, keep-with-next
   \                     ??DataTable32_1:
   \   00000000   4F504300           DC8      "OPC"

   \                                 In section .text, align 4, keep-with-next
   \                     ??DataTable32_2:
   \   00000000   44415400           DC8      "DAT"

   \                                 In section .text, align 4, keep-with-next
   \                     ??DataTable32_3:
   \   00000000   4F505400           DC8      "OPT"

   \                                 In section .text, align 4, keep-with-next
   \                     ??DataTable35:
   \   00000000   00100240           DC32     0x40021000

   \                                 In section .text, align 4, keep-with-next
   \                     ??DataTable35_1:
   \   00000000   000C0240           DC32     0x40020c00

   \                                 In section .text, align 4, keep-with-next
   \                     ??DataTable35_2:
   \   00000000   ........           DC32     SFLASH_CarInfo+0x14

   \                                 In section .text, align 4, keep-with-next
   \                     ??DataTable35_3:
   \   00000000   ........           DC32     KMapSend+0x5

   \                                 In section .text, align 4, keep-with-next
   \                     ??DataTable35_4:
   \   00000000   ........           DC32     KMapSend+0x25

   \                                 In section .text, align 4, keep-with-next
   \                     ??DataTable35_5:
   \   00000000   ........           DC32     ??MessageSeq

   \                                 In section .text, align 4, keep-with-next
   \                     ??DataTable35_6:
   \   00000000   ........           DC32     KMapSend+0x29

   \                                 In section .text, align 4, keep-with-next
   \                     ??DataTable35_7:
   \   00000000   ........           DC32     KMapSend+0x35

   \                                 In section .text, align 4, keep-with-next
   \                     ??DataTable35_8:
   \   00000000   ........           DC32     KMapSend+0x39

   \                                 In section .text, align 4, keep-with-next
   \                     ??DataTable35_9:
   \   00000000   ........           DC32     KMapSend+0x3C

   \                                 In section .text, align 4, keep-with-next
   \                     ??DataTable35_10:
   \   00000000   ........           DC32     KMapSend+0x41

   \                                 In section .text, align 4, keep-with-next
   \                     ??DataTable35_11:
   \   00000000   ........           DC32     KMapSend+0x45

   \                                 In section .text, align 4, keep-with-next
   \                     ??DataTable35_12:
   \   00000000   ........           DC32     SFLASH_CarInfo+0x50

   \                                 In section .text, align 4, keep-with-next
   \                     ??DataTable35_13:
   \   00000000   ........           DC32     KMapSend+0x4C

   \                                 In section .text, align 4, keep-with-next
   \                     ??DataTable35_14:
   \   00000000   ........           DC32     `?<Constant "0000100">`

   \                                 In section .text, align 4, keep-with-next
   \                     ??DataTable35_15:
   \   00000000   ........           DC32     KMapSend+0x58

   \                                 In section .text, align 4, keep-with-next
   \                     ??DataTable35_16:
   \   00000000   ........           DC32     KMapSend_Div

   \                                 In section .text, align 4, keep-with-next
   \                     ??DataTable35_17:
   \   00000000   ........           DC32     KMapSend_Div+0x4

   \                                 In section .text, align 4, keep-with-next
   \                     ??DataTable35_18:
   \   00000000   ........           DC32     TLV_BUFFER

   \                                 In section .text, align 4, keep-with-next
   \                     ??DataTable35_19:
   \   00000000   ........           DC32     TLV_BUFFER+0x1

   \                                 In section .text, align 4, keep-with-next
   \                     ??DataTable35_20:
   \   00000000   ........           DC32     TLV_BUFFER+0xA

   \                                 In section .text, align 4, keep-with-next
   \                     ??DataTable35_21:
   \   00000000   ........           DC32     TLV_BUFFER+0x13

   \                                 In section .text, align 4, keep-with-next
   \                     ??DataTable36:
   \   00000000   ........           DC32     TLV_BUFFER+0x1A

   \                                 In section .text, align 4, keep-with-next
   \                     ??DataTable36_1:
   \   00000000   ........           DC32     TLV_BUFFER+0x21

   \                                 In section .text, align 4, keep-with-next
   \                     ??DataTable36_2:
   \   00000000   ........           DC32     TLV_BUFFER+0x28

   \                                 In section .text, align 4, keep-with-next
   \                     ??DataTable36_3:
   \   00000000   ........           DC32     TLV_BUFFER+0x2F

   \                                 In section .text, align 4, keep-with-next
   \                     ??DataTable36_4:
   \   00000000   ........           DC32     TLV_BUFFER+0x36

   \                                 In section .text, align 4, keep-with-next
   \                     ??DataTable36_5:
   \   00000000   ........           DC32     TLV_BUFFER+0x3D

   \                                 In section .text, align 4, keep-with-next
   \                     ??DataTable36_6:
   \   00000000   ........           DC32     TLV_BUFFER+0x46

   \                                 In section .text, align 4, keep-with-next
   \                     ??DataTable36_7:
   \   00000000   ........           DC32     TLV_BUFFER+0x4F

   \                                 In section .text, align 4, keep-with-next
   \                     ??DataTable36_8:
   \   00000000   ........           DC32     KMapSend+0x48

   \                                 In section .text, align 4, keep-with-next
   \                     ??DataTable36_9:
   \   00000000   80969800           DC32     0x989680

   \                                 In section .text, align 4, keep-with-next
   \                     ??DataTable37:
   \   00000000   ........           DC32     Wifi_Result

   \                                 In section .text, align 4, keep-with-next
   \                     ??DataTable37_1:
   \   00000000   ........           DC32     KMapSend

   \                                 In section .text, align 4, keep-with-next
   \                     ??DataTable37_2:
   \   00000000   ........           DC32     KMap_Transmit_Count

   \                                 In section .text, align 4, keep-with-next
   \                     ??DataTable37_3:
   \   00000000   00002041           DC32     0x41200000

   \                                 In section .text, align 4, keep-with-next
   \                     ??DataTable37_4:
   \   00000000   ........           DC32     `?<Constant "%02d%02d%02d%02d%02d%...">`

   \                                 In section .text, align 4, keep-with-next
   \                     ??DataTable37_5:
   \   00000000   ........           DC32     Buffer

   \                                 In section .text, align 4, keep-with-next
   \                     ??DataTable37_6:
   \   00000000   ........           DC32     DTG_LOOP

   \                                 In section .text, align 4, keep-with-next
   \                     ??DataTable37_7:
   \   00000000   ........           DC32     NAND_Buffer

   \                                 In section .text, align 4, keep-with-next
   \                     ??DataTable37_8:
   \   00000000   ........           DC32     TLV_BUFFER+0x5

   \                                 In section .text, align 4, keep-with-next
   \                     ??DataTable37_9:
   \   00000000   ........           DC32     TLV_BUFFER+0xE

   \                                 In section .text, align 4, keep-with-next
   \                     ??DataTable37_10:
   \   00000000   ........           DC32     TLV_BUFFER+0x17

   \                                 In section .text, align 4, keep-with-next
   \                     ??DataTable37_11:
   \   00000000   ........           DC32     Info

   \                                 In section .text, align 4, keep-with-next
   \                     ??DataTable37_12:
   \   00000000   ........           DC32     TLV_BUFFER+0x1E

   \                                 In section .text, align 4, keep-with-next
   \                     ??DataTable37_13:
   \   00000000   ........           DC32     TLV_BUFFER+0x25

   \                                 In section .text, align 4, keep-with-next
   \                     ??DataTable37_14:
   \   00000000   ........           DC32     TLV_BUFFER+0x2C

   \                                 In section .text, align 4, keep-with-next
   \                     ??DataTable37_15:
   \   00000000   ........           DC32     TLV_BUFFER+0x33

   \                                 In section .text, align 4, keep-with-next
   \                     ??DataTable37_16:
   \   00000000   ........           DC32     TLV_BUFFER+0x3A

   \                                 In section .text, align 4, keep-with-next
   \                     ??DataTable37_17:
   \   00000000   ........           DC32     TLV_BUFFER+0x41

   \                                 In section .text, align 4, keep-with-next
   \                     ??DataTable37_18:
   \   00000000   ........           DC32     TLV_BUFFER+0x4A

   \                                 In section .text, align 4, keep-with-next
   \                     ??DataTable37_19:
   \   00000000   ........           DC32     TLV_BUFFER+0x53

   \                                 In section .text, align 4, keep-with-next
   \                     ??DataTable37_20:
   \   00000000   ........           DC32     TLV_LOOP

   \                                 In section .text, align 4, keep-with-next
   \                     ??DataTable37_21:
   \   00000000   ........           DC32     Trans_PageCount

   \                                 In section .text, align 4, keep-with-next
   \                     ??DataTable37_22:
   \   00000000   ........           DC32     ??SeqeunMsg

   \                                 In section .text, align 4, keep-with-next
   \                     ??DataTable37_23:
   \   00000000   ........           DC32     KMapSend+0x60

   \                                 In section .text, align 4, keep-with-next
   \                     ??DataTable37_24:
   \   00000000   ........           DC32     KMapSend+0x31

   \                                 In section .text, align 4, keep-with-next
   \                     ??DataTable37_25:
   \   00000000   ........           DC32     KMapSend_Div+0x7

   \                                 In section .text, align 4, keep-with-next
   \                     ??DataTable37_26:
   \   00000000   ........           DC32     Tx_RFBuffer

   \                                 In section .text, align 4, keep-with-next
   \                     ??DataTable38:
   \   00000000   25630000           DC8      0x25, 0x63, 0x00, 0x00

   \                                 In section .text, align 4, keep-with-next
   \                     `?<Constant "0000100">`:
   \   00000000                      ; Initializer data, 8 bytes
   \   00000000   303030303130       DC8 48, 48, 48, 48, 49, 48, 48, 0
   \              3000        

   \                                 In section .text, align 4, keep-with-next
   \                     ??DataTable39:
   \   00000000   ........           DC32     KMap_Transmit_Count

   \                                 In section .text, align 4, keep-with-next
   \                     ??DataTable39_1:
   \   00000000   ........           DC32     ??SeqeunMsg_1

   \                                 In section .text, align 4, keep-with-next
   \                     ??DataTable39_2:
   \   00000000   6EA301BC           DC32     0xbc01a36e

   \                                 In section .text, align 4, keep-with-next
   \                     ??DataTable39_3:
   \   00000000   0512843F           DC32     0x3f841205

   \                                 In section .text, align 4, keep-with-next
   \                     ??DataTable39_4:
   \   00000000   ........           DC32     ??SeqeunMsg_2

   \                                 In section .text, align 4, keep-with-next
   \                     ??DataTable39_5:
   \   00000000   ........           DC32     ??Wifi_MainTimer2

   \                                 In section .text, align 4, keep-with-next
   \                     ??DataTable39_6:
   \   00000000   000C0040           DC32     0x40000c00

   \                                 In section .text, align 4, keep-with-next
   \                     ??DataTable39_7:
   \   00000000   ........           DC32     Flag

   \                                 In section .text, align 4, keep-with-next
   \                     ??DataTable39_8:
   \   00000000   ........           DC32     ??Wifi_MainTimer

   \                                 In section .text, align 4, keep-with-next
   \                     ??DataTable39_9:
   \   00000000   ........           DC32     ??Connectting_Count

   \                                 In section .text, align 4, keep-with-next
   \                     ??DataTable39_10:
   \   00000000   ........           DC32     WIFI_TestMode

   \                                 In section .text, align 4, keep-with-next
   \                     ??DataTable39_11:
   \   00000000   ........           DC32     ??WaitTimeCount

   \                                 In section .text, align 4, keep-with-next
   \                     ??DataTable39_12:
   \   00000000   ........           DC32     Wifi_SettingString

   \                                 In section .text, align 4, keep-with-next
   \                     ??DataTable39_13:
   \   00000000   ........           DC32     RF_Module

   \                                 In section .text, align 4, keep-with-next
   \                     ??DataTable39_14:
   \   00000000   ........           DC32     Wifi_OK

   \                                 In section .text, align 4, keep-with-next
   \                     ??DataTable39_15:
   \   00000000   ........           DC32     Wifi_Send_Result

   \                                 In section .text, align 4, keep-with-next
   \                     ??DataTable39_16:
   \   00000000   ........           DC32     NAND_Data_Transmit

   \                                 In section .text, align 4, keep-with-next
   \                     ??DataTable39_17:
   \   00000000   ........           DC32     RF_Module+0x40B

   \                                 In section .text, align 4, keep-with-next
   \                     ??DataTable39_18:
   \   00000000   ........           DC32     ??Trans_Count

   \                                 In section .text, align 4, keep-with-next
   \                     ??DataTable39_19:
   \   00000000   ........           DC32     ??ReSend_Timer

   \                                 In section .text, align 4, keep-with-next
   \                     ??DataTable39_20:
   \   00000000   ........           DC32     ??FirstReceive

   \                                 In section .text, align 4, keep-with-next
   \                     ??DataTable39_21:
   \   00000000   ........           DC32     ??Wait_Timer

   \                                 In section .text, align 4, keep-with-next
   \                     ??DataTable39_22:
   \   00000000   ........           DC32     Rx_RFBuffer

   \                                 In section .text, align 4, keep-with-next
   \                     ??DataTable39_23:
   \   00000000   ........           DC32     Rx_RFCount

   \                                 In section .text, align 4, keep-with-next
   \                     ??DataTable39_24:
   \   00000000   ........           DC32     ??Rx_StartPoint

   \                                 In section .text, align 4, keep-with-next
   \                     ??DataTable39_25:
   \   00000000   ........           DC32     Protocol_Rev

   \                                 In section .text, align 4, keep-with-next
   \                     ??DataTable39_26:
   \   00000000   ........           DC32     Protocol_Rev+0x4C

   \                                 In section .text, align 4, keep-with-next
   \                     ??DataTable39_27:
   \   00000000   ........           DC32     ??WaitTimeCount_1

   \                                 In section .text, align 4, keep-with-next
   \                     ??DataTable39_28:
   \   00000000   ........           DC32     ??Connectting_Count_1

   \                                 In section .text, align 4, keep-with-next
   \                     ??DataTable39_29:
   \   00000000   ........           DC32     Input_Mode

   \                                 In section .text, align 4, keep-with-next
   \                     ??DataTable39_30:
   \   00000000   ........           DC32     ??Save_Step

   \                                 In section .text, align 4, keep-with-next
   \                     ??DataTable39_31:
   \   00000000   ........           DC32     ??Setting_Step

   \                                 In section .text, align 4, keep-with-next
   \                     ??DataTable39_32:
   \   00000000   ........           DC32     SFLASH_Wifi+0x42

   \                                 In section .text, align 4, keep-with-next
   \                     ??DataTable39_33:
   \   00000000   ........           DC32     SFLASH_Wifi+0x32

   \                                 In section .text, align 4, keep-with-next
   \                     ??DataTable39_34:
   \   00000000   ........           DC32     Buffer

   \                                 In section .text, align 4, keep-with-next
   \                     ??DataTable39_35:
   \   00000000   ........           DC32     SFLASH_Wifi

   \                                 In section .text, align 4, keep-with-next
   \                     ??DataTable39_36:
   \   00000000   ........           DC32     SFLASH_Wifi+0x1E

   \                                 In section .text, align 4, keep-with-next
   \                     `?<Constant "AT\\r">`:
   \   00000000                      ; Initializer data, 4 bytes
   \   00000000   41540D00           DC8 65, 84, 13, 0

   \                                 In section .text, align 4, keep-with-next
   \                     `?<Constant "+++\\r">`:
   \   00000000                      ; Initializer data, 8 bytes
   \   00000000   2B2B2B0D0000       DC8 43, 43, 43, 13, 0, 0, 0, 0
   \              0000        

   \                                 In section .text, align 4, keep-with-next
   \                     `?<Constant "AT+WS=\\r">`:
   \   00000000                      ; Initializer data, 8 bytes
   \   00000000   41542B57533D       DC8 65, 84, 43, 87, 83, 61, 13, 0
   \              0D00        

   \                                 In section .text, align 4, keep-with-next
   \                     `?<Constant "AT+WD\\r">`:
   \   00000000                      ; Initializer data, 8 bytes
   \   00000000   41542B57440D       DC8 65, 84, 43, 87, 68, 13, 0, 0
   \              0000        

   \                                 In section .text, align 4, keep-with-next
   \                     `?<Constant "AT+WAUTH=0\\r">`:
   \   00000000                      ; Initializer data, 12 bytes
   \   00000000   41542B574155       DC8 65, 84, 43, 87, 65, 85, 84, 72, 61, 48
   \              54483D30    
   \   0000000A   0D00               DC8 13, 0

   \                                 In section .text, align 4, keep-with-next
   \                     `?<Constant "%02d%02d%02d%02d%02d%...">`:
   \   00000000                      ; Initializer data, 84 bytes
   \   00000000   253032642530       DC8 37, 48, 50, 100, 37, 48, 50, 100, 37, 48
   \              32642530    
   \   0000000A   326425303264       DC8 50, 100, 37, 48, 50, 100, 37, 48, 50, 100
   \              25303264    
   \   00000014   253032643030       DC8 37, 48, 50, 100, 48, 48, 37, 48, 52, 100
   \              25303464    
   \   0000001E   253037642530       DC8 37, 48, 55, 100, 37, 48, 51, 100, 37, 48
   \              33642530    
   \   00000028   346425642530       DC8 52, 100, 37, 100, 37, 48, 52, 46, 49, 102
   \              342E3166    
   \   00000032   253039642530       DC8 37, 48, 57, 100, 37, 48, 57, 100, 37, 48
   \              39642530    
   \   0000003C   3364252B3036       DC8 51, 100, 37, 43, 48, 54, 46, 49, 102, 37
   \              2E316625    
   \   00000046   2B30362E3166       DC8 43, 48, 54, 46, 49, 102, 37, 48, 50, 100
   \              25303264    
   \   00000050   00000000           DC8 0, 0, 0, 0

   \                                 In section .text, align 4, keep-with-next
   \                     `?<Constant "AT+NDHCP=1\\r">`:
   \   00000000                      ; Initializer data, 12 bytes
   \   00000000   41542B4E4448       DC8 65, 84, 43, 78, 68, 72, 67, 80, 61, 49
   \              43503D31    
   \   0000000A   0D00               DC8 13, 0

   \                                 In section .text, align 4, keep-with-next
   \                     `?<Constant "AT+XDUM=1\\r">`:
   \   00000000                      ; Initializer data, 12 bytes
   \   00000000   41542B584455       DC8 65, 84, 43, 88, 68, 85, 77, 61, 49, 13
   \              4D3D310D    
   \   0000000A   0000               DC8 0, 0

   \                                 In section .text, align 4, keep-with-next
   \                     `?<Constant "AT+XEHT=0\\r">`:
   \   00000000                      ; Initializer data, 12 bytes
   \   00000000   41542B584548       DC8 65, 84, 43, 88, 69, 72, 84, 61, 48, 13
   \              543D300D    
   \   0000000A   0000               DC8 0, 0

   \                                 In section .text, align 4, keep-with-next
   \                     `?<Constant "ATC0\\r">`:
   \   00000000                      ; Initializer data, 8 bytes
   \   00000000   415443300D00       DC8 65, 84, 67, 48, 13, 0, 0, 0
   \              0000        

   \                                 In section .text, align 4, keep-with-next
   \                     `?<Constant "AT+NAUTO=0,1,">`:
   \   00000000                      ; Initializer data, 16 bytes
   \   00000000   41542B4E4155       DC8 65, 84, 43, 78, 65, 85, 84, 79, 61, 48
   \              544F3D30    
   \   0000000A   2C312C000000       DC8 44, 49, 44, 0, 0, 0

   \                                 In section .text, align 4, keep-with-next
   \                     `?<Constant "AT+WAUTO=0,">`:
   \   00000000                      ; Initializer data, 12 bytes
   \   00000000   41542B574155       DC8 65, 84, 43, 87, 65, 85, 84, 79, 61, 48
   \              544F3D30    
   \   0000000A   2C00               DC8 44, 0

   \                                 In section .text, align 4, keep-with-next
   \                     `?<Constant "AT+WWPA=">`:
   \   00000000                      ; Initializer data, 12 bytes
   \   00000000   41542B575750       DC8 65, 84, 43, 87, 87, 80, 65, 61, 0, 0
   \              413D0000    
   \   0000000A   0000               DC8 0, 0

   \                                 In section .text, align 4, keep-with-next
   \                     `?<Constant "AT&W0\\r">`:
   \   00000000                      ; Initializer data, 8 bytes
   \   00000000   41542657300D       DC8 65, 84, 38, 87, 48, 13, 0, 0
   \              0000        

   \                                 In section .text, align 4, keep-with-next
   \                     `?<Constant "ATA\\r">`:
   \   00000000                      ; Initializer data, 8 bytes
   \   00000000   4154410D0000       DC8 65, 84, 65, 13, 0, 0, 0, 0
   \              0000        

   \                                 In section .text, align 4, keep-with-next
   \                     `?<Constant "AT+WA=">`:
   \   00000000                      ; Initializer data, 8 bytes
   \   00000000   41542B57413D       DC8 65, 84, 43, 87, 65, 61, 0, 0
   \              0000        

   \                                 In section .text, align 4, keep-with-next
   \                     `?<Constant "%s">`:
   \   00000000                      ; Initializer data, 4 bytes
   \   00000000   25730000           DC8 37, 115, 0, 0

   \                                 In section .text, align 4, keep-with-next
   \                     `?<Constant "OPC">`:
   \   00000000                      ; Initializer data, 4 bytes
   \   00000000   4F504300           DC8 79, 80, 67, 0

   \                                 In section .text, align 4, keep-with-next
   \                     `?<Constant "DAT">`:
   \   00000000                      ; Initializer data, 4 bytes
   \   00000000   44415400           DC8 68, 65, 84, 0

   \                                 In section .text, align 4, keep-with-next
   \                     `?<Constant "OPT">`:
   \   00000000                      ; Initializer data, 4 bytes
   \   00000000   4F505400           DC8 79, 80, 84, 0

   \                                 In section .text, align 4, keep-with-next
   \                     `?<Constant {0}>`:
   \   00000000                      ; Initializer data, 4 bytes
   \   00000000   00000000           DC8 0, 0, 0, 0

   \                                 In section .text, align 4, keep-with-next
   \                     `?<Constant {0}>_1`:
   \   00000000                      ; Initializer data, 4 bytes
   \   00000000   00000000           DC8 0, 0, 0, 0

   \                                 In section .text, align 4, keep-with-next
   \                     `?<Constant "%c">`:
   \   00000000                      ; Initializer data, 4 bytes
   \   00000000   25630000           DC8 37, 99, 0, 0

   \                                 In section .text, align 4, keep-with-next
   \                     `?<Constant "[OK]">`:
   \   00000000                      ; Initializer data, 8 bytes
   \   00000000   5B4F4B5D0000       DC8 91, 79, 75, 93, 0, 0, 0, 0
   \              0000        

   \                                 In section .text, align 4, keep-with-next
   \                     `?<Constant {0, 4, 5, 6, 7, 8, 9, 10, 11, 12}>`:
   \   00000000                      ; Initializer data, 40 bytes
   \   00000000   000000000400       DC32 0, 4, 5, 6, 7, 8, 9, 10, 11, 12
   \              000005000000
   \              060000000700
   \              000008000000
   \              090000000A00
   \              00000B000000
   \              0C000000    

   \                                 In section .text, align 4, keep-with-next
   \                     `?<Constant "%s%s,%s\\r">`:
   \   00000000                      ; Initializer data, 12 bytes
   \   00000000   257325732C25       DC8 37, 115, 37, 115, 44, 37, 115, 13, 0, 0
   \              730D0000    
   \   0000000A   0000               DC8 0, 0

   \                                 In section .text, align 4, keep-with-next
   \                     `?<Constant "%s%s\\r">`:
   \   00000000                      ; Initializer data, 8 bytes
   \   00000000   257325730D00       DC8 37, 115, 37, 115, 13, 0, 0, 0
   \              0000        

   Maximum stack usage in bytes:

     Function            .cstack
     --------            -------
     ConvertInteger           0
     ConvertString            0
     ConvertString2           0
     EMS_Setting            256
     IsTCP_Connect            8
     KMap_Setting           296
     Kmap_init                8
     ModaSend              6768
     RF_Communcation          8
     WIFI_RESET_OFF           8
     WIFI_RESET_ON            8
     Wifi_Config             16
     Wifi_Process             8
     Wifi_ProfileSetting     48
     Wifi_Reset               8
     Wifi_Send                8
     memcpy                   8
     memset                   8
     strstr                   8


   Section sizes:

     Function/Label                                Bytes
     --------------                                -----
     memcpy                                          14
     memset                                          20
     strstr                                           8
     IsTCP_Connect                                   24
     WIFI_RESET_ON                                   14
     WIFI_RESET_OFF                                  14
     TLV_BUFFER                                      88
     TLV_LOOP                                      7652
     DTG_LOOP                                      6480
     Tx_RFBuffer                                   7000
     Rx_RFBuffer                                    500
     Rx_RFCount                                       2
     Wifi_Timer                                       2
     Wifi_OK                                          1
     Wifi_Send_Result                                 1
     Protocol_Rev                                    84
     Wifi_Result                                      1
     Trans_PageCount                                  2
     KMapSend                                       104
     KMapSend_Div                                    12
     Wifi_SettingString                              80
     Wifi_Reset                                      18
     Wifi_Config                                     98
     ConvertString                                   16
     ConvertInteger                                  28
     ConvertString2                                   8
     Kmap_init                                      494
     MessageSeq                                       1
     EMS_Setting                                    790
     SeqeunMsg                                        4
     KMap_Setting                                   842
     SeqeunMsg                                        4
     ModaSend                                       492
     SeqeunMsg                                        4
     Wifi_Process                                   550
     Wifi_MainTimer                                   2
     Wifi_MainTimer2                                  2
     Connectting_Count                                1
     WaitTimeCount                                    1
     Wifi_Send                                      286
     Trans_Count                                      4
     ReSend_Timer                                     2
     RF_Communcation                                566
     Rx_StartPoint                                    2
     Wait_Timer                                       2
     FirstReceive                                     1
     Wifi_ProfileSetting                            464
     Setting_Step                                     1
     Save_Step                                        1
     WaitTimeCount                                    1
     Connectting_Count                                1
     ??DataTable32                                    4
     ??DataTable32_1                                  4
     ??DataTable32_2                                  4
     ??DataTable32_3                                  4
     ??DataTable35                                    4
     ??DataTable35_1                                  4
     ??DataTable35_2                                  4
     ??DataTable35_3                                  4
     ??DataTable35_4                                  4
     ??DataTable35_5                                  4
     ??DataTable35_6                                  4
     ??DataTable35_7                                  4
     ??DataTable35_8                                  4
     ??DataTable35_9                                  4
     ??DataTable35_10                                 4
     ??DataTable35_11                                 4
     ??DataTable35_12                                 4
     ??DataTable35_13                                 4
     ??DataTable35_14                                 4
     ??DataTable35_15                                 4
     ??DataTable35_16                                 4
     ??DataTable35_17                                 4
     ??DataTable35_18                                 4
     ??DataTable35_19                                 4
     ??DataTable35_20                                 4
     ??DataTable35_21                                 4
     ??DataTable36                                    4
     ??DataTable36_1                                  4
     ??DataTable36_2                                  4
     ??DataTable36_3                                  4
     ??DataTable36_4                                  4
     ??DataTable36_5                                  4
     ??DataTable36_6                                  4
     ??DataTable36_7                                  4
     ??DataTable36_8                                  4
     ??DataTable36_9                                  4
     ??DataTable37                                    4
     ??DataTable37_1                                  4
     ??DataTable37_2                                  4
     ??DataTable37_3                                  4
     ??DataTable37_4                                  4
     ??DataTable37_5                                  4
     ??DataTable37_6                                  4
     ??DataTable37_7                                  4
     ??DataTable37_8                                  4
     ??DataTable37_9                                  4
     ??DataTable37_10                                 4
     ??DataTable37_11                                 4
     ??DataTable37_12                                 4
     ??DataTable37_13                                 4
     ??DataTable37_14                                 4
     ??DataTable37_15                                 4
     ??DataTable37_16                                 4
     ??DataTable37_17                                 4
     ??DataTable37_18                                 4
     ??DataTable37_19                                 4
     ??DataTable37_20                                 4
     ??DataTable37_21                                 4
     ??DataTable37_22                                 4
     ??DataTable37_23                                 4
     ??DataTable37_24                                 4
     ??DataTable37_25                                 4
     ??DataTable37_26                                 4
     ??DataTable38                                    4
     ?<Constant "0000100">                            8
     ??DataTable39                                    4
     ??DataTable39_1                                  4
     ??DataTable39_2                                  4
     ??DataTable39_3                                  4
     ??DataTable39_4                                  4
     ??DataTable39_5                                  4
     ??DataTable39_6                                  4
     ??DataTable39_7                                  4
     ??DataTable39_8                                  4
     ??DataTable39_9                                  4
     ??DataTable39_10                                 4
     ??DataTable39_11                                 4
     ??DataTable39_12                                 4
     ??DataTable39_13                                 4
     ??DataTable39_14                                 4
     ??DataTable39_15                                 4
     ??DataTable39_16                                 4
     ??DataTable39_17                                 4
     ??DataTable39_18                                 4
     ??DataTable39_19                                 4
     ??DataTable39_20                                 4
     ??DataTable39_21                                 4
     ??DataTable39_22                                 4
     ??DataTable39_23                                 4
     ??DataTable39_24                                 4
     ??DataTable39_25                                 4
     ??DataTable39_26                                 4
     ??DataTable39_27                                 4
     ??DataTable39_28                                 4
     ??DataTable39_29                                 4
     ??DataTable39_30                                 4
     ??DataTable39_31                                 4
     ??DataTable39_32                                 4
     ??DataTable39_33                                 4
     ??DataTable39_34                                 4
     ??DataTable39_35                                 4
     ??DataTable39_36                                 4
     ?<Constant "AT\r">                               4
     ?<Constant "+++\r">                              8
     ?<Constant "AT+WS=\r">                           8
     ?<Constant "AT+WD\r">                            8
     ?<Constant "AT+WAUTH=0\r">                      12
     ?<Constant "%02d%02d%02d%02d%02d%...">          84
     ?<Constant "AT+NDHCP=1\r">                      12
     ?<Constant "AT+XDUM=1\r">                       12
     ?<Constant "AT+XEHT=0\r">                       12
     ?<Constant "ATC0\r">                             8
     ?<Constant "AT+NAUTO=0,1,">                     16
     ?<Constant "AT+WAUTO=0,">                       12
     ?<Constant "AT+WWPA=">                          12
     ?<Constant "AT&W0\r">                            8
     ?<Constant "ATA\r">                              8
     ?<Constant "AT+WA=">                             8
     ?<Constant "%s">                                 4
     ?<Constant "OPC">                                4
     ?<Constant "DAT">                                4
     ?<Constant "OPT">                                4
     ?<Constant {0}>                                  4
     ?<Constant {0}>_1                                4
     ?<Constant "%c">                                 4
     ?<Constant "[OK]">                               8
     ?<Constant {0, 4, 5, 6, 7, 8, 9, 10, 11, 12}>   40
     ?<Constant "%s%s,%s\r">                         12
     ?<Constant "%s%s\r">                             8

 
 21 951 bytes in section .bss
     92 bytes in section .data
  5 486 bytes in section .text
 
  5 444 bytes of CODE memory (+ 42 bytes shared)
 22 043 bytes of DATA memory

Errors: none
Warnings: 4
